(lp0
(istructures.sensor
Sensor
p1
(dp2
S'rhs'
p3
(istructures.sensor
Sensor
p4
(dp5
g3
(istructures.sensor
Sensor
p6
(dp7
g3
(istructures.sensor
Sensor
p8
(dp9
g3
NsS'lhs'
p10
S'do-close_sd6-condeffs'
p11
sS'op'
p12
Nsbsg10
(istructures.sensor
Sensor
p13
(dp14
g3
Nsg10
S'do-close_sd3-condeffs'
p15
sg12
Nsbsg12
S'^'
p16
sbsg10
(istructures.sensor
Sensor
p17
(dp18
g3
Nsg10
(S'not-closed-cb1'
p19
tp20
sg12
Nsbsg12
I7
sbsg10
(istructures.sensor
Sensor
p21
(dp22
g3
Nsg10
(istructures.sensor
Sensor
p23
(dp24
g3
(istructures.sensor
Sensor
p25
(dp26
g3
Nsg10
S'done-0'
p27
sg12
Nsbsg10
(istructures.sensor
Sensor
p28
(dp29
g3
Nsg10
S'closed-sd1'
p30
sg12
Nsbsg12
g16
sbsg12
S'-'
p31
sbsg12
S'v'
p32
sba(istructures.sensor
Sensor
p33
(dp34
g3
Nsg10
(g11
tp35
sg12
Nsba(istructures.sensor
Sensor
p36
(dp37
g3
(istructures.sensor
Sensor
p38
(dp39
g3
(istructures.sensor
Sensor
p40
(dp41
g3
(istructures.sensor
Sensor
p42
(dp43
g3
Nsg10
g27
sg12
Nsbsg10
(istructures.sensor
Sensor
p44
(dp45
g3
Nsg10
S'not-closed-sd2'
p46
sg12
Nsbsg12
I10
sbsg10
(istructures.sensor
Sensor
p47
(dp48
g3
(istructures.sensor
Sensor
p49
(dp50
g3
Nsg10
S'closed-sd4'
p51
sg12
Nsbsg10
(istructures.sensor
Sensor
p52
(dp53
g3
Nsg10
S'done-1'
p54
sg12
Nsbsg12
g16
sbsg12
g16
sbsg10
(istructures.sensor
Sensor
p55
(dp56
g3
Nsg10
(g27
tp57
sg12
Nsbsg12
g32
sba(istructures.sensor
Sensor
p58
(dp59
g3
(istructures.sensor
Sensor
p60
(dp61
g3
Nsg10
(S'not-closed-sd5'
p62
tp63
sg12
Nsbsg10
(istructures.sensor
Sensor
p64
(dp65
g3
Nsg10
(S'updated-cb1'
p66
tp67
sg12
Nsbsg12
g16
sba(istructures.sensor
Sensor
p68
(dp69
g3
Nsg10
(istructures.sensor
Sensor
p70
(dp71
g3
(istructures.sensor
Sensor
p72
(dp73
g3
(istructures.sensor
Sensor
p74
(dp75
g3
Nsg10
S'closed-sd3'
p76
sg12
Nsbsg10
(istructures.sensor
Sensor
p77
(dp78
g3
Nsg10
g76
sg12
Nsbsg12
g16
sbsg10
(istructures.sensor
Sensor
p79
(dp80
g3
Nsg10
(istructures.sensor
Sensor
p81
(dp82
g3
Nsg10
S'not-closed-sd1'
p83
sg12
Nsbsg12
g31
sbsg12
g32
sbsg12
g31
sba(istructures.sensor
Sensor
p84
(dp85
g3
Nsg10
(S'closed-cb1'
p86
tp87
sg12
Nsba(istructures.sensor
Sensor
p88
(dp89
g3
(istructures.sensor
Sensor
p90
(dp91
g3
(istructures.sensor
Sensor
p92
(dp93
g3
(istructures.sensor
Sensor
p94
(dp95
g3
Nsg10
S'not-closed-sd3'
p96
sg12
Nsbsg10
(istructures.sensor
Sensor
p97
(dp98
g3
Nsg10
S'not-closed-sd4'
p99
sg12
Nsbsg12
g32
sbsg10
(istructures.sensor
Sensor
p100
(dp101
g3
(istructures.sensor
Sensor
p102
(dp103
g3
Nsg10
S'closed-sd2'
p104
sg12
Nsbsg10
(istructures.sensor
Sensor
p105
(dp106
g3
Nsg10
g30
sg12
Nsbsg12
I9
sbsg12
g32
sbsg10
(istructures.sensor
Sensor
p107
(dp108
g3
(istructures.sensor
Sensor
p109
(dp110
g3
(istructures.sensor
Sensor
p111
(dp112
g3
Nsg10
S'closed-sd7'
p113
sg12
Nsbsg10
(istructures.sensor
Sensor
p114
(dp115
g3
Nsg10
S'closed-sd6'
p116
sg12
Nsbsg12
g32
sbsg10
(istructures.sensor
Sensor
p117
(dp118
g3
(istructures.sensor
Sensor
p119
(dp120
g3
Nsg10
g113
sg12
Nsbsg10
(istructures.sensor
Sensor
p121
(dp122
g3
Nsg10
g46
sg12
Nsbsg12
g16
sbsg12
I1
sbsg12
I6
sba(istructures.sensor
Sensor
p123
(dp124
g3
(istructures.sensor
Sensor
p125
(dp126
g3
(istructures.sensor
Sensor
p127
(dp128
g3
(istructures.sensor
Sensor
p129
(dp130
g3
Nsg10
g99
sg12
Nsbsg10
(istructures.sensor
Sensor
p131
(dp132
g3
Nsg10
g54
sg12
Nsbsg12
g16
sbsg10
(istructures.sensor
Sensor
p133
(dp134
g3
(istructures.sensor
Sensor
p135
(dp136
g3
Nsg10
g46
sg12
Nsbsg10
(istructures.sensor
Sensor
p137
(dp138
g3
Nsg10
S'do-wait_cb1-condeffs'
p139
sg12
Nsbsg12
I9
sbsg12
g16
sbsg10
(istructures.sensor
Sensor
p140
(dp141
g3
(istructures.sensor
Sensor
p142
(dp143
g3
(istructures.sensor
Sensor
p144
(dp145
g3
Nsg10
g11
sg12
Nsbsg10
(istructures.sensor
Sensor
p146
(dp147
g3
Nsg10
g113
sg12
Nsbsg12
I5
sbsg10
(istructures.sensor
Sensor
p148
(dp149
g3
Nsg10
(g46
tp150
sg12
Nsbsg12
g32
sbsg12
g16
sba(istructures.sensor
Sensor
p151
(dp152
g3
(istructures.sensor
Sensor
p153
(dp154
g3
(istructures.sensor
Sensor
p155
(dp156
g3
(istructures.sensor
Sensor
p157
(dp158
g3
Nsg10
g11
sg12
Nsbsg10
(istructures.sensor
Sensor
p159
(dp160
g3
Nsg10
g99
sg12
Nsbsg12
I4
sbsg10
(istructures.sensor
Sensor
p161
(dp162
g3
Nsg10
(g99
tp163
sg12
Nsbsg12
g16
sbsg10
(istructures.sensor
Sensor
p164
(dp165
g3
(istructures.sensor
Sensor
p166
(dp167
g3
(istructures.sensor
Sensor
p168
(dp169
g3
Nsg10
g86
sg12
Nsbsg10
(istructures.sensor
Sensor
p170
(dp171
g3
Nsg10
g83
sg12
Nsbsg12
g32
sbsg10
(istructures.sensor
Sensor
p172
(dp173
g3
(istructures.sensor
Sensor
p174
(dp175
g3
Nsg10
g62
sg12
Nsbsg10
(istructures.sensor
Sensor
p176
(dp177
g3
Nsg10
S'closed-sd5'
p178
sg12
Nsbsg12
g32
sbsg12
g16
sbsg12
g16
sba(istructures.sensor
Sensor
p179
(dp180
g3
(istructures.sensor
Sensor
p181
(dp182
g3
(istructures.sensor
Sensor
p183
(dp184
g3
(istructures.sensor
Sensor
p185
(dp186
g3
Nsg10
g27
sg12
Nsbsg10
(istructures.sensor
Sensor
p187
(dp188
g3
Nsg10
g62
sg12
Nsbsg12
I2
sbsg10
(istructures.sensor
Sensor
p189
(dp190
g3
Nsg10
(g15
tp191
sg12
Nsbsg12
g32
sbsg10
(istructures.sensor
Sensor
p192
(dp193
g3
Nsg10
(g83
tp194
sg12
Nsbsg12
g32
sba(istructures.sensor
Sensor
p195
(dp196
g3
(istructures.sensor
Sensor
p197
(dp198
g3
(istructures.sensor
Sensor
p199
(dp200
g3
(istructures.sensor
Sensor
p201
(dp202
g3
Nsg10
g76
sg12
Nsbsg10
(istructures.sensor
Sensor
p203
(dp204
g3
Nsg10
g104
sg12
Nsbsg12
g16
sbsg10
(istructures.sensor
Sensor
p205
(dp206
g3
Nsg10
(istructures.sensor
Sensor
p207
(dp208
g3
Nsg10
g113
sg12
Nsbsg12
g31
sbsg12
g16
sbsg10
(istructures.sensor
Sensor
p209
(dp210
g3
(istructures.sensor
Sensor
p211
(dp212
g3
(istructures.sensor
Sensor
p213
(dp214
g3
Nsg10
g113
sg12
Nsbsg10
(istructures.sensor
Sensor
p215
(dp216
g3
Nsg10
g99
sg12
Nsbsg12
g32
sbsg10
(istructures.sensor
Sensor
p217
(dp218
g3
(istructures.sensor
Sensor
p219
(dp220
g3
Nsg10
g54
sg12
Nsbsg10
(istructures.sensor
Sensor
p221
(dp222
g3
Nsg10
S'not-closed-sd7'
p223
sg12
Nsbsg12
g16
sbsg12
g32
sbsg12
g16
sba(istructures.sensor
Sensor
p224
(dp225
g3
(istructures.sensor
Sensor
p226
(dp227
g3
Nsg10
(g51
tp228
sg12
Nsbsg10
(istructures.sensor
Sensor
p229
(dp230
g3
(istructures.sensor
Sensor
p231
(dp232
g3
Nsg10
(g104
tp233
sg12
Nsbsg10
(istructures.sensor
Sensor
p234
(dp235
g3
(istructures.sensor
Sensor
p236
(dp237
g3
Nsg10
g15
sg12
Nsbsg10
(istructures.sensor
Sensor
p238
(dp239
g3
Nsg10
g76
sg12
Nsbsg12
g32
sbsg12
g16
sbsg12
g16
sba(istructures.sensor
Sensor
p240
(dp241
g3
Nsg10
(g54
tp242
sg12
Nsba(istructures.sensor
Sensor
p243
(dp244
g3
(istructures.sensor
Sensor
p245
(dp246
g3
Nsg10
(g15
tp247
sg12
Nsbsg10
(istructures.sensor
Sensor
p248
(dp249
g3
Nsg10
(istructures.sensor
Sensor
p250
(dp251
g3
(istructures.sensor
Sensor
p252
(dp253
g3
Nsg10
S'do-close_sd4-condeffs'
p254
sg12
Nsbsg10
(istructures.sensor
Sensor
p255
(dp256
g3
Nsg10
g96
sg12
Nsbsg12
g32
sbsg12
g31
sbsg12
g32
sba(istructures.sensor
Sensor
p257
(dp258
g3
Nsg10
(g104
tp259
sg12
Nsba.