(lp0
(istructures.sensor
Sensor
p1
(dp2
S'rhs'
p3
NsS'lhs'
p4
(istructures.sensor
Sensor
p5
(dp6
g3
(istructures.sensor
Sensor
p7
(dp8
g3
Nsg4
(S'holding_treasure_2'
p9
tp10
sS'op'
p11
Nsbsg4
(istructures.sensor
Sensor
p12
(dp13
g3
(istructures.sensor
Sensor
p14
(dp15
g3
Nsg4
S'at_y0'
p16
sg11
Nsbsg4
(istructures.sensor
Sensor
p17
(dp18
g3
Nsg4
S'at_x1'
p19
sg11
Nsbsg11
I10
sbsg11
I2
sbsg11
S'-'
p20
sba(istructures.sensor
Sensor
p21
(dp22
g3
Nsg4
(S'at_x2'
p23
tp24
sg11
Nsba(istructures.sensor
Sensor
p25
(dp26
g3
(istructures.sensor
Sensor
p27
(dp28
g3
(istructures.sensor
Sensor
p29
(dp30
g3
Nsg4
(S'at_x0'
p31
tp32
sg11
Nsbsg4
(istructures.sensor
Sensor
p33
(dp34
g3
(istructures.sensor
Sensor
p35
(dp36
g3
Nsg4
S'holding_treasure_1'
p37
sg11
Nsbsg4
(istructures.sensor
Sensor
p38
(dp39
g3
Nsg4
S'holding_treasure_3'
p40
sg11
Nsbsg11
S'^'
p41
sbsg11
I6
sbsg4
(istructures.sensor
Sensor
p42
(dp43
g3
Nsg4
(istructures.sensor
Sensor
p44
(dp45
g3
Nsg4
(S'at_y1'
p46
tp47
sg11
Nsbsg11
g20
sbsg11
S'v'
p48
sba(istructures.sensor
Sensor
p49
(dp50
g3
(istructures.sensor
Sensor
p51
(dp52
g3
(istructures.sensor
Sensor
p53
(dp54
g3
Nsg4
(istructures.sensor
Sensor
p55
(dp56
g3
Nsg4
g16
sg11
Nsbsg11
g20
sbsg4
(istructures.sensor
Sensor
p57
(dp58
g3
Nsg4
(g37
tp59
sg11
Nsbsg11
g48
sbsg4
(istructures.sensor
Sensor
p60
(dp61
g3
(istructures.sensor
Sensor
p62
(dp63
g3
(istructures.sensor
Sensor
p64
(dp65
g3
Nsg4
g23
sg11
Nsbsg4
(istructures.sensor
Sensor
p66
(dp67
g3
Nsg4
g40
sg11
Nsbsg11
g48
sbsg4
(istructures.sensor
Sensor
p68
(dp69
g3
Nsg4
(g46
tp70
sg11
Nsbsg11
I3
sbsg11
g41
sba(istructures.sensor
Sensor
p71
(dp72
g3
Nsg4
(istructures.sensor
Sensor
p73
(dp74
g3
Nsg4
(istructures.sensor
Sensor
p75
(dp76
g3
(istructures.sensor
Sensor
p77
(dp78
g3
Nsg4
g31
sg11
Nsbsg4
(istructures.sensor
Sensor
p79
(dp80
g3
Nsg4
S'at_y2'
p81
sg11
Nsbsg11
g41
sbsg11
g20
sbsg11
g20
sba(istructures.sensor
Sensor
p82
(dp83
g3
Nsg4
(g37
tp84
sg11
Nsba(istructures.sensor
Sensor
p85
(dp86
g3
Nsg4
(istructures.sensor
Sensor
p87
(dp88
g3
(istructures.sensor
Sensor
p89
(dp90
g3
Nsg4
(g9
tp91
sg11
Nsbsg4
(istructures.sensor
Sensor
p92
(dp93
g3
(istructures.sensor
Sensor
p94
(dp95
g3
Nsg4
S'at_y3'
p96
sg11
Nsbsg4
(istructures.sensor
Sensor
p97
(dp98
g3
Nsg4
g16
sg11
Nsbsg11
g48
sbsg11
g48
sbsg11
g20
sba(istructures.sensor
Sensor
p99
(dp100
g3
(istructures.sensor
Sensor
p101
(dp102
g3
(istructures.sensor
Sensor
p103
(dp104
g3
Nsg4
(g9
tp105
sg11
Nsbsg4
(istructures.sensor
Sensor
p106
(dp107
g3
(istructures.sensor
Sensor
p108
(dp109
g3
Nsg4
g37
sg11
Nsbsg4
(istructures.sensor
Sensor
p110
(dp111
g3
Nsg4
g81
sg11
Nsbsg11
g48
sbsg11
I6
sbsg4
(istructures.sensor
Sensor
p112
(dp113
g3
Nsg4
(istructures.sensor
Sensor
p114
(dp115
g3
(istructures.sensor
Sensor
p116
(dp117
g3
Nsg4
g31
sg11
Nsbsg4
(istructures.sensor
Sensor
p118
(dp119
g3
Nsg4
g9
sg11
Nsbsg11
g48
sbsg11
g20
sbsg11
I4
sba(istructures.sensor
Sensor
p120
(dp121
g3
(istructures.sensor
Sensor
p122
(dp123
g3
(istructures.sensor
Sensor
p124
(dp125
g3
(istructures.sensor
Sensor
p126
(dp127
g3
Nsg4
g23
sg11
Nsbsg4
(istructures.sensor
Sensor
p128
(dp129
g3
Nsg4
g37
sg11
Nsbsg11
I4
sbsg4
(istructures.sensor
Sensor
p130
(dp131
g3
(istructures.sensor
Sensor
p132
(dp133
g3
Nsg4
S'at_x3'
p134
sg11
Nsbsg4
(istructures.sensor
Sensor
p135
(dp136
g3
Nsg4
g37
sg11
Nsbsg11
g41
sbsg11
I5
sbsg4
(istructures.sensor
Sensor
p137
(dp138
g3
(istructures.sensor
Sensor
p139
(dp140
g3
(istructures.sensor
Sensor
p141
(dp142
g3
Nsg4
g16
sg11
Nsbsg4
(istructures.sensor
Sensor
p143
(dp144
g3
Nsg4
g46
sg11
Nsbsg11
g41
sbsg4
(istructures.sensor
Sensor
p145
(dp146
g3
Nsg4
(istructures.sensor
Sensor
p147
(dp148
g3
Nsg4
g46
sg11
Nsbsg11
g20
sbsg11
g48
sbsg11
I5
sba(istructures.sensor
Sensor
p149
(dp150
g3
Nsg4
(istructures.sensor
Sensor
p151
(dp152
g3
(istructures.sensor
Sensor
p153
(dp154
g3
(istructures.sensor
Sensor
p155
(dp156
g3
Nsg4
g40
sg11
Nsbsg4
(istructures.sensor
Sensor
p157
(dp158
g3
Nsg4
g16
sg11
Nsbsg11
g48
sbsg4
(istructures.sensor
Sensor
p159
(dp160
g3
(istructures.sensor
Sensor
p161
(dp162
g3
Nsg4
g16
sg11
Nsbsg4
(istructures.sensor
Sensor
p163
(dp164
g3
Nsg4
g9
sg11
Nsbsg11
g48
sbsg11
g48
sbsg11
g20
sba(istructures.sensor
Sensor
p165
(dp166
g3
(istructures.sensor
Sensor
p167
(dp168
g3
(istructures.sensor
Sensor
p169
(dp170
g3
(istructures.sensor
Sensor
p171
(dp172
g3
Nsg4
g96
sg11
Nsbsg4
(istructures.sensor
Sensor
p173
(dp174
g3
Nsg4
g46
sg11
Nsbsg11
I5
sbsg4
(istructures.sensor
Sensor
p175
(dp176
g3
(istructures.sensor
Sensor
p177
(dp178
g3
Nsg4
g19
sg11
Nsbsg4
(istructures.sensor
Sensor
p179
(dp180
g3
Nsg4
g96
sg11
Nsbsg11
I9
sbsg11
g48
sbsg4
(istructures.sensor
Sensor
p181
(dp182
g3
(istructures.sensor
Sensor
p183
(dp184
g3
Nsg4
(g96
tp185
sg11
Nsbsg4
(istructures.sensor
Sensor
p186
(dp187
g3
(istructures.sensor
Sensor
p188
(dp189
g3
Nsg4
g9
sg11
Nsbsg4
(istructures.sensor
Sensor
p190
(dp191
g3
Nsg4
g96
sg11
Nsbsg11
g41
sbsg11
g41
sbsg11
I1
sba(istructures.sensor
Sensor
p192
(dp193
g3
Nsg4
(istructures.sensor
Sensor
p194
(dp195
g3
(istructures.sensor
Sensor
p196
(dp197
g3
Nsg4
(istructures.sensor
Sensor
p198
(dp199
g3
Nsg4
g46
sg11
Nsbsg11
g20
sbsg4
(istructures.sensor
Sensor
p200
(dp201
g3
(istructures.sensor
Sensor
p202
(dp203
g3
Nsg4
g19
sg11
Nsbsg4
(istructures.sensor
Sensor
p204
(dp205
g3
Nsg4
g19
sg11
Nsbsg11
g48
sbsg11
g48
sbsg11
g20
sba(istructures.sensor
Sensor
p206
(dp207
g3
Nsg4
(g96
tp208
sg11
Nsba(istructures.sensor
Sensor
p209
(dp210
g3
(istructures.sensor
Sensor
p211
(dp212
g3
Nsg4
(g31
tp213
sg11
Nsbsg4
(istructures.sensor
Sensor
p214
(dp215
g3
Nsg4
(g40
tp216
sg11
Nsbsg11
I3
sba(istructures.sensor
Sensor
p217
(dp218
g3
(istructures.sensor
Sensor
p219
(dp220
g3
Nsg4
(g9
tp221
sg11
Nsbsg4
(istructures.sensor
Sensor
p222
(dp223
g3
(istructures.sensor
Sensor
p224
(dp225
g3
(istructures.sensor
Sensor
p226
(dp227
g3
Nsg4
g23
sg11
Nsbsg4
(istructures.sensor
Sensor
p228
(dp229
g3
Nsg4
g40
sg11
Nsbsg11
g48
sbsg4
(istructures.sensor
Sensor
p230
(dp231
g3
Nsg4
(istructures.sensor
Sensor
p232
(dp233
g3
Nsg4
g134
sg11
Nsbsg11
g20
sbsg11
g41
sbsg11
g41
sba.