(lp0
(istructures.sensor
Sensor
p1
(dp2
S'rhs'
p3
NsS'lhs'
p4
(istructures.sensor
Sensor
p5
(dp6
g3
Nsg4
(S'not-closed-sd4'
p7
tp8
sS'op'
p9
Nsbsg9
S'-'
p10
sba(istructures.sensor
Sensor
p11
(dp12
g3
Nsg4
(S'do-close_sd7-condeffs'
p13
tp14
sg9
Nsba(istructures.sensor
Sensor
p15
(dp16
g3
(istructures.sensor
Sensor
p17
(dp18
g3
(istructures.sensor
Sensor
p19
(dp20
g3
Nsg4
(istructures.sensor
Sensor
p21
(dp22
g3
Nsg4
S'done-1'
p23
sg9
Nsbsg9
g10
sbsg4
(istructures.sensor
Sensor
p24
(dp25
g3
(istructures.sensor
Sensor
p26
(dp27
g3
Nsg4
S'closed-sd1'
p28
sg9
Nsbsg4
(istructures.sensor
Sensor
p29
(dp30
g3
Nsg4
g23
sg9
Nsbsg9
S'^'
p31
sbsg9
S'v'
p32
sbsg4
(istructures.sensor
Sensor
p33
(dp34
g3
(istructures.sensor
Sensor
p35
(dp36
g3
(istructures.sensor
Sensor
p37
(dp38
g3
Nsg4
g7
sg9
Nsbsg4
(istructures.sensor
Sensor
p39
(dp40
g3
Nsg4
S'updated-cb1'
p41
sg9
Nsbsg9
g31
sbsg4
(istructures.sensor
Sensor
p42
(dp43
g3
(istructures.sensor
Sensor
p44
(dp45
g3
Nsg4
S'closed-sd5'
p46
sg9
Nsbsg4
(istructures.sensor
Sensor
p47
(dp48
g3
Nsg4
S'not-updated-cb1'
p49
sg9
Nsbsg9
I8
sbsg9
I4
sbsg9
g31
sba(istructures.sensor
Sensor
p50
(dp51
g3
Nsg4
(istructures.sensor
Sensor
p52
(dp53
g3
(istructures.sensor
Sensor
p54
(dp55
g3
(istructures.sensor
Sensor
p56
(dp57
g3
Nsg4
g41
sg9
Nsbsg4
(istructures.sensor
Sensor
p58
(dp59
g3
Nsg4
S'closed-sd2'
p60
sg9
Nsbsg9
I1
sbsg4
(istructures.sensor
Sensor
p61
(dp62
g3
(istructures.sensor
Sensor
p63
(dp64
g3
Nsg4
S'not-closed-cb1'
p65
sg9
Nsbsg4
(istructures.sensor
Sensor
p66
(dp67
g3
Nsg4
g41
sg9
Nsbsg9
g32
sbsg9
I8
sbsg9
g10
sba(istructures.sensor
Sensor
p68
(dp69
g3
Nsg4
(istructures.sensor
Sensor
p70
(dp71
g3
(istructures.sensor
Sensor
p72
(dp73
g3
(istructures.sensor
Sensor
p74
(dp75
g3
Nsg4
g7
sg9
Nsbsg4
(istructures.sensor
Sensor
p76
(dp77
g3
Nsg4
S'do-wait_cb1-condeffs'
p78
sg9
Nsbsg9
g31
sbsg4
(istructures.sensor
Sensor
p79
(dp80
g3
(istructures.sensor
Sensor
p81
(dp82
g3
Nsg4
S'closed-sd6'
p83
sg9
Nsbsg4
(istructures.sensor
Sensor
p84
(dp85
g3
Nsg4
g41
sg9
Nsbsg9
I3
sbsg9
g31
sbsg9
g10
sba(istructures.sensor
Sensor
p86
(dp87
g3
Nsg4
(istructures.sensor
Sensor
p88
(dp89
g3
(istructures.sensor
Sensor
p90
(dp91
g3
(istructures.sensor
Sensor
p92
(dp93
g3
Nsg4
g7
sg9
Nsbsg4
(istructures.sensor
Sensor
p94
(dp95
g3
Nsg4
S'not-closed-sd8'
p96
sg9
Nsbsg9
I10
sbsg4
(istructures.sensor
Sensor
p97
(dp98
g3
(istructures.sensor
Sensor
p99
(dp100
g3
Nsg4
g28
sg9
Nsbsg4
(istructures.sensor
Sensor
p101
(dp102
g3
Nsg4
g46
sg9
Nsbsg9
I3
sbsg9
I10
sbsg9
g10
sba(istructures.sensor
Sensor
p103
(dp104
g3
(istructures.sensor
Sensor
p105
(dp106
g3
(istructures.sensor
Sensor
p107
(dp108
g3
Nsg4
(istructures.sensor
Sensor
p109
(dp110
g3
Nsg4
S'closed-sd8'
p111
sg9
Nsbsg9
g10
sbsg4
(istructures.sensor
Sensor
p112
(dp113
g3
Nsg4
(g96
tp114
sg9
Nsbsg9
g31
sbsg4
(istructures.sensor
Sensor
p115
(dp116
g3
(istructures.sensor
Sensor
p117
(dp118
g3
Nsg4
(istructures.sensor
Sensor
p119
(dp120
g3
Nsg4
S'closed-cb1'
p121
sg9
Nsbsg9
g10
sbsg4
(istructures.sensor
Sensor
p122
(dp123
g3
(istructures.sensor
Sensor
p124
(dp125
g3
Nsg4
S'done-0'
p126
sg9
Nsbsg4
(istructures.sensor
Sensor
p127
(dp128
g3
Nsg4
S'not-closed-sd7'
p129
sg9
Nsbsg9
g32
sbsg9
I2
sbsg9
g31
sba(istructures.sensor
Sensor
p130
(dp131
g3
Nsg4
(S'not-closed-sd5'
p132
tp133
sg9
Nsba(istructures.sensor
Sensor
p134
(dp135
g3
Nsg4
(S'closed-sd7'
p136
tp137
sg9
Nsba(istructures.sensor
Sensor
p138
(dp139
g3
Nsg4
(g111
tp140
sg9
Nsba(istructures.sensor
Sensor
p141
(dp142
g3
(istructures.sensor
Sensor
p143
(dp144
g3
Nsg4
(g111
tp145
sg9
Nsbsg4
(istructures.sensor
Sensor
p146
(dp147
g3
(istructures.sensor
Sensor
p148
(dp149
g3
(istructures.sensor
Sensor
p150
(dp151
g3
Nsg4
g96
sg9
Nsbsg4
(istructures.sensor
Sensor
p152
(dp153
g3
Nsg4
g78
sg9
Nsbsg9
I10
sbsg4
(istructures.sensor
Sensor
p154
(dp155
g3
(istructures.sensor
Sensor
p156
(dp157
g3
Nsg4
S'do-normal'
p158
sg9
Nsbsg4
(istructures.sensor
Sensor
p159
(dp160
g3
Nsg4
S'not-closed-sd1'
p161
sg9
Nsbsg9
I4
sbsg9
I9
sbsg9
g32
sba(istructures.sensor
Sensor
p162
(dp163
g3
(istructures.sensor
Sensor
p164
(dp165
g3
(istructures.sensor
Sensor
p166
(dp167
g3
Nsg4
(istructures.sensor
Sensor
p168
(dp169
g3
Nsg4
g13
sg9
Nsbsg9
g10
sbsg4
(istructures.sensor
Sensor
p170
(dp171
g3
Nsg4
(istructures.sensor
Sensor
p172
(dp173
g3
Nsg4
g28
sg9
Nsbsg9
g10
sbsg9
g32
sbsg4
(istructures.sensor
Sensor
p174
(dp175
g3
(istructures.sensor
Sensor
p176
(dp177
g3
Nsg4
(istructures.sensor
Sensor
p178
(dp179
g3
Nsg4
g7
sg9
Nsbsg9
g10
sbsg4
(istructures.sensor
Sensor
p180
(dp181
g3
Nsg4
(S'not-closed-sd6'
p182
tp183
sg9
Nsbsg9
g32
sbsg9
g32
sba(istructures.sensor
Sensor
p184
(dp185
g3
Nsg4
(S'not-closed-sd2'
p186
tp187
sg9
Nsba(istructures.sensor
Sensor
p188
(dp189
g3
Nsg4
(g23
tp190
sg9
Nsba(istructures.sensor
Sensor
p191
(dp192
g3
Nsg4
(g158
tp193
sg9
Nsba.