(lp0
(istructures.sensor
Sensor
p1
(dp2
S'rhs'
p3
(istructures.sensor
Sensor
p4
(dp5
g3
(istructures.sensor
Sensor
p6
(dp7
g3
NsS'lhs'
p8
(istructures.sensor
Sensor
p9
(dp10
g3
Nsg8
S'do-close_sd1-condeffs'
p11
sS'op'
p12
Nsbsg12
S'-'
p13
sbsg8
(istructures.sensor
Sensor
p14
(dp15
g3
Nsg8
(S'not-updated-cb1'
p16
tp17
sg12
Nsbsg12
I4
sbsg8
(istructures.sensor
Sensor
p18
(dp19
g3
(istructures.sensor
Sensor
p20
(dp21
g3
Nsg8
(istructures.sensor
Sensor
p22
(dp23
g3
Nsg8
S'closed-sd2'
p24
sg12
Nsbsg12
g13
sbsg8
(istructures.sensor
Sensor
p25
(dp26
g3
Nsg8
(istructures.sensor
Sensor
p27
(dp28
g3
Nsg8
S'not-closed-cb1'
p29
sg12
Nsbsg12
g13
sbsg12
S'v'
p30
sbsg12
g30
sba(istructures.sensor
Sensor
p31
(dp32
g3
(istructures.sensor
Sensor
p33
(dp34
g3
(istructures.sensor
Sensor
p35
(dp36
g3
(istructures.sensor
Sensor
p37
(dp38
g3
Nsg8
S'not-closed-sd2'
p39
sg12
Nsbsg8
(istructures.sensor
Sensor
p40
(dp41
g3
Nsg8
S'closed-sd1'
p42
sg12
Nsbsg12
g30
sbsg8
(istructures.sensor
Sensor
p43
(dp44
g3
Nsg8
(istructures.sensor
Sensor
p45
(dp46
g3
Nsg8
S'updated-cb1'
p47
sg12
Nsbsg12
g13
sbsg12
S'^'
p48
sbsg8
(istructures.sensor
Sensor
p49
(dp50
g3
Nsg8
(g16
tp51
sg12
Nsbsg12
g30
sba(istructures.sensor
Sensor
p52
(dp53
g3
(istructures.sensor
Sensor
p54
(dp55
g3
(istructures.sensor
Sensor
p56
(dp57
g3
(istructures.sensor
Sensor
p58
(dp59
g3
Nsg8
g16
sg12
Nsbsg8
(istructures.sensor
Sensor
p60
(dp61
g3
Nsg8
S'do-wait_cb1-condeffs'
p62
sg12
Nsbsg12
g48
sbsg8
(istructures.sensor
Sensor
p63
(dp64
g3
Nsg8
(istructures.sensor
Sensor
p65
(dp66
g3
Nsg8
g47
sg12
Nsbsg12
g13
sbsg12
g30
sbsg8
(istructures.sensor
Sensor
p67
(dp68
g3
Nsg8
(g47
tp69
sg12
Nsbsg12
I5
sba(istructures.sensor
Sensor
p70
(dp71
g3
(istructures.sensor
Sensor
p72
(dp73
g3
(istructures.sensor
Sensor
p74
(dp75
g3
Nsg8
(istructures.sensor
Sensor
p76
(dp77
g3
Nsg8
g29
sg12
Nsbsg12
g13
sbsg8
(istructures.sensor
Sensor
p78
(dp79
g3
Nsg8
(istructures.sensor
Sensor
p80
(dp81
g3
Nsg8
S'closed-cb1'
p82
sg12
Nsbsg12
g13
sbsg12
I5
sbsg8
(istructures.sensor
Sensor
p83
(dp84
g3
Nsg8
(S'done-0'
p85
tp86
sg12
Nsbsg12
g48
sba(istructures.sensor
Sensor
p87
(dp88
g3
(istructures.sensor
Sensor
p89
(dp90
g3
(istructures.sensor
Sensor
p91
(dp92
g3
(istructures.sensor
Sensor
p93
(dp94
g3
Nsg8
S'not-closed-sd1'
p95
sg12
Nsbsg8
(istructures.sensor
Sensor
p96
(dp97
g3
Nsg8
g16
sg12
Nsbsg12
I8
sbsg8
(istructures.sensor
Sensor
p98
(dp99
g3
Nsg8
(istructures.sensor
Sensor
p100
(dp101
g3
Nsg8
g85
sg12
Nsbsg12
g13
sbsg12
I1
sbsg8
(istructures.sensor
Sensor
p102
(dp103
g3
(istructures.sensor
Sensor
p104
(dp105
g3
(istructures.sensor
Sensor
p106
(dp107
g3
Nsg8
g42
sg12
Nsbsg8
(istructures.sensor
Sensor
p108
(dp109
g3
Nsg8
g24
sg12
Nsbsg12
g30
sbsg8
(istructures.sensor
Sensor
p110
(dp111
g3
Nsg8
(g47
tp112
sg12
Nsbsg12
I9
sbsg12
g48
sba(istructures.sensor
Sensor
p113
(dp114
g3
(istructures.sensor
Sensor
p115
(dp116
g3
Nsg8
(g82
tp117
sg12
Nsbsg8
(istructures.sensor
Sensor
p118
(dp119
g3
(istructures.sensor
Sensor
p120
(dp121
g3
(istructures.sensor
Sensor
p122
(dp123
g3
Nsg8
S'do-normal'
p124
sg12
Nsbsg8
(istructures.sensor
Sensor
p125
(dp126
g3
Nsg8
g95
sg12
Nsbsg12
g48
sbsg8
(istructures.sensor
Sensor
p127
(dp128
g3
(istructures.sensor
Sensor
p129
(dp130
g3
Nsg8
g124
sg12
Nsbsg8
(istructures.sensor
Sensor
p131
(dp132
g3
Nsg8
g11
sg12
Nsbsg12
g30
sbsg12
g30
sbsg12
g48
sba(istructures.sensor
Sensor
p133
(dp134
g3
Nsg8
(g16
tp135
sg12
Nsba(istructures.sensor
Sensor
p136
(dp137
g3
(istructures.sensor
Sensor
p138
(dp139
g3
(istructures.sensor
Sensor
p140
(dp141
g3
(istructures.sensor
Sensor
p142
(dp143
g3
Nsg8
g62
sg12
Nsbsg8
(istructures.sensor
Sensor
p144
(dp145
g3
Nsg8
g82
sg12
Nsbsg12
g48
sbsg8
(istructures.sensor
Sensor
p146
(dp147
g3
(istructures.sensor
Sensor
p148
(dp149
g3
Nsg8
g11
sg12
Nsbsg8
(istructures.sensor
Sensor
p150
(dp151
g3
Nsg8
g47
sg12
Nsbsg12
g48
sbsg12
g30
sbsg8
(istructures.sensor
Sensor
p152
(dp153
g3
Nsg8
(g24
tp154
sg12
Nsbsg12
g48
sba(istructures.sensor
Sensor
p155
(dp156
g3
(istructures.sensor
Sensor
p157
(dp158
g3
(istructures.sensor
Sensor
p159
(dp160
g3
(istructures.sensor
Sensor
p161
(dp162
g3
Nsg8
g124
sg12
Nsbsg8
(istructures.sensor
Sensor
p163
(dp164
g3
Nsg8
g82
sg12
Nsbsg12
g48
sbsg8
(istructures.sensor
Sensor
p165
(dp166
g3
(istructures.sensor
Sensor
p167
(dp168
g3
Nsg8
g124
sg12
Nsbsg8
(istructures.sensor
Sensor
p169
(dp170
g3
Nsg8
g124
sg12
Nsbsg12
g48
sbsg12
g30
sbsg8
(istructures.sensor
Sensor
p171
(dp172
g3
(istructures.sensor
Sensor
p173
(dp174
g3
(istructures.sensor
Sensor
p175
(dp176
g3
Nsg8
g124
sg12
Nsbsg8
(istructures.sensor
Sensor
p177
(dp178
g3
Nsg8
g124
sg12
Nsbsg12
g30
sbsg8
(istructures.sensor
Sensor
p179
(dp180
g3
Nsg8
(istructures.sensor
Sensor
p181
(dp182
g3
Nsg8
g11
sg12
Nsbsg12
g13
sbsg12
g30
sbsg12
I6
sba(istructures.sensor
Sensor
p183
(dp184
g3
(istructures.sensor
Sensor
p185
(dp186
g3
(istructures.sensor
Sensor
p187
(dp188
g3
(istructures.sensor
Sensor
p189
(dp190
g3
Nsg8
g62
sg12
Nsbsg8
(istructures.sensor
Sensor
p191
(dp192
g3
Nsg8
g82
sg12
Nsbsg12
g30
sbsg8
(istructures.sensor
Sensor
p193
(dp194
g3
Nsg8
(g95
tp195
sg12
Nsbsg12
g48
sbsg8
(istructures.sensor
Sensor
p196
(dp197
g3
Nsg8
(g29
tp198
sg12
Nsbsg12
I4
sba(istructures.sensor
Sensor
p199
(dp200
g3
(istructures.sensor
Sensor
p201
(dp202
g3
Nsg8
(g62
tp203
sg12
Nsbsg8
(istructures.sensor
Sensor
p204
(dp205
g3
(istructures.sensor
Sensor
p206
(dp207
g3
(istructures.sensor
Sensor
p208
(dp209
g3
Nsg8
g16
sg12
Nsbsg8
(istructures.sensor
Sensor
p210
(dp211
g3
Nsg8
g47
sg12
Nsbsg12
g30
sbsg8
(istructures.sensor
Sensor
p212
(dp213
g3
Nsg8
(istructures.sensor
Sensor
p214
(dp215
g3
Nsg8
g82
sg12
Nsbsg12
g13
sbsg12
g30
sbsg12
g30
sba(istructures.sensor
Sensor
p216
(dp217
g3
Nsg8
(g47
tp218
sg12
Nsba(istructures.sensor
Sensor
p219
(dp220
g3
(istructures.sensor
Sensor
p221
(dp222
g3
(istructures.sensor
Sensor
p223
(dp224
g3
Nsg8
(g95
tp225
sg12
Nsbsg8
(istructures.sensor
Sensor
p226
(dp227
g3
Nsg8
(g24
tp228
sg12
Nsbsg12
I10
sbsg8
(istructures.sensor
Sensor
p229
(dp230
g3
Nsg8
(g11
tp231
sg12
Nsbsg12
g30
sba(istructures.sensor
Sensor
p232
(dp233
g3
(istructures.sensor
Sensor
p234
(dp235
g3
Nsg8
(g124
tp236
sg12
Nsbsg8
(istructures.sensor
Sensor
p237
(dp238
g3
(istructures.sensor
Sensor
p239
(dp240
g3
(istructures.sensor
Sensor
p241
(dp242
g3
Nsg8
g62
sg12
Nsbsg8
(istructures.sensor
Sensor
p243
(dp244
g3
Nsg8
g124
sg12
Nsbsg12
g48
sbsg8
(istructures.sensor
Sensor
p245
(dp246
g3
(istructures.sensor
Sensor
p247
(dp248
g3
Nsg8
g29
sg12
Nsbsg8
(istructures.sensor
Sensor
p249
(dp250
g3
Nsg8
g39
sg12
Nsbsg12
g48
sbsg12
g48
sbsg12
g48
sba(istructures.sensor
Sensor
p251
(dp252
g3
(istructures.sensor
Sensor
p253
(dp254
g3
Nsg8
(g16
tp255
sg12
Nsbsg8
(istructures.sensor
Sensor
p256
(dp257
g3
(istructures.sensor
Sensor
p258
(dp259
g3
(istructures.sensor
Sensor
p260
(dp261
g3
Nsg8
g24
sg12
Nsbsg8
(istructures.sensor
Sensor
p262
(dp263
g3
Nsg8
g29
sg12
Nsbsg12
g30
sbsg8
(istructures.sensor
Sensor
p264
(dp265
g3
Nsg8
(g62
tp266
sg12
Nsbsg12
g30
sbsg12
g48
sba.