(lp0
(istructures.sensor
Sensor
p1
(dp2
S'rhs'
p3
NsS'lhs'
p4
(S'at_y5'
p5
tp6
sS'op'
p7
Nsba(istructures.sensor
Sensor
p8
(dp9
g3
(istructures.sensor
Sensor
p10
(dp11
g3
Nsg4
(istructures.sensor
Sensor
p12
(dp13
g3
(istructures.sensor
Sensor
p14
(dp15
g3
Nsg4
S'at_y1'
p16
sg7
Nsbsg4
(istructures.sensor
Sensor
p17
(dp18
g3
Nsg4
S'at_x1'
p19
sg7
Nsbsg7
S'^'
p20
sbsg7
S'-'
p21
sbsg4
(istructures.sensor
Sensor
p22
(dp23
g3
Nsg4
(S'at_y3'
p24
tp25
sg7
Nsbsg7
S'v'
p26
sba(istructures.sensor
Sensor
p27
(dp28
g3
(istructures.sensor
Sensor
p29
(dp30
g3
Nsg4
(istructures.sensor
Sensor
p31
(dp32
g3
(istructures.sensor
Sensor
p33
(dp34
g3
Nsg4
g16
sg7
Nsbsg4
(istructures.sensor
Sensor
p35
(dp36
g3
Nsg4
S'holding_treasure_3'
p37
sg7
Nsbsg7
I10
sbsg7
g21
sbsg4
(istructures.sensor
Sensor
p38
(dp39
g3
(istructures.sensor
Sensor
p40
(dp41
g3
Nsg4
(istructures.sensor
Sensor
p42
(dp43
g3
Nsg4
S'holding_treasure_1'
p44
sg7
Nsbsg7
g21
sbsg4
(istructures.sensor
Sensor
p45
(dp46
g3
Nsg4
(istructures.sensor
Sensor
p47
(dp48
g3
Nsg4
S'at_x3'
p49
sg7
Nsbsg7
g21
sbsg7
g26
sbsg7
g20
sba(istructures.sensor
Sensor
p50
(dp51
g3
(istructures.sensor
Sensor
p52
(dp53
g3
Nsg4
(S'at_y0'
p54
tp55
sg7
Nsbsg4
(istructures.sensor
Sensor
p56
(dp57
g3
(istructures.sensor
Sensor
p58
(dp59
g3
Nsg4
(g44
tp60
sg7
Nsbsg4
(istructures.sensor
Sensor
p61
(dp62
g3
(istructures.sensor
Sensor
p63
(dp64
g3
Nsg4
S'at_x5'
p65
sg7
Nsbsg4
(istructures.sensor
Sensor
p66
(dp67
g3
Nsg4
g16
sg7
Nsbsg7
g20
sbsg7
g26
sbsg7
I8
sba(istructures.sensor
Sensor
p68
(dp69
g3
(istructures.sensor
Sensor
p70
(dp71
g3
Nsg4
(S'at_x0'
p72
tp73
sg7
Nsbsg4
(istructures.sensor
Sensor
p74
(dp75
g3
Nsg4
(S'at_x7'
p76
tp77
sg7
Nsbsg7
g26
sba(istructures.sensor
Sensor
p78
(dp79
g3
(istructures.sensor
Sensor
p80
(dp81
g3
(istructures.sensor
Sensor
p82
(dp83
g3
Nsg4
(istructures.sensor
Sensor
p84
(dp85
g3
Nsg4
g49
sg7
Nsbsg7
g21
sbsg4
(istructures.sensor
Sensor
p86
(dp87
g3
(istructures.sensor
Sensor
p88
(dp89
g3
Nsg4
g16
sg7
Nsbsg4
(istructures.sensor
Sensor
p90
(dp91
g3
Nsg4
g65
sg7
Nsbsg7
g20
sbsg7
g26
sbsg4
(istructures.sensor
Sensor
p92
(dp93
g3
(istructures.sensor
Sensor
p94
(dp95
g3
Nsg4
(istructures.sensor
Sensor
p96
(dp97
g3
Nsg4
S'at_x6'
p98
sg7
Nsbsg7
g21
sbsg4
(istructures.sensor
Sensor
p99
(dp100
g3
Nsg4
(istructures.sensor
Sensor
p101
(dp102
g3
Nsg4
g5
sg7
Nsbsg7
g21
sbsg7
g20
sbsg7
g20
sba(istructures.sensor
Sensor
p103
(dp104
g3
(istructures.sensor
Sensor
p105
(dp106
g3
Nsg4
(istructures.sensor
Sensor
p107
(dp108
g3
Nsg4
(g5
tp109
sg7
Nsbsg7
g21
sbsg4
(istructures.sensor
Sensor
p110
(dp111
g3
(istructures.sensor
Sensor
p112
(dp113
g3
(istructures.sensor
Sensor
p114
(dp115
g3
Nsg4
g98
sg7
Nsbsg4
(istructures.sensor
Sensor
p116
(dp117
g3
Nsg4
g72
sg7
Nsbsg7
I2
sbsg4
(istructures.sensor
Sensor
p118
(dp119
g3
(istructures.sensor
Sensor
p120
(dp121
g3
Nsg4
g98
sg7
Nsbsg4
(istructures.sensor
Sensor
p122
(dp123
g3
Nsg4
g5
sg7
Nsbsg7
I2
sbsg7
g20
sbsg7
g20
sba(istructures.sensor
Sensor
p124
(dp125
g3
(istructures.sensor
Sensor
p126
(dp127
g3
Nsg4
(S'at_x4'
p128
tp129
sg7
Nsbsg4
(istructures.sensor
Sensor
p130
(dp131
g3
(istructures.sensor
Sensor
p132
(dp133
g3
(istructures.sensor
Sensor
p134
(dp135
g3
Nsg4
g49
sg7
Nsbsg4
(istructures.sensor
Sensor
p136
(dp137
g3
Nsg4
g44
sg7
Nsbsg7
I10
sbsg4
(istructures.sensor
Sensor
p138
(dp139
g3
Nsg4
(g24
tp140
sg7
Nsbsg7
I2
sbsg7
I4
sba(istructures.sensor
Sensor
p141
(dp142
g3
Nsg4
(istructures.sensor
Sensor
p143
(dp144
g3
Nsg4
(istructures.sensor
Sensor
p145
(dp146
g3
Nsg4
(S'at_y2'
p147
tp148
sg7
Nsbsg7
g21
sbsg7
g21
sba(istructures.sensor
Sensor
p149
(dp150
g3
(istructures.sensor
Sensor
p151
(dp152
g3
Nsg4
(g98
tp153
sg7
Nsbsg4
(istructures.sensor
Sensor
p154
(dp155
g3
Nsg4
(g44
tp156
sg7
Nsbsg7
g26
sba(istructures.sensor
Sensor
p157
(dp158
g3
Nsg4
(istructures.sensor
Sensor
p159
(dp160
g3
Nsg4
(S'at_y4'
p161
tp162
sg7
Nsbsg7
g21
sba(istructures.sensor
Sensor
p163
(dp164
g3
(istructures.sensor
Sensor
p165
(dp166
g3
(istructures.sensor
Sensor
p167
(dp168
g3
(istructures.sensor
Sensor
p169
(dp170
g3
Nsg4
g49
sg7
Nsbsg4
(istructures.sensor
Sensor
p171
(dp172
g3
Nsg4
g49
sg7
Nsbsg7
g26
sbsg4
(istructures.sensor
Sensor
p173
(dp174
g3
(istructures.sensor
Sensor
p175
(dp176
g3
Nsg4
g16
sg7
Nsbsg4
(istructures.sensor
Sensor
p177
(dp178
g3
Nsg4
g16
sg7
Nsbsg7
g20
sbsg7
g20
sbsg4
(istructures.sensor
Sensor
p179
(dp180
g3
(istructures.sensor
Sensor
p181
(dp182
g3
Nsg4
(istructures.sensor
Sensor
p183
(dp184
g3
Nsg4
g54
sg7
Nsbsg7
g21
sbsg4
(istructures.sensor
Sensor
p185
(dp186
g3
Nsg4
(g65
tp187
sg7
Nsbsg7
I4
sbsg7
g20
sba(istructures.sensor
Sensor
p188
(dp189
g3
(istructures.sensor
Sensor
p190
(dp191
g3
(istructures.sensor
Sensor
p192
(dp193
g3
(istructures.sensor
Sensor
p194
(dp195
g3
Nsg4
g44
sg7
Nsbsg4
(istructures.sensor
Sensor
p196
(dp197
g3
Nsg4
g49
sg7
Nsbsg7
g20
sbsg4
(istructures.sensor
Sensor
p198
(dp199
g3
Nsg4
(g37
tp200
sg7
Nsbsg7
I4
sbsg4
(istructures.sensor
Sensor
p201
(dp202
g3
(istructures.sensor
Sensor
p203
(dp204
g3
Nsg4
(istructures.sensor
Sensor
p205
(dp206
g3
Nsg4
g37
sg7
Nsbsg7
g21
sbsg4
(istructures.sensor
Sensor
p207
(dp208
g3
(istructures.sensor
Sensor
p209
(dp210
g3
Nsg4
S'at_x2'
p211
sg7
Nsbsg4
(istructures.sensor
Sensor
p212
(dp213
g3
Nsg4
g16
sg7
Nsbsg7
I9
sbsg7
I10
sbsg7
I9
sba(istructures.sensor
Sensor
p214
(dp215
g3
(istructures.sensor
Sensor
p216
(dp217
g3
(istructures.sensor
Sensor
p218
(dp219
g3
Nsg4
(g16
tp220
sg7
Nsbsg4
(istructures.sensor
Sensor
p221
(dp222
g3
(istructures.sensor
Sensor
p223
(dp224
g3
Nsg4
g211
sg7
Nsbsg4
(istructures.sensor
Sensor
p225
(dp226
g3
Nsg4
g19
sg7
Nsbsg7
g20
sbsg7
g26
sbsg4
(istructures.sensor
Sensor
p227
(dp228
g3
(istructures.sensor
Sensor
p229
(dp230
g3
Nsg4
(g49
tp231
sg7
Nsbsg4
(istructures.sensor
Sensor
p232
(dp233
g3
Nsg4
(istructures.sensor
Sensor
p234
(dp235
g3
Nsg4
g72
sg7
Nsbsg7
g21
sbsg7
g20
sbsg7
g26
sba(istructures.sensor
Sensor
p236
(dp237
g3
Nsg4
(istructures.sensor
Sensor
p238
(dp239
g3
(istructures.sensor
Sensor
p240
(dp241
g3
(istructures.sensor
Sensor
p242
(dp243
g3
Nsg4
g44
sg7
Nsbsg4
(istructures.sensor
Sensor
p244
(dp245
g3
Nsg4
S'holding_treasure_2'
p246
sg7
Nsbsg7
I6
sbsg4
(istructures.sensor
Sensor
p247
(dp248
g3
Nsg4
(g54
tp249
sg7
Nsbsg7
I10
sbsg7
g21
sba.