(lp0
(((S'at_x7'
p1
tp2
(S'at_y5'
p3
tp4
(S'at_y7'
p5
tp6
(S'at_x1'
p7
tp8
(S'at_x0'
p9
tp10
(S'at_x4'
p11
tp12
(S'at_x2'
p13
tp14
(S'holding_treasure_1'
p15
tp16
(S'at_y4'
p17
tp18
(S'holding_treasure_3'
p19
tp20
(S'at_x5'
p21
tp22
(S'at_x3'
p23
tp24
(S'at_y6'
p25
tp26
tp27
((istructures.domain
Action
p28
(dp29
S'positive_preconditions'
p30
(lp31
(S'at_x5'
p32
tp33
a(S'at_y4'
p34
tp35
asS'add_effects'
p36
(lp37
(S'at_y3'
p38
tp39
asS'parameters'
p40
(tsS'del_effects'
p41
(lp42
(S'at_y4'
p43
tp44
asS'cost'
p45
I0
sS'negative_preconditions'
p46
(lp47
sS'name'
p48
S'move_5_4_5_3'
p49
sb(istructures.domain
Action
p50
(dp51
g30
(lp52
g22
a(S'at_y3'
p53
tp54
asg36
(lp55
(S'at_y2'
p56
tp57
asg40
(tsg41
(lp58
(S'at_y3'
p59
tp60
asg45
I0
sg46
(lp61
sg48
S'move_5_3_5_2'
p62
sbtp63
(g2
g4
g8
g10
g20
(S'at_y2'
p64
tp65
g24
tp66
tp67
a((g2
g6
g8
g10
g12
(S'at_x6'
p68
tp69
g14
g16
(S'holding_treasure_2'
p70
tp71
(S'at_y0'
p72
tp73
g65
g54
g26
tp74
((istructures.domain
Action
p75
(dp76
g30
(lp77
g14
a(S'at_y2'
p78
tp79
asg36
(lp80
(S'at_y1'
p81
tp82
asg40
(tsg41
(lp83
(S'at_y2'
p84
tp85
asg45
I0
sg46
(lp86
sg48
S'move_2_2_2_1'
p87
sb(istructures.domain
Action
p88
(dp89
g30
(lp90
(S'at_x2'
p91
tp92
a(S'at_y3'
p93
tp94
asg36
(lp95
(S'at_y2'
p96
tp97
asg40
(tsg41
(lp98
(S'at_y3'
p99
tp100
asg45
I0
sg46
(lp101
sg48
S'move_2_3_2_2'
p102
sbtp103
(g10
g12
g16
g71
g73
(S'at_y1'
p104
tp105
g65
tp106
tp107
a((g2
g4
g8
g10
g14
g16
g73
g20
g105
g22
g65
g24
g26
tp108
((istructures.domain
Action
p109
(dp110
g30
(lp111
(S'at_x5'
p112
tp113
a(S'at_y0'
p114
tp115
asg36
(lp116
g69
asg40
(tsg41
(lp117
(S'at_x5'
p118
tp119
asg45
I0
sg46
(lp120
sg48
S'move_5_0_6_0'
p121
sb(istructures.domain
Action
p122
(dp123
g30
(lp124
(S'at_x3'
p125
tp126
a(S'at_y0'
p127
tp128
asg36
(lp129
(S'at_x4'
p130
tp131
asg40
(tsg41
(lp132
(S'at_x3'
p133
tp134
asg45
I0
sg46
(lp135
sg48
S'move_3_0_4_0'
p136
sbtp137
(g4
g8
g10
g12
g69
g16
g73
g20
g105
tp138
tp139
a((g2
g8
g12
g69
g16
g18
g71
g20
g105
g65
g24
tp140
((istructures.domain
Action
p141
(dp142
g30
(lp143
(S'at_x1'
p144
tp145
a(S'at_y1'
p146
tp147
asg36
(lp148
(S'at_y0'
p149
tp150
asg40
(tsg41
(lp151
(S'at_y1'
p152
tp153
asg45
I0
sg46
(lp154
sg48
S'move_1_1_1_0'
p155
sb(istructures.domain
Action
p156
(dp157
g30
(lp158
(S'at_x1'
p159
tp160
a(S'at_y4'
p161
tp162
asg36
(lp163
g10
asg40
(tsg41
(lp164
(S'at_x1'
p165
tp166
asg45
I0
sg46
(lp167
sg48
S'move_1_4_0_4'
p168
sb(istructures.domain
Action
p169
(dp170
g30
(lp171
(S'at_x3'
p172
tp173
a(S'at_y2'
p174
tp175
asg36
(lp176
(S'at_x2'
p177
tp178
asg40
(tsg41
(lp179
(S'at_x3'
p180
tp181
asg45
I0
sg46
(lp182
sg48
S'move_3_2_2_2'
p183
sbtp184
(g10
g12
g69
g14
g71
g73
tp185
tp186
a((g2
g4
g8
g10
g69
g16
g18
g71
g20
g22
g65
g24
tp187
((istructures.domain
Action
p188
(dp189
g30
(lp190
(S'at_x1'
p191
tp192
ag4
asg36
(lp193
g26
asg40
(tsg41
(lp194
(S'at_y5'
p195
tp196
asg45
I0
sg46
(lp197
sg48
S'move_1_5_1_6'
p198
sb(istructures.domain
Action
p199
(dp200
g30
(lp201
(S'at_x3'
p202
tp203
a(S'at_y2'
p204
tp205
asg36
(lp206
(S'at_x4'
p207
tp208
asg40
(tsg41
(lp209
(S'at_x3'
p210
tp211
asg45
I0
sg46
(lp212
sg48
S'move_3_2_4_2'
p213
sbtp214
(g2
g12
g22
g26
tp215
tp216
a((g6
g8
g12
g14
g16
g71
g73
g20
g105
g24
g54
tp217
((istructures.domain
Action
p218
(dp219
g30
(lp220
g8
ag105
asg36
(lp221
g65
asg40
(tsg41
(lp222
(S'at_y1'
p223
tp224
asg45
I0
sg46
(lp225
sg48
S'move_1_1_1_2'
p226
sbtp227
(g6
g8
g12
g14
g16
g65
tp228
tp229
a((g2
g6
g8
g10
g14
g16
g18
g71
g73
g20
g105
g22
g65
g24
g54
g26
tp230
(g122
tp231
(g2
g6
g8
g10
g12
g71
g73
g105
g22
g65
g26
tp232
tp233
a((g2
g4
g6
g10
g69
g14
g71
g73
g105
g22
g65
tp234
((istructures.domain
Action
p235
(dp236
g30
(lp237
(S'at_x5'
p238
tp239
a(S'at_y2'
p240
tp241
asg36
(lp242
(S'at_x4'
p243
tp244
asg40
(tsg41
(lp245
(S'at_x5'
p246
tp247
asg45
I0
sg46
(lp248
sg48
S'move_5_2_4_2'
p249
sb(istructures.domain
Action
p250
(dp251
g30
(lp252
(S'at_x7'
p253
tp254
a(S'at_y0'
p255
tp256
asg36
(lp257
g16
asg40
(tsg41
(lp258
sg45
I0
sg46
(lp259
sg48
S'pickup_treasure1'
p260
sbtp261
(g4
g10
g12
g16
g71
g105
g65
tp262
tp263
a((g8
g12
g69
g16
g18
g71
g73
g20
g65
g24
tp264
((istructures.domain
Action
p265
(dp266
g30
(lp267
(S'at_x4'
p268
tp269
a(S'at_y2'
p270
tp271
asg36
(lp272
(S'at_x5'
p273
tp274
asg40
(tsg41
(lp275
(S'at_x4'
p276
tp277
asg45
I0
sg46
(lp278
sg48
S'move_4_2_5_2'
p279
sbg122
tp280
(g12
g69
g16
g71
g73
g22
g65
tp281
tp282
a((g2
g6
g8
g10
g12
g69
g16
g18
g73
g20
g105
g22
g24
g54
g26
tp283
(g218
(istructures.domain
Action
p284
(dp285
g30
(lp286
(S'at_x1'
p287
tp288
ag18
asg36
(lp289
(S'at_x2'
p290
tp291
asg40
(tsg41
(lp292
(S'at_x1'
p293
tp294
asg45
I0
sg46
(lp295
sg48
S'move_1_4_2_4'
p296
sbtp297
(g2
g10
g69
g14
g16
g22
g65
g24
g54
g26
tp298
tp299
a((g2
g6
g8
g10
g12
g69
g16
g71
g73
g20
g105
g22
g65
g24
g54
g26
tp300
((istructures.domain
Action
p301
(dp302
g30
(lp303
g24
a(S'at_y1'
p304
tp305
asg36
(lp306
(S'at_x2'
p307
tp308
asg40
(tsg41
(lp309
(S'at_x3'
p310
tp311
asg45
I0
sg46
(lp312
sg48
S'move_3_1_2_1'
p313
sbtp314
(g6
g8
g14
g16
g20
g22
g26
tp315
tp316
a((g2
g4
g10
g12
g14
g73
g20
g105
g22
g24
g54
tp317
(g50
g109
(istructures.domain
Action
p318
(dp319
g30
(lp320
(S'at_x0'
p321
tp322
a(S'at_y0'
p323
tp324
asg36
(lp325
(S'at_x1'
p326
tp327
asg40
(tsg41
(lp328
(S'at_x0'
p329
tp330
asg45
I0
sg46
(lp331
sg48
S'move_0_0_1_0'
p332
sbtp333
(g8
g12
g69
g73
g20
g65
tp334
tp335
a((g4
g6
g10
g69
g14
g16
g71
g73
g105
g22
g65
g24
g26
tp336
(g235
(istructures.domain
Action
p337
(dp338
g30
(lp339
(S'at_x0'
p340
tp341
a(S'at_y7'
p342
tp343
asg36
(lp344
g20
asg40
(tsg41
(lp345
sg45
I0
sg46
(lp346
sg48
S'pickup_treasure3'
p347
sbtp348
(g10
g12
g73
g20
g105
g24
g26
tp349
tp350
a((g2
g4
g6
g8
g10
g14
g71
g73
g20
g105
g22
g65
g24
g54
tp351
(g235
(istructures.domain
Action
p352
(dp353
g30
(lp354
(S'at_x1'
p355
tp356
a(S'at_y7'
p357
tp358
asg36
(lp359
(S'at_y6'
p360
tp361
asg40
(tsg41
(lp362
(S'at_y7'
p363
tp364
asg45
I0
sg46
(lp365
sg48
S'move_1_7_1_6'
p366
sbtp367
(g2
g4
g8
g12
g73
g20
g24
g26
tp368
tp369
a((g8
g10
g12
g69
g18
g71
g20
g22
g24
g26
tp370
(g28
(istructures.domain
Action
p371
(dp372
g30
(lp373
(S'at_x3'
p374
tp375
a(S'at_y3'
p376
tp377
asg36
(lp378
(S'at_x2'
p379
tp380
asg40
(tsg41
(lp381
(S'at_x3'
p382
tp383
asg45
I0
sg46
(lp384
sg48
S'move_3_3_2_3'
p385
sbtp386
(g8
g10
g14
g22
g54
tp387
tp388
a((g2
g4
g6
g10
g12
g69
g14
g16
g73
g105
g22
g65
g24
g26
tp389
((istructures.domain
Action
p390
(dp391
g30
(lp392
(S'at_x7'
p393
tp394
a(S'at_y7'
p395
tp396
asg36
(lp397
g71
asg40
(tsg41
(lp398
sg45
I0
sg46
(lp399
sg48
S'pickup_treasure2'
p400
sbg337
tp401
(g6
g14
g16
g71
g73
g20
g105
g22
g24
g26
tp402
tp403
a((g2
g6
g8
g10
g12
g69
g14
g18
g20
g105
g65
g24
g54
tp404
(g141
g250
tp405
(g6
g8
g14
g16
g18
g73
g20
g65
g24
g54
tp406
tp407
a((g2
g4
g6
g10
g69
g14
g16
g18
g73
g20
g105
g24
tp408
((istructures.domain
Action
p409
(dp410
g30
(lp411
(S'at_x7'
p412
tp413
a(S'at_y4'
p414
tp415
asg36
(lp416
(S'at_y3'
p417
tp418
asg40
(tsg41
(lp419
(S'at_y4'
p420
tp421
asg45
I0
sg46
(lp422
sg48
S'move_7_4_7_3'
p423
sb(istructures.domain
Action
p424
(dp425
g30
(lp426
(S'at_x2'
p427
tp428
a(S'at_y5'
p429
tp430
asg36
(lp431
(S'at_y4'
p432
tp433
asg40
(tsg41
(lp434
(S'at_y5'
p435
tp436
asg45
I0
sg46
(lp437
sg48
S'move_2_5_2_4'
p438
sbtp439
(g6
g10
g69
g14
g18
g73
g105
g24
g54
tp440
tp441
a((g6
g8
g16
g71
g73
g105
g65
g24
g26
tp442
((istructures.domain
Action
p443
(dp444
g30
(lp445
(S'at_x1'
p446
tp447
a(S'at_y6'
p448
tp449
asg36
(lp450
(S'at_x0'
p451
tp452
asg40
(tsg41
(lp453
(S'at_x1'
p454
tp455
asg45
I0
sg46
(lp456
sg48
S'move_1_6_0_6'
p457
sb(istructures.domain
Action
p458
(dp459
g30
(lp460
(S'at_x0'
p461
tp462
a(S'at_y2'
p463
tp464
asg36
(lp465
(S'at_y3'
p466
tp467
asg40
(tsg41
(lp468
(S'at_y2'
p469
tp470
asg45
I0
sg46
(lp471
sg48
S'move_0_2_0_3'
p472
sbg337
tp473
(g6
g10
g71
g73
g20
g105
g54
g26
tp474
tp475
a((g6
g10
g14
g73
g20
g22
g65
g24
tp476
((istructures.domain
Action
p477
(dp478
g30
(lp479
(S'at_x2'
p480
tp481
a(S'at_y2'
p482
tp483
asg36
(lp484
(S'at_x1'
p485
tp486
asg40
(tsg41
(lp487
(S'at_x2'
p488
tp489
asg45
I0
sg46
(lp490
sg48
S'move_2_2_1_2'
p491
sbtp492
(g6
g8
g10
g73
g22
g24
tp493
tp494
a((g2
g4
g6
g10
g12
g14
g16
g20
g105
g65
tp495
((istructures.domain
Action
p496
(dp497
g30
(lp498
(S'at_x2'
p499
tp500
a(S'at_y1'
p501
tp502
asg36
(lp503
(S'at_x3'
p504
tp505
asg40
(tsg41
(lp506
(S'at_x2'
p507
tp508
asg45
I0
sg46
(lp509
sg48
S'move_2_1_3_1'
p510
sbg390
tp511
(g4
g12
g71
g20
g105
g24
tp512
tp513
a((g2
g6
g12
g69
g16
g73
g105
g22
g65
g54
tp514
((istructures.domain
Action
p515
(dp516
g30
(lp517
(S'at_x4'
p518
tp519
a(S'at_y3'
p520
tp521
asg36
(lp522
(S'at_x3'
p523
tp524
asg40
(tsg41
(lp525
(S'at_x4'
p526
tp527
asg45
I0
sg46
(lp528
sg48
S'move_4_3_3_3'
p529
sbg235
tp530
(g6
g12
g24
tp531
tp532
a((g2
g4
g6
g10
g69
g14
g18
g71
g105
g65
g26
tp533
((istructures.domain
Action
p534
(dp535
g30
(lp536
(S'at_x2'
p537
tp538
a(S'at_y6'
p539
tp540
asg36
(lp541
(S'at_x3'
p542
tp543
asg40
(tsg41
(lp544
(S'at_x2'
p545
tp546
asg45
I0
sg46
(lp547
sg48
S'move_2_6_3_6'
p548
sbg337
tp549
(g2
g4
g6
g10
g69
g71
g20
g65
g24
g26
tp550
tp551
a((g2
g8
g10
g69
g14
g71
g73
g20
g105
g24
g54
g26
tp552
(g218
(istructures.domain
Action
p553
(dp554
g30
(lp555
(S'at_x0'
p556
tp557
a(S'at_y6'
p558
tp559
asg36
(lp560
(S'at_y7'
p561
tp562
asg40
(tsg41
(lp563
(S'at_y6'
p564
tp565
asg45
I0
sg46
(lp566
sg48
S'move_0_6_0_7'
p567
sbtp568
(g6
g8
g14
g20
g65
tp569
tp570
a((g4
g6
g8
g10
g12
g14
g16
g105
g22
tp571
((istructures.domain
Action
p572
(dp573
g30
(lp574
(S'at_x5'
p575
tp576
a(S'at_y5'
p577
tp578
asg36
(lp579
(S'at_x6'
p580
tp581
asg40
(tsg41
(lp582
(S'at_x5'
p583
tp584
asg45
I0
sg46
(lp585
sg48
S'move_5_5_6_5'
p586
sb(istructures.domain
Action
p587
(dp588
g30
(lp589
(S'at_x6'
p590
tp591
a(S'at_y7'
p592
tp593
asg36
(lp594
(S'at_x7'
p595
tp596
asg40
(tsg41
(lp597
(S'at_x6'
p598
tp599
asg45
I0
sg46
(lp600
sg48
S'move_6_7_7_7'
p601
sbtp602
(g2
g4
g12
g14
g16
g105
tp603
tp604
a((g2
g4
g8
g14
g16
g18
g71
g20
g22
tp605
(g188
(istructures.domain
Action
p606
(dp607
g30
(lp608
(S'at_x5'
p609
tp610
a(S'at_y6'
p611
tp612
asg36
(lp613
(S'at_y7'
p614
tp615
asg40
(tsg41
(lp616
(S'at_y6'
p617
tp618
asg45
I0
sg46
(lp619
sg48
S'move_5_6_5_7'
p620
sb(istructures.domain
Action
p621
(dp622
g30
(lp623
(S'at_x7'
p624
tp625
a(S'at_y4'
p626
tp627
asg36
(lp628
(S'at_x6'
p629
tp630
asg40
(tsg41
(lp631
(S'at_x7'
p632
tp633
asg45
I0
sg46
(lp634
sg48
S'move_7_4_6_4'
p635
sbtp636
(g6
g8
g69
g14
g16
g18
g22
tp637
tp638
a((g4
g6
g8
g10
g12
g69
g16
g18
g71
g73
g20
g105
g22
g26
tp639
(g218
(istructures.domain
Action
p640
(dp641
g30
(lp642
(S'at_x5'
p643
tp644
a(S'at_y2'
p645
tp646
asg36
(lp647
(S'at_y3'
p648
tp649
asg40
(tsg41
(lp650
(S'at_y2'
p651
tp652
asg45
I0
sg46
(lp653
sg48
S'move_5_2_5_3'
p654
sb(istructures.domain
Action
p655
(dp656
g30
(lp657
(S'at_x4'
p658
tp659
a(S'at_y4'
p660
tp661
asg36
(lp662
(S'at_x3'
p663
tp664
asg40
(tsg41
(lp665
(S'at_x4'
p666
tp667
asg45
I0
sg46
(lp668
sg48
S'move_4_4_3_4'
p669
sbtp670
(g4
g6
g8
g69
g18
g73
g20
g22
g24
g54
tp671
tp672
a((g2
g4
g10
g12
g14
g16
g20
g105
g22
g65
g54
g26
tp673
(g424
g621
tp674
(g10
g12
g69
g14
g16
g18
g105
g22
g65
g26
tp675
tp676
a((g2
g8
g10
g12
g14
g18
g71
g73
g22
g65
g24
g54
g26
tp677
((istructures.domain
Action
p678
(dp679
g30
(lp680
(S'at_x1'
p681
tp682
ag73
asg36
(lp683
(S'at_y1'
p684
tp685
asg40
(tsg41
(lp686
(S'at_y0'
p687
tp688
asg45
I0
sg46
(lp689
sg48
S'move_1_0_1_1'
p690
sbg621
tp691
(g10
g12
g69
g14
g105
g22
g26
tp692
tp693
a((g4
g6
g10
g69
g14
g16
g71
g73
g105
g54
tp694
((istructures.domain
Action
p695
(dp696
g30
(lp697
(S'at_x2'
p698
tp699
a(S'at_y5'
p700
tp701
asg36
(lp702
(S'at_y6'
p703
tp704
asg40
(tsg41
(lp705
(S'at_y5'
p706
tp707
asg45
I0
sg46
(lp708
sg48
S'move_2_5_2_6'
p709
sbg337
tp710
(g6
g10
g69
g14
g73
g20
g105
g26
tp711
tp712
a((g2
g4
g8
g69
g71
g105
g22
tp713
((istructures.domain
Action
p714
(dp715
g30
(lp716
(S'at_x6'
p717
tp718
a(S'at_y5'
p719
tp720
asg36
(lp721
(S'at_y4'
p722
tp723
asg40
(tsg41
(lp724
(S'at_y5'
p725
tp726
asg45
I0
sg46
(lp727
sg48
S'move_6_5_6_4'
p728
sb(istructures.domain
Action
p729
(dp730
g30
(lp731
(S'at_x5'
p732
tp733
a(S'at_y4'
p734
tp735
asg36
(lp736
(S'at_x4'
p737
tp738
asg40
(tsg41
(lp739
(S'at_x5'
p740
tp741
asg45
I0
sg46
(lp742
sg48
S'move_5_4_4_4'
p743
sbtp744
(g8
g12
g18
g71
g105
tp745
tp746
a((g10
g12
g14
g16
g18
g73
g105
g22
g24
g54
g26
tp747
(g50
(istructures.domain
Action
p748
(dp749
g30
(lp750
(S'at_x2'
p751
tp752
a(S'at_y1'
p753
tp754
asg36
(lp755
(S'at_x1'
p756
tp757
asg40
(tsg41
(lp758
(S'at_x2'
p759
tp760
asg45
I0
sg46
(lp761
sg48
S'move_2_1_1_1'
p762
sb(istructures.domain
Action
p763
(dp764
g30
(lp765
(S'at_x5'
p766
tp767
a(S'at_y4'
p768
tp769
asg36
(lp770
(S'at_y5'
p771
tp772
asg40
(tsg41
(lp773
(S'at_y4'
p774
tp775
asg45
I0
sg46
(lp776
sg48
S'move_5_4_5_5'
p777
sbtp778
(g4
g8
g10
g12
g16
g22
g65
g24
g26
tp779
tp780
a((g2
g6
g8
g10
g69
g14
g16
g18
g71
g73
g20
g65
g24
g54
g26
tp781
(g678
(istructures.domain
Action
p782
(dp783
g30
(lp784
(S'at_x3'
p785
tp786
a(S'at_y1'
p787
tp788
asg36
(lp789
(S'at_x4'
p790
tp791
asg40
(tsg41
(lp792
(S'at_x3'
p793
tp794
asg45
I0
sg46
(lp795
sg48
S'move_3_1_4_1'
p796
sbtp797
(g8
g12
g16
g105
g54
tp798
tp799
a((g4
g6
g10
g12
g69
g14
g16
g71
g73
g20
g105
g22
g54
tp800
(g424
g587
tp801
(g2
g12
g18
g73
tp802
tp803
a((g4
g6
g10
g69
g18
g71
g20
g22
g65
g24
g54
g26
tp804
(g235
(istructures.domain
Action
p805
(dp806
g30
(lp807
(S'at_x6'
p808
tp809
a(S'at_y2'
p810
tp811
asg36
(lp812
(S'at_x5'
p813
tp814
asg40
(tsg41
(lp815
(S'at_x6'
p816
tp817
asg45
I0
sg46
(lp818
sg48
S'move_6_2_5_2'
p819
sbtp820
(g10
g12
g22
g65
g24
g26
tp821
tp822
a((g2
g4
g6
g10
g12
g69
g14
g18
g71
g73
g20
g105
g22
g65
g24
g26
tp823
((istructures.domain
Action
p824
(dp825
g30
(lp826
(S'at_x2'
p827
tp828
a(S'at_y2'
p829
tp830
asg36
(lp831
(S'at_y3'
p832
tp833
asg40
(tsg41
(lp834
(S'at_y2'
p835
tp836
asg45
I0
sg46
(lp837
sg48
S'move_2_2_2_3'
p838
sbtp839
(g2
g69
g71
g73
g105
g22
g54
tp840
tp841
a((g2
g4
g8
g10
g12
g16
g18
g71
g73
g20
g105
g65
g24
g54
g26
tp842
(g621
tp843
(g10
g69
g16
g71
g105
g54
tp844
tp845
a((g2
g4
g8
g12
g69
g16
g18
g105
g22
g65
g54
tp846
(g188
g284
tp847
(g2
g69
g14
g16
g65
g54
g26
tp848
tp849
a((g4
g6
g12
g69
g16
g71
g73
g20
g105
g22
g65
g24
g54
g26
tp850
(g301
(istructures.domain
Action
p851
(dp852
g30
(lp853
(S'at_x5'
p854
tp855
a(S'at_y3'
p856
tp857
asg36
(lp858
(S'at_y4'
p859
tp860
asg40
(tsg41
(lp861
(S'at_y3'
p862
tp863
asg45
I0
sg46
(lp864
sg48
S'move_5_3_5_4'
p865
sbtp866
(g4
g14
g16
g18
g105
g22
g65
g26
tp867
tp868
a((g2
g6
g8
g10
g12
g69
g18
g73
g105
g22
g54
g26
tp869
(g218
g250
tp870
(g2
g10
g12
g69
g16
g73
g22
g65
tp871
tp872
a((g10
g16
g71
g20
g22
g65
g24
tp873
(g199
(istructures.domain
Action
p874
(dp875
g30
(lp876
(S'at_x5'
p877
tp878
a(S'at_y2'
p879
tp880
asg36
(lp881
(S'at_x6'
p882
tp883
asg40
(tsg41
(lp884
(S'at_x5'
p885
tp886
asg45
I0
sg46
(lp887
sg48
S'move_5_2_6_2'
p888
sbg265
(istructures.domain
Action
p889
(dp890
g30
(lp891
(S'at_x6'
p892
tp893
a(S'at_y2'
p894
tp895
asg36
(lp896
(S'at_x7'
p897
tp898
asg40
(tsg41
(lp899
(S'at_x6'
p900
tp901
asg45
I0
sg46
(lp902
sg48
S'move_6_2_7_2'
p903
sbtp904
(g2
g10
g71
g20
g22
tp905
tp906
a((g2
g6
g14
g16
g18
g71
g24
g54
g26
tp907
((istructures.domain
Action
p908
(dp909
g30
(lp910
(S'at_x2'
p911
tp912
a(S'at_y6'
p913
tp914
asg36
(lp915
(S'at_x1'
p916
tp917
asg40
(tsg41
(lp918
(S'at_x2'
p919
tp920
asg45
I0
sg46
(lp921
sg48
S'move_2_6_1_6'
p922
sbg156
(istructures.domain
Action
p923
(dp924
g30
(lp925
(S'at_x0'
p926
tp927
a(S'at_y6'
p928
tp929
asg36
(lp930
(S'at_y5'
p931
tp932
asg40
(tsg41
(lp933
(S'at_y6'
p934
tp935
asg45
I0
sg46
(lp936
sg48
S'move_0_6_0_5'
p937
sbtp938
(g4
g10
g16
g18
g71
g54
tp939
tp940
a((g2
g4
g6
g10
g12
g69
g16
g71
g105
g22
g54
tp941
((istructures.domain
Action
p942
(dp943
g30
(lp944
(S'at_x4'
p945
tp946
a(S'at_y1'
p947
tp948
asg36
(lp949
(S'at_y0'
p950
tp951
asg40
(tsg41
(lp952
(S'at_y1'
p953
tp954
asg45
I0
sg46
(lp955
sg48
S'move_4_1_4_0'
p956
sb(istructures.domain
Action
p957
(dp958
g30
(lp959
(S'at_x4'
p960
tp961
a(S'at_y5'
p962
tp963
asg36
(lp964
(S'at_y4'
p965
tp966
asg40
(tsg41
(lp967
(S'at_y5'
p968
tp969
asg45
I0
sg46
(lp970
sg48
S'move_4_5_4_4'
p971
sbtp972
(g2
g18
g73
g22
tp973
tp974
a((g2
g4
g6
g8
g12
g16
g73
g20
g22
g65
g24
g54
tp975
(g188
g851
tp976
(g2
g6
g16
g18
g73
g26
tp977
tp978
a((g2
g4
g8
g10
g69
g14
g18
g71
g73
g105
g22
g65
tp979
(g496
tp980
(g2
g69
g22
g24
tp981
tp982
a((g6
g8
g12
g69
g18
g71
g73
g20
g105
g24
g26
tp983
(g156
g587
tp984
(g2
g10
g12
g18
g73
g20
g105
tp985
tp986
a((g2
g4
g8
g10
g69
g14
g18
g73
g20
g22
g65
g54
g26
tp987
(g75
g250
tp988
(g2
g10
g14
g16
g18
g73
g20
g105
g26
tp989
tp990
a((g6
g10
g12
g69
g14
g16
g18
g73
g20
g105
g22
g24
g54
g26
tp991
(g748
g587
tp992
(g2
g6
g8
g10
g12
g16
g73
g20
g22
g54
tp993
tp994
a((g2
g12
g69
g14
g18
g20
g105
g65
g54
g26
tp995
(g942
g250
tp996
(g2
g69
g16
g18
g20
g65
g26
tp997
tp998
a((g2
g4
g6
g8
g14
g18
g73
g26
tp999
(g156
g908
g409
tp1000
(g4
g6
g8
g10
g54
g26
tp1001
tp1002
a((g4
g6
g12
g69
g14
g16
g18
g71
g20
g22
g65
g24
g54
g26
tp1003
(g587
tp1004
(g2
g4
g6
g12
g18
g71
g22
g65
g24
g54
tp1005
tp1006
a((g2
g6
g8
g10
g12
g14
g16
g18
g73
g20
g105
g24
g54
g26
tp1007
(g621
tp1008
(g10
g69
g20
g24
g54
g26
tp1009
tp1010
a((g2
g4
g10
g12
g69
g16
g18
g71
g73
g20
g105
g65
g24
g54
g26
tp1011
(g318
tp1012
(g2
g8
g71
g20
g65
g24
tp1013
tp1014
a((g4
g6
g12
g69
g14
g18
g20
g22
g54
g26
tp1015
(g50
g587
g390
tp1016
(g2
g6
g12
g14
g71
g22
g65
tp1017
tp1018
a((g2
g6
g8
g10
g12
g69
g14
g16
g73
g20
g105
g65
g54
g26
tp1019
((istructures.domain
Action
p1020
(dp1021
g30
(lp1022
(S'at_x2'
p1023
tp1024
a(S'at_y6'
p1025
tp1026
asg36
(lp1027
(S'at_y5'
p1028
tp1029
asg40
(tsg41
(lp1030
(S'at_y6'
p1031
tp1032
asg45
I0
sg46
(lp1033
sg48
S'move_2_6_2_5'
p1034
sbtp1035
(g4
g8
g10
g12
g20
g65
tp1036
tp1037
a((g2
g4
g6
g8
g10
g12
g69
g14
g16
g18
g20
g65
g24
g26
tp1038
(g75
(istructures.domain
Action
p1039
(dp1040
g30
(lp1041
(S'at_x4'
p1042
tp1043
a(S'at_y4'
p1044
tp1045
asg36
(lp1046
(S'at_x5'
p1047
tp1048
asg40
(tsg41
(lp1049
(S'at_x4'
p1050
tp1051
asg45
I0
sg46
(lp1052
sg48
S'move_4_4_5_4'
p1053
sbtp1054
(g4
g6
g10
g14
g16
g18
g105
g22
g24
tp1055
tp1056
a((g2
g4
g6
g10
g14
g18
g73
g20
g22
g65
g54
tp1057
(g695
g534
tp1058
(g10
g24
g26
tp1059
tp1060
a((g2
g8
g12
g14
g16
g18
g73
g20
g65
g24
g54
g26
tp1061
(g678
g156
g621
tp1062
(g10
g69
g14
g20
g105
tp1063
tp1064
a((g2
g4
g6
g12
g69
g14
g73
g65
tp1065
(g250
tp1066
(g6
g12
g16
tp1067
tp1068
a((g4
g6
g8
g10
g69
g14
g18
g71
g20
g105
g22
g54
tp1069
(g141
(istructures.domain
Action
p1070
(dp1071
g30
(lp1072
(S'at_x5'
p1073
tp1074
a(S'at_y5'
p1075
tp1076
asg36
(lp1077
(S'at_x4'
p1078
tp1079
asg40
(tsg41
(lp1080
(S'at_x5'
p1081
tp1082
asg45
I0
sg46
(lp1083
sg48
S'move_5_5_4_5'
p1084
sbtp1085
(g6
g8
g12
g73
tp1086
tp1087
a((g2
g4
g6
g12
g69
g14
g16
g18
g71
g73
g20
g105
g22
g24
g54
tp1088
(g695
tp1089
(g6
g12
g71
g73
g20
g22
g24
g54
g26
tp1090
tp1091
a((g2
g6
g8
g10
g12
g14
g16
g73
g22
g65
g24
g54
g26
tp1092
(g109
g337
tp1093
(g6
g8
g10
g12
g69
g14
g16
g73
g20
g65
tp1094
tp1095
a((g2
g4
g6
g10
g12
g71
g20
g22
g24
g54
g26
tp1096
((istructures.domain
Action
p1097
(dp1098
g30
(lp1099
(S'at_x7'
p1100
tp1101
a(S'at_y5'
p1102
tp1103
asg36
(lp1104
(S'at_x6'
p1105
tp1106
asg40
(tsg41
(lp1107
(S'at_x7'
p1108
tp1109
asg45
I0
sg46
(lp1110
sg48
S'move_7_5_6_5'
p1111
sbtp1112
(g12
g69
g22
g54
g26
tp1113
tp1114
a((g4
g6
g8
g10
g69
g14
g16
g71
g20
g22
g24
g54
tp1115
(g587
g572
tp1116
(g2
g4
g6
g10
g69
g16
g24
g54
tp1117
tp1118
a((g4
g8
g10
g12
g69
g14
g71
g73
g20
g22
g65
g24
g54
g26
tp1119
((istructures.domain
Action
p1120
(dp1121
g30
(lp1122
(S'at_x6'
p1123
tp1124
a(S'at_y3'
p1125
tp1126
asg36
(lp1127
(S'at_x7'
p1128
tp1129
asg40
(tsg41
(lp1130
(S'at_x6'
p1131
tp1132
asg45
I0
sg46
(lp1133
sg48
S'move_6_3_7_3'
p1134
sbtp1135
(g2
g4
g10
g14
g73
g20
g24
g26
tp1136
tp1137
a((g4
g8
g10
g12
g69
g14
g16
g20
g105
g22
g65
g24
g26
tp1138
(g889
tp1139
(g2
g4
g8
g10
g12
g14
g16
g20
g22
g65
g24
g26
tp1140
tp1141
a((g10
g69
g14
g16
g71
g22
g65
tp1142
(g824
g851
g763
g1070
tp1143
(g4
g12
g69
g14
g16
g71
tp1144
tp1145
a((g2
g4
g6
g10
g14
g71
g73
g20
g105
g24
tp1146
((istructures.domain
Action
p1147
(dp1148
g30
(lp1149
g2
a(S'at_y1'
p1150
tp1151
asg36
(lp1152
(S'at_y2'
p1153
tp1154
asg40
(tsg41
(lp1155
(S'at_y1'
p1156
tp1157
asg45
I0
sg46
(lp1158
sg48
S'move_7_1_7_2'
p1159
sbg824
g318
tp1160
(g6
g8
g73
g54
tp1161
tp1162
a((g2
g4
g6
g69
g14
g16
g18
g73
g105
g22
g65
g24
g26
tp1163
(g235
(istructures.domain
Action
p1164
(dp1165
g30
(lp1166
(S'at_x6'
p1167
tp1168
a(S'at_y0'
p1169
tp1170
asg36
(lp1171
(S'at_x5'
p1172
tp1173
asg40
(tsg41
(lp1174
(S'at_x6'
p1175
tp1176
asg45
I0
sg46
(lp1177
sg48
S'move_6_0_5_0'
p1178
sbtp1179
(g6
g12
g14
g18
g73
g22
g24
tp1180
tp1181
a((g2
g6
g8
g12
g14
g16
g18
g71
g73
g20
g105
g54
tp1182
(g1039
tp1183
(g2
g8
g14
g18
g105
g22
tp1184
tp1185
a((g2
g4
g8
g12
g14
g16
g20
g105
g65
g24
g54
g26
tp1186
((istructures.domain
Action
p1187
(dp1188
g30
(lp1189
(S'at_x2'
p1190
tp1191
a(S'at_y3'
p1192
tp1193
asg36
(lp1194
(S'at_y4'
p1195
tp1196
asg40
(tsg41
(lp1197
(S'at_y3'
p1198
tp1199
asg45
I0
sg46
(lp1200
sg48
S'move_2_3_2_4'
p1201
sbtp1202
(g2
g4
g12
g14
g18
g20
tp1203
tp1204
a((g4
g8
g10
g69
g14
g71
g73
g105
g22
g65
tp1205
(g188
g889
tp1206
(g2
g8
g10
g105
g22
g65
g26
tp1207
tp1208
a((g8
g10
g14
g18
g71
g20
g105
g22
g24
g54
tp1209
(g141
g109
g1120
tp1210
(g2
g73
g20
g24
g54
tp1211
tp1212
a((g4
g10
g69
g16
g20
g105
g65
g54
g26
tp1213
((istructures.domain
Action
p1214
(dp1215
g30
(lp1216
(S'at_x6'
p1217
tp1218
a(S'at_y1'
p1219
tp1220
asg36
(lp1221
(S'at_y0'
p1222
tp1223
asg40
(tsg41
(lp1224
(S'at_y1'
p1225
tp1226
asg45
I0
sg46
(lp1227
sg48
S'move_6_1_6_0'
p1228
sb(istructures.domain
Action
p1229
(dp1230
g30
(lp1231
(S'at_x0'
p1232
tp1233
a(S'at_y3'
p1234
tp1235
asg36
(lp1236
(S'at_y4'
p1237
tp1238
asg40
(tsg41
(lp1239
(S'at_y3'
p1240
tp1241
asg45
I0
sg46
(lp1242
sg48
S'move_0_3_0_4'
p1243
sbtp1244
(g4
g69
g16
g18
g73
g20
tp1245
tp1246
a((g4
g10
g12
g69
g16
g71
g73
g20
g105
g65
g26
tp1247
(g265
g714
g28
tp1248
(g69
g16
g71
g105
g22
g65
g54
g26
tp1249
tp1250
a((g4
g6
g10
g12
g14
g18
g22
g65
g24
g54
tp1251
(g695
g908
tp1252
(g8
g10
g12
g18
g22
g65
g54
g26
tp1253
tp1254
a((g2
g6
g8
g12
g69
g16
g73
g105
g54
g26
tp1255
(g218
(istructures.domain
Action
p1256
(dp1257
g30
(lp1258
(S'at_x1'
p1259
tp1260
a(S'at_y3'
p1261
tp1262
asg36
(lp1263
(S'at_x0'
p1264
tp1265
asg40
(tsg41
(lp1266
(S'at_x1'
p1267
tp1268
asg45
I0
sg46
(lp1269
sg48
S'move_1_3_0_3'
p1270
sbg1164
tp1271
(g10
g12
g22
g65
tp1272
tp1273
a((g2
g4
g6
g8
g10
g12
g69
g14
g71
g73
g24
tp1274
(g424
g1039
tp1275
(g8
g10
g18
g22
g24
tp1276
tp1277
a((g2
g8
g12
g69
g14
g16
g71
g73
g20
g24
g54
g26
tp1278
(g678
(istructures.domain
Action
p1279
(dp1280
g30
(lp1281
(S'at_x4'
p1282
tp1283
a(S'at_y6'
p1284
tp1285
asg36
(lp1286
(S'at_x5'
p1287
tp1288
asg40
(tsg41
(lp1289
(S'at_x4'
p1290
tp1291
asg45
I0
sg46
(lp1292
sg48
S'move_4_6_5_6'
p1293
sbg851
tp1294
(g2
g8
g69
g14
g18
g71
g20
g105
g22
tp1295
tp1296
a((g8
g10
g12
g69
g14
g16
g18
g71
g73
g20
g105
g65
g54
tp1297
(g265
g763
tp1298
(g4
g10
g69
g73
g22
g65
tp1299
tp1300
a((g2
g6
g8
g10
g12
g69
g71
g73
g20
g65
g54
tp1301
((istructures.domain
Action
p1302
(dp1303
g30
(lp1304
(S'at_x7'
p1305
tp1306
a(S'at_y2'
p1307
tp1308
asg36
(lp1309
(S'at_y1'
p1310
tp1311
asg40
(tsg41
(lp1312
(S'at_y2'
p1313
tp1314
asg45
I0
sg46
(lp1315
sg48
S'move_7_2_7_1'
p1316
sbg250
tp1317
(g2
g8
g10
g16
g71
g105
tp1318
tp1319
a((g4
g6
g8
g10
g12
g69
g14
g71
g73
g105
g22
g65
g54
g26
tp1320
(g337
tp1321
(g6
g8
g10
g14
g73
g20
g26
tp1322
tp1323
a((g2
g4
g8
g10
g12
g69
g14
g16
g71
g105
g22
g24
g54
tp1324
(g218
g188
g553
tp1325
(g6
g10
g12
g69
g14
g16
g65
g24
tp1326
tp1327
a((g10
g12
g69
g16
g71
g20
g105
g22
g54
g26
tp1328
((istructures.domain
Action
p1329
(dp1330
g30
(lp1331
(S'at_x4'
p1332
tp1333
a(S'at_y6'
p1334
tp1335
asg36
(lp1336
(S'at_x3'
p1337
tp1338
asg40
(tsg41
(lp1339
(S'at_x4'
p1340
tp1341
asg45
I0
sg46
(lp1342
sg48
S'move_4_6_3_6'
p1343
sb(istructures.domain
Action
p1344
(dp1345
g30
(lp1346
(S'at_x5'
p1347
tp1348
a(S'at_y3'
p1349
tp1350
asg36
(lp1351
(S'at_x4'
p1352
tp1353
asg40
(tsg41
(lp1354
(S'at_x5'
p1355
tp1356
asg45
I0
sg46
(lp1357
sg48
S'move_5_3_4_3'
p1358
sbtp1359
(g10
g12
g69
g71
g24
g54
g26
tp1360
tp1361
a((g2
g4
g6
g10
g69
g18
g71
g20
g105
g54
g26
tp1362
(g1147
g805
g621
tp1363
(g4
g6
g10
g69
g71
g20
g22
g65
g54
tp1364
tp1365
a((g2
g4
g6
g8
g12
g69
g14
g16
g18
g71
g73
g22
g24
tp1366
(g188
g28
tp1367
(g6
g69
g71
g73
g22
g24
g54
g26
tp1368
tp1369
a((g2
g6
g10
g14
g73
g20
g105
g22
g24
g26
tp1370
(g250
g390
tp1371
(g2
g16
g71
g73
g105
g26
tp1372
tp1373
a((g2
g8
g10
g12
g14
g18
g71
g20
g105
g22
g54
g26
tp1374
(g621
tp1375
(g10
g12
g69
g14
g18
g22
g54
g26
tp1376
tp1377
a((g2
g6
g8
g12
g69
g18
g71
g20
g105
g22
g26
tp1378
(g218
g28
tp1379
(g2
g69
g71
g20
g22
g65
g54
tp1380
tp1381
a((g2
g6
g10
g12
g69
g16
g71
g105
g22
g65
g54
g26
tp1382
(g942
tp1383
(g6
g69
g73
g22
g65
g26
tp1384
tp1385
a((g2
g4
g6
g8
g10
g12
g14
g18
g73
g20
g22
g65
g24
g26
tp1386
(g250
g28
tp1387
(g4
g10
g12
g14
g16
g65
g54
g26
tp1388
tp1389
a((g2
g8
g14
g16
g18
g71
g73
g20
g22
g65
g24
g26
tp1390
(g122
tp1391
(g2
g8
g12
g14
g71
g20
g22
tp1392
tp1393
a((g4
g6
g8
g12
g20
g105
g24
g54
tp1394
(g188
g1256
tp1395
(g6
g10
g105
g24
g26
tp1396
tp1397
a((g2
g4
g6
g10
g69
g73
g54
g26
tp1398
(g714
(istructures.domain
Action
p1399
(dp1400
g30
(lp1401
(S'at_x6'
p1402
tp1403
a(S'at_y3'
p1404
tp1405
asg36
(lp1406
(S'at_y2'
p1407
tp1408
asg40
(tsg41
(lp1409
(S'at_y3'
p1410
tp1411
asg45
I0
sg46
(lp1412
sg48
S'move_6_3_6_2'
p1413
sbtp1414
(g10
g18
g65
g26
tp1415
tp1416
a((g2
g4
g6
g8
g12
g14
g16
g71
g73
g105
g65
tp1417
((istructures.domain
Action
p1418
(dp1419
g30
(lp1420
(S'at_x1'
p1421
tp1422
a(S'at_y0'
p1423
tp1424
asg36
(lp1425
(S'at_x0'
p1426
tp1427
asg40
(tsg41
(lp1428
(S'at_x1'
p1429
tp1430
asg45
I0
sg46
(lp1431
sg48
S'move_1_0_0_0'
p1432
sbg337
tp1433
(g2
g4
g6
g10
g12
g71
g73
g20
g105
g65
tp1434
tp1435
a((g4
g6
g8
g10
g14
g16
g71
g105
g22
g54
g26
tp1436
(g141
tp1437
(g4
g10
g14
g16
g73
g22
tp1438
tp1439
a((g2
g4
g6
g8
g12
g14
g16
g18
g73
g20
g105
g22
g65
tp1440
(g496
tp1441
(g12
g18
g105
g65
g24
tp1442
tp1443
a((g4
g16
g18
g71
g73
g20
g22
g24
g54
g26
tp1444
((istructures.domain
Action
p1445
(dp1446
g30
(lp1447
(S'at_x3'
p1448
tp1449
a(S'at_y0'
p1450
tp1451
asg36
(lp1452
(S'at_y1'
p1453
tp1454
asg40
(tsg41
(lp1455
(S'at_y0'
p1456
tp1457
asg45
I0
sg46
(lp1458
sg48
S'move_3_0_3_1'
p1459
sbg606
(istructures.domain
Action
p1460
(dp1461
g30
(lp1462
(S'at_x3'
p1463
tp1464
a(S'at_y5'
p1465
tp1466
asg36
(lp1467
(S'at_y6'
p1468
tp1469
asg40
(tsg41
(lp1470
(S'at_y5'
p1471
tp1472
asg45
I0
sg46
(lp1473
sg48
S'move_3_5_3_6'
p1474
sbtp1475
(g6
g16
g20
g105
g22
g24
g54
g26
tp1476
tp1477
a((g2
g4
g8
g12
g18
g71
g20
g105
g22
g65
g24
tp1478
(g301
g621
tp1479
(g69
g14
g105
g22
tp1480
tp1481
a((g2
g4
g8
g10
g69
g14
g16
g18
g71
g73
g20
g105
g22
g65
g24
g54
g26
tp1482
(g553
tp1483
(g2
g6
g10
g69
g14
g16
g18
g71
g20
g105
g22
g24
g54
tp1484
tp1485
a((g2
g6
g8
g14
g18
g71
g73
g105
g22
g65
g26
tp1486
((istructures.domain
Action
p1487
(dp1488
g30
(lp1489
(S'at_x5'
p1490
tp1491
a(S'at_y6'
p1492
tp1493
asg36
(lp1494
(S'at_y5'
p1495
tp1496
asg40
(tsg41
(lp1497
(S'at_y6'
p1498
tp1499
asg45
I0
sg46
(lp1500
sg48
S'move_5_6_5_5'
p1501
sbg250
tp1502
(g4
g8
g16
g71
g105
tp1503
tp1504
a((g2
g4
g8
g10
g12
g14
g18
g73
g20
g54
g26
tp1505
(g534
tp1506
(g2
g8
g12
g24
g26
tp1507
tp1508
a((g2
g4
g6
g10
g12
g69
g14
g20
g105
g54
g26
tp1509
((istructures.domain
Action
p1510
(dp1511
g30
(lp1512
(S'at_x6'
p1513
tp1514
a(S'at_y5'
p1515
tp1516
asg36
(lp1517
(S'at_x5'
p1518
tp1519
asg40
(tsg41
(lp1520
(S'at_x6'
p1521
tp1522
asg45
I0
sg46
(lp1523
sg48
S'move_6_5_5_5'
p1524
sbtp1525
(g6
g10
g12
g14
g20
g105
g22
g54
g26
tp1526
tp1527
a((g2
g4
g6
g8
g69
g16
g71
g22
g65
g26
tp1528
(g640
g851
g156
tp1529
(g4
g6
g10
g16
g18
tp1530
tp1531
a((g2
g4
g6
g10
g12
g18
g71
g105
g22
g54
tp1532
(g50
(istructures.domain
Action
p1533
(dp1534
g30
(lp1535
(S'at_x0'
p1536
tp1537
a(S'at_y5'
p1538
tp1539
asg36
(lp1540
(S'at_x1'
p1541
tp1542
asg40
(tsg41
(lp1543
(S'at_x0'
p1544
tp1545
asg45
I0
sg46
(lp1546
sg48
S'move_0_5_1_5'
p1547
sbg284
tp1548
(g4
g6
g12
g14
g18
g71
g105
g65
tp1549
tp1550
a((g2
g4
g6
g10
g14
g18
g71
g73
g20
g65
g24
g54
tp1551
((istructures.domain
Action
p1552
(dp1553
g30
(lp1554
(S'at_x7'
p1555
tp1556
a(S'at_y7'
p1557
tp1558
asg36
(lp1559
(S'at_y6'
p1560
tp1561
asg40
(tsg41
(lp1562
(S'at_y7'
p1563
tp1564
asg45
I0
sg46
(lp1565
sg48
S'move_7_7_7_6'
p1566
sbtp1567
(g4
g18
g71
g65
g24
g26
tp1568
tp1569
a((g4
g6
g8
g10
g12
g69
g16
g18
g71
g20
g105
g24
g54
tp1570
(g587
tp1571
(g2
g6
g12
g18
g71
g20
g24
g54
tp1572
tp1573
a((g2
g6
g8
g10
g69
g16
g73
g20
g105
g22
g65
g24
g26
tp1574
(g235
tp1575
(g2
g8
g12
g20
g105
g24
tp1576
tp1577
a((g2
g4
g6
g10
g12
g69
g16
g71
g22
g65
g54
g26
tp1578
(g1302
g851
tp1579
(g2
g4
g6
g10
g69
g16
g18
g105
tp1580
tp1581
a((g10
g69
g18
g71
g73
g20
g22
g24
g54
g26
tp1582
(g1445
g1120
tp1583
(g2
g71
g20
g105
g54
g26
tp1584
tp1585
a((g4
g8
g10
g12
g69
g14
g16
g18
g71
g73
g20
g105
g65
g54
g26
tp1586
(g655
g1164
tp1587
(g10
g14
g16
g18
g73
g105
g22
g65
g24
g54
g26
tp1588
tp1589
a((g2
g4
g8
g10
g12
g69
g16
g71
g20
g105
g22
g54
g26
tp1590
(g141
tp1591
(g2
g8
g10
g12
g69
g73
g20
g22
g26
tp1592
tp1593
a((g6
g12
g69
g14
g16
g71
g20
g22
g65
g24
g26
tp1594
(g908
tp1595
(g8
g69
g71
g20
g22
g65
tp1596
tp1597
a((g2
g6
g8
g10
g12
g69
g14
g18
g71
g73
g105
g22
g65
g54
g26
tp1598
(g250
g337
tp1599
(g2
g6
g10
g16
g18
g71
g20
g105
g26
tp1600
tp1601
a((g6
g8
g10
g12
g14
g71
g20
g105
g54
g26
tp1602
(g218
tp1603
(g6
g8
g20
g65
g54
g26
tp1604
tp1605
a((g2
g6
g16
g18
g71
g73
g20
g22
g65
g24
g54
g26
tp1606
(g1487
g1552
tp1607
(g4
g18
g24
g54
g26
tp1608
tp1609
a((g2
g6
g8
g14
g16
g18
g71
g73
g20
g65
g24
g26
tp1610
(g678
g824
g156
tp1611
(g2
g10
g14
g16
g18
g105
g24
g54
g26
tp1612
tp1613
a((g2
g6
g8
g10
g12
g14
g16
g18
g73
g105
g22
g65
g24
tp1614
(g390
tp1615
(g2
g6
g8
g12
g16
g18
g71
g65
g24
tp1616
tp1617
a((g2
g4
g6
g12
g14
g16
g73
g105
g65
g24
g54
tp1618
(g695
tp1619
(g14
g73
g65
g24
g26
tp1620
tp1621
a((g2
g4
g8
g10
g69
g14
g16
g71
g73
g20
g105
g22
g26
tp1622
(g218
g678
g553
tp1623
(g6
g8
g14
g71
g20
g105
g65
tp1624
tp1625
a((g2
g4
g6
g8
g10
g12
g14
g16
g18
g22
g65
g54
g26
tp1626
(g655
g337
tp1627
(g2
g10
g18
g20
g65
g24
g54
g26
tp1628
tp1629
a((g2
g4
g6
g8
g12
g69
g16
g18
g71
g73
g24
tp1630
(g1039
(istructures.domain
Action
p1631
(dp1632
g30
(lp1633
(S'at_x3'
p1634
tp1635
a(S'at_y4'
p1636
tp1637
asg36
(lp1638
(S'at_x2'
p1639
tp1640
asg40
(tsg41
(lp1641
(S'at_x3'
p1642
tp1643
asg45
I0
sg46
(lp1644
sg48
S'move_3_4_2_4'
p1645
sbtp1646
(g6
g8
g69
g14
g16
g18
g22
tp1647
tp1648
a((g6
g8
g10
g12
g69
g14
g18
g73
g20
g105
g26
tp1649
(g218
g678
g824
tp1650
(g6
g12
g14
g18
g105
g54
tp1651
tp1652
a((g2
g4
g6
g10
g12
g69
g14
g71
g73
g105
g22
g24
g54
g26
tp1653
(g318
tp1654
(g4
g6
g8
g12
g14
g73
g105
g24
g54
g26
tp1655
tp1656
a((g2
g4
g6
g12
g14
g18
g71
g73
g20
g105
g65
g24
g54
tp1657
(g265
g1552
tp1658
(g4
g71
g20
g105
g22
g24
g54
g26
tp1659
tp1660
a((g4
g8
g10
g14
g16
g71
g73
g20
g105
g22
g65
g26
tp1661
(g824
g1070
tp1662
(g4
g12
g54
g26
tp1663
tp1664
a((g2
g4
g6
g10
g12
g14
g16
g71
g105
g22
g26
tp1665
(g1147
g824
tp1666
(g2
g10
g12
g14
g16
g54
tp1667
tp1668
a((g6
g8
g12
g69
g16
g71
g20
g22
g26
tp1669
(g1487
g352
g443
tp1670
(g4
g10
g12
g16
g22
g26
tp1671
tp1672
a((g8
g16
g18
g73
g20
g22
g65
g24
tp1673
(g156
g122
tp1674
(g10
g12
g22
g65
tp1675
tp1676
a((g4
g8
g12
g69
g14
g16
g18
g71
g22
g65
g24
g26
tp1677
(g75
tp1678
(g8
g12
g16
g105
tp1679
tp1680
a((g2
g6
g12
g69
g14
g18
g71
g73
g105
g22
g24
g26
tp1681
(g748
g156
tp1682
(g10
g18
g73
g22
g24
g26
tp1683
tp1684
a((g2
g4
g8
g69
g14
g73
g20
g105
g22
g24
g54
g26
tp1685
(g424
g250
tp1686
(g2
g8
g14
g16
g18
g105
g22
g24
g54
tp1687
tp1688
a((g4
g6
g8
g69
g16
g18
g71
g20
g24
tp1689
(g188
g284
(istructures.domain
Action
p1690
(dp1691
g30
(lp1692
(S'at_x2'
p1693
tp1694
a(S'at_y4'
p1695
tp1696
asg36
(lp1697
(S'at_y3'
p1698
tp1699
asg40
(tsg41
(lp1700
(S'at_y4'
p1701
tp1702
asg45
I0
sg46
(lp1703
sg48
S'move_2_4_2_3'
p1704
sbtp1705
(g6
g69
g14
g16
g24
g54
g26
tp1706
tp1707
a((g2
g6
g10
g12
g14
g16
g18
g71
g73
g20
g105
g22
g65
g24
tp1708
(g763
g695
tp1709
(g2
g6
g12
g14
g71
g73
g20
g105
g22
g65
g26
tp1710
tp1711
a((g2
g6
g8
g69
g18
g71
g20
g105
g65
g26
tp1712
(g141
g156
g250
tp1713
(g2
g6
g10
g69
g16
g71
g20
g26
tp1714
tp1715
a((g6
g8
g69
g14
g16
g71
g105
g24
g54
g26
tp1716
(g218
g1256
g1187
tp1717
(g6
g10
g69
g16
g18
g65
g24
tp1718
tp1719
a((g2
g4
g6
g8
g10
g12
g16
g71
g73
g22
g65
g54
g26
tp1720
(g678
g337
tp1721
(g8
g16
g20
g105
g22
g65
g54
tp1722
tp1723
a((g2
g4
g6
g8
g10
g16
g18
g71
g73
g54
g26
tp1724
(g284
g534
g122
tp1725
(g2
g12
g16
g71
g26
tp1726
tp1727
a((g4
g10
g12
g69
g16
g71
g73
g65
g24
g54
g26
tp1728
(g957
g1120
tp1729
(g2
g16
g18
g71
g26
tp1730
tp1731
a((g2
g4
g6
g8
g12
g69
g16
g18
g73
g24
g54
g26
tp1732
(g1039
g390
tp1733
(g8
g69
g16
g71
g73
g22
g24
g26
tp1734
tp1735
a((g6
g8
g12
g69
g14
g16
g18
g71
g73
g20
g22
g65
g54
tp1736
(g655
g763
tp1737
(g4
g6
g8
g71
g20
g65
g24
tp1738
tp1739
a((g2
g4
g6
g10
g12
g14
g18
g71
g73
g105
g22
g65
g24
tp1740
(g1552
tp1741
(g2
g4
g10
g18
g71
g105
g22
g24
g26
tp1742
tp1743
a((g2
g6
g10
g12
g69
g16
g18
g73
g20
g65
g24
g54
tp1744
(g1302
g390
tp1745
(g10
g12
g71
g105
g24
tp1746
tp1747
a((g4
g6
g8
g69
g14
g18
g71
g20
g22
g65
g54
g26
tp1748
(g75
g587
tp1749
(g2
g6
g18
g71
g105
tp1750
tp1751
a((g8
g10
g12
g69
g14
g18
g105
g22
g65
g24
g26
tp1752
(g824
g763
tp1753
(g4
g10
g69
g14
g24
g54
g26
tp1754
tp1755
a((g6
g8
g10
g12
g69
g14
g73
g20
g22
g65
g54
tp1756
(g587
g390
tp1757
(g10
g71
g20
g54
tp1758
tp1759
a((g2
g4
g6
g8
g10
g69
g16
g18
g65
g54
g26
tp1760
(g805
g621
tp1761
(g4
g6
g8
g69
g16
g18
g22
g65
g54
tp1762
tp1763
a((g4
g6
g10
g12
g16
g18
g71
g73
g20
g105
g22
g65
tp1764
(g109
(istructures.domain
Action
p1765
(dp1766
g30
(lp1767
(S'at_x0'
p1768
tp1769
a(S'at_y7'
p1770
tp1771
asg36
(lp1772
(S'at_y6'
p1773
tp1774
asg40
(tsg41
(lp1775
(S'at_y7'
p1776
tp1777
asg45
I0
sg46
(lp1778
sg48
S'move_0_7_0_6'
p1779
sbtp1780
(g4
g12
g69
g71
g73
g105
g26
tp1781
tp1782
a((g2
g4
g6
g8
g69
g18
g105
g22
g65
g24
tp1783
(g301
g390
tp1784
(g4
g6
g69
g14
g18
g71
g65
tp1785
tp1786
a((g2
g4
g8
g10
g14
g18
g71
g73
g20
g105
g24
g54
g26
tp1787
(g250
tp1788
(g4
g8
g10
g14
g16
g18
g71
g20
g54
g26
tp1789
tp1790
a((g4
g6
g8
g12
g69
g14
g16
g18
g71
g73
g20
g105
g24
g54
tp1791
(g188
tp1792
(g6
g12
g69
g18
g71
g73
g20
g26
tp1793
tp1794
a((g2
g6
g8
g69
g14
g71
g73
g20
g22
g65
g24
g54
g26
tp1795
(g1256
g908
tp1796
(g6
g8
g10
g71
g73
g22
g24
g54
tp1797
tp1798
a((g2
g4
g6
g10
g69
g16
g18
g73
g20
g24
g26
tp1799
(g318
g284
tp1800
(g14
g16
g73
g24
tp1801
tp1802
a((g2
g6
g8
g10
g69
g14
g16
g18
g73
g20
g105
g22
g54
tp1803
(g50
g235
tp1804
(g2
g12
g14
g16
g73
g105
g65
tp1805
tp1806
a((g4
g6
g8
g10
g12
g69
g14
g18
g71
g73
g105
g54
tp1807
(g88
tp1808
(g4
g6
g10
g71
g105
g65
tp1809
tp1810
a((g4
g6
g8
g12
g16
g71
g20
g105
g22
g65
g54
tp1811
(g188
g1329
tp1812
(g16
g20
g22
g24
g54
g26
tp1813
tp1814
a((g2
g6
g14
g18
g71
g73
g65
g24
g54
tp1815
(g75
(istructures.domain
Action
p1816
(dp1817
g30
(lp1818
(S'at_x3'
p1819
tp1820
a(S'at_y4'
p1821
tp1822
asg36
(lp1823
(S'at_y5'
p1824
tp1825
asg40
(tsg41
(lp1826
(S'at_y4'
p1827
tp1828
asg45
I0
sg46
(lp1829
sg48
S'move_3_4_3_5'
p1830
sbg1187
tp1831
(g4
g6
g14
g18
g71
g73
g105
tp1832
tp1833
a((g2
g4
g8
g10
g16
g18
g71
g20
g22
g65
g54
g26
tp1834
(g284
g534
tp1835
(g2
g4
g22
g65
g24
tp1836
tp1837
a((g2
g4
g6
g10
g14
g16
g18
g71
g73
g105
g22
g24
g26
tp1838
(g122
tp1839
(g6
g12
g71
g73
g105
g26
tp1840
tp1841
a((g2
g4
g6
g8
g12
g69
g14
g16
g18
g20
g105
g54
tp1842
(g141
g390
tp1843
(g2
g4
g8
g71
g73
g20
tp1844
tp1845
a((g2
g6
g10
g69
g73
g20
g105
g24
g26
tp1846
(g301
g748
g390
tp1847
(g8
g10
g69
g71
g73
g26
tp1848
tp1849
a((g2
g12
g69
g71
g20
g105
g22
g54
g26
tp1850
(g50
g942
tp1851
(g2
g73
g20
g65
tp1852
tp1853
a((g2
g6
g8
g10
g69
g71
g73
g105
g65
g24
g54
tp1854
((istructures.domain
Action
p1855
(dp1856
g30
(lp1857
(S'at_x1'
p1858
tp1859
a(S'at_y3'
p1860
tp1861
asg36
(lp1862
(S'at_x2'
p1863
tp1864
asg40
(tsg41
(lp1865
(S'at_x1'
p1866
tp1867
asg45
I0
sg46
(lp1868
sg48
S'move_1_3_2_3'
p1869
sbg337
tp1870
(g2
g6
g14
g73
g20
g105
g65
g24
g54
tp1871
tp1872
a((g2
g4
g6
g10
g69
g14
g18
g71
g65
g24
g54
tp1873
((istructures.domain
Action
p1874
(dp1875
g30
(lp1876
(S'at_x2'
p1877
tp1878
a(S'at_y3'
p1879
tp1880
asg36
(lp1881
(S'at_x1'
p1882
tp1883
asg40
(tsg41
(lp1884
(S'at_x2'
p1885
tp1886
asg45
I0
sg46
(lp1887
sg48
S'move_2_3_1_3'
p1888
sbtp1889
(g6
g8
g10
g24
g54
tp1890
tp1891
a((g2
g4
g8
g10
g12
g14
g16
g18
g71
g73
g20
g105
g22
g65
g54
tp1892
(g109
g655
tp1893
(g10
g69
g14
g18
g71
g20
g65
g24
g54
tp1894
tp1895
a((g2
g4
g6
g8
g16
g73
g20
g65
g24
g54
tp1896
((istructures.domain
Action
p1897
(dp1898
g30
(lp1899
(S'at_x3'
p1900
tp1901
a(S'at_y3'
p1902
tp1903
asg36
(lp1904
(S'at_y4'
p1905
tp1906
asg40
(tsg41
(lp1907
(S'at_y3'
p1908
tp1909
asg45
I0
sg46
(lp1910
sg48
S'move_3_3_3_4'
p1911
sb(istructures.domain
Action
p1912
(dp1913
g30
(lp1914
(S'at_x7'
p1915
tp1916
a(S'at_y2'
p1917
tp1918
asg36
(lp1919
(S'at_y3'
p1920
tp1921
asg40
(tsg41
(lp1922
(S'at_y2'
p1923
tp1924
asg45
I0
sg46
(lp1925
sg48
S'move_7_2_7_3'
p1926
sbtp1927
(g4
g18
g73
g20
g24
g54
tp1928
tp1929
a((g6
g10
g69
g14
g16
g18
g71
g20
g105
g24
g26
tp1930
((istructures.domain
Action
p1931
(dp1932
g30
(lp1933
(S'at_x6'
p1934
tp1935
a(S'at_y1'
p1936
tp1937
asg36
(lp1938
(S'at_y2'
p1939
tp1940
asg40
(tsg41
(lp1941
(S'at_y1'
p1942
tp1943
asg45
I0
sg46
(lp1944
sg48
S'move_6_1_6_2'
p1945
sbg587
tp1946
(g2
g6
g14
g16
g65
g24
tp1947
tp1948
a((g2
g6
g12
g14
g73
g20
g65
g26
tp1949
(g824
g1020
g424
tp1950
(g12
g14
g18
g73
g20
g54
tp1951
tp1952
a((g2
g8
g12
g16
g71
g73
g105
g22
g54
g26
tp1953
(g218
g851
g606
tp1954
(g2
g6
g8
g18
g71
g73
g65
tp1955
tp1956
a((g2
g4
g8
g12
g69
g14
g16
g105
g24
g54
g26
tp1957
(g1510
tp1958
(g2
g4
g12
g16
g105
g22
g24
tp1959
tp1960
a((g2
g4
g6
g8
g10
g12
g14
g16
g18
g71
g73
g22
g65
g24
g54
tp1961
(g678
tp1962
(g2
g4
g6
g8
g12
g71
g105
tp1963
tp1964
a((g2
g4
g6
g8
g14
g16
g73
g105
tp1965
(g218
g188
g824
tp1966
(g14
g16
g54
g26
tp1967
tp1968
a((g2
g4
g6
g10
g12
g69
g14
g16
g71
g20
g105
g22
g65
g24
g26
tp1969
(g942
tp1970
(g2
g6
g69
g14
g16
g71
g73
g65
tp1971
tp1972
a((g2
g4
g8
g12
g69
g73
g20
g105
g24
g54
g26
tp1973
(g218
g957
g284
tp1974
(g2
g14
g18
g73
g20
g65
tp1975
tp1976
a((g2
g6
g8
g10
g12
g14
g18
g73
g105
g65
tp1977
(g250
g352
tp1978
(g2
g12
g14
g16
g73
g105
g65
g26
tp1979
tp1980
a((g2
g6
g8
g10
g12
g69
g14
g16
g71
g73
g22
g54
tp1981
(g515
g352
tp1982
(g69
g14
g16
g22
g24
g26
tp1983
tp1984
a((g2
g4
g10
g12
g71
g73
g20
g105
g65
g24
g26
tp1985
(g318
tp1986
(g2
g4
g8
g20
g105
g65
g24
g26
tp1987
tp1988
a((g2
g4
g8
g69
g71
g73
g105
g22
g65
g24
g26
tp1989
(g301
tp1990
(g8
g69
g14
g105
g22
g65
tp1991
tp1992
a((g4
g6
g8
g10
g69
g18
g71
g20
g105
g65
g54
tp1993
(g141
(istructures.domain
Action
p1994
(dp1995
g30
(lp1996
(S'at_x0'
p1997
tp1998
a(S'at_y2'
p1999
tp2000
asg36
(lp2001
(S'at_y1'
p2002
tp2003
asg40
(tsg41
(lp2004
(S'at_y2'
p2005
tp2006
asg45
I0
sg46
(lp2007
sg48
S'move_0_2_0_1'
p2008
sbtp2009
(g4
g6
g8
g10
g69
g18
g73
g20
g105
g54
tp2010
tp2011
a((g2
g4
g6
g14
g16
g71
g73
g22
g65
g54
tp2012
(g75
g424
tp2013
(g2
g6
g14
g18
g71
g105
g54
tp2014
tp2015
a((g2
g4
g6
g8
g10
g12
g69
g14
g18
g73
g22
g65
g24
g26
tp2016
(g824
g250
tp2017
(g2
g6
g8
g12
g69
g16
g73
g22
g54
tp2018
tp2019
a((g4
g6
g10
g12
g69
g73
g20
g105
g24
g54
tp2020
((istructures.domain
Action
p2021
(dp2022
g30
(lp2023
g12
a(S'at_y1'
p2024
tp2025
asg36
(lp2026
(S'at_y2'
p2027
tp2028
asg40
(tsg41
(lp2029
(S'at_y1'
p2030
tp2031
asg45
I0
sg46
(lp2032
sg48
S'move_4_1_4_2'
p2033
sbg318
g188
tp2034
(g8
g69
g73
g20
g65
g26
tp2035
tp2036
a((g4
g6
g10
g12
g69
g18
g73
g22
g54
g26
tp2037
(g587
tp2038
(g2
g4
g10
g73
g54
g26
tp2039
tp2040
a((g8
g12
g69
g71
g20
g105
g65
g24
g26
tp2041
(g301
g824
g1187
tp2042
(g69
g14
g18
g105
g26
tp2043
tp2044
a((g2
g6
g8
g10
g12
g69
g20
g22
g65
tp2045
(g640
g851
g390
tp2046
(g8
g10
g18
g71
g20
tp2047
tp2048
a((g4
g6
g8
g10
g12
g69
g14
g71
g73
g22
g65
g24
tp2049
(g352
tp2050
(g4
g8
g10
g12
g69
g73
g24
g26
tp2051
tp2052
a((g2
g4
g6
g8
g10
g12
g69
g14
g71
g73
g22
g54
tp2053
(g188
g851
g763
tp2054
(g2
g4
g6
g8
g10
g12
g14
g73
g26
tp2055
tp2056
a((g2
g4
g8
g69
g16
g71
g73
g20
g22
g24
g26
tp2057
(g714
(istructures.domain
Action
p2058
(dp2059
g30
(lp2060
(S'at_x5'
p2061
tp2062
a(S'at_y0'
p2063
tp2064
asg36
(lp2065
(S'at_x4'
p2066
tp2067
asg40
(tsg41
(lp2068
(S'at_x5'
p2069
tp2070
asg45
I0
sg46
(lp2071
sg48
S'move_5_0_4_0'
p2072
sbtp2073
(g2
g8
g12
g69
g16
g18
g24
tp2074
tp2075
a((g2
g8
g12
g14
g16
g18
g71
g20
g22
g65
g24
g54
tp2076
(g75
g50
tp2077
(g8
g14
g71
g105
g65
tp2078
tp2079
a((g2
g4
g12
g16
g18
g73
g20
g105
g65
g54
g26
tp2080
(g621
g1164
tp2081
(g4
g12
g16
g22
g65
g54
tp2082
tp2083
a((g2
g6
g8
g12
g69
g18
g71
g20
g105
g22
g54
tp2084
(g50
g141
g250
tp2085
(g2
g6
g12
g69
g16
g18
g73
g20
g22
g65
tp2086
tp2087
a((g2
g6
g8
g10
g69
g14
g16
g18
g71
g73
g20
g105
g65
g54
tp2088
(g496
g1164
tp2089
(g6
g8
g18
g71
g20
g105
g22
g24
tp2090
tp2091
a((g6
g12
g69
g14
g18
g20
g26
tp2092
(g587
g390
tp2093
(g6
g71
g20
g26
tp2094
tp2095
a((g4
g6
g8
g10
g12
g69
g14
g16
g71
g73
g20
g105
g65
g54
g26
tp2096
(g424
g1020
tp2097
(g4
g6
g10
g12
g69
g18
g73
g105
g65
g54
tp2098
tp2099
a((g6
g8
g10
g14
g16
g18
g73
g65
g24
tp2100
(g122
(istructures.domain
Action
p2101
(dp2102
g30
(lp2103
(S'at_x4'
p2104
tp2105
a(S'at_y4'
p2106
tp2107
asg36
(lp2108
(S'at_y5'
p2109
tp2110
asg40
(tsg41
(lp2111
(S'at_y4'
p2112
tp2113
asg45
I0
sg46
(lp2114
sg48
S'move_4_4_4_5'
p2115
sbtp2116
(g4
g6
g8
g10
g12
g16
g65
tp2117
tp2118
a((g4
g6
g8
g69
g14
g16
g18
g71
g105
g22
g54
g26
tp2119
(g141
g534
tp2120
(g8
g18
g73
g22
g24
g54
g26
tp2121
tp2122
a((g2
g4
g6
g8
g12
g69
g18
g20
g105
g22
g54
tp2123
(g218
g156
tp2124
(g10
g65
tp2125
tp2126
a((g2
g4
g6
g10
g12
g69
g16
g18
g71
g73
g22
g65
g24
g26
tp2127
(g169
g337
tp2128
(g2
g4
g6
g69
g14
g73
g20
g65
tp2129
tp2130
a((g2
g6
g8
g69
g14
g18
g71
g20
g105
g22
g24
tp2131
(g782
g28
tp2132
(g2
g12
g71
g20
g54
tp2133
tp2134
a((g4
g6
g8
g10
g12
g18
g20
g105
g22
g24
g54
g26
tp2135
(g141
tp2136
(g6
g18
g73
g20
g22
g24
g54
tp2137
tp2138
a((g2
g4
g6
g8
g12
g14
g16
g18
g71
g73
g20
g105
g22
g65
g54
tp2139
(g156
g496
tp2140
(g2
g10
g12
g18
g71
g73
g105
g22
g24
g54
tp2141
tp2142
a((g2
g6
g8
g12
g14
g18
g71
g20
g105
g22
g24
g26
tp2143
(g1487
tp2144
(g4
g8
g12
g18
g71
g20
g22
g24
tp2145
tp2146
a((g2
g4
g8
g10
g69
g14
g16
g18
g20
g105
g24
g54
g26
tp2147
(g782
tp2148
(g2
g10
g12
g69
g14
g18
g20
g54
tp2149
tp2150
a((g2
g8
g10
g18
g71
g105
g22
g26
tp2151
(g218
tp2152
(g10
g18
g71
g22
g65
tp2153
tp2154
a((g2
g6
g8
g10
g69
g14
g18
g20
g105
g22
g24
g26
tp2155
(g141
g250
tp2156
(g2
g6
g69
g14
g16
g18
g73
tp2157
tp2158
a((g2
g4
g10
g12
g69
g14
g18
g71
g73
g20
g65
g24
g54
g26
tp2159
(g265
g318
tp2160
(g4
g8
g69
g18
g22
g65
g54
tp2161
tp2162
a((g2
g4
g6
g10
g69
g16
g18
g73
g105
g22
g24
g54
tp2163
(g337
tp2164
(g18
g73
g20
g105
tp2165
tp2166
a((g4
g6
g8
g69
g18
g20
g105
g65
g24
g54
tp2167
(g188
g156
tp2168
(g10
g69
g20
g26
tp2169
tp2170
a((g2
g8
g10
g69
g14
g18
g71
g73
g20
g105
g22
g54
tp2171
(g250
g1344
tp2172
(g2
g8
g10
g12
g14
g16
g73
g20
g105
tp2173
tp2174
a((g4
g6
g10
g16
g18
g71
g20
g105
g65
g24
g54
g26
tp2175
((istructures.domain
Action
p2176
(dp2177
g30
(lp2178
(S'at_x0'
p2179
tp2180
a(S'at_y1'
p2181
tp2182
asg36
(lp2183
(S'at_y0'
p2184
tp2185
asg40
(tsg41
(lp2186
(S'at_y1'
p2187
tp2188
asg45
I0
sg46
(lp2189
sg48
S'move_0_1_0_0'
p2190
sbg1994
tp2191
(g18
g73
g105
g54
tp2192
tp2193
a((g2
g6
g10
g12
g69
g71
g73
g20
g105
g22
g54
g26
tp2194
(g1487
tp2195
(g2
g4
g6
g10
g12
g69
g73
g20
tp2196
tp2197
a((g4
g6
g10
g12
g69
g16
g18
g71
g73
g20
g105
g65
g24
tp2198
(g587
g1552
tp2199
(g2
g4
g12
g16
g71
g73
g20
g105
g26
tp2200
tp2201
a((g2
g8
g10
g12
g69
g14
g16
g73
g105
g22
g24
g54
tp2202
(g218
g851
tp2203
(g2
g12
g16
g18
g22
g65
g24
tp2204
tp2205
a((g2
g4
g8
g12
g69
g14
g16
g18
g71
g73
g20
g105
g24
g54
tp2206
(g218
g188
(istructures.domain
Action
p2207
(dp2208
g30
(lp2209
(S'at_x3'
p2210
tp2211
a(S'at_y6'
p2212
tp2213
asg36
(lp2214
(S'at_y7'
p2215
tp2216
asg40
(tsg41
(lp2217
(S'at_y6'
p2218
tp2219
asg45
I0
sg46
(lp2220
sg48
S'move_3_6_3_7'
p2221
sbtp2222
(g2
g6
g8
g14
g20
g65
tp2223
tp2224
a((g2
g4
g6
g8
g10
g69
g16
g73
g105
g22
g65
g24
tp2225
(g122
tp2226
(g2
g4
g8
g12
g69
g16
g105
g22
g65
tp2227
tp2228
a((g2
g4
g8
g69
g14
g16
g18
g73
g22
g65
g24
g54
tp2229
(g678
g782
tp2230
(g4
g12
g69
g18
g105
g22
g54
tp2231
tp2232
a((g4
g8
g10
g18
g71
g73
g20
g22
g65
g24
tp2233
(g640
g122
tp2234
(g8
g12
g18
g71
g73
g54
tp2235
tp2236
a((g4
g8
g10
g12
g16
g18
g20
g22
g65
tp2237
(g640
g572
g1120
tp2238
(g2
g10
g20
g54
tp2239
tp2240
a((g2
g4
g6
g8
g10
g69
g14
g16
g105
g22
g24
g54
g26
tp2241
(g141
g424
tp2242
(g14
g18
g73
g22
g54
tp2243
tp2244
a((g4
g6
g8
g10
g12
g14
g73
g20
g105
g22
g65
g24
g54
g26
tp2245
(g109
g424
tp2246
(g10
g12
g69
g18
g73
g20
g105
g24
tp2247
tp2248
a((g2
g4
g6
g12
g69
g18
g73
g20
g105
g22
g65
g54
g26
tp2249
(g250
tp2250
(g4
g6
g69
g16
g73
g20
g26
tp2251
tp2252
a((g4
g8
g10
g12
g69
g16
g18
g71
g22
g65
g24
g54
g26
tp2253
(g284
g1120
tp2254
(g2
g10
g12
g14
g16
g18
g71
g22
g65
g24
g54
tp2255
tp2256
a((g10
g12
g69
g16
g18
g71
g73
g22
g65
g24
g26
tp2257
(g28
tp2258
(g16
g22
g65
g54
tp2259
tp2260
a((g8
g10
g14
g71
g73
g20
g22
g24
g54
tp2261
(g109
g122
(istructures.domain
Action
p2262
(dp2263
g30
(lp2264
(S'at_x4'
p2265
tp2266
a(S'at_y3'
p2267
tp2268
asg36
(lp2269
(S'at_x5'
p2270
tp2271
asg40
(tsg41
(lp2272
(S'at_x4'
p2273
tp2274
asg45
I0
sg46
(lp2275
sg48
S'move_4_3_5_3'
p2276
sbtp2277
(g8
g69
g71
g20
g22
g54
tp2278
tp2279
a((g2
g6
g8
g10
g12
g14
g16
g71
g65
g54
g26
tp2280
(g75
g1329
g1187
tp2281
(g2
g6
g10
g14
g18
g71
g105
g24
g26
tp2282
tp2283
a((g2
g6
g8
g10
g12
g14
g16
g71
g73
g20
g54
tp2284
(g88
tp2285
(g2
g8
g16
g71
g73
g20
g65
tp2286
tp2287
a((g2
g4
g6
g8
g10
g12
g69
g14
g16
g18
g73
g20
g105
g22
g65
g54
tp2288
(g390
tp2289
(g2
g12
g14
g16
g71
g73
g20
g54
tp2290
tp2291
a((g2
g10
g12
g69
g14
g16
g18
g71
g20
g22
g65
tp2292
(g763
g695
tp2293
(g2
g10
g69
g14
g16
g71
g20
g26
tp2294
tp2295
a((g2
g4
g6
g8
g10
g69
g14
g16
g73
g105
g22
g65
g24
tp2296
(g188
g337
tp2297
(g8
g20
g24
g26
tp2298
tp2299
a((g4
g6
g10
g12
g69
g14
g16
g18
g71
g20
g22
g65
g24
g26
tp2300
(g75
g28
tp2301
(g6
g14
g16
g20
g105
g22
g24
g54
g26
tp2302
tp2303
a((g2
g10
g12
g69
g16
g18
g71
g73
g20
g105
g22
g65
g24
tp2304
(g301
g763
tp2305
(g2
g4
g14
g71
g73
g105
g65
tp2306
tp2307
a((g2
g6
g8
g10
g12
g16
g71
g73
g20
g22
g24
g26
tp2308
(g1487
g957
g28
tp2309
(g12
g16
g71
g73
g20
g24
g54
tp2310
tp2311
a((g6
g10
g12
g14
g18
g71
g73
g105
g65
g26
tp2312
(g655
g337
tp2313
(g10
g18
g71
g73
g20
g24
tp2314
tp2315
a((g4
g6
g10
g69
g14
g16
g71
g20
g65
g54
tp2316
(g75
g88
g587
tp2317
(g2
g10
g71
g20
g105
g65
tp2318
tp2319
a((g4
g69
g14
g16
g18
g71
g20
g105
g22
g26
tp2320
(g748
g606
tp2321
(g6
g8
g71
g105
tp2322
tp2323
a((g2
g6
g8
g10
g16
g18
g71
g73
g20
g24
g54
g26
tp2324
(g621
tp2325
(g6
g69
g71
g20
g54
g26
tp2326
tp2327
a((g2
g4
g6
g8
g10
g12
g14
g16
g71
g73
g105
g22
g65
g54
g26
tp2328
(g1329
g851
tp2329
(g4
g6
g8
g10
g14
g18
g71
g105
g65
g24
tp2330
tp2331
a((g2
g4
g6
g8
g10
g69
g14
g18
g71
g73
g20
g22
g24
g54
tp2332
(g50
tp2333
(g2
g6
g10
g71
g73
g20
g22
g65
g24
tp2334
tp2335
a((g4
g6
g8
g10
g69
g16
g73
g20
g105
g22
g24
g54
g26
tp2336
(g587
g390
tp2337
(g2
g8
g10
g71
g73
g20
g105
tp2338
tp2339
a((g2
g12
g69
g14
g18
g73
tp2340
(g2101
tp2341
(g4
tp2342
tp2343
a((g4
g8
g10
g69
g16
g18
g73
g20
g65
g24
g54
tp2344
(g188
g1164
g763
tp2345
(g4
g8
g16
g20
g22
g26
tp2346
tp2347
a((g2
g10
g12
g69
g18
g73
g20
g105
g24
g54
g26
tp2348
(g301
g1039
tp2349
(g10
g14
g73
g105
g22
g26
tp2350
tp2351
a((g2
g4
g12
g16
g18
g71
g73
g20
g65
g54
g26
tp2352
(g1302
g655
tp2353
(g4
g16
g73
g20
g105
g24
tp2354
tp2355
a((g2
g4
g6
g10
g69
g14
g16
g73
g20
g105
g22
g24
g26
tp2356
(g318
tp2357
(g2
g6
g8
g69
g14
g16
g73
g20
g22
g24
g26
tp2358
tp2359
a((g4
g6
g10
g69
g71
g73
g20
g105
g22
g65
g24
g54
g26
tp2360
(g714
tp2361
(g6
g10
g18
g71
g73
g20
g22
g54
tp2362
tp2363
a((g2
g6
g8
g12
g69
g14
g18
g20
g105
g22
g65
g54
tp2364
(g496
g390
tp2365
(g12
g71
g105
g22
g24
tp2366
tp2367
a((g4
g6
g8
g10
g12
g69
g18
g73
g20
g105
g65
tp2368
(g265
g587
tp2369
(g2
g6
g8
g20
g22
g65
tp2370
tp2371
a((g2
g6
g12
g18
g73
g20
g105
g22
g24
g54
g26
tp2372
(g50
tp2373
(g2
g6
g65
g24
g26
tp2374
tp2375
a((g2
g4
g6
g8
g10
g12
g16
g18
g105
g24
g54
g26
tp2376
(g218
g265
tp2377
(g2
g4
g22
g65
g24
tp2378
tp2379
a((g2
g10
g69
g14
g16
g18
g71
g20
g105
g65
g54
g26
tp2380
((istructures.domain
Action
p2381
(dp2382
g30
(lp2383
(S'at_x7'
p2384
tp2385
a(S'at_y1'
p2386
tp2387
asg36
(lp2388
(S'at_y0'
p2389
tp2390
asg40
(tsg41
(lp2391
(S'at_y1'
p2392
tp2393
asg45
I0
sg46
(lp2394
sg48
S'move_7_1_7_0'
p2395
sbtp2396
(g2
g10
g16
g18
g73
g26
tp2397
tp2398
a((g2
g4
g6
g8
g12
g16
g71
g73
g20
g105
g22
g65
g24
g54
tp2399
(g1855
tp2400
(g12
g14
g105
g22
g24
tp2401
tp2402
a((g2
g4
g6
g12
g14
g18
g71
g73
g20
g24
g26
tp2403
(g1445
(istructures.domain
Action
p2404
(dp2405
g30
(lp2406
(S'at_x4'
p2407
tp2408
a(S'at_y4'
p2409
tp2410
asg36
(lp2411
(S'at_y3'
p2412
tp2413
asg40
(tsg41
(lp2414
(S'at_y4'
p2415
tp2416
asg45
I0
sg46
(lp2417
sg48
S'move_4_4_4_3'
p2418
sbtp2419
(g105
g54
tp2420
tp2421
a((g2
g6
g8
g10
g12
g14
g18
g71
g73
g105
g65
g54
g26
tp2422
(g621
g337
tp2423
(g6
g10
g69
g18
g71
g73
g20
g54
g26
tp2424
tp2425
a((g6
g10
g12
g16
g73
g20
g105
g22
g65
g24
g26
tp2426
(g640
g109
g587
tp2427
(g2
g16
g20
g105
g24
g54
tp2428
tp2429
a((g2
g8
g12
g69
g14
g18
g71
g20
g24
g26
tp2430
(g156
g1020
tp2431
(g4
g10
g12
g14
tp2432
tp2433
a((g2
g10
g12
g69
g16
g18
g73
g105
g65
g24
g54
g26
tp2434
(g553
g390
tp2435
(g2
g6
g71
g73
g105
g65
g24
g54
tp2436
tp2437
a((g2
g6
g8
g69
g16
g18
g73
g105
g22
g65
g24
g26
tp2438
(g301
g235
tp2439
(g2
g6
g12
g69
g14
g18
g73
g105
tp2440
tp2441
a((g2
g4
g8
g10
g12
g14
g16
g18
g71
g73
g20
g54
tp2442
(g621
g1164
tp2443
(g4
g12
g14
g16
g18
g22
g54
tp2444
tp2445
a((g2
g4
g6
g8
g10
g69
g14
g18
g71
g65
g24
g54
tp2446
(g75
g352
tp2447
(g4
g10
g69
g14
g71
g105
g24
g26
tp2448
tp2449
a((g2
g6
g10
g12
g69
g14
g16
g18
g71
g65
g26
tp2450
(g655
g337
tp2451
(g10
g69
g16
g20
g24
tp2452
tp2453
a((g2
g6
g8
g10
g12
g16
g20
g105
g22
g24
g26
tp2454
(g1487
g301
tp2455
(g2
g4
g10
g14
g16
g105
tp2456
tp2457
a((g2
g6
g8
g12
g69
g14
g16
g18
g73
g20
g105
g22
g65
g24
g54
g26
tp2458
(g1487
tp2459
(g4
g6
g8
g12
g16
g20
g22
g65
g24
tp2460
tp2461
a((g6
g69
g14
g18
g73
g20
g65
g24
g54
g26
tp2462
(g587
g250
tp2463
(g14
g16
g73
g20
g65
g24
tp2464
tp2465
a((g10
g12
g69
g16
g18
g71
g20
g105
g65
tp2466
(g458
g2101
(istructures.domain
Action
p2467
(dp2468
g30
(lp2469
(S'at_x0'
p2470
tp2471
a(S'at_y5'
p2472
tp2473
asg36
(lp2474
(S'at_y6'
p2475
tp2476
asg40
(tsg41
(lp2477
(S'at_y5'
p2478
tp2479
asg45
I0
sg46
(lp2480
sg48
S'move_0_5_0_6'
p2481
sbtp2482
(g10
g12
g69
g54
g26
tp2483
tp2484
a((g2
g4
g8
g69
g16
g73
g20
g105
g22
g65
g54
tp2485
(g1256
tp2486
(g2
g10
g16
g20
g65
g54
tp2487
tp2488
a((g2
g12
g14
g16
g73
g105
g24
g54
g26
tp2489
(g1187
g1020
tp2490
(g4
g18
g73
tp2491
tp2492
a((g2
g4
g8
g10
g14
g16
g71
g20
g65
g54
g26
tp2493
(g75
g424
tp2494
(g2
g8
g14
g16
g18
g20
g105
g26
tp2495
tp2496
a((g2
g6
g10
g12
g14
g18
g73
g22
g65
g24
g26
tp2497
(g621
tp2498
(g6
g69
g14
g18
g73
g22
g26
tp2499
tp2500
a((g2
g4
g8
g12
g69
g14
g71
g105
g24
tp2501
(g188
g2207
tp2502
(g6
g12
g14
tp2503
tp2504
a((g2
g4
g6
g10
g12
g14
g16
g71
g73
g105
g22
g65
g24
g26
tp2505
(g337
tp2506
(g2
g4
g14
g16
g20
g22
g65
g24
g26
tp2507
tp2508
a((g2
g4
g6
g8
g12
g69
g14
g16
g18
g71
g73
g20
g22
g54
g26
tp2509
(g156
tp2510
(g2
g6
g10
g12
g73
g54
g26
tp2511
tp2512
a((g2
g4
g6
g8
g12
g14
g18
g71
g73
g20
g22
g65
g26
tp2513
(g824
g156
tp2514
(g6
g10
g14
g73
g22
g54
tp2515
tp2516
a((g2
g6
g10
g14
g105
g54
g26
tp2517
(g1187
g1020
tp2518
(g4
g10
g18
g105
tp2519
tp2520
a((g2
g6
g8
g16
g18
g71
g73
g22
g65
g24
g54
tp2521
(g678
g156
g337
tp2522
(g10
g16
g18
g20
g105
g22
g24
g54
tp2523
tp2524
a((g2
g4
g6
g8
g10
g12
g14
g18
g71
g105
g65
g26
tp2525
(g141
g655
tp2526
(g4
g8
g14
g18
g73
g65
g24
tp2527
tp2528
a((g2
g10
g12
g18
g20
g105
g65
g24
g54
g26
tp2529
(g265
g553
tp2530
(g6
g10
g105
g22
g24
tp2531
tp2532
a((g2
g4
g8
g12
g14
g16
g18
g71
g73
g105
g24
g54
tp2533
(g218
g188
g265
tp2534
(g2
g8
g18
g73
g22
g65
g26
tp2535
tp2536
a((g2
g6
g10
g12
g69
g16
g18
g71
g73
g22
g65
g24
g54
tp2537
(g1445
tp2538
(g10
g12
g69
g16
g105
g22
g65
g24
tp2539
tp2540
a((g2
g6
g8
g10
g12
g18
g20
g105
g22
g65
g54
g26
tp2541
(g141
g250
tp2542
(g2
g6
g10
g12
g16
g22
g65
tp2543
tp2544
a((g2
g4
g6
g8
g69
g14
g71
g73
g22
g24
g54
tp2545
(g122
g1256
tp2546
(g2
g6
g10
g12
g71
g54
tp2547
tp2548
a((g2
g6
g8
g10
g12
g69
g16
g71
g20
g105
g22
g65
g54
tp2549
(g1855
tp2550
(g14
g16
g71
g54
tp2551
tp2552
a((g10
g14
g16
g73
g20
g22
g65
g24
g54
g26
tp2553
(g75
g318
tp2554
(g8
g14
g16
g73
g20
g105
tp2555
tp2556
a((g6
g8
g10
g12
g16
g18
g105
g22
g65
g54
tp2557
(g337
g352
tp2558
(g8
g10
g18
g20
g105
g26
tp2559
tp2560
a((g8
g10
g14
g16
g71
g20
g105
g22
g65
g26
tp2561
(g824
g851
g729
tp2562
(g10
g12
g14
g18
g71
g20
g26
tp2563
tp2564
a((g2
g4
g6
g8
g10
g12
g14
g16
g18
g73
g20
g22
g65
g24
g54
g26
tp2565
(g678
g390
tp2566
(g4
g16
g18
g71
g105
g22
g24
tp2567
tp2568
a((g2
g4
g6
g10
g12
g69
g16
g71
g73
g20
g54
g26
tp2569
(g318
g678
g1855
tp2570
(g14
g71
g20
g105
g54
g26
tp2571
tp2572
a((g2
g4
g6
g8
g10
g12
g14
g16
g18
g71
g105
g22
g24
g26
tp2573
(g337
tp2574
(g2
g4
g12
g16
g71
g20
g105
g22
g24
g26
tp2575
tp2576
a((g2
g4
g6
g10
g14
g71
g73
g65
g24
g54
g26
tp2577
(g424
g337
tp2578
(g2
g6
g18
g71
g20
g65
g24
tp2579
tp2580
a((g2
g4
g6
g8
g69
g14
g16
g18
g71
g105
g22
g65
g24
g26
tp2581
(g824
tp2582
(g6
g69
g14
g71
g54
g26
tp2583
tp2584
a((g2
g4
g6
g8
g69
g18
g73
g105
g65
g24
g54
tp2585
(g301
tp2586
(g2
g14
g73
g65
g54
tp2587
tp2588
a((g2
g6
g8
g10
g14
g16
g18
g105
g22
g65
g26
tp2589
(g534
g284
tp2590
(g6
g14
g16
g18
g105
g24
tp2591
tp2592
a((g2
g4
g6
g8
g10
g12
g69
g14
g16
g18
g71
g73
g20
g105
g24
g54
g26
tp2593
(g1039
g50
tp2594
(g2
g10
g69
g71
g20
g105
g22
g65
g24
tp2595
tp2596
a((g10
g14
g16
g18
g71
g105
g22
g65
g24
g54
tp2597
(g763
g851
tp2598
(g4
g10
g16
g18
g71
g105
g22
g24
tp2599
tp2600
a((g2
g4
g10
g12
g14
g16
g73
g20
g65
g24
g54
g26
tp2601
(g553
tp2602
(g4
g6
g12
g16
g20
tp2603
tp2604
a((g2
g4
g8
g12
g16
g18
g71
g20
g22
g65
g24
g54
g26
tp2605
(g1302
tp2606
(g2
g4
g8
g16
g71
g105
g54
tp2607
tp2608
a((g2
g4
g6
g10
g12
g69
g14
g16
g71
g20
g105
g24
g54
g26
tp2609
(g424
g748
tp2610
(g2
g6
g8
g10
g12
g69
g18
g71
g20
g24
g54
tp2611
tp2612
a((g2
g8
g10
g12
g69
g14
g18
g71
g73
g20
g105
g65
g24
g54
tp2613
(g2101
tp2614
(g4
g12
g69
g14
g20
g65
g24
g54
tp2615
tp2616
a((g2
g4
g6
g69
g14
g16
g71
g20
g105
g22
g54
tp2617
(g50
tp2618
(g69
g16
g71
g22
g65
tp2619
tp2620
a((g2
g4
g6
g8
g10
g69
g16
g18
g73
g105
g24
g26
tp2621
(g122
tp2622
(g4
g8
g12
g16
g18
g73
g105
tp2623
tp2624
a((g2
g4
g6
g69
g14
g16
g18
g71
g20
g105
g22
g65
g24
g54
tp2625
(g782
tp2626
(g4
g12
g69
g14
g20
g22
g54
tp2627
tp2628
a((g2
g6
g8
g12
g14
g73
g20
g105
g22
g54
tp2629
(g851
g250
tp2630
(g6
g14
g16
g18
g20
tp2631
tp2632
a((g2
g4
g8
g12
g69
g16
g71
g73
g105
g22
g65
g24
g26
tp2633
(g301
g606
tp2634
(g2
g6
g12
g14
g71
g105
tp2635
tp2636
a((g2
g4
g10
g12
g69
g16
g18
g71
g73
g20
g105
g24
g54
g26
tp2637
(g553
g2467
tp2638
(g6
g12
g54
g26
tp2639
tp2640
a((g2
g6
g8
g10
g69
g16
g71
g20
g105
g22
g65
g54
g26
tp2641
(g1855
(istructures.domain
Action
p2642
(dp2643
g30
(lp2644
(S'at_x0'
p2645
tp2646
a(S'at_y6'
p2647
tp2648
asg36
(lp2649
(S'at_x1'
p2650
tp2651
asg40
(tsg41
(lp2652
(S'at_x0'
p2653
tp2654
asg45
I0
sg46
(lp2655
sg48
S'move_0_6_1_6'
p2656
sbtp2657
(g8
g69
g14
g71
g22
g65
tp2658
tp2659
a((g2
g4
g8
g69
g16
g18
g71
g20
g65
g24
g54
tp2660
(g1302
g141
tp2661
(g2
g4
g8
g69
g18
g73
g24
g54
tp2662
tp2663
a((g2
g4
g6
g8
g12
g14
g16
g71
g73
g20
g105
g22
g65
g54
tp2664
(g496
tp2665
(g4
g12
g16
g71
g20
g22
g24
tp2666
tp2667
a((g2
g6
g8
g10
g18
g71
g73
g105
g24
g54
g26
tp2668
(g250
g923
tp2669
(g4
g16
g18
g71
g73
g105
g24
tp2670
tp2671
a((g2
g6
g8
g10
g12
g69
g14
g16
g73
g20
g22
g54
tp2672
(g678
g851
tp2673
(g2
g8
g12
g14
g18
g20
g105
tp2674
tp2675
a((g4
g6
g69
g16
g18
g105
g22
tp2676
(g1070
g942
g655
tp2677
(g6
g69
g73
g24
tp2678
tp2679
a((g8
g12
g69
g18
g105
g22
g24
tp2680
(g763
g188
tp2681
(g69
g26
tp2682
tp2683
a((g4
g8
g12
g69
g14
g71
g73
g20
g105
g22
g65
g24
tp2684
(g188
g443
tp2685
(g10
g69
g71
g73
g22
g65
g24
g26
tp2686
tp2687
a((g4
g6
g8
g10
g12
g69
g16
g71
g73
g20
g105
g65
g24
tp2688
(g458
tp2689
(g8
g10
g12
g20
g105
g24
g54
tp2690
tp2691
a((g2
g6
g8
g10
g12
g69
g16
g18
g20
g105
g65
g26
tp2692
(g284
g390
tp2693
(g12
g14
g18
g71
g20
g105
tp2694
tp2695
a((g10
g12
g14
g16
g73
g20
g65
g24
g26
tp2696
(g824
g1187
tp2697
(g14
g18
g73
g20
tp2698
tp2699
a((g2
g4
g6
g8
g12
g69
g14
g16
g18
g71
g73
g20
g105
g22
g65
g24
g54
g26
tp2700
(g156
tp2701
(g6
g10
g14
g20
g105
g65
tp2702
tp2703
a((g2
g4
g6
g8
g10
g69
g16
g18
g105
g22
g54
g26
tp2704
(g50
g141
tp2705
(g6
g8
g10
g16
g18
g73
g65
g26
tp2706
tp2707
a((g2
g4
g6
g12
g14
g16
g18
g20
g22
g65
g26
tp2708
(g655
g621
tp2709
(g6
g69
g18
g20
g22
g24
g26
tp2710
tp2711
a((g2
g4
g6
g8
g16
g18
g71
g73
g20
g105
g65
tp2712
(g188
g284
tp2713
(g6
g14
g73
g20
g65
g26
tp2714
tp2715
a((g2
g4
g6
g8
g10
g12
g14
g16
g71
g105
g22
g65
g24
g54
g26
tp2716
(g141
tp2717
(g2
g4
g6
g8
g16
g73
g22
g24
g26
tp2718
tp2719
a((g2
g8
g10
g12
g69
g14
g18
g73
g20
g22
g65
g24
g54
g26
tp2720
(g1487
tp2721
(g4
g8
g14
g18
g22
g65
g24
tp2722
tp2723
a((g8
g10
g14
g18
g71
g22
g65
g24
g54
tp2724
((istructures.domain
Action
p2725
(dp2726
g30
(lp2727
(S'at_x5'
p2728
tp2729
a(S'at_y4'
p2730
tp2731
asg36
(lp2732
(S'at_x6'
p2733
tp2734
asg40
(tsg41
(lp2735
(S'at_x5'
p2736
tp2737
asg45
I0
sg46
(lp2738
sg48
S'move_5_4_6_4'
p2739
sbg1120
tp2740
(g2
g14
g18
g54
tp2741
tp2742
a((g4
g8
g10
g69
g14
g18
g73
g20
g22
g65
g26
tp2743
(g75
tp2744
(g4
g8
g18
g73
g20
g105
g22
tp2745
tp2746
a((g6
g10
g12
g69
g18
g71
g105
g22
g24
g26
tp2747
(g301
g2021
tp2748
(g6
g10
g12
g69
g14
g18
g22
g65
g26
tp2749
tp2750
a((g6
g12
g14
g16
g71
g73
g20
g65
g24
g54
g26
tp2751
(g265
g109
tp2752
(g69
g14
g16
g20
g65
g24
g54
g26
tp2753
tp2754
a((g2
g4
g6
g12
g16
g18
g22
g65
tp2755
(g655
g1552
tp2756
(g65
g24
g26
tp2757
tp2758
a((g4
g6
g8
g69
g18
g105
g22
g65
g54
tp2759
(g235
g587
tp2760
(g2
g6
g8
g12
tp2761
tp2762
a((g2
g4
g12
g16
g18
g71
g73
g20
g22
g54
g26
tp2763
(g50
g606
tp2764
(g2
g6
g16
g73
g22
g65
tp2765
tp2766
a((g2
g6
g8
g10
g12
g69
g14
g16
g71
g73
g22
g65
g24
g54
g26
tp2767
(g1487
tp2768
(g2
g4
g69
g14
g16
g22
g65
g24
tp2769
tp2770
a((g4
g6
g69
g14
g18
g71
g73
g105
g24
g54
g26
tp2771
(g748
tp2772
(g6
g8
g18
g71
g73
g105
tp2773
tp2774
a((g6
g8
g12
g16
g18
g71
g20
g65
g24
g54
g26
tp2775
(g156
g169
g908
tp2776
(g8
g10
g12
g16
g18
g65
g54
g26
tp2777
tp2778
a((g2
g12
g69
g14
g16
g18
g71
g20
g22
g54
g26
tp2779
(g1487
g655
tp2780
(g2
g4
g16
g20
g24
tp2781
tp2782
a((g4
g10
g12
g69
g14
g71
g105
g22
g24
g54
g26
tp2783
(g942
g1120
tp2784
(g2
g12
g73
g24
g54
g26
tp2785
tp2786
a((g2
g6
g8
g10
g12
g18
g73
g105
g22
g65
g26
tp2787
(g1487
g390
tp2788
(g4
g6
g12
g18
g71
g105
tp2789
tp2790
a((g4
g6
g8
g10
g12
g69
g14
g16
g18
g20
g105
g22
g65
g54
tp2791
(g188
g534
tp2792
(g6
g10
g12
g18
g20
g22
g24
g26
tp2793
tp2794
a((g4
g6
g8
g12
g69
g14
g16
g18
g71
g73
g105
g22
tp2795
(g218
g156
g337
tp2796
(g6
g10
g12
g69
g14
g16
g18
g71
g73
g20
g65
tp2797
tp2798
a((g2
g4
g6
g8
g10
g12
g14
g16
g18
g20
g105
g22
g24
g26
tp2799
(g141
g390
tp2800
(g2
g6
g12
g16
g18
g71
g73
g22
g24
tp2801
tp2802
a((g10
g12
g14
g16
g71
g73
g65
g54
g26
tp2803
(g265
g1487
tp2804
(g4
g10
g16
g71
g73
g22
g54
tp2805
tp2806
a((g6
g10
g12
g69
g14
g18
g71
g105
g65
g24
g54
tp2807
(g265
g337
tp2808
(g6
g10
g18
g71
g20
g22
g65
g24
tp2809
tp2810
a((g2
g6
g8
g10
g69
g16
g18
g71
g105
g22
g65
g54
g26
tp2811
(g1487
g284
tp2812
(g2
g4
g6
g10
g14
g71
g105
g65
g54
tp2813
tp2814
a((g2
g6
g10
g12
g69
g14
g16
g18
g71
g73
g20
g105
g22
g24
g54
g26
tp2815
(g50
g1487
tp2816
(g4
g12
g73
g65
g24
tp2817
tp2818
a((g2
g4
g10
g12
g69
g14
g18
g71
g73
g105
g65
g24
g26
tp2819
(g318
g250
tp2820
(g2
g8
g12
g69
g16
g71
g65
g26
tp2821
tp2822
a((g2
g4
g8
g10
g14
g18
g71
g73
g105
g22
g65
g24
tp2823
(g188
g250
tp2824
(g10
g16
g105
g65
g26
tp2825
tp2826
a((g2
g6
g8
g10
g12
g69
g14
g73
g20
g105
g22
g54
tp2827
(g50
tp2828
(g6
g8
g10
g12
g20
g105
g22
g65
tp2829
tp2830
a((g2
g6
g12
g69
g71
g20
g22
g65
tp2831
((istructures.domain
Action
p2832
(dp2833
g30
(lp2834
(S'at_x4'
p2835
tp2836
a(S'at_y2'
p2837
tp2838
asg36
(lp2839
(S'at_x3'
p2840
tp2841
asg40
(tsg41
(lp2842
(S'at_x4'
p2843
tp2844
asg45
I0
sg46
(lp2845
sg48
S'move_4_2_3_2'
p2846
sbg169
g477
tp2847
(g2
g8
g71
g22
g65
tp2848
tp2849
a((g2
g6
g8
g10
g69
g16
g18
g105
g22
g24
tp2850
(g28
tp2851
(g2
g24
g54
tp2852
tp2853
a((g2
g4
g6
g10
g69
g16
g73
g20
g24
tp2854
(g1164
g1552
tp2855
(g4
g20
g22
g24
g26
tp2856
tp2857
a((g2
g6
g8
g10
g14
g16
g71
g105
g22
g24
g54
g26
tp2858
(g851
g782
tp2859
(g2
g6
g10
g12
g14
g18
g71
g22
tp2860
tp2861
a((g4
g69
g14
g16
g71
g73
g20
g105
g65
g24
g54
tp2862
(g695
g1164
tp2863
(g14
g105
g22
g24
g26
tp2864
tp2865
a((g2
g4
g6
g8
g12
g18
g71
g73
g20
g22
g65
g24
tp2866
(g640
g250
tp2867
(g4
g6
g8
g16
g18
g71
g20
g24
g54
tp2868
tp2869
a((g2
g8
g10
g12
g16
g18
g20
g105
g24
g54
g26
tp2870
(g218
g2101
tp2871
(g4
g10
g20
g65
g24
g54
tp2872
tp2873
a((g2
g4
g8
g69
g14
g16
g18
g20
g105
g22
g65
g24
g26
tp2874
(g782
tp2875
(g4
g8
g12
g69
g14
g16
g22
g26
tp2876
tp2877
a((g4
g8
g69
g16
g71
g20
g105
g22
g24
g26
tp2878
(g141
(istructures.domain
Action
p2879
(dp2880
g30
(lp2881
(S'at_x3'
p2882
tp2883
a(S'at_y0'
p2884
tp2885
asg36
(lp2886
(S'at_x2'
p2887
tp2888
asg40
(tsg41
(lp2889
(S'at_x3'
p2890
tp2891
asg45
I0
sg46
(lp2892
sg48
S'move_3_0_2_0'
p2893
sb(istructures.domain
Action
p2894
(dp2895
g30
(lp2896
(S'at_x6'
p2897
tp2898
a(S'at_y6'
p2899
tp2900
asg36
(lp2901
(S'at_x7'
p2902
tp2903
asg40
(tsg41
(lp2904
(S'at_x6'
p2905
tp2906
asg45
I0
sg46
(lp2907
sg48
S'move_6_6_7_6'
p2908
sbtp2909
(g2
g8
g14
g71
g73
g20
tp2910
tp2911
a((g2
g4
g6
g12
g14
g16
g18
g73
g20
g54
g26
tp2912
(g1039
(istructures.domain
Action
p2913
(dp2914
g30
(lp2915
(S'at_x7'
p2916
tp2917
a(S'at_y0'
p2918
tp2919
asg36
(lp2920
(S'at_y1'
p2921
tp2922
asg40
(tsg41
(lp2923
(S'at_y0'
p2924
tp2925
asg45
I0
sg46
(lp2926
sg48
S'move_7_0_7_1'
p2927
sbg390
tp2928
(g2
g14
g16
g18
g71
g105
g22
g26
tp2929
tp2930
a((g4
g8
g69
g14
g18
g73
g105
g22
g24
g54
g26
tp2931
(g50
g606
tp2932
(g6
g8
g14
g18
g73
g105
g65
tp2933
tp2934
a((g2
g4
g6
g8
g12
g69
g73
g24
g54
g26
tp2935
(g1256
g337
tp2936
(g2
g12
g73
g20
g24
g54
g26
tp2937
tp2938
a((g2
g4
g8
g69
g16
g73
g20
g22
g65
tp2939
(g188
g678
g235
tp2940
(g2
g12
g20
g105
g65
g26
tp2941
tp2942
a((g2
g6
g8
g10
g12
g16
g18
g71
g73
g22
g65
g24
g54
g26
tp2943
(g284
tp2944
(g2
g12
g14
g16
g18
g73
g22
g65
g24
tp2945
tp2946
a((g2
g4
g8
g10
g69
g14
g16
g18
g73
g20
g105
g22
g24
tp2947
(g188
g553
tp2948
(g6
g10
g69
g14
g16
g73
tp2949
tp2950
a((g2
g4
g8
g16
g18
g71
g105
g22
g65
g24
g54
g26
tp2951
(g156
g621
tp2952
(g4
g10
g69
g18
g71
g22
g24
g54
g26
tp2953
tp2954
a((g2
g4
g10
g12
g69
g16
g18
g73
g22
g65
tp2955
(g1302
g2467
tp2956
(g2
g69
g16
g18
g73
g105
g26
tp2957
tp2958
a((g2
g4
g10
g69
g14
g16
g18
g20
g105
g24
g54
g26
tp2959
(g782
tp2960
(g2
g4
g12
g54
tp2961
tp2962
a((g2
g4
g6
g8
g14
g16
g71
g73
g20
g105
g65
g24
g26
tp2963
(g824
(istructures.domain
Action
p2964
(dp2965
g30
(lp2966
(S'at_x7'
p2967
tp2968
a(S'at_y1'
p2969
tp2970
asg36
(lp2971
(S'at_x6'
p2972
tp2973
asg40
(tsg41
(lp2974
(S'at_x7'
p2975
tp2976
asg45
I0
sg46
(lp2977
sg48
S'move_7_1_6_1'
p2978
sbtp2979
(g4
g8
g69
g20
g54
tp2980
tp2981
a((g2
g4
g6
g8
g10
g12
g69
g73
g65
g24
g54
g26
tp2982
(g265
g250
tp2983
(g8
g10
g16
g73
g22
g24
g54
tp2984
tp2985
a((g6
g10
g12
g18
g71
g20
g105
g22
g24
g26
tp2986
(g2021
(istructures.domain
Action
p2987
(dp2988
g30
(lp2989
(S'at_x5'
p2990
tp2991
ag6
asg36
(lp2992
(S'at_x6'
p2993
tp2994
asg40
(tsg41
(lp2995
(S'at_x5'
p2996
tp2997
asg45
I0
sg46
(lp2998
sg48
S'move_5_7_6_7'
p2999
sbg587
tp3000
(g2
g20
g65
g24
g26
tp3001
tp3002
a((g4
g6
g8
g10
g12
g69
g14
g16
g18
g105
g22
g65
g24
g54
g26
tp3003
(g141
tp3004
(g4
g6
g10
g69
g14
g18
g73
g65
g26
tp3005
tp3006
a((g4
g6
g10
g12
g16
g18
g71
g105
g65
g54
tp3007
(g942
g265
tp3008
(g6
g16
g73
g22
g54
tp3009
tp3010
a((g2
g6
g8
g12
g14
g16
g18
g73
g105
g65
g24
g26
tp3011
(g156
g2404
tp3012
(g2
g6
g10
g14
g16
g105
g65
g24
g54
g26
tp3013
tp3014
a((g2
g6
g8
g12
g69
g14
g16
g18
g73
g20
g105
g22
g24
g54
tp3015
(g218
g352
tp3016
(g8
g12
g69
g14
g16
g20
g22
g65
g54
g26
tp3017
tp3018
a((g2
g4
g6
g10
g12
g69
g18
g73
g20
g105
g22
g65
g24
g54
g26
tp3019
(g390
tp3020
(g2
g4
g6
g12
g18
g71
g73
g105
g26
tp3021
tp3022
a((g2
g4
g8
g10
g12
g69
g16
g71
g73
g20
g105
g22
g65
g26
tp3023
(g553
tp3024
(g2
g6
g8
g10
g71
g73
g20
g22
tp3025
tp3026
a((g2
g4
g6
g8
g12
g14
g18
g71
g73
g20
g54
tp3027
(g188
g88
g75
tp3028
(g8
g14
g18
g71
g73
g20
g105
g26
tp3029
tp3030
a((g2
g4
g10
g14
g18
g71
g73
g20
g22
g65
g24
g54
g26
tp3031
(g250
tp3032
(g2
g16
g18
g71
g73
g24
tp3033
tp3034
a((g2
g4
g6
g8
g12
g14
g16
g18
g71
g73
g20
g105
g65
g24
g54
g26
tp3035
(g265
tp3036
(g4
g6
g14
g71
g105
g22
tp3037
tp3038
a((g6
g14
g71
g105
g22
g65
g24
g54
tp3039
(g235
tp3040
(g6
g12
g14
g24
g54
tp3041
tp3042
a((g2
g4
g6
g8
g12
g69
g14
g18
g71
g73
g24
g54
tp3043
(g1039
g250
tp3044
(g4
g16
g71
g22
g24
tp3045
tp3046
a((g2
g4
g6
g10
g12
g69
g16
g18
g20
g22
g65
g54
tp3047
(g655
g235
tp3048
(g10
g12
g69
g18
g20
g24
tp3049
tp3050
a((g6
g8
g69
g14
g16
g18
g71
g73
g20
g105
g22
g65
g54
g26
tp3051
(g1487
g235
tp3052
(g4
g12
g69
g14
g16
g71
g73
g105
g65
g54
tp3053
tp3054
a((g2
g6
g8
g10
g69
g14
g16
g71
g73
g20
g105
g22
g65
g54
tp3055
(g235
g515
tp3056
(g14
g20
g24
tp3057
tp3058
a((g2
g4
g6
g8
g10
g12
g69
g16
g18
g71
g73
g20
g65
g54
tp3059
(g265
tp3060
(g2
g4
g6
g8
g10
g18
g71
g22
tp3061
tp3062
a((g2
g10
g69
g14
g16
g18
g71
g20
g65
g24
g54
g26
tp3063
(g199
g805
tp3064
(g2
g10
g12
g14
g71
g20
g22
g54
g26
tp3065
tp3066
a((g4
g6
g8
g10
g12
g69
g14
g16
g18
g71
g73
g20
g105
g22
g65
g24
g54
tp3067
(g188
g763
tp3068
(g4
g6
g8
g16
g71
g22
g26
tp3069
tp3070
a((g2
g6
g8
g12
g69
g14
g16
g71
g73
g20
g105
g22
g54
g26
tp3071
(g50
tp3072
(g69
g16
g71
g105
g22
g65
g26
tp3073
tp3074
a((g2
g6
g8
g10
g12
g14
g16
g18
g73
g20
g105
g22
g54
g26
tp3075
(g50
g1487
tp3076
(g2
g4
g14
g18
g73
g20
g105
g65
tp3077
tp3078
a((g2
g4
g6
g8
g10
g12
g69
g18
g73
g20
g105
g22
g65
g24
g54
g26
tp3079
(g390
tp3080
(g2
g10
g69
g71
g73
g105
g22
g24
tp3081
tp3082
a((g4
g6
g10
g12
g69
g14
g16
g18
g71
g73
g20
g65
g24
g54
g26
tp3083
(g265
tp3084
(g10
g69
g14
g18
g71
g22
g26
tp3085
tp3086
a((g4
g10
g12
g69
g14
g16
g18
g71
g73
g105
g22
g65
g24
g26
tp3087
(g318
tp3088
(g8
g14
g16
g71
g105
g65
g24
g26
tp3089
tp3090
a((g4
g10
g12
g69
g16
g71
g73
g20
g105
g22
g54
g26
tp3091
(g50
g553
tp3092
(g6
g71
g105
g22
g65
tp3093
tp3094
a((g2
g6
g8
g69
g14
g18
g71
g20
g22
g65
g24
g26
tp3095
(g824
(istructures.domain
Action
p3096
(dp3097
g30
(lp3098
(S'at_x3'
p3099
tp3100
a(S'at_y7'
p3101
tp3102
asg36
(lp3103
(S'at_x4'
p3104
tp3105
asg40
(tsg41
(lp3106
(S'at_x3'
p3107
tp3108
asg45
I0
sg46
(lp3109
sg48
S'move_3_7_4_7'
p3110
sbtp3111
(g6
g8
g12
g71
g20
g22
g54
tp3112
tp3113
a((g2
g4
g10
g16
g18
g71
g73
g20
g105
g22
g24
g54
g26
tp3114
(g1147
g553
tp3115
(g4
g6
g73
g20
g65
g54
tp3116
tp3117
a((g2
g8
g69
g14
g18
g73
g20
g22
g54
tp3118
(g1344
g1164
tp3119
(g12
g20
g22
tp3120
tp3121
a((g2
g6
g8
g14
g16
g71
g105
g22
g24
g54
g26
tp3122
(g851
g782
tp3123
(g6
g12
g16
g18
g22
g26
tp3124
tp3125
a((g2
g10
g12
g14
g16
g18
g73
g22
g65
g26
tp3126
(g318
g606
tp3127
(g2
g6
g8
g12
g14
g16
g18
g22
tp3128
tp3129
a((g2
g4
g8
g10
g14
g18
g73
g20
g105
g22
g26
tp3130
(g553
g390
tp3131
(g2
g6
g8
g10
g14
g18
g71
g73
g20
g105
tp3132
tp3133
a((g2
g4
g6
g8
g10
g12
g14
g16
g18
g71
g20
g105
g22
g65
g24
g26
tp3134
(g572
tp3135
(g2
g4
g69
g18
g20
g105
g65
g24
tp3136
tp3137
a((g6
g8
g14
g18
g20
g105
g22
g65
g24
g54
tp3138
(g352
g763
tp3139
(g4
g20
g105
g22
g54
g26
tp3140
tp3141
a((g2
g8
g12
g69
g14
g16
g71
g65
g24
g54
g26
tp3142
(g75
g2207
tp3143
(g6
g12
g14
g71
g105
g24
tp3144
tp3145
a((g2
g8
g12
g16
g18
g71
g73
g20
g105
g65
g24
g54
tp3146
(g265
g122
tp3147
(g2
g12
g71
g22
tp3148
tp3149
a((g2
g4
g6
g8
g10
g12
g69
g14
g105
g22
g54
g26
tp3150
(g337
tp3151
(g4
g8
g10
g12
g69
g20
g105
g54
g26
tp3152
tp3153
a((g2
g8
g12
g14
g16
g18
g73
g20
g22
g65
g24
g54
g26
tp3154
(g75
g109
tp3155
(g2
g8
g69
g18
g73
g20
g105
g54
tp3156
tp3157
a((g2
g10
g12
g69
g14
g18
g71
g73
g20
g22
g54
tp3158
(g50
g2913
tp3159
(g2
g12
g71
g105
g65
tp3160
tp3161
a((g2
g4
g6
g8
g10
g12
g69
g14
g71
g73
g20
g105
g65
tp3162
(g265
g250
tp3163
(g2
g4
g6
g10
g16
g73
g20
g22
g65
tp3164
tp3165
a((g6
g10
g69
g16
g71
g73
g22
g65
g24
g54
g26
tp3166
(g318
g1855
tp3167
(g14
g16
g71
g73
g65
g24
tp3168
tp3169
a((g2
g6
g10
g69
g18
g71
g20
g105
g65
g54
tp3170
(g805
g763
tp3171
(g4
g6
g10
g20
g105
g22
g54
tp3172
tp3173
a((g2
g6
g10
g69
g20
g105
g22
g65
tp3174
((istructures.domain
Action
p3175
(dp3176
g30
(lp3177
(S'at_x0'
p3178
tp3179
a(S'at_y2'
p3180
tp3181
asg36
(lp3182
(S'at_x1'
p3183
tp3184
asg40
(tsg41
(lp3185
(S'at_x0'
p3186
tp3187
asg45
I0
sg46
(lp3188
sg48
S'move_0_2_1_2'
p3189
sb(istructures.domain
Action
p3190
(dp3191
g30
(lp3192
(S'at_x1'
p3193
tp3194
a(S'at_y7'
p3195
tp3196
asg36
(lp3197
(S'at_x2'
p3198
tp3199
asg40
(tsg41
(lp3200
(S'at_x1'
p3201
tp3202
asg45
I0
sg46
(lp3203
sg48
S'move_1_7_2_7'
p3204
sbtp3205
(g6
g69
g14
g105
tp3206
tp3207
a((g2
g8
g10
g69
g14
g16
g18
g71
g73
g105
g54
g26
tp3208
(g534
g122
tp3209
(g10
g12
g69
g16
g18
g71
g73
tp3210
tp3211
a((g6
g8
g12
g69
g16
g18
g71
g73
g20
g22
g65
g24
tp3212
(g678
g352
tp3213
(g8
g12
g69
g20
g105
g24
g26
tp3214
tp3215
a((g4
g10
g69
g14
g18
g71
g105
g65
g54
g26
tp3216
(g553
g337
tp3217
(g10
g14
g18
g20
g105
tp3218
tp3219
a((g2
g4
g8
g10
g69
g14
g16
g18
g73
g20
g105
g54
g26
tp3220
(g553
g1164
tp3221
(g2
g6
g8
g14
g16
g18
g73
g105
g22
g54
tp3222
tp3223
a((g2
g4
g6
g8
g10
g12
g69
g14
g18
g20
g105
g22
g65
g24
g26
tp3224
(g141
g250
tp3225
(g6
g8
g14
g16
g22
g26
tp3226
tp3227
a((g4
g8
g10
g12
g69
g16
g18
g73
g65
g24
g54
tp3228
(g188
tp3229
(g12
g69
g16
g73
g65
g24
g54
g26
tp3230
tp3231
a((g2
g4
g6
g10
g69
g16
g73
g54
tp3232
(g1164
g50
tp3233
(g2
g4
g6
g16
g22
g65
tp3234
tp3235
a((g2
g4
g6
g8
g12
g69
g14
g16
g73
g105
g22
g26
tp3236
(g390
tp3237
(g12
g69
g14
g71
g105
g26
tp3238
tp3239
a((g2
g8
g10
g12
g69
g14
g16
g18
g20
g105
g24
g54
tp3240
(g2101
tp3241
(g4
g16
g20
g24
g54
tp3242
tp3243
a((g4
g8
g10
g69
g16
g73
g20
g22
g65
g24
g26
tp3244
(g640
g2879
tp3245
(g8
g10
g14
g16
g54
g26
tp3246
tp3247
a((g8
g10
g12
g16
g71
g73
g20
g105
g65
g24
g54
tp3248
(g301
tp3249
(g10
g12
g14
g73
g105
tp3250
tp3251
a((g4
g69
g14
g20
g22
g54
g26
tp3252
(g50
g75
g1214
tp3253
(g4
g14
g73
tp3254
tp3255
a((g2
g6
g8
g69
g18
g20
g105
g22
g65
g24
g26
tp3256
(g763
tp3257
(g4
g6
g65
g26
tp3258
tp3259
a((g2
g6
g8
g10
g12
g14
g16
g18
g71
g20
g105
g65
g26
tp3260
(g2404
tp3261
(g2
g10
g12
g14
g16
g65
g54
tp3262
tp3263
a((g2
g4
g6
g10
g69
g14
g16
g71
g105
g22
g65
g24
g26
tp3264
(g824
g2381
tp3265
(g16
g71
g73
g22
g54
g26
tp3266
tp3267
a((g6
g12
g69
g16
g18
g71
g73
g105
g65
g24
g26
tp3268
(g301
tp3269
(g6
g14
g16
g71
g73
g105
tp3270
tp3271
a((g2
g4
g6
g10
g16
g71
g73
g20
g22
g65
g24
g54
tp3272
(g109
g1897
tp3273
(g4
g10
g69
g18
g73
tp3274
tp3275
a((g2
g6
g10
g12
g14
g16
g71
g73
g105
g22
g65
g24
g54
tp3276
(g2964
tp3277
(g6
g69
g71
g22
g24
g54
tp3278
tp3279
a((g4
g6
g10
g12
g16
g18
g71
g20
g22
g54
g26
tp3280
(g1533
g284
tp3281
(g4
g12
g14
g22
g26
tp3282
tp3283
a((g2
g8
g10
g14
g16
g18
g71
g20
g105
g22
g65
g24
g26
tp3284
(g553
g763
tp3285
(g2
g4
g6
g8
g10
g71
g20
g105
g24
tp3286
tp3287
a((g6
g8
g10
g12
g69
g14
g16
g18
g71
g20
g26
tp3288
(g1039
g534
tp3289
(g6
g8
g10
g69
g16
g71
g22
g24
tp3290
tp3291
a((g6
g8
g12
g69
g16
g71
g105
g22
tp3292
(g218
(istructures.domain
Action
p3293
(dp3294
g30
(lp3295
(S'at_x1'
p3296
tp3297
a(S'at_y7'
p3298
tp3299
asg36
(lp3300
(S'at_x0'
p3301
tp3302
asg40
(tsg41
(lp3303
(S'at_x1'
p3304
tp3305
asg45
I0
sg46
(lp3306
sg48
S'move_1_7_0_7'
p3307
sbtp3308
(g10
g69
g71
g65
tp3309
tp3310
a((g8
g10
g12
g69
g14
g16
g18
g71
g105
g65
g24
g26
tp3311
(g889
tp3312
(g2
g10
g12
g16
g18
g71
g105
g26
tp3313
tp3314
a((g2
g6
g10
g12
g69
g16
g73
g105
g22
g26
tp3315
(g1487
g318
tp3316
(g4
g8
g12
g73
g22
tp3317
tp3318
a((g2
g6
g10
g12
g69
g14
g16
g73
g20
g65
g26
tp3319
(g265
g390
tp3320
(g10
g71
g73
g22
g65
tp3321
tp3322
a((g4
g10
g12
g69
g14
g16
g18
g71
g73
g20
g22
g24
g54
g26
tp3323
(g318
g1120
tp3324
(g2
g8
g73
g20
g22
g26
tp3325
tp3326
a((g6
g10
g12
g14
g16
g18
g71
g105
g65
g26
tp3327
(g655
tp3328
(g10
g14
g16
g18
g105
g24
g26
tp3329
tp3330
a((g2
g8
g10
g12
g69
g14
g16
g18
g71
g73
g20
g105
g22
tp3331
(g28
tp3332
(g10
g69
g71
g22
g54
tp3333
tp3334
a((g4
g6
g8
g10
g12
g14
g73
g20
g105
g24
g54
g26
tp3335
(g424
g1039
tp3336
(g18
g20
g105
g22
g24
g26
tp3337
tp3338
a((g4
g6
g8
g10
g12
g14
g16
g18
g71
g73
g105
g65
g24
g54
g26
tp3339
(g265
g122
tp3340
(g4
g6
g10
g12
g14
g16
g71
g105
g22
g65
g26
tp3341
tp3342
a((g2
g6
g8
g69
g71
g73
g20
g22
g65
g24
g54
g26
tp3343
(g122
tp3344
(g12
g71
g73
g22
tp3345
tp3346
a((g2
g4
g8
g12
g69
g16
g18
g71
g73
g20
g22
g24
g54
tp3347
(g50
tp3348
(g18
g71
g65
g24
tp3349
tp3350
a((g4
g6
g8
g10
g12
g69
g18
g73
g20
g54
g26
tp3351
(g284
g318
tp3352
(g4
g8
g69
g14
g73
g26
tp3353
tp3354
a((g2
g4
g8
g10
g12
g16
g18
g71
g20
g22
g65
g24
g26
tp3355
(g1302
tp3356
(g4
g8
g10
g18
g71
g20
g105
g22
g24
tp3357
tp3358
a((g4
g6
g8
g10
g69
g16
g18
g71
g73
g105
g65
g24
g26
tp3359
(g301
g337
tp3360
(g4
g6
g14
g71
g20
tp3361
tp3362
a((g2
g8
g12
g69
g16
g18
g73
g20
g105
g22
g65
g54
g26
tp3363
(g156
g553
tp3364
(g6
g10
g12
g69
g16
g73
g105
g22
g65
tp3365
tp3366
a((g2
g4
g6
g10
g12
g16
g73
g105
g22
g24
g54
tp3367
(g50
g957
tp3368
(g10
g16
g18
g73
g105
g65
g24
tp3369
tp3370
a((g2
g4
g8
g12
g69
g14
g71
g73
g20
g105
g22
g65
g24
g26
tp3371
(g824
tp3372
(g2
g12
g73
g24
g54
g26
tp3373
tp3374
a((g2
g4
g10
g12
g14
g16
g20
g105
g22
g65
g54
tp3375
(g424
g655
tp3376
(g2
g10
g14
g16
g18
g105
g24
g54
tp3377
tp3378
a((g2
g6
g8
g10
g12
g69
g14
g18
g73
g105
g22
g65
tp3379
(g390
tp3380
(g2
g8
g12
g71
g73
g105
g65
tp3381
tp3382
a((g2
g6
g8
g12
g69
g18
g73
g105
g22
g65
g24
g54
g26
tp3383
(g301
g763
tp3384
(g2
g4
g8
g14
g73
g105
g54
g26
tp3385
tp3386
a((g2
g4
g6
g10
g69
g14
g16
g18
g71
g73
g22
g65
g54
tp3387
(g695
g337
tp3388
(g2
g6
g69
g14
g18
g71
g73
g20
g22
g26
tp3389
tp3390
a((g4
g8
g10
g12
g105
g22
g24
g26
tp3391
(g572
g553
tp3392
(g4
g6
g8
g10
g12
g69
tp3393
tp3394
a((g2
g10
g69
g14
g71
g20
g22
g65
g24
g54
tp3395
(g75
g1344
tp3396
(g10
g12
g69
g71
g105
g24
g54
tp3397
tp3398
a((g2
g4
g6
g10
g69
g14
g18
g71
g20
g65
g24
g26
tp3399
(g199
g1533
tp3400
(g4
g6
g8
g12
g69
g14
g18
g71
g20
g65
tp3401
tp3402
a((g2
g6
g8
g10
g14
g16
g71
g73
g22
tp3403
(g678
g2987
g337
tp3404
(g2
g8
g10
g69
g20
g105
tp3405
tp3406
a((g2
g8
g12
g16
g18
g71
g73
g20
g105
g22
g65
g24
g54
g26
tp3407
(g284
tp3408
(g2
g12
g14
g73
g24
g26
tp3409
tp3410
a((g2
g6
g8
g10
g12
g69
g16
g71
g73
g20
g22
tp3411
(g352
tp3412
(g2
g10
g12
g69
g71
g20
g22
g26
tp3413
tp3414
a((g2
g6
g10
g12
g69
g18
g71
g20
g105
g22
g24
g54
g26
tp3415
(g1147
g2642
tp3416
(g2
g8
g18
g65
g24
g54
tp3417
tp3418
a((g2
g6
g10
g12
g69
g14
g16
g18
g71
g73
g20
g22
g65
g24
g54
g26
tp3419
(g75
g1487
tp3420
(g2
g4
g6
g10
g12
g20
g105
g54
tp3421
tp3422
a((g2
g8
g10
g12
g18
g71
g20
g105
g22
g65
g24
g54
g26
tp3423
(g621
tp3424
(g69
g18
g71
g22
g24
tp3425
tp3426
a((g4
g6
g8
g10
g12
g14
g16
g18
g71
g20
g22
g65
g24
g26
tp3427
(g75
g141
tp3428
(g8
g14
g18
g71
g73
g20
g26
tp3429
tp3430
a((g2
g4
g8
g69
g14
g71
g73
g105
g65
g24
g54
g26
tp3431
(g250
tp3432
(g2
g4
g8
g69
g14
g16
g71
g73
g105
g65
g24
g26
tp3433
tp3434
a((g4
g6
g10
g69
g14
g16
g18
g71
g20
g105
g22
g24
g26
tp3435
(g1931
g587
tp3436
(g2
g4
g6
g14
g18
g71
g20
g22
g65
g24
tp3437
tp3438
a((g2
g6
g8
g10
g12
g14
g16
g18
g73
g20
g105
g22
g24
g54
tp3439
(g50
g621
tp3440
(g8
g10
g69
g16
g18
g105
g22
g65
g24
tp3441
tp3442
a((g2
g4
g6
g8
g10
g16
g18
g71
g73
g20
g105
g22
g65
g24
g54
tp3443
(g235
tp3444
(g2
g4
g6
g8
g12
g16
g71
g73
g20
g24
g54
tp3445
tp3446
a((g2
g4
g10
g12
g69
g14
g16
g18
g73
g22
g65
g24
g54
g26
tp3447
(g75
g748
tp3448
(g2
g8
g10
g69
g16
g73
g105
g22
g24
g54
tp3449
tp3450
a((g4
g6
g8
g10
g69
g14
g16
g18
g105
g22
g54
tp3451
(g496
g352
tp3452
(g4
g22
g24
g54
g26
tp3453
tp3454
a((g4
g6
g8
g10
g12
g69
g14
g16
g18
g71
g73
g105
g54
g26
tp3455
(g218
g337
tp3456
(g4
g6
g8
g12
g69
g73
g20
g65
tp3457
tp3458
a((g4
g6
g8
g12
g14
g18
g20
g105
g22
g54
tp3459
(g218
g188
tp3460
(g6
g12
g14
g20
g22
g65
g54
g26
tp3461
tp3462
a((g2
g6
g69
g14
g16
g20
g105
g22
g65
g24
g54
g26
tp3463
(g851
tp3464
(g6
g16
g18
g22
g24
g26
tp3465
tp3466
a((g4
g6
g8
g10
g12
g69
g16
g18
g71
g73
g105
g22
g65
g24
g54
g26
tp3467
(g587
tp3468
(g2
g12
g71
g22
g24
tp3469
tp3470
a((g4
g10
g12
g16
g18
g73
g105
g22
g65
g24
g54
tp3471
(g301
tp3472
(g4
g12
g14
g16
g18
g22
tp3473
tp3474
a((g4
g6
g10
g12
g69
g14
g71
g20
g65
g54
g26
tp3475
(g587
tp3476
(g2
g65
g54
g26
tp3477
tp3478
a((g2
g4
g10
g69
g16
g18
g71
g73
g20
g22
g24
g54
g26
tp3479
(g122
tp3480
(g2
g12
g16
g73
g20
tp3481
tp3482
a((g2
g4
g8
g10
g12
g69
g14
g73
g105
g24
g54
g26
tp3483
(g250
tp3484
(g2
g8
g69
g14
g16
g73
g105
g54
tp3485
tp3486
a((g2
g4
g6
g8
g10
g12
g16
g18
g73
g20
g22
g54
g26
tp3487
(g655
g390
tp3488
(g2
g8
g16
g71
g73
g22
g24
g54
tp3489
tp3490
a((g6
g10
g12
g69
g14
g16
g71
g20
g105
g65
g54
g26
tp3491
(g1329
g1020
tp3492
(g4
g6
g69
g16
g20
g24
tp3493
tp3494
a((g4
g6
g8
g16
g18
g71
g73
g22
g65
g24
g54
g26
tp3495
(g156
tp3496
(g6
g10
g18
g73
g22
g24
tp3497
tp3498
a((g6
g8
g10
g12
g69
g16
g18
g71
g105
g65
g24
tp3499
(g2404
g805
tp3500
(g6
g8
g10
g12
g16
g71
g105
g22
g65
g24
g54
tp3501
tp3502
a((g2
g12
g69
g14
g71
g73
g20
g105
g22
g24
g26
tp3503
(g1147
g824
g250
tp3504
(g2
g14
g16
g73
g24
g54
tp3505
tp3506
a((g2
g4
g8
g69
g14
g18
g71
g73
g105
g65
g54
tp3507
(g188
g250
tp3508
(g8
g69
g16
g18
g71
g65
g54
g26
tp3509
tp3510
a((g2
g6
g10
g69
g14
g18
g73
g20
g22
g65
g24
g54
g26
tp3511
(g390
tp3512
(g2
g6
g10
g14
g71
g73
g22
g65
g24
g54
tp3513
tp3514
a((g2
g6
g8
g12
g18
g71
g73
g105
g26
tp3515
((istructures.domain
Action
p3516
(dp3517
g30
(lp3518
(S'at_x1'
p3519
tp3520
a(S'at_y6'
p3521
tp3522
asg36
(lp3523
(S'at_y5'
p3524
tp3525
asg40
(tsg41
(lp3526
(S'at_y6'
p3527
tp3528
asg45
I0
sg46
(lp3529
sg48
S'move_1_6_1_5'
p3530
sbg352
tp3531
(g2
g4
g18
g71
g73
g26
tp3532
tp3533
a((g2
g4
g6
g8
g12
g14
g16
g18
g71
g20
g22
g65
g24
tp3534
(g188
g75
tp3535
(g8
g14
g18
g20
g105
g22
g26
tp3536
tp3537
a((g2
g4
g8
g10
g12
g69
g18
g71
g73
g20
g54
tp3538
(g284
tp3539
(g2
g4
g12
g14
g71
g54
tp3540
tp3541
a((g4
g6
g8
g10
g12
g69
g14
g16
g71
g73
g22
g65
g54
g26
tp3542
(g75
tp3543
(g4
g6
g8
g69
g14
g16
g71
g73
g105
tp3544
tp3545
a((g10
g69
g16
g18
g71
g20
g105
g22
g24
g54
g26
tp3546
(g553
tp3547
(g6
g16
g18
g71
g105
g24
tp3548
tp3549
a((g2
g4
g6
g8
g12
g14
g18
g71
g20
g22
g54
g26
tp3550
(g50
g156
tp3551
(g4
g6
g10
g14
g71
g20
g65
g26
tp3552
tp3553
a((g4
g6
g8
g10
g12
g69
g14
g16
g18
g71
g73
g22
g65
g24
tp3554
(g678
g824
tp3555
(g10
g14
g18
g71
g105
g54
tp3556
tp3557
a((g8
g10
g12
g69
g16
g18
g71
g73
g22
g65
g24
g54
g26
tp3558
(g1120
tp3559
(g2
g10
g12
g71
g73
g54
tp3560
tp3561
a((g2
g4
g6
g8
g10
g12
g69
g14
g18
g71
g73
g22
tp3562
(g678
tp3563
(g2
g4
g8
g10
g18
g105
g22
tp3564
tp3565
a((g2
g4
g8
g10
g69
g14
g16
g105
g65
g24
g54
tp3566
(g1187
tp3567
(g4
g14
g16
g18
g65
tp3568
tp3569
a((g2
g4
g8
g10
g12
g69
g14
g16
g18
g71
g105
g22
g24
g26
tp3570
(g218
g28
tp3571
(g4
g8
g69
g16
g71
g22
g65
g54
tp3572
tp3573
a((g2
g4
g10
g12
g14
g73
g20
g105
g22
g24
g54
tp3574
(g424
g748
tp3575
(g8
g10
g18
g73
g22
g24
tp3576
tp3577
a((g4
g6
g10
g69
g16
g18
g73
g65
g24
tp3578
(g1765
(istructures.domain
Action
p3579
(dp3580
g30
(lp3581
(S'at_x3'
p3582
tp3583
a(S'at_y4'
p3584
tp3585
asg36
(lp3586
(S'at_y3'
p3587
tp3588
asg40
(tsg41
(lp3589
(S'at_y4'
p3590
tp3591
asg45
I0
sg46
(lp3592
sg48
S'move_3_4_3_3'
p3593
sbtp3594
(g4
g10
g69
g16
g73
g65
g54
g26
tp3595
tp3596
a((g4
g6
g8
g12
g16
g18
g71
g20
g105
g22
g26
tp3597
(g156
g655
tp3598
(g4
g6
g10
g18
g71
g105
g24
tp3599
tp3600
a((g4
g8
g10
g69
g14
g16
g18
g71
g73
g20
g105
g65
g54
g26
tp3601
(g534
g1164
tp3602
(g4
g8
g10
g20
g22
g24
g54
tp3603
tp3604
a((g2
g8
g10
g12
g16
g18
g71
g73
g105
g22
g65
tp3605
(g109
g265
tp3606
(g2
g8
g69
g16
g18
g71
g73
g105
g22
g65
tp3607
tp3608
a((g4
g14
g16
g73
g20
g24
g54
g26
tp3609
(g122
g88
tp3610
(g4
g12
g14
g16
g73
g20
g65
tp3611
tp3612
a((g2
g4
g6
g8
g10
g69
g18
g71
g73
g20
g105
g65
g26
tp3613
(g284
g318
tp3614
(g2
g8
g69
g14
g18
g73
g20
g105
g65
g26
tp3615
tp3616
a((g2
g10
g69
g16
g18
g71
g20
g22
g65
g24
g26
tp3617
(g1302
g2381
tp3618
(g10
g69
g18
g73
g20
g22
g24
g26
tp3619
tp3620
a((g2
g4
g6
g10
g12
g69
g16
g18
g105
g54
g26
tp3621
(g655
g301
tp3622
(g2
g4
g10
g14
g18
g105
tp3623
tp3624
a((g2
g6
g10
g12
g69
g14
g16
g18
g71
g73
g20
g65
g24
tp3625
(g2404
g1164
tp3626
(g2
g12
g14
g16
g22
g65
g54
tp3627
tp3628
a((g2
g4
g6
g8
g10
g12
g69
g14
g16
g18
g73
g20
g65
g26
tp3629
(g265
g534
tp3630
(g2
g6
g10
g69
g16
g18
g73
g20
g22
g24
g26
tp3631
tp3632
a((g12
g69
g16
g18
g71
g105
g22
g65
g24
g54
g26
tp3633
(g301
g655
tp3634
(g14
g16
g18
g71
g105
g22
g24
g26
tp3635
tp3636
a((g4
g6
g8
g10
g16
g18
g71
g20
g105
g65
g24
g54
tp3637
(g141
g1994
tp3638
(g4
g16
g71
g73
g20
g105
tp3639
tp3640
a((g4
g6
g12
g69
g16
g18
g71
g73
g22
g65
g54
g26
tp3641
((istructures.domain
Action
p3642
(dp3643
g30
(lp3644
(S'at_x4'
p3645
tp3646
a(S'at_y2'
p3647
tp3648
asg36
(lp3649
(S'at_y1'
p3650
tp3651
asg40
(tsg41
(lp3652
(S'at_y2'
p3653
tp3654
asg45
I0
sg46
(lp3655
sg48
S'move_4_2_4_1'
p3656
sbtp3657
(g12
g69
g73
g105
g22
g26
tp3658
tp3659
a((g2
g6
g8
g10
g12
g69
g16
g18
g73
g22
g65
g24
g54
g26
tp3660
(g390
tp3661
(g2
g8
g12
g71
g65
g26
tp3662
tp3663
a((g6
g10
g12
g14
g16
g18
g73
g20
g22
g65
g26
tp3664
(g109
g587
tp3665
(g2
g10
g14
g16
g18
g65
tp3666
tp3667
a((g2
g4
g6
g8
g12
g71
g73
g22
g24
tp3668
(g188
g443
tp3669
(g6
g10
g73
g22
g26
tp3670
tp3671
a((g4
g8
g12
g14
g18
g71
g73
g105
g22
g24
g54
g26
tp3672
(g218
g156
tp3673
(g4
g10
g18
g71
g73
g22
g65
tp3674
tp3675
a((g2
g4
g6
g8
g12
g69
g16
g18
g105
g22
g65
tp3676
(g640
g284
tp3677
(g2
g4
g6
g69
g14
g18
g105
g54
tp3678
tp3679
a((g4
g6
g69
g16
g71
g73
g20
g105
g65
g24
g54
tp3680
(g1164
(istructures.domain
Action
p3681
(dp3682
g30
(lp3683
(S'at_x5'
p3684
tp3685
a(S'at_y7'
p3686
tp3687
asg36
(lp3688
(S'at_y6'
p3689
tp3690
asg40
(tsg41
(lp3691
(S'at_y7'
p3692
tp3693
asg45
I0
sg46
(lp3694
sg48
S'move_5_7_5_6'
p3695
sbtp3696
(g4
g71
g73
g22
g24
g54
g26
tp3697
tp3698
a((g2
g4
g12
g69
g14
g18
g73
g20
g105
g26
tp3699
((istructures.domain
Action
p3700
(dp3701
g30
(lp3702
(S'at_x2'
p3703
tp3704
a(S'at_y6'
p3705
tp3706
asg36
(lp3707
(S'at_y7'
p3708
tp3709
asg40
(tsg41
(lp3710
(S'at_y6'
p3711
tp3712
asg45
I0
sg46
(lp3713
sg48
S'move_2_6_2_7'
p3714
sbg390
tp3715
(g2
g69
g14
g18
g71
g20
tp3716
tp3717
a((g6
g10
g69
g14
g18
g73
g22
g65
g54
tp3718
(g1765
g1487
tp3719
(g4
g10
g18
g73
g65
g54
tp3720
tp3721
a((g4
g69
g16
g105
g22
g24
g26
tp3722
(g714
g1487
tp3723
(g4
g18
g105
g22
g24
tp3724
tp3725
a((g2
g4
g8
g10
g16
g18
g73
g105
g22
g65
g54
tp3726
(g284
g318
tp3727
(g2
g4
g8
g14
g16
g18
g105
g22
g54
tp3728
tp3729
a((g2
g6
g10
g12
g69
g14
g16
g71
g73
g20
g105
g22
g65
g54
tp3730
(g515
tp3731
(g2
g69
g14
g71
g20
g22
g24
tp3732
tp3733
a((g6
g10
g14
g16
g18
g71
g105
g22
g24
g26
tp3734
(g2987
tp3735
(g69
g16
g18
g71
g24
tp3736
tp3737
a((g2
g6
g8
g10
g14
g18
g73
g105
g22
g65
g24
g26
tp3738
(g390
tp3739
(g6
g8
g10
g14
g71
g73
g105
g65
tp3740
tp3741
a((g2
g6
g8
g10
g12
g69
g16
g18
g71
g20
g22
g65
g24
g54
g26
tp3742
(g1302
g301
tp3743
(g2
g6
g8
g10
g12
g69
g14
g16
g71
g20
g105
g22
g54
g26
tp3744
tp3745
a((g4
g8
g10
g69
g16
g18
g71
g73
g20
g105
g22
g24
g54
tp3746
(g301
g1070
tp3747
(g4
g10
g12
g14
g16
g73
g20
g54
tp3748
tp3749
a((g2
g6
g8
g12
g69
g14
g18
g73
g105
g22
g65
g24
tp3750
(g250
tp3751
(g2
g6
g16
g73
g105
g22
g24
tp3752
tp3753
a((g2
g4
g8
g12
g14
g16
g18
g71
g24
g54
tp3754
(g1039
g50
tp3755
(g2
g8
g14
g22
g65
g24
tp3756
tp3757
a((g2
g4
g8
g10
g12
g69
g14
g18
g73
g54
tp3758
(g1039
g250
tp3759
(g2
g4
g8
g16
g22
tp3760
tp3761
a((g6
g10
g12
g14
g16
g18
g73
g20
g105
g65
g24
tp3762
(g318
g2101
tp3763
(g4
g8
g16
g73
g20
g105
g65
tp3764
tp3765
a((g2
g4
g8
g69
g20
g65
g54
g26
tp3766
(g1302
(istructures.domain
Action
p3767
(dp3768
g30
(lp3769
(S'at_x7'
p3770
tp3771
a(S'at_y6'
p3772
tp3773
asg36
(lp3774
(S'at_y7'
p3775
tp3776
asg40
(tsg41
(lp3777
(S'at_y6'
p3778
tp3779
asg45
I0
sg46
(lp3780
sg48
S'move_7_6_7_7'
p3781
sbtp3782
(g6
g69
g105
tp3783
tp3784
a((g2
g4
g8
g10
g12
g14
g16
g71
g22
g65
g54
tp3785
(g188
g553
tp3786
(g6
g8
g10
g12
g71
g22
g65
tp3787
tp3788
a((g4
g6
g8
g12
g69
g14
g16
g18
g73
g20
g105
g65
g24
tp3789
(g265
tp3790
(g4
g6
g8
g69
g73
g20
g105
g22
g65
g24
tp3791
tp3792
a((g2
g4
g6
g12
g14
g16
g71
g73
g20
g65
g24
g54
g26
tp3793
(g265
g109
tp3794
(g2
g69
g16
g71
g73
g20
g65
g24
g26
tp3795
tp3796
a((g2
g8
g10
g69
g16
g18
g20
g22
g24
g54
tp3797
(g50
g235
g2101
tp3798
(g4
g8
g12
g16
g20
g65
tp3799
tp3800
a((g4
g6
g10
g12
g14
g16
g18
g20
g105
g54
tp3801
(g1039
g1533
tp3802
(g6
g8
g14
g16
g18
g105
g22
g54
tp3803
tp3804
a((g4
g6
g8
g10
g12
g69
g16
g18
g71
g73
g20
g65
g26
tp3805
(g284
g265
tp3806
(g4
g69
g14
g18
g71
g73
g20
g22
g65
g26
tp3807
tp3808
a((g4
g12
g69
g18
g71
g73
g20
g105
g65
g24
g54
tp3809
(g265
g122
tp3810
(g12
g69
g71
g20
g22
g65
g54
tp3811
tp3812
a((g2
g6
g10
g12
g16
g105
g22
g65
g26
tp3813
(g640
g851
tp3814
(g18
g26
tp3815
tp3816
a((g2
g4
g8
g12
g69
g14
g16
g71
g20
g105
g24
tp3817
(g188
tp3818
(g12
g69
g14
g16
g71
g24
g26
tp3819
tp3820
a((g2
g4
g6
g8
g10
g69
g14
g105
g22
g65
g24
tp3821
(g424
g235
tp3822
(g2
g6
g10
g12
g18
g105
g65
g24
tp3823
tp3824
a((g2
g8
g69
g18
g71
g24
g26
tp3825
((istructures.domain
Action
p3826
(dp3827
g30
(lp3828
(S'at_x3'
p3829
tp3830
a(S'at_y6'
p3831
tp3832
asg36
(lp3833
(S'at_y5'
p3834
tp3835
asg40
(tsg41
(lp3836
(S'at_y6'
p3837
tp3838
asg45
I0
sg46
(lp3839
sg48
S'move_3_6_3_5'
p3840
sbtp3841
(g2
g4
g69
g18
g71
g24
tp3842
tp3843
a((g4
g14
g16
g71
g20
g105
g22
g65
g24
tp3844
(g824
g782
tp3845
(g12
g14
g71
g20
g105
g54
tp3846
tp3847
a((g2
g4
g6
g12
g16
g18
g71
g73
g20
g105
g26
tp3848
(g621
g1164
tp3849
(g12
g71
g73
g20
g22
g26
tp3850
tp3851
a((g6
g12
g69
g14
g16
g18
g20
g105
g22
g65
g24
g54
g26
tp3852
(g1487
g942
tp3853
(g4
g6
g12
g14
g18
g73
g20
g65
tp3854
tp3855
a((g2
g6
g8
g12
g69
g18
g71
g73
g20
g22
g65
g24
g26
tp3856
(g284
tp3857
(g69
g14
g18
g71
g73
g20
g22
g26
tp3858
tp3859
a((g4
g6
g8
g12
g69
g16
g71
g20
g105
g54
g26
tp3860
(g1510
tp3861
(g6
g12
g16
g71
g22
g26
tp3862
tp3863
a((g2
g4
g6
g12
g69
g14
g105
g22
g24
g54
g26
tp3864
(g748
g390
tp3865
(g2
g4
g6
g8
g12
g69
g71
g24
g54
g26
tp3866
tp3867
a((g4
g10
g12
g69
g14
g16
g73
g65
g54
g26
tp3868
(g318
g1120
tp3869
(g2
g8
g14
g16
g65
g54
tp3870
tp3871
a((g6
g10
g71
g20
g22
g24
g54
g26
tp3872
(g2642
g371
tp3873
(g6
g8
g14
g54
g26
tp3874
tp3875
a((g2
g4
g8
g10
g12
g69
g16
g71
g73
g20
g22
g26
tp3876
(g957
tp3877
(g2
g8
g10
g16
g18
g71
g22
g26
tp3878
tp3879
a((g2
g6
g8
g12
g14
g16
g18
g71
g73
g20
g65
g24
g54
tp3880
(g265
g763
tp3881
(g4
g6
g8
g22
g65
g24
g54
tp3882
tp3883
a((g2
g4
g8
g10
g12
g14
g71
g73
g20
g65
g24
g54
tp3884
(g1097
tp3885
(g8
g10
g69
g14
g71
g73
g65
g24
tp3886
tp3887
a((g4
g8
g10
g12
g69
g16
g18
g71
g20
g105
g22
g65
g24
g54
g26
tp3888
(g141
tp3889
(g4
g8
g10
g16
g18
g71
g73
g54
tp3890
tp3891
a((g8
g10
g12
g69
g16
g18
g71
g73
g105
g65
g54
g26
tp3892
(g655
tp3893
(g8
g69
g73
g65
g24
g54
tp3894
tp3895
a((g2
g4
g6
g10
g69
g14
g18
g71
g20
g105
g22
g24
g54
g26
tp3896
(g782
tp3897
(g6
g10
g12
g69
g14
g18
g20
g22
g26
tp3898
tp3899
a((g2
g6
g8
g10
g12
g69
g14
g73
g20
g105
g22
g65
g24
g54
g26
tp3900
(g250
tp3901
(g2
g6
g8
g12
g69
g14
g16
g22
g54
tp3902
tp3903
a((g2
g8
g10
g12
g16
g71
g20
g105
g22
g65
g24
g54
g26
tp3904
(g851
tp3905
(g8
g12
g16
g18
g71
g20
g105
g22
g24
g26
tp3906
tp3907
a((g2
g4
g6
g8
g10
g16
g105
g22
g65
tp3908
(g141
g390
tp3909
(g6
g10
g71
g73
g22
tp3910
tp3911
a((g2
g4
g6
g8
g10
g12
g16
g18
g71
g73
g105
g22
g65
g24
g54
g26
tp3912
(g109
tp3913
(g10
g69
g16
g18
g73
g105
g54
g26
tp3914
tp3915
a((g2
g4
g6
g12
g69
g14
g73
g20
g22
g65
g24
g54
tp3916
(g424
g250
tp3917
(g6
g12
g69
g16
g18
g73
tp3918
tp3919
a((g2
g6
g8
g10
g12
g14
g16
g18
g73
g20
g105
g22
g65
g54
g26
tp3920
(g109
tp3921
(g2
g6
g8
g10
g12
g69
g14
g18
g65
g54
g26
tp3922
tp3923
a((g2
g4
g6
g8
g10
g12
g69
g14
g18
g73
g20
g105
g22
g65
g24
tp3924
(g250
tp3925
(g2
g4
g6
g12
g14
g16
g73
g20
tp3926
tp3927
a((g4
g6
g8
g10
g12
g69
g14
g18
g71
g73
g20
g65
g54
g26
tp3928
(g75
g88
tp3929
(g4
g6
g10
g69
g18
g71
g73
g20
g105
g65
g26
tp3930
tp3931
a((g8
g12
g69
g18
g71
g20
g105
g24
g54
g26
tp3932
(g141
tp3933
(g8
g18
g71
g73
tp3934
tp3935
a((g2
g4
g69
g14
g16
g71
g73
g105
g22
g65
g24
g54
g26
tp3936
(g122
tp3937
(g2
g4
g12
g16
g71
g105
tp3938
tp3939
a((g2
g8
g10
g12
g69
g16
g71
g73
g20
g65
g24
g26
tp3940
(g923
g957
tp3941
(g8
g10
g18
g71
g73
g20
g65
tp3942
tp3943
a((g2
g8
g12
g71
g73
g20
g105
g22
g54
tp3944
(g250
tp3945
(g2
g8
g16
g22
tp3946
tp3947
a((g2
g4
g6
g8
g10
g69
g73
g105
g22
g65
g24
g54
g26
tp3948
(g250
tp3949
(g2
g8
g16
g73
g22
g24
g54
g26
tp3950
tp3951
a((g2
g4
g6
g10
g12
g69
g14
g16
g71
g73
g20
g65
g54
g26
tp3952
(g2913
tp3953
(g10
g69
g14
g71
g20
g105
g65
g54
tp3954
tp3955
a((g2
g6
g10
g12
g69
g18
g71
g73
g20
g105
g22
g65
g24
g54
g26
tp3956
(g763
tp3957
(g2
g4
g6
g71
g73
g20
g24
g26
tp3958
tp3959
a((g2
g4
g6
g10
g12
g14
g18
g71
g73
g20
g22
g65
g24
tp3960
(g109
g250
tp3961
(g2
g12
g69
g16
g18
g20
g65
tp3962
tp3963
a((g2
g10
g69
g16
g71
g73
g65
g24
g54
g26
tp3964
(g1302
g1164
tp3965
(g10
g16
g71
g105
g22
g24
tp3966
tp3967
a((g2
g4
g12
g14
g16
g71
g20
g65
g24
g54
g26
tp3968
(g424
g2207
tp3969
(g6
g12
g14
g18
g20
tp3970
tp3971
a((g10
g12
g69
g14
g16
g18
g71
g73
g65
g54
g26
tp3972
(g553
g337
tp3973
(g6
g10
g69
g16
g18
g71
g20
tp3974
tp3975
a((g2
g4
g8
g10
g12
g69
g14
g16
g18
g20
g105
g65
g24
g54
tp3976
(g188
g553
tp3977
(g6
g10
g12
g69
g14
g20
g65
g24
g54
tp3978
tp3979
a((g4
g6
g8
g12
g69
g16
g71
g73
g20
g22
g65
g54
g26
tp3980
(g957
g587
tp3981
(g2
g6
g8
g12
g16
g18
g71
g22
g65
g26
tp3982
tp3983
a((g4
g6
g10
g14
g16
g71
g73
g65
g24
g54
tp3984
(g122
g265
tp3985
(g4
g6
g10
g14
g73
g22
tp3986
tp3987
a((g2
g4
g6
g10
g71
g73
g20
g105
g22
g65
g24
g54
g26
tp3988
(g122
g250
tp3989
(g2
g6
g12
g16
g71
g73
g22
g65
g54
g26
tp3990
tp3991
a((g2
g4
g10
g12
g14
g16
g71
g73
g20
g105
g65
g24
g54
g26
tp3992
(g265
g318
tp3993
(g8
g16
g71
g22
g65
g24
g26
tp3994
tp3995
a((g4
g8
g12
g69
g16
g18
g71
g73
g105
g24
g54
g26
tp3996
(g284
g2207
tp3997
(g6
g12
g69
g14
g71
g105
g24
g54
tp3998
tp3999
a((g2
g4
g6
g8
g10
g12
g69
g16
g18
g71
g73
g65
g24
tp4000
(g265
g337
tp4001
(g69
g16
g71
g20
g22
g24
tp4002
tp4003
a((g2
g4
g6
g8
g10
g69
g16
g18
g71
g20
g105
g22
g24
g54
g26
tp4004
(g284
tp4005
(g10
g14
g16
g20
g105
g24
g54
tp4006
tp4007
a((g4
g10
g12
g14
g16
g18
g73
g20
g22
g54
tp4008
((istructures.domain
Action
p4009
(dp4010
g30
(lp4011
(S'at_x2'
p4012
tp4013
a(S'at_y0'
p4014
tp4015
asg36
(lp4016
(S'at_y1'
p4017
tp4018
asg40
(tsg41
(lp4019
(S'at_y0'
p4020
tp4021
asg45
I0
sg46
(lp4022
sg48
S'move_2_0_2_1'
p4023
sbtp4024
(g4
g12
g16
g105
g22
g54
tp4025
tp4026
a((g2
g4
g6
g8
g10
g18
g71
g73
g20
g22
g65
g24
g54
tp4027
(g284
tp4028
(g6
g10
g14
g18
g71
g73
g20
g65
g24
g54
tp4029
tp4030
a((g4
g6
g8
g12
g69
g14
g18
g71
g73
g20
g105
g22
g54
tp4031
(g587
tp4032
(g2
g4
g6
g8
g18
g71
g20
g105
g22
g54
tp4033
tp4034
a((g2
g4
g6
g8
g69
g14
g20
g105
g22
g65
g24
tp4035
(g188
g824
tp4036
(g2
g6
g8
g69
g14
g20
g105
g54
g26
tp4037
tp4038
a((g2
g4
g8
g12
g69
g71
g105
g22
g24
g54
g26
tp4039
(g218
tp4040
(g4
g8
g12
g69
g71
g65
g24
g26
tp4041
tp4042
a((g2
g4
g8
g10
g69
g14
g20
g105
g65
g54
g26
tp4043
(g141
g75
tp4044
(g2
g8
g10
g73
g20
g105
tp4045
tp4046
a((g2
g6
g10
g12
g69
g14
g16
g73
g22
g65
g24
tp4047
(g337
g1552
tp4048
(g14
g20
g22
g65
g24
g26
tp4049
tp4050
a((g2
g4
g8
g10
g12
g69
g16
g18
g71
g20
g105
g22
g26
tp4051
(g284
g655
tp4052
(g4
g14
g71
g105
g24
g26
tp4053
tp4054
a((g2
g4
g6
g8
g10
g69
g14
g71
g22
g24
g54
g26
tp4055
(g50
tp4056
(g2
g4
g10
g71
g65
g24
g26
tp4057
tp4058
a((g2
g4
g12
g14
g16
g71
g73
g20
g105
g22
g24
g54
g26
tp4059
(g50
g2964
tp4060
(g69
g71
g73
g105
g22
g65
tp4061
tp4062
a((g2
g4
g6
g10
g12
g69
g14
g16
g73
g20
g22
g65
g26
tp4063
(g824
tp4064
(g2
g10
g12
g14
g16
g22
g54
g26
tp4065
tp4066
a((g2
g4
g10
g12
g69
g14
g16
g71
g73
g20
g105
g22
g54
g26
tp4067
(g318
tp4068
(g4
g8
g12
g69
g14
g16
g71
g20
g22
tp4069
tp4070
a((g2
g4
g6
g10
g12
g69
g14
g16
g18
g73
g105
g24
tp4071
(g1147
g1445
tp4072
(g2
g4
g10
g12
g14
g16
g18
g105
g65
tp4073
tp4074
a((g2
g4
g6
g8
g10
g69
g16
g18
g71
g73
g22
g24
g26
tp4075
(g678
g782
tp4076
(g4
g8
g12
g69
g18
g105
tp4077
tp4078
a((g2
g4
g6
g8
g69
g14
g71
g65
tp4079
(g3293
(istructures.domain
Action
p4080
(dp4081
g30
(lp4082
(S'at_x2'
p4083
tp4084
a(S'at_y5'
p4085
tp4086
asg36
(lp4087
(S'at_x3'
p4088
tp4089
asg40
(tsg41
(lp4090
(S'at_x2'
p4091
tp4092
asg45
I0
sg46
(lp4093
sg48
S'move_2_5_3_5'
p4094
sbtp4095
(g10
g69
g71
g65
g24
tp4096
tp4097
a((g4
g6
g10
g12
g69
g14
g16
g18
g71
g73
g20
g65
g26
tp4098
(g265
tp4099
(g6
g10
g14
g16
g22
g65
g26
tp4100
tp4101
a((g6
g8
g10
g12
g69
g16
g73
g105
g22
g26
tp4102
(g337
tp4103
(g6
g8
g10
g12
g69
g16
g20
g22
tp4104
tp4105
a((g2
g4
g6
g8
g10
g69
g14
g16
g18
g73
g20
g105
g22
g24
g26
tp4106
(g218
g390
tp4107
(g2
g10
g69
g16
g18
g71
g73
g20
g22
g65
tp4108
tp4109
a((g2
g4
g6
g8
g12
g16
g71
g73
g20
g105
g22
g65
g26
tp4110
(g2964
tp4111
(g6
g8
g12
g69
g71
g105
g22
tp4112
tp4113
a((g2
g4
g6
g8
g12
g14
g18
g20
g22
g54
g26
tp4114
(g390
tp4115
(g4
g18
g71
g20
g22
tp4116
tp4117
a((g2
g6
g8
g10
g12
g69
g14
g18
g73
g22
g24
g54
g26
tp4118
(g1487
g352
tp4119
(g2
g4
g10
g12
g69
g14
g18
g73
g22
g54
g26
tp4120
tp4121
a((g2
g4
g10
g12
g69
g14
g16
g18
g73
g20
g105
g22
g65
tp4122
(g695
tp4123
(g10
g12
g69
g18
g20
g22
g26
tp4124
tp4125
a((g2
g4
g6
g10
g14
g16
g18
g71
g73
g22
g65
g54
tp4126
(g318
g188
tp4127
(g6
g8
g14
g16
g71
g65
g26
tp4128
tp4129
a((g10
g12
g69
g14
g16
g18
g20
g22
g24
g54
tp4130
(g1874
tp4131
(g8
g16
g20
g22
g54
tp4132
tp4133
a((g6
g10
g12
g69
g14
g16
g18
g71
g20
g105
g24
g54
tp4134
(g748
g2101
tp4135
(g4
g6
g8
g10
g12
g71
tp4136
tp4137
a((g2
g4
g6
g8
g10
g16
g71
g73
g20
g105
g65
g24
g54
g26
tp4138
(g122
g1855
tp4139
(g2
g6
g12
g14
g71
tp4140
tp4141
a((g2
g8
g10
g69
g14
g18
g71
g73
g22
tp4142
(g250
g763
tp4143
(g4
g69
g16
tp4144
tp4145
a((g2
g6
g12
g69
g14
g73
g20
g105
g65
g24
g26
tp4146
(g748
g3826
tp4147
(g2
g4
g6
g8
g12
g69
g73
g105
g65
tp4148
tp4149
a((g2
g4
g8
g10
g12
g16
g71
g73
g20
g65
g24
g26
tp4150
(g957
g2404
tp4151
(g10
g12
g16
g71
g20
g65
g24
g54
tp4152
tp4153
a((g2
g4
g10
g69
g14
g18
g71
g73
g65
g24
g54
tp4154
(g122
g250
tp4155
(g4
g10
g12
g69
g14
g16
g18
g73
g65
tp4156
tp4157
a((g4
g6
g10
g69
g14
g71
g20
g105
g65
g24
g54
g26
tp4158
(g1214
tp4159
(g73
g20
g24
g54
tp4160
tp4161
a((g8
g10
g12
g18
g71
g73
g20
g105
g22
g65
g54
g26
tp4162
(g553
tp4163
(g6
g8
g18
g73
g105
g54
tp4164
tp4165
a((g2
g4
g8
g10
g12
g69
g16
g71
g105
g65
g24
g54
tp4166
(g141
tp4167
(g10
g71
g73
g65
g24
tp4168
tp4169
a((g2
g4
g6
g8
g12
g69
g16
g18
g71
g73
g20
g65
g24
g54
g26
tp4170
(g678
g805
tp4171
(g2
g8
g12
g16
g105
g22
g24
g54
g26
tp4172
tp4173
a((g2
g6
g10
g69
g14
g18
g71
g73
g20
g105
g24
g54
tp4174
(g250
tp4175
(g2
g6
g14
g16
g71
g20
g54
tp4176
tp4177
a((g6
g12
g69
g14
g16
g18
g71
g20
g22
g24
g54
g26
tp4178
(g908
g156
tp4179
(g6
g10
g69
g18
g71
g20
g22
g24
g26
tp4180
tp4181
a((g4
g6
g8
g69
g16
g18
g71
g73
g20
g65
g24
g54
g26
tp4182
(g122
tp4183
(g4
g8
g12
g69
g71
g20
g65
tp4184
tp4185
a((g2
g4
g8
g69
g14
g16
g18
g22
g24
g54
g26
tp4186
(g1070
g1510
tp4187
(g2
g4
g12
g16
g18
g22
g24
g26
tp4188
tp4189
a((g2
g4
g8
g10
g12
g69
g14
g71
g73
g20
g54
tp4190
(g515
g1187
tp4191
(g2
g4
g8
g10
g69
g14
g18
g20
g24
tp4192
tp4193
a((g4
g10
g69
g14
g16
g18
g71
g73
g105
g22
g65
g24
tp4194
(g824
g748
tp4195
(g8
g10
g69
g18
g73
g105
g22
g54
tp4196
tp4197
a((g2
g4
g6
g8
g16
g18
g71
g20
g105
g65
g24
g26
tp4198
(g141
g284
tp4199
(g2
g14
g71
g73
g24
tp4200
tp4201
a((g2
g4
g6
g8
g10
g14
g18
g71
g105
g22
g54
tp4202
(g496
g782
tp4203
(g4
g8
g10
g12
g105
g22
g54
tp4204
tp4205
a((g2
g4
g6
g8
g10
g14
g16
g18
g71
g20
g24
g54
g26
tp4206
(g3096
tp4207
(g2
g6
g10
g12
g14
g18
g71
g54
g26
tp4208
tp4209
a((g2
g6
g8
g12
g14
g18
g71
g73
g20
g105
g24
g54
g26
tp4210
(g156
g1039
tp4211
(g10
g14
g105
g22
tp4212
tp4213
a((g4
g6
g8
g10
g12
g69
g16
g73
g20
g105
g22
g24
g26
tp4214
(g301
g1329
tp4215
(g4
g6
g8
g14
g16
g73
g22
g24
tp4216
tp4217
a((g4
g10
g12
g14
g16
g18
g71
g73
g20
g105
g54
g26
tp4218
(g318
g3700
tp4219
(g4
g6
g8
g14
g18
g71
g73
tp4220
tp4221
a((g2
g4
g6
g8
g10
g16
g71
g73
g105
g22
g54
g26
tp4222
(g218
g235
tp4223
(g2
g8
g12
g16
g71
g65
tp4224
tp4225
a((g2
g4
g6
g8
g10
g69
g14
g16
g71
g73
g65
g24
g54
tp4226
(g188
g337
tp4227
(g2
g10
g69
g14
g20
g65
g24
g54
g26
tp4228
tp4229
a((g4
g6
g69
g71
g73
g22
g26
tp4230
(g1070
(istructures.domain
Action
p4231
(dp4232
g30
(lp4233
(S'at_x6'
p4234
tp4235
a(S'at_y0'
p4236
tp4237
asg36
(lp4238
(S'at_y1'
p4239
tp4240
asg40
(tsg41
(lp4241
(S'at_y0'
p4242
tp4243
asg45
I0
sg46
(lp4244
sg48
S'move_6_0_6_1'
p4245
sbtp4246
(g12
g69
g71
g105
tp4247
tp4248
a((g2
g4
g6
g8
g12
g69
g14
g18
g71
g73
g20
g105
g22
g65
g24
g54
tp4249
(g250
tp4250
(g2
g6
g16
g18
g71
g65
g54
tp4251
tp4252
a((g4
g8
g12
g16
g71
g105
g22
g24
tp4253
(g188
(istructures.domain
Action
p4254
(dp4255
g30
(lp4256
(S'at_x5'
p4257
tp4258
a(S'at_y1'
p4259
tp4260
asg36
(lp4261
(S'at_x6'
p4262
tp4263
asg40
(tsg41
(lp4264
(S'at_x5'
p4265
tp4266
asg45
I0
sg46
(lp4267
sg48
S'move_5_1_6_1'
p4268
sbtp4269
(g69
g71
g105
g24
g26
tp4270
tp4271
a((g2
g8
g10
g12
g14
g16
g18
g71
g73
g20
g22
g65
g26
tp4272
(g824
tp4273
(g2
g8
g16
g18
g71
g73
g20
g22
g54
g26
tp4274
tp4275
a((g4
g10
g12
g69
g18
g71
g73
g20
g22
g65
g24
g54
tp4276
(g318
g284
tp4277
(g4
g12
g69
g14
g71
g73
g20
g22
g24
tp4278
tp4279
a((g4
g6
g8
g10
g14
g16
g73
g20
g105
g24
g54
g26
tp4280
(g218
g424
tp4281
(g6
g16
g18
g20
g65
g24
g54
g26
tp4282
tp4283
a((g2
g4
g6
g8
g14
g16
g18
g71
g22
g65
g54
g26
tp4284
(g156
g621
tp4285
(g6
g10
g69
g18
g22
g65
g26
tp4286
tp4287
a((g2
g6
g8
g10
g12
g14
g16
g18
g71
g22
g65
g24
tp4288
(g75
tp4289
(g2
g6
g12
g14
g18
g71
g105
g24
tp4290
tp4291
a((g4
g6
g10
g69
g73
g65
g26
tp4292
(g318
g678
tp4293
(g4
g8
g105
g65
tp4294
tp4295
a((g2
g4
g8
g10
g16
g18
g71
g20
g105
g24
g54
tp4296
(g284
g1533
tp4297
(g8
g14
g71
g24
g54
tp4298
tp4299
a((g2
g4
g12
g69
g14
g16
g18
g71
g73
g20
g22
g65
g24
g54
g26
tp4300
(g908
tp4301
(g2
g8
g12
g69
g16
g18
g73
g20
g54
tp4302
tp4303
a((g2
g6
g12
g69
g14
g16
g18
g20
g105
g22
g65
g54
g26
tp4304
(g1487
g655
tp4305
(g2
g4
g6
g22
g24
tp4306
tp4307
a((g2
g4
g6
g8
g10
g12
g69
g16
g18
g73
g20
g22
g65
g24
g26
tp4308
(g640
g390
tp4309
(g2
g6
g10
g69
g16
g71
g73
g54
g26
tp4310
tp4311
a((g2
g8
g10
g16
g18
g71
g20
g105
g22
g24
g54
g26
tp4312
(g1487
g621
tp4313
(g4
g10
g69
g16
g71
g20
g22
g54
tp4314
tp4315
a((g2
g4
g6
g8
g10
g12
g69
g16
g73
g20
g54
g26
tp4316
(g1855
g1164
tp4317
(g4
g12
g14
g73
g20
g22
tp4318
tp4319
a((g2
g4
g6
g10
g12
g69
g14
g18
g71
g73
g20
g22
g24
g54
tp4320
(g318
g188
tp4321
(g6
g8
g71
g73
g22
g26
tp4322
tp4323
a((g2
g4
g8
g12
g69
g16
g18
g71
g73
g22
g65
g24
g54
g26
tp4324
(g156
tp4325
(g2
g10
g16
g71
g22
g54
g26
tp4326
tp4327
a((g2
g6
g10
g12
g16
g18
g71
g73
g20
g105
g22
g24
tp4328
(g318
g763
tp4329
(g2
g4
g8
g12
g16
g22
tp4330
tp4331
a((g2
g4
g6
g8
g10
g69
g14
g16
g105
g65
g24
g54
tp4332
(g188
tp4333
(g8
g10
g14
g16
g105
g65
g26
tp4334
tp4335
a((g6
g12
g69
g14
g16
g18
g71
g73
g105
g65
g24
g26
tp4336
(g1020
tp4337
(g4
g12
g69
g16
tp4338
tp4339
a((g2
g6
g8
g10
g69
g14
g16
g18
g71
g73
g20
g22
g65
g54
g26
tp4340
(g1487
g4080
tp4341
(g4
g6
g8
g16
g18
g73
g22
g24
g54
tp4342
tp4343
a((g4
g10
g12
g69
g14
g16
g20
g105
g22
g24
g54
tp4344
(g50
g889
tp4345
(g2
g14
g16
g105
g65
g24
tp4346
tp4347
a((g2
g4
g6
g8
g12
g69
g16
g18
g71
g20
g105
g54
g26
tp4348
(g284
g88
tp4349
(g2
g4
g12
g14
g18
g105
g65
g26
tp4350
tp4351
a((g2
g6
g12
g69
g14
g18
g20
g105
g65
g24
g54
tp4352
(g2101
tp4353
(g4
g14
g20
g65
g24
g54
tp4354
tp4355
a((g2
g4
g6
g8
g10
g12
g69
g18
g73
g22
g65
g24
g54
g26
tp4356
(g284
tp4357
(g4
g6
g10
g12
g69
g14
g18
g22
g24
g54
g26
tp4358
tp4359
a((g4
g8
g10
g12
g16
g18
g73
g20
g105
g22
g65
g24
g26
tp4360
(g109
g265
tp4361
(g4
g8
g10
g69
g18
g20
g105
g22
tp4362
tp4363
a((g4
g8
g12
g69
g71
g73
g22
g54
g26
tp4364
(g1256
tp4365
(g4
g10
g22
g54
tp4366
tp4367
a((g4
g10
g69
g14
g16
g18
g71
g73
g20
g105
g22
g24
g26
tp4368
(g122
g28
tp4369
(g4
g12
g14
g16
g71
g73
g20
g22
g54
tp4370
tp4371
a((g2
g4
g6
g8
g12
g16
g71
g73
g20
g105
g22
g24
g54
g26
tp4372
(g301
tp4373
(g4
g14
g71
g73
g20
g22
g26
tp4374
tp4375
a((g6
g10
g12
g69
g16
g18
g71
g73
g20
g65
g24
g26
tp4376
(g318
g2101
tp4377
(g4
g8
g12
g16
g71
tp4378
tp4379
a((g2
g4
g6
g8
g10
g69
g14
g71
g73
g20
g105
g22
g65
g24
g54
g26
tp4380
(g250
tp4381
(g2
g6
g10
g14
g16
g20
g24
g26
tp4382
tp4383
a((g2
g8
g14
g16
g18
g73
g20
g65
g24
tp4384
(g678
g782
tp4385
(g12
g14
g18
g105
g65
tp4386
tp4387
a((g2
g6
g8
g12
g14
g18
g73
g20
g105
g24
g26
tp4388
(g250
tp4389
(g2
g12
g14
g16
g18
g20
g24
tp4390
tp4391
a((g2
g6
g10
g69
g14
g18
g73
g20
g105
g65
tp4392
(g1164
g235
tp4393
(g2
g6
g12
g14
g73
g105
tp4394
tp4395
a((g2
g4
g6
g8
g69
g16
g71
g73
g20
g105
g22
g24
g54
tp4396
(g851
tp4397
(g2
g8
g69
g18
g73
g20
g105
g24
tp4398
tp4399
a((g2
g6
g8
g69
g16
g18
g71
g73
g20
g65
g24
g54
g26
tp4400
(g1302
g301
tp4401
(g6
g8
g69
g14
g18
g71
g73
g105
g26
tp4402
tp4403
a((g2
g4
g8
g10
g14
g16
g18
g71
g20
g105
g22
g65
g54
g26
tp4404
(g141
g621
tp4405
(g4
g10
g69
g14
g18
g71
g73
g20
g22
g54
tp4406
tp4407
a((g4
g6
g10
g18
g73
g20
g105
g54
tp4408
((istructures.domain
Action
p4409
(dp4410
g30
(lp4411
(S'at_x0'
p4412
tp4413
a(S'at_y3'
p4414
tp4415
asg36
(lp4416
(S'at_y2'
p4417
tp4418
asg40
(tsg41
(lp4419
(S'at_y3'
p4420
tp4421
asg45
I0
sg46
(lp4422
sg48
S'move_0_3_0_2'
p4423
sbtp4424
(g4
g6
g18
g20
g65
tp4425
tp4426
a((g4
g6
g10
g12
g69
g14
g16
g71
g73
g20
g65
g54
g26
tp4427
(g424
g4231
tp4428
(g10
g12
g14
g18
g105
g65
tp4429
tp4430
a((g6
g10
g12
g69
g14
g16
g18
g73
g20
g105
g65
g26
tp4431
(g318
g2101
tp4432
(g4
g6
g8
g12
g69
g73
g26
tp4433
tp4434
a((g8
g10
g12
g69
g16
g20
g105
g65
g54
g26
tp4435
(g1120
tp4436
(g2
g12
g16
g20
g105
g65
tp4437
tp4438
a((g2
g4
g8
g10
g12
g14
g71
g73
g20
g105
g24
g54
tp4439
(g188
g2964
tp4440
(g10
g12
g69
g14
g71
g20
g105
g54
g26
tp4441
tp4442
a((g2
g4
g6
g8
g10
g12
g69
g14
g16
g18
g71
g73
g105
g65
g54
g26
tp4443
(g655
tp4444
(g2
g8
g10
g14
g71
g105
g24
g54
g26
tp4445
tp4446
a((g4
g8
g10
g69
g14
g16
g71
g20
g105
g22
g65
g54
tp4447
(g424
tp4448
(g8
g10
g14
g18
g105
g22
g65
tp4449
tp4450
a((g2
g4
g6
g10
g14
g16
g71
g73
g20
g105
g65
g54
g26
tp4451
(g424
tp4452
(g14
g18
g71
g20
g26
tp4453
tp4454
a((g2
g4
g10
g16
g18
g20
g105
g22
g24
g54
g26
tp4455
(g553
g390
tp4456
(g4
g6
g18
g71
g20
g105
g24
tp4457
tp4458
a((g2
g4
g6
g10
g12
g69
g14
g73
g20
g22
g65
g54
g26
tp4459
(g250
tp4460
(g4
g6
g14
g16
g22
g65
g54
tp4461
tp4462
a((g2
g4
g6
g8
g10
g69
g14
g16
g71
g73
g20
g105
g22
g65
g54
tp4463
(g851
tp4464
(g4
g8
g16
g18
g71
g73
g65
tp4465
tp4466
a((g2
g6
g8
g12
g69
g18
g71
g73
g20
g105
g24
g54
tp4467
(g156
g1164
tp4468
(g2
g6
g10
g12
g71
g73
g20
g105
g22
g24
tp4469
tp4470
a((g4
g14
g16
g18
g71
g73
g105
g22
g24
g54
tp4471
(g695
g763
tp4472
(g4
g14
g71
g73
g26
tp4473
tp4474
a((g4
g8
g12
g69
g14
g16
g22
g65
g24
tp4475
(g188
tp4476
(g8
g69
g16
g22
g26
tp4477
tp4478
a((g2
g4
g6
g8
g10
g12
g69
g14
g73
g105
g22
g65
g24
g54
tp4479
(g188
g851
tp4480
(g2
g6
g10
g18
g73
g105
g65
g24
g26
tp4481
tp4482
a((g2
g4
g8
g12
g14
g71
g73
g22
g65
g24
g26
tp4483
(g424
g606
tp4484
(g6
g12
g14
g18
g73
g24
tp4485
tp4486
a((g2
g6
g12
g14
g16
g18
g20
g105
g22
g24
g54
tp4487
(g748
g156
tp4488
(g10
g12
g16
g105
tp4489
tp4490
a((g2
g6
g8
g10
g12
g69
g16
g18
g71
g20
g22
g65
g26
tp4491
(g284
g763
tp4492
(g4
g6
g69
g14
g16
g71
g20
g26
tp4493
tp4494
a((g2
g4
g6
g8
g10
g12
g69
g14
g71
g20
g105
g24
g26
tp4495
(g1279
tp4496
(g2
g4
g8
g10
g69
g14
g105
g22
g24
tp4497
tp4498
a((g2
g6
g8
g69
g14
g18
g73
g20
g105
g22
g54
tp4499
(g496
g390
tp4500
(g2
g6
g8
g71
g20
g22
g24
g54
tp4501
tp4502
a((g2
g6
g8
g10
g12
g69
g71
g73
g20
g22
g65
g54
tp4503
(g515
g250
tp4504
(g69
g16
g71
g73
g20
g65
g24
g54
tp4505
tp4506
a((g2
g6
g10
g12
g18
g73
g20
g22
g65
g24
g26
tp4507
(g640
g250
tp4508
(g2
g6
g10
g16
g20
g24
g54
tp4509
tp4510
a((g2
g4
g6
g10
g16
g71
g105
g65
g24
g26
tp4511
(g301
g424
tp4512
(g6
g14
g18
g105
g65
tp4513
tp4514
a((g2
g6
g10
g12
g69
g16
g18
g73
g20
g105
g22
g54
g26
tp4515
(g318
tp4516
(g2
g6
g8
g12
g69
g16
g73
g20
g54
g26
tp4517
tp4518
a((g4
g6
g8
g69
g73
g20
g105
g22
g65
g54
tp4519
(g714
tp4520
(g18
g73
g22
g65
g54
tp4521
tp4522
a((g4
g8
g10
g12
g20
g105
g24
g54
g26
tp4523
(g218
tp4524
(g4
g10
g65
g24
tp4525
tp4526
a((g8
g12
g69
g16
g73
g20
g105
g24
g26
tp4527
(g1279
g443
tp4528
(g10
g16
g20
g105
g22
g24
tp4529
tp4530
a((g2
g8
g10
g12
g18
g71
g20
g105
g65
g24
g54
g26
tp4531
(g265
g2725
tp4532
(g2
g69
g54
g26
tp4533
tp4534
a((g4
g6
g8
g10
g12
g16
g71
g105
g26
tp4535
(g1279
g337
tp4536
(g6
g8
g10
g71
g20
g105
g22
g26
tp4537
tp4538
a((g2
g4
g12
g69
g18
g73
g20
g105
g22
g65
g24
g54
g26
tp4539
(g250
tp4540
(g4
g69
g16
g20
g105
g24
g54
tp4541
tp4542
a((g4
g8
g10
g14
g71
g20
g105
g22
tp4543
(g1070
(istructures.domain
Action
p4544
(dp4545
g30
(lp4546
(S'at_x4'
p4547
tp4548
a(S'at_y5'
p4549
tp4550
asg36
(lp4551
(S'at_x3'
p4552
tp4553
asg40
(tsg41
(lp4554
(S'at_x4'
p4555
tp4556
asg45
I0
sg46
(lp4557
sg48
S'move_4_5_3_5'
p4558
sbtp4559
(g8
g10
g14
g71
g24
tp4560
tp4561
a((g6
g12
g69
g16
g71
g73
g20
g65
g54
g26
tp4562
(g3642
(istructures.domain
Action
p4563
(dp4564
g30
(lp4565
(S'at_x6'
p4566
tp4567
a(S'at_y6'
p4568
tp4569
asg36
(lp4570
(S'at_y5'
p4571
tp4572
asg40
(tsg41
(lp4573
(S'at_y6'
p4574
tp4575
asg45
I0
sg46
(lp4576
sg48
S'move_6_6_6_5'
p4577
sbtp4578
(g4
g6
g12
g69
g71
g20
g105
tp4579
tp4580
a((g4
g8
g10
g14
g16
g18
g71
g20
g22
g24
g26
tp4581
(g572
tp4582
(g69
g71
g20
tp4583
tp4584
a((g2
g4
g6
g8
g10
g12
g69
g16
g18
g71
g73
g105
g22
g65
g54
g26
tp4585
(g337
tp4586
(g6
g12
g16
g20
g22
tp4587
tp4588
a((g4
g8
g69
g16
g71
g73
g20
g105
g22
g24
g54
g26
tp4589
(g1070
tp4590
(g4
g12
g71
g73
g105
g24
g54
g26
tp4591
tp4592
a((g2
g4
g6
g8
g12
g69
g18
g73
g105
g22
g24
g54
g26
tp4593
(g218
g250
tp4594
(g4
g6
g16
g65
g24
g26
tp4595
tp4596
a((g2
g4
g6
g16
g71
g73
g105
g22
g24
g26
tp4597
(g1147
g1445
g2964
tp4598
(g69
g16
g105
g22
g65
tp4599
tp4600
a((g2
g4
g10
g69
g16
g71
g20
g65
g24
g54
g26
tp4601
(g714
g199
tp4602
(g12
g69
g16
g18
g20
g54
g26
tp4603
tp4604
a((g2
g4
g6
g8
g10
g12
g69
g16
g71
g73
g20
g105
g22
g24
g54
g26
tp4605
(g218
g1855
tp4606
(g2
g10
g69
g14
g16
g71
g73
g20
g22
g65
g24
g26
tp4607
tp4608
a((g2
g4
g8
g10
g16
g73
g20
g105
g22
g54
tp4609
(g1855
g1070
tp4610
(g2
g4
g10
g12
g14
g16
g105
g54
tp4611
tp4612
a((g2
g6
g8
g10
g14
g18
g71
g73
g105
tp4613
(g250
tp4614
(g8
g10
g14
g16
g18
g73
tp4615
tp4616
a((g2
g8
g10
g12
g16
g18
g71
g73
g20
g105
g22
g54
g26
tp4617
(g50
g655
tp4618
(g2
g8
g16
g71
g73
g20
g105
g65
g24
g26
tp4619
tp4620
a((g2
g4
g6
g8
g10
g69
g16
g73
g20
g22
g24
g54
tp4621
(g122
tp4622
(g4
g10
g12
g22
tp4623
tp4624
a((g2
g6
g10
g12
g14
g16
g18
g71
g73
g20
g105
g65
g24
g54
tp4625
(g748
tp4626
(g8
g10
g12
g16
g71
g20
g105
g65
g24
g54
tp4627
tp4628
a((g2
g4
g8
g12
g14
g18
g71
g20
g65
g24
g54
g26
tp4629
(g265
g606
tp4630
(g2
g4
g6
g8
g18
g20
g22
g65
g24
g54
tp4631
tp4632
a((g4
g6
g8
g69
g71
g73
g22
g65
g24
tp4633
(g678
g587
tp4634
(g2
g6
g71
g105
g22
g24
tp4635
tp4636
a((g2
g4
g6
g8
g10
g69
g16
g71
g105
g22
g65
g24
g54
tp4637
(g141
g122
tp4638
(g6
g10
g12
g16
g71
g73
g54
tp4639
tp4640
a((g2
g4
g8
g10
g12
g69
g14
g18
g105
g24
g54
tp4641
(g141
g1039
tp4642
(g69
g73
g22
g54
tp4643
tp4644
a((g2
g6
g8
g10
g69
g14
g16
g18
g71
g73
g22
g65
g24
g54
g26
tp4645
(g122
g337
tp4646
(g12
g16
g71
g20
g22
g65
g26
tp4647
tp4648
a((g2
g8
g12
g69
g14
g16
g73
g22
g65
g24
g54
g26
tp4649
(g851
g606
tp4650
(g2
g6
g12
g69
g14
g18
g24
tp4651
tp4652
a((g2
g4
g8
g12
g18
g71
g105
g22
g65
g54
g26
tp4653
(g655
g606
tp4654
(g2
g4
g6
g71
g105
g22
g24
g54
tp4655
tp4656
a((g2
g4
g6
g10
g12
g69
g14
g16
g71
g73
g65
g24
g26
tp4657
(g424
g1020
tp4658
(g2
g4
g10
g18
g65
g24
tp4659
tp4660
a((g4
g8
g12
g14
g18
g20
g105
g22
g65
g24
g26
tp4661
(g141
tp4662
(g4
g12
g18
g73
g20
g22
g65
tp4663
tp4664
a((g4
g10
g16
g71
g20
g105
g24
tp4665
(g301
tp4666
(g10
g14
g71
tp4667
tp4668
a((g2
g6
g8
g10
g12
g69
g14
g16
g105
g65
g24
g54
g26
tp4669
(g1020
g390
tp4670
(g4
g6
g10
g69
g16
g71
g24
g54
tp4671
tp4672
a((g2
g6
g8
g10
g12
g14
g18
g71
g73
g20
g105
g54
g26
tp4673
(g534
g250
tp4674
(g2
g6
g8
g12
g16
g18
g71
g20
g24
g54
g26
tp4675
tp4676
a((g6
g8
g12
g16
g18
g73
g20
g65
tp4677
(g3642
g2404
tp4678
(g8
g12
g16
g73
g20
g105
g54
tp4679
tp4680
a((g2
g10
g12
g18
g73
g20
g105
g22
g24
g54
g26
tp4681
(g50
g553
tp4682
(g2
g6
g12
g18
g73
g65
g24
tp4683
tp4684
a((g2
g10
g69
g14
g16
g18
g71
g20
g22
g65
g54
g26
tp4685
(g1487
g1874
tp4686
(g4
g8
g10
g18
g20
g22
tp4687
tp4688
a((g2
g4
g6
g10
g12
g69
g14
g18
g71
g73
g105
g24
tp4689
(g337
g1552
tp4690
(g4
g10
g12
g14
g18
g71
g20
g105
g26
tp4691
tp4692
a((g4
g8
g10
g12
g16
g18
g71
g73
g20
g26
tp4693
(g678
g1039
g572
tp4694
(g8
g10
g69
g16
g18
g71
g20
g105
tp4695
tp4696
a((g2
g8
g12
g16
g71
g73
g22
g24
g26
tp4697
(g606
tp4698
(g6
g12
g16
g73
g22
tp4699
tp4700
a((g2
g4
g8
g12
g69
g14
g16
g18
g73
g20
g65
g24
g54
tp4701
(g188
g678
tp4702
(g8
g18
g105
g24
g26
tp4703
tp4704
a((g2
g4
g6
g10
g12
g16
g18
g71
g65
tp4705
(g1912
g1533
g188
tp4706
(g2
g6
g8
g12
g16
g54
g26
tp4707
tp4708
a((g2
g4
g6
g12
g14
g16
g18
g73
g22
g65
g24
tp4709
(g75
g748
g28
tp4710
(g8
g12
g73
g105
g54
tp4711
tp4712
a((g2
g6
g10
g69
g14
g16
g71
g73
g20
g22
g65
g24
g54
tp4713
(g75
g748
tp4714
(g2
g6
g8
g10
g69
g16
g105
g22
g24
tp4715
tp4716
a((g2
g4
g6
g8
g10
g12
g69
g18
g73
g20
g105
g24
g54
g26
tp4717
((istructures.domain
Action
p4718
(dp4719
g30
(lp4720
(S'at_x3'
p4721
tp4722
a(S'at_y3'
p4723
tp4724
asg36
(lp4725
(S'at_y2'
p4726
tp4727
asg40
(tsg41
(lp4728
(S'at_y3'
p4729
tp4730
asg45
I0
sg46
(lp4731
sg48
S'move_3_3_3_2'
p4732
sbtp4733
(g6
g8
g12
g69
g18
g105
g65
g24
g26
tp4734
tp4735
a((g2
g4
g10
g69
g14
g16
g73
g105
g22
g54
g26
tp4736
(g553
g695
tp4737
(g2
g6
g10
g69
g14
g16
g73
g105
g22
g54
g26
tp4738
tp4739
a((g6
g10
g12
g14
g16
g18
g71
g105
g65
g26
tp4740
(g655
g1690
tp4741
(g6
g14
g16
g105
g65
g24
g54
tp4742
tp4743
a((g2
g4
g8
g12
g14
g16
g20
g105
g24
g54
g26
tp4744
(g218
tp4745
(g14
g16
g65
tp4746
tp4747
a((g4
g10
g12
g69
g14
g18
g71
g73
g20
g105
g22
g65
g54
tp4748
(g695
g763
tp4749
(g4
g10
g12
g69
g14
g71
g73
g20
g22
g54
g26
tp4750
tp4751
a((g6
g8
g10
g69
g14
g16
g71
g65
g54
g26
tp4752
(g534
g199
g337
tp4753
(g8
g12
g16
g20
g54
tp4754
tp4755
a((g6
g8
g10
g12
g69
g14
g16
g18
g24
g54
g26
tp4756
(g337
tp4757
(g10
g69
g16
g20
g24
tp4758
tp4759
a((g2
g4
g6
g8
g12
g14
g16
g105
g22
g65
g24
tp4760
(g572
g390
tp4761
(g4
g6
g8
g69
g16
g71
tp4762
tp4763
a((g2
g6
g10
g12
g69
g14
g16
g20
g22
g65
tp4764
(g824
tp4765
(g10
g54
tp4766
tp4767
a((g2
g4
g12
g69
g14
g16
g73
g65
g24
g26
tp4768
(g75
g2207
g390
tp4769
(g2
g6
g71
g73
g105
tp4770
tp4771
a((g2
g4
g6
g8
g10
g69
g18
g73
g105
g65
g54
g26
tp4772
(g250
tp4773
(g6
g10
g16
g73
g65
g54
tp4774
tp4775
a((g4
g6
g8
g10
g12
g69
g14
g20
g65
g24
g54
g26
tp4776
(g75
g424
tp4777
(g6
g8
g12
g18
g20
g105
g24
g54
g26
tp4778
tp4779
a((g4
g6
g8
g69
g18
g71
g73
g20
g105
g22
g65
g24
g54
tp4780
(g188
tp4781
(g6
g69
g71
g73
g105
g22
g65
g24
g54
g26
tp4782
tp4783
a((g4
g6
g8
g12
g69
g14
g16
g73
g20
g22
g54
g26
tp4784
(g534
tp4785
(g4
g6
g8
g12
g69
g16
g20
g22
g24
g54
g26
tp4786
tp4787
a((g4
g6
g8
g10
g14
g18
g71
g73
g105
g65
tp4788
(g188
(istructures.domain
Action
p4789
(dp4790
g30
(lp4791
(S'at_x0'
p4792
tp4793
a(S'at_y4'
p4794
tp4795
asg36
(lp4796
(S'at_y5'
p4797
tp4798
asg40
(tsg41
(lp4799
(S'at_y4'
p4800
tp4801
asg45
I0
sg46
(lp4802
sg48
S'move_0_4_0_5'
p4803
sbtp4804
(g4
g6
g8
g10
g14
g71
g73
g105
g65
g26
tp4805
tp4806
a((g4
g6
g69
g14
g20
g65
g54
tp4807
(g75
g587
tp4808
(g2
g4
g6
g105
g54
tp4809
tp4810
a((g2
g4
g6
g10
g12
g14
g16
g18
g71
g20
g54
g26
tp4811
(g621
tp4812
(g4
g12
g69
g14
g16
g26
tp4813
tp4814
a((g2
g8
g10
g12
g69
g14
g18
g71
g73
g20
g105
g22
g24
g26
tp4815
(g218
tp4816
(g2
g8
g10
g12
g69
g14
g18
g71
g20
g22
g65
g24
g26
tp4817
tp4818
a((g2
g4
g10
g69
g14
g16
g18
g71
g73
g22
g65
g24
g54
g26
tp4819
(g122
g318
tp4820
(g4
g8
g12
g18
g73
g22
tp4821
tp4822
a((g2
g8
g10
g12
g69
g14
g16
g20
g22
g65
g24
g54
g26
tp4823
(g75
g141
g851
tp4824
(g2
g8
g10
g16
g18
g73
g20
g22
g26
tp4825
tp4826
a((g10
g12
g14
g16
g18
g71
g73
g26
tp4827
(g2404
g88
g4009
tp4828
(g10
g14
g71
g105
g65
g26
tp4829
tp4830
a((g2
g4
g6
g10
g12
g69
g14
g16
g18
g73
g20
g24
tp4831
(g1039
g390
tp4832
(g6
g69
g71
g73
g20
g22
g24
tp4833
tp4834
a((g2
g4
g8
g10
g12
g16
g18
g71
g20
g65
g24
g54
tp4835
(g284
g621
tp4836
(g4
g12
g69
g14
g20
tp4837
tp4838
a((g4
g6
g14
g16
g18
g71
g73
g20
g105
g22
g54
tp4839
(g109
g748
g352
tp4840
(g4
g8
g69
g71
g20
g54
g26
tp4841
tp4842
a((g2
g4
g6
g10
g12
g16
g18
g71
g73
g105
g22
g65
g26
tp4843
(g621
g337
tp4844
(g10
g12
g69
g71
g20
g22
g65
tp4845
tp4846
a((g4
g6
g8
g10
g12
g14
g71
g105
g22
g65
g24
g54
tp4847
(g424
g337
tp4848
(g6
g14
g18
g71
g20
g22
g65
g24
tp4849
tp4850
a((g2
g4
g6
g8
g10
g12
g14
g16
g18
g71
g22
g65
g54
tp4851
(g572
g265
tp4852
(g2
g6
g8
g10
g69
g14
g71
g22
g54
tp4853
tp4854
a((g2
g4
g8
g12
g69
g16
g20
g105
g65
g24
tp4855
(g188
g2207
g390
tp4856
(g2
g6
g12
g69
g16
g71
g20
g105
g65
tp4857
tp4858
a((g2
g6
g8
g14
g71
g73
g105
g22
g65
g24
g54
g26
tp4859
(g1487
g235
tp4860
(g4
g8
g12
g14
g73
g105
g24
g54
tp4861
tp4862
a((g2
g6
g10
g12
g69
g14
g73
g20
g105
g22
g65
g26
tp4863
(g1487
g250
tp4864
(g4
g6
g14
g16
g105
g22
g65
tp4865
tp4866
a((g2
g4
g6
g8
g10
g14
g16
g18
g71
g20
g22
g65
g54
g26
tp4867
(g75
g534
tp4868
(g4
g16
g71
g20
g105
g22
g24
g26
tp4869
tp4870
a((g4
g8
g69
g14
g71
g20
g105
g24
tp4871
(g141
g1164
tp4872
(g4
g71
g73
g20
g22
tp4873
tp4874
a((g2
g6
g8
g10
g69
g14
g18
g73
g20
g24
g26
tp4875
(g1164
g390
tp4876
(g8
g10
g14
g71
g20
g22
g24
g26
tp4877
tp4878
a((g2
g10
g12
g14
g16
g18
g71
g73
g20
g105
g24
g54
g26
tp4879
(g1147
g553
g621
tp4880
(g6
g12
g69
g16
g18
g73
g20
g65
g24
tp4881
tp4882
a((g2
g4
g8
g10
g12
g14
g16
g71
g73
g105
g22
tp4883
(g218
g824
tp4884
(g2
g4
g10
g14
g16
g71
g22
g54
tp4885
tp4886
a((g2
g4
g8
g10
g12
g14
g73
g20
g105
g22
g65
g24
g54
g26
tp4887
(g250
tp4888
(g2
g4
g8
g16
g73
g20
g105
tp4889
tp4890
a((g2
g4
g6
g8
g10
g14
g16
g18
g71
g73
g20
g22
g65
g24
g54
g26
tp4891
(g122
g621
tp4892
(g6
g8
g12
g69
g14
g16
g73
g22
g54
tp4893
tp4894
a((g2
g6
g10
g12
g69
g71
g73
g20
g105
g65
g24
tp4895
(g265
tp4896
(g6
g10
g69
g71
g20
g22
tp4897
tp4898
a((g4
g6
g10
g69
g14
g16
g18
g71
g20
g105
g24
g54
g26
tp4899
(g782
tp4900
(g6
g10
g12
g69
g71
g20
g105
tp4901
tp4902
a((g2
g6
g8
g10
g14
g16
g18
g71
g20
g105
g22
g65
g24
g26
tp4903
(g824
g2987
tp4904
(g2
g6
g69
g20
g54
g26
tp4905
tp4906
a((g2
g4
g6
g10
g12
g69
g14
g18
g73
g20
g105
g65
g26
tp4907
(g318
g250
tp4908
(g4
g8
g14
g16
g73
g105
tp4909
tp4910
a((g2
g4
g6
g8
g69
g14
g16
g73
g20
g105
g22
g54
tp4911
(g218
g851
g352
tp4912
(g4
g14
g18
g73
g20
g65
g26
tp4913
tp4914
a((g2
g6
g8
g16
g18
g71
g73
g20
g22
g65
g24
g54
g26
tp4915
(g122
tp4916
(g2
g6
g8
g12
g16
g71
g73
g65
g26
tp4917
tp4918
a((g2
g4
g10
g12
g14
g16
g71
g73
g65
tp4919
(g824
g1097
tp4920
(g10
g69
g16
g71
g54
tp4921
tp4922
a((g2
g4
g8
g10
g18
g71
g73
g20
g105
g24
g26
tp4923
(g218
g1912
g1631
tp4924
(g8
g14
g18
g71
g54
g26
tp4925
tp4926
a((g2
g4
g6
g8
g12
g69
g14
g18
g73
g22
g24
g26
tp4927
(g250
g678
tp4928
(g2
g4
g6
g8
g14
g16
g18
g105
g26
tp4929
tp4930
a((g4
g10
g12
g69
g14
g16
g18
g71
g73
g105
g65
g24
g54
g26
tp4931
(g553
g337
tp4932
(g10
g73
g20
g105
g24
tp4933
tp4934
a((g2
g8
g10
g12
g69
g14
g16
g18
g71
g73
g20
g105
g22
g24
g26
tp4935
(g218
g824
g553
tp4936
(g6
g8
g10
g12
g69
g16
g18
g71
g73
g22
g54
tp4937
tp4938
a((g2
g10
g14
g16
g18
g71
g73
g22
g65
g24
g54
g26
tp4939
(g1487
g109
tp4940
(g2
g4
g10
g69
g14
g18
g73
g24
tp4941
tp4942
a((g2
g6
g8
g10
g12
g69
g16
g71
g73
g22
g24
g54
g26
tp4943
(g678
g301
g337
tp4944
(g2
g6
g8
g14
g71
g20
g105
g22
g54
tp4945
tp4946
a((g2
g4
g6
g10
g12
g14
g73
g20
g105
tp4947
(g1147
g250
g390
tp4948
(g2
g4
g10
g12
g16
g71
g65
tp4949
tp4950
a((g6
g8
g10
g12
g69
g14
g18
g73
g20
g105
g22
g24
tp4951
(g587
g390
tp4952
(g2
g6
g8
g18
g71
g73
g105
g22
tp4953
tp4954
a((g2
g4
g6
g10
g69
g14
g16
g18
g73
g105
g22
g54
g26
tp4955
(g390
g337
tp4956
(g2
g6
g14
g16
g71
g73
g20
g54
g26
tp4957
tp4958
a((g4
g6
g8
g10
g69
g14
g16
g18
g71
g105
g22
g24
g54
tp4959
(g337
tp4960
(g4
g6
g8
g10
g69
g14
g16
g18
g20
tp4961
tp4962
a((g4
g6
g8
g10
g69
g71
g22
g65
g24
g54
tp4963
(g188
g199
g587
tp4964
(g2
g8
g12
g71
g22
g65
g54
g26
tp4965
tp4966
a((g2
g4
g6
g10
g12
g69
g18
g71
g73
g105
g22
g24
g54
tp4967
(g318
tp4968
(g4
g6
g8
g18
g73
g105
tp4969
tp4970
a((g2
g4
g6
g8
g69
g14
g16
g18
g71
g73
g22
tp4971
(g1070
g1164
tp4972
(g2
g4
g6
g8
g12
g16
g18
g71
g22
tp4973
tp4974
a((g2
g4
g8
g10
g12
g69
g16
g71
g73
g20
g65
g24
tp4975
(g188
g678
g301
tp4976
(g8
g69
g14
g16
g71
g20
g105
g65
g26
tp4977
tp4978
a((g2
g6
g10
g14
g16
g18
g20
g22
g65
g54
g26
tp4979
(g75
g748
g390
tp4980
(g2
g6
g8
g16
g71
g105
g54
g26
tp4981
tp4982
a((g2
g6
g8
g12
g16
g71
g105
g26
tp4983
(g3190
g1279
g2964
tp4984
(g69
g14
g105
g22
tp4985
tp4986
a((g2
g6
g8
g10
g16
g71
g73
g20
g105
g22
g26
tp4987
(g2058
g1329
tp4988
(g2
g8
g16
g71
g73
g24
tp4989
tp4990
a((g2
g4
g6
g10
g69
g14
g16
g18
g71
g73
g105
g65
g24
g54
g26
tp4991
(g122
g265
tp4992
(g2
g69
g14
g16
g18
g71
g73
g22
g65
g54
tp4993
tp4994
a((g2
g8
g10
g12
g69
g73
g20
g105
g54
g26
tp4995
(g218
g553
g390
tp4996
(g2
g6
g71
g73
g65
tp4997
tp4998
a((g4
g6
g10
g12
g69
g14
g16
g18
g73
g105
g22
g65
g24
g54
tp4999
(g695
tp5000
(g6
g10
g69
g105
g22
g65
g54
g26
tp5001
tp5002
a((g2
g6
g8
g10
g12
g69
g14
g18
g71
g20
g105
g22
g65
g54
g26
tp5003
(g141
g655
tp5004
(g2
g8
g18
g71
g73
g20
g22
g65
g24
g26
tp5005
tp5006
a((g6
g8
g10
g12
g69
g14
g18
g71
g20
g22
g24
g26
tp5007
(g587
tp5008
(g2
g8
g71
g26
tp5009
tp5010
a((g2
g4
g8
g10
g69
g16
g18
g73
g54
g26
tp5011
(g553
g337
tp5012
(g2
g8
g10
g18
g20
tp5013
tp5014
a((g4
g8
g16
g18
g71
g73
g105
g22
g65
g24
g26
tp5015
(g301
tp5016
(g4
g14
g73
g105
g22
g65
tp5017
tp5018
a((g2
g12
g69
g16
g105
g22
g65
g54
g26
tp5019
(g851
g763
tp5020
(g4
g22
g26
tp5021
tp5022
a((g4
g6
g8
g10
g12
g69
g16
g18
g71
g73
g22
g24
g26
tp5023
(g678
tp5024
(g4
g6
g69
g16
g71
g105
g22
g24
tp5025
tp5026
a((g10
g69
g14
g71
g73
g22
g65
g54
tp5027
(g318
tp5028
(g8
g14
g73
g22
g65
g54
tp5029
tp5030
a((g6
g8
g10
g12
g14
g16
g18
g71
g73
g105
g65
g26
tp5031
(g824
tp5032
(g6
g8
g73
g105
g54
tp5033
tp5034
a((g2
g4
g6
g69
g14
g16
g18
g73
g20
g105
g22
g65
g24
g54
g26
tp5035
(g748
g390
tp5036
(g2
g4
g8
g69
g16
g71
g20
g65
g24
g54
g26
tp5037
tp5038
a((g2
g4
g16
g71
g73
g20
g105
g22
g24
g54
g26
tp5039
(g606
tp5040
(g2
g6
g73
g22
g24
g54
tp5041
tp5042
a((g6
g8
g10
g69
g14
g16
g18
g73
g105
g22
g65
g54
g26
tp5043
(g534
tp5044
(g10
g18
g65
g24
g54
tp5045
tp5046
a((g2
g4
g6
g8
g12
g14
g16
g71
g73
g20
g22
g65
g24
g54
tp5047
(g678
g851
tp5048
(g2
g4
g6
g18
g105
g22
g24
tp5049
tp5050
a((g8
g12
g69
g14
g16
g18
g73
g20
g105
g65
g24
g26
tp5051
(g156
tp5052
(g10
g12
g69
g14
g73
g105
g24
tp5053
tp5054
a((g2
g4
g6
g8
g10
g14
g16
g73
g105
g22
g65
g24
g26
tp5055
(g824
g424
tp5056
(g2
g6
g8
g14
g18
g73
g22
g24
g54
g26
tp5057
tp5058
a((g4
g6
g8
g10
g69
g14
g16
g18
g73
g105
g22
g65
g24
tp5059
(g824
g122
tp5060
(g6
g10
g12
g69
g16
g18
g22
g54
tp5061
tp5062
a((g2
g6
g8
g16
g18
g73
g20
g105
g65
g24
g54
g26
tp5063
(g1816
tp5064
(g4
g6
g8
g16
g73
g20
g65
g54
g26
tp5065
tp5066
a((g2
g6
g8
g10
g69
g14
g16
g18
g73
g65
g26
tp5067
(g824
tp5068
(g2
g8
g14
g54
tp5069
tp5070
a((g2
g6
g10
g12
g69
g14
g18
g73
g20
g105
g22
g24
g54
tp5071
(g748
g250
tp5072
(g6
g8
g10
g16
g18
g73
g105
tp5073
tp5074
a((g2
g4
g10
g12
g16
g18
g71
g20
g65
g24
g54
g26
tp5075
(g265
g553
g2467
tp5076
(g6
g18
g71
g20
g22
g24
g54
g26
tp5077
tp5078
a((g2
g4
g8
g12
g69
g14
g16
g18
g105
g22
g26
tp5079
(g218
g824
g156
tp5080
(g2
g10
g14
g16
g18
g54
tp5081
tp5082
a((g2
g4
g10
g12
g69
g14
g71
g20
g22
g65
g24
tp5083
(g824
g695
g553
tp5084
(g2
g6
g10
g14
g71
g20
g24
g54
tp5085
tp5086
a((g6
g10
g12
g14
g16
g18
g71
g73
g20
g105
g22
g65
g24
g26
tp5087
(g318
g763
tp5088
(g4
g8
g12
g16
g20
g105
g65
g26
tp5089
tp5090
a((g2
g4
g6
g8
g10
g12
g14
g16
g71
g73
g65
g54
g26
tp5091
(g1097
g1164
tp5092
(g4
g10
g12
g14
g16
g71
g73
g22
g54
tp5093
tp5094
a((g8
g10
g12
g69
g16
g18
g73
g22
g65
g54
g26
tp5095
(g553
g337
tp5096
(g6
g8
g16
g20
tp5097
tp5098
a((g2
g4
g8
g10
g12
g69
g16
g71
g73
g105
g22
g54
g26
tp5099
(g957
g553
tp5100
(g2
g6
g8
g10
g16
g18
g105
g22
tp5101
tp5102
a((g2
g6
g8
g10
g12
g69
g16
g18
g71
g73
g20
g105
g22
g65
g54
tp5103
(g655
tp5104
(g2
g8
g69
g71
g73
g65
g24
g54
tp5105
tp5106
a((g2
g4
g14
g16
g71
g73
g20
g105
g22
g24
tp5107
(g1147
g824
g109
tp5108
(g4
g69
g14
g71
g73
g54
tp5109
tp5110
a((g2
g6
g8
g10
g14
g18
g71
g73
g20
g24
g26
tp5111
(g621
tp5112
(g6
g10
g69
g14
g71
tp5113
tp5114
a((g2
g10
g14
g16
g18
g71
g73
g20
g65
g24
g26
tp5115
(g318
tp5116
(g8
g18
g71
g73
g65
g26
tp5117
tp5118
a((g2
g8
g10
g69
g14
g16
g18
g20
g105
g65
g24
g54
g26
tp5119
(g553
g390
tp5120
(g2
g6
g14
g18
g71
g20
g105
tp5121
tp5122
a((g2
g4
g6
g10
g12
g69
g14
g16
g18
g20
g105
g65
g24
g54
g26
tp5123
(g942
g75
tp5124
(g6
g12
g69
g14
g18
g73
g105
g26
tp5125
tp5126
a((g2
g4
g8
g12
g14
g16
g54
g26
tp5127
(g1279
tp5128
(g2
g4
g8
g22
g26
tp5129
tp5130
a((g4
g6
g8
g10
g71
g73
g20
g105
g22
g65
g54
g26
tp5131
((istructures.domain
Action
p5132
(dp5133
g30
(lp5134
(S'at_x0'
p5135
tp5136
a(S'at_y5'
p5137
tp5138
asg36
(lp5139
(S'at_y4'
p5140
tp5141
asg40
(tsg41
(lp5142
(S'at_y5'
p5143
tp5144
asg45
I0
sg46
(lp5145
sg48
S'move_0_5_0_4'
p5146
sbtp5147
(g10
g18
g22
g54
g26
tp5148
tp5149
a((g2
g10
g12
g69
g14
g16
g18
g71
g20
g105
g22
g65
g24
g54
g26
tp5150
(g942
tp5151
(g2
g10
g14
g18
g71
g73
g65
g24
g54
tp5152
tp5153
a((g4
g6
g8
g12
g14
g16
g73
g20
g105
g65
g26
tp5154
(g1329
tp5155
(g4
g6
g14
g16
g20
g105
g24
tp5156
tp5157
a((g2
g4
g6
g14
g16
g71
g20
g22
g54
g26
tp5158
(g1070
tp5159
(g2
g4
g6
g12
g54
g26
tp5160
tp5161
a((g2
g4
g6
g8
g10
g69
g14
g16
g18
g20
g105
g22
g65
g54
tp5162
(g141
g390
tp5163
(g2
g6
g8
g10
g14
g16
g18
g71
g73
g65
g54
tp5164
tp5165
a((g4
g6
g10
g12
g69
g14
g16
g73
g20
g105
g54
tp5166
(g2021
g318
g188
tp5167
(g6
g8
g12
g16
g73
g20
g65
g26
tp5168
tp5169
a((g4
g6
g8
g69
g14
g18
g20
g105
g65
g24
g54
g26
tp5170
(g782
g534
tp5171
(g4
g12
g105
g24
tp5172
tp5173
a((g2
g6
g8
g10
g69
g14
g16
g73
g65
g24
g26
tp5174
(g678
tp5175
(g10
g16
g105
g65
tp5176
tp5177
a((g2
g4
g69
g14
g16
g18
g73
g65
g24
g26
tp5178
(g2207
g390
tp5179
(g2
g4
g14
g18
g71
g65
tp5180
tp5181
a((g2
g6
g16
g18
g73
g22
g65
g24
g26
tp5182
(g235
g2101
tp5183
(g2
g4
g6
g12
g16
g73
g65
g24
g26
tp5184
tp5185
a((g2
g6
g8
g69
g14
g16
g18
g73
g20
g22
g65
g54
g26
tp5186
(g390
tp5187
(g8
g16
g18
g71
g20
g22
g65
tp5188
tp5189
a((g2
g6
g8
g10
g69
g14
g18
g71
g20
g65
g24
g54
tp5190
(g1816
tp5191
(g2
g4
g6
g10
g14
g20
g65
g54
tp5192
tp5193
a((g2
g4
g8
g10
g69
g14
g16
g71
g73
g22
g65
g24
g26
tp5194
(g424
g28
tp5195
(g2
g8
g10
g14
g71
g65
g24
g54
tp5196
tp5197
a((g4
g10
g69
g16
g73
g20
g105
g22
g65
g54
tp5198
(g851
tp5199
(g4
g16
g18
g20
g105
g22
tp5200
tp5201
a((g2
g6
g12
g69
g16
g18
g71
g73
g20
g105
g22
g24
g54
g26
tp5202
(g301
tp5203
(g6
g14
g16
g105
g26
tp5204
tp5205
a((g2
g6
g10
g12
g69
g14
g16
g18
g73
g105
g24
g26
tp5206
(g748
g390
tp5207
(g6
g8
g10
g12
g18
g71
g105
g24
g26
tp5208
tp5209
a((g4
g6
g8
g69
g71
g73
g105
g22
g24
g54
g26
tp5210
(g218
g1256
g337
tp5211
(g69
g20
g22
g65
g54
g26
tp5212
tp5213
a((g2
g4
g8
g10
g12
g69
g14
g73
g20
g105
g22
g24
g54
g26
tp5214
(g250
tp5215
(g2
g4
g8
g10
g12
g14
g16
g20
g105
tp5216
tp5217
a((g2
g4
g6
g8
g10
g14
g16
g18
g73
g20
g105
g22
g24
tp5218
(g218
g390
tp5219
(g2
g4
g6
g16
g18
g71
g73
g20
g65
g24
tp5220
tp5221
a((g4
g6
g8
g10
g12
g69
g14
g16
g18
g73
g65
g24
g54
g26
tp5222
(g678
g265
tp5223
(g4
g6
g69
g18
g105
g22
g54
g26
tp5224
tp5225
a((g2
g4
g6
g8
g10
g69
g16
g18
g71
g73
g105
g22
g65
tp5226
(g188
tp5227
(g6
g8
g16
g18
g71
g73
g105
g65
g26
tp5228
tp5229
a((g2
g4
g8
g12
g69
g71
g65
g26
tp5230
(g1912
g957
g284
tp5231
(g2
g12
g14
g18
g71
g54
g26
tp5232
tp5233
a((g2
g4
g6
g8
g10
g12
g69
g14
g73
g20
g105
g24
g54
g26
tp5234
(g390
tp5235
(g6
g8
g12
g71
g20
g24
g54
tp5236
tp5237
a((g12
g69
g18
g71
g73
g20
g105
g22
g65
g24
tp5238
(g301
g655
g748
tp5239
(g8
g18
g73
g105
g24
tp5240
tp5241
a((g2
g6
g8
g10
g12
g69
g14
g18
g73
g20
g22
g54
g26
tp5242
(g50
tp5243
(g6
g8
g69
g18
g73
g20
g22
g65
tp5244
tp5245
a((g4
g6
g8
g10
g69
g16
g18
g71
g22
g65
g24
g54
g26
tp5246
(g284
g587
tp5247
(g2
g4
g10
g14
g16
g65
g54
tp5248
tp5249
a((g2
g4
g6
g10
g12
g69
g14
g16
g71
g73
g20
g65
g24
g54
g26
tp5250
(g1445
g265
tp5251
(g6
g10
g69
g71
g105
g22
g65
g24
g54
g26
tp5252
tp5253
a((g2
g4
g69
g14
g16
g18
g71
g73
g20
g24
tp5254
(g695
g2207
tp5255
(g6
g69
g14
g18
g71
g73
g24
tp5256
tp5257
a((g2
g4
g10
g12
g16
g105
g65
g24
g54
g26
tp5258
(g957
g923
tp5259
(g4
g10
g12
g18
g65
g54
tp5260
tp5261
a((g2
g4
g6
g8
g12
g14
g16
g18
g71
g24
g26
tp5262
(g156
g337
tp5263
(g4
g10
g12
g14
g16
g18
g20
g26
tp5264
tp5265
a((g2
g4
g10
g12
g69
g14
g16
g20
g105
g22
g65
g24
g54
g26
tp5266
(g942
g75
tp5267
(g4
g10
g12
g69
g14
g73
g105
g24
g54
tp5268
tp5269
a((g4
g6
g8
g10
g12
g16
g18
g73
g105
g22
g65
tp5270
(g284
g337
tp5271
(g4
g6
g10
g12
g14
g16
g20
g65
tp5272
tp5273
a((g4
g14
g16
g18
g71
g73
g20
g22
g65
g24
g54
g26
tp5274
(g75
g606
tp5275
(g4
g6
g16
g105
tp5276
tp5277
a((g2
g6
g8
g12
g69
g16
g18
g71
g73
g20
g105
g24
tp5278
(g1039
tp5279
(g2
g6
g69
g18
g20
g22
g24
tp5280
tp5281
a((g6
g10
g69
g16
g18
g20
g105
g65
g24
g26
tp5282
(g805
g235
tp5283
(g6
g12
g20
g105
g24
g26
tp5284
tp5285
a((g2
g10
g12
g16
g18
g105
g22
g65
g24
g54
g26
tp5286
(g301
g748
tp5287
(g8
g10
g16
g18
g105
g54
tp5288
tp5289
a((g2
g4
g12
g69
g18
g73
g20
g105
g65
g24
g54
g26
tp5290
(g2207
g390
tp5291
(g2
g4
g69
g18
g71
g65
g24
tp5292
tp5293
a((g6
g8
g10
g12
g69
g16
g18
g73
g20
g22
g65
g24
g54
tp5294
(g678
g301
g587
tp5295
(g2
g8
g10
g12
g14
g16
g18
g105
g22
g65
tp5296
tp5297
a((g6
g8
g12
g16
g20
tp5298
(g352
g3516
tp5299
(g4
g8
g12
g20
tp5300
tp5301
a((g2
g6
g8
g10
g69
g14
g16
g73
g20
g105
g22
g65
g24
tp5302
(g390
g352
tp5303
(g10
g14
g71
g73
g26
tp5304
tp5305
a((g4
g8
g10
g69
g16
g71
g73
g105
g22
g54
g26
tp5306
(g714
g1120
tp5307
(g2
g8
g18
g71
g73
g105
g22
g54
tp5308
tp5309
a((g4
g6
g10
g12
g69
g18
g71
g20
g105
g26
tp5310
(g2021
g655
g169
tp5311
(g6
g69
g14
g18
g65
tp5312
tp5313
a((g2
g4
g6
g8
g10
g69
g16
g18
g71
g73
g65
tp5314
(g188
g678
g337
tp5315
(g8
g10
g69
g71
g20
g105
g26
tp5316
tp5317
a((g4
g8
g10
g12
g14
g16
g18
g71
g20
g105
g26
tp5318
(g218
g265
g553
tp5319
(g4
g6
g8
g10
g16
g18
g71
g20
g22
g65
tp5320
tp5321
a((g4
g6
g8
g10
g12
g69
g14
g16
g71
g73
g20
g105
g22
g54
g26
tp5322
(g587
tp5323
(g2
g4
g8
g14
g16
g20
g54
tp5324
tp5325
a((g8
g10
g69
g14
g71
g20
g65
g24
g26
tp5326
(g199
g265
tp5327
(g69
g14
g22
g65
g26
tp5328
tp5329
a((g2
g6
g8
g12
g69
g14
g16
g71
g20
g65
g24
g26
tp5330
(g824
g1256
g908
tp5331
(g2
g6
g8
g10
g12
g69
g16
g71
g24
g54
g26
tp5332
tp5333
a((g4
g6
g8
g12
g69
g14
g16
g71
g73
g20
g105
g24
g54
tp5334
(g424
g156
tp5335
(g6
g10
g14
g16
g18
g73
g20
g24
g54
tp5336
tp5337
a((g4
g6
g8
g10
g69
g18
g73
g20
g105
g22
g65
g24
g54
tp5338
(g587
g390
tp5339
(g6
g18
g71
g73
g20
g105
g22
g54
tp5340
tp5341
a((g2
g6
g10
g14
g16
g18
g71
g73
g22
g65
g24
g54
g26
tp5342
(g1487
tp5343
(g4
g6
g14
g16
g18
g71
tp5344
tp5345
a((g2
g6
g8
g10
g12
g14
g16
g71
g73
g105
g22
g24
g54
g26
tp5346
(g1487
g337
tp5347
(g4
g10
g12
g73
g20
g105
tp5348
tp5349
a((g2
g4
g6
g8
g10
g12
g14
g18
g71
g73
g20
g54
g26
tp5350
(g1039
tp5351
(g2
g4
g10
g14
g18
g73
g20
g22
g54
g26
tp5352
tp5353
a((g4
g6
g8
g12
g69
g14
g71
g73
g105
g24
g54
g26
tp5354
(g1256
g337
tp5355
(g10
g71
g73
g20
g105
g24
g26
tp5356
tp5357
a((g2
g6
g8
g10
g12
g69
g16
g18
g71
g105
g65
g24
g54
tp5358
(g301
g352
tp5359
(g2
g10
g12
g69
g14
g18
g105
g65
g26
tp5360
tp5361
a((g2
g4
g6
g12
g14
g16
g18
g65
g54
tp5362
(g75
g88
tp5363
(g4
g6
g12
g14
g18
g105
g65
tp5364
tp5365
a((g2
g6
g8
g12
g69
g16
g18
g20
g105
g65
g24
g54
g26
tp5366
(g156
tp5367
(g10
g20
g105
g65
g24
g54
g26
tp5368
tp5369
a((g4
g6
g8
g10
g12
g14
g16
g18
g71
g73
g20
g22
g24
g54
g26
tp5370
(g109
g587
tp5371
(g2
g6
g16
g18
g24
tp5372
tp5373
a((g2
g12
g14
g18
g71
g73
g20
g54
g26
tp5374
(g655
g1445
g748
tp5375
(g8
g105
g24
g54
tp5376
tp5377
a((g8
g10
g14
g16
g18
g71
g20
g105
g22
g24
g26
tp5378
(g28
tp5379
(g10
g14
g71
g20
g105
g22
g24
g54
tp5380
tp5381
a((g4
g6
g8
g10
g14
g22
g65
g24
g26
tp5382
(g75
g782
g337
tp5383
(g6
g8
g12
g20
g105
tp5384
tp5385
a((g8
g12
g69
g14
g20
g105
g22
g65
g24
g26
tp5386
(g824
g1487
g851
tp5387
(g4
g8
g18
g20
g105
g24
tp5388
tp5389
a((g4
g6
g8
g10
g69
g71
g73
g22
g54
g26
tp5390
(g1070
tp5391
(g4
g6
g12
g69
g73
tp5392
tp5393
a((g4
g6
g8
g12
g14
g71
g20
g105
g65
g54
tp5394
(g424
g655
tp5395
(g6
g8
g14
g18
g24
tp5396
tp5397
a((g4
g6
g8
g10
g12
g69
g14
g16
g71
g73
g20
g105
g22
g54
g26
tp5398
(g218
g1329
tp5399
(g10
g14
g65
g24
g26
tp5400
tp5401
a((g2
g4
g10
g14
g18
g71
g73
g20
g22
g24
tp5402
(g250
g28
tp5403
(g2
g10
g16
g71
g20
g24
g54
tp5404
tp5405
a((g2
g4
g6
g69
g16
g73
g20
g22
g65
g54
g26
tp5406
(g2913
g851
tp5407
(g2
g4
g6
g16
g18
g20
g105
g65
g26
tp5408
tp5409
a((g2
g4
g6
g10
g69
g14
g16
g18
g20
g105
g22
g24
g54
g26
tp5410
(g1147
tp5411
(g6
g14
g16
g18
g20
g22
g65
g24
g54
tp5412
tp5413
a((g2
g4
g6
g8
g10
g12
g14
g16
g71
g73
g22
g65
g24
g54
g26
tp5414
(g109
tp5415
(g8
g69
g16
g24
g54
tp5416
tp5417
a((g2
g4
g6
g8
g12
g69
g14
g18
g73
g20
g105
g65
g54
tp5418
(g188
g390
tp5419
(g6
g8
g69
g71
g105
g54
g26
tp5420
tp5421
a((g6
g8
g10
g12
g14
g18
g73
g20
g105
g22
g65
g24
tp5422
(g824
tp5423
(g8
g12
g18
g105
g24
g54
tp5424
tp5425
a((g2
g4
g8
g12
g14
g16
g18
g73
g20
g65
g54
g26
tp5426
(g265
tp5427
(g8
g18
g73
g22
g65
g54
g26
tp5428
tp5429
a((g2
g4
g6
g12
g18
g71
g105
g22
g65
g24
tp5430
(g640
tp5431
(g2
g6
g12
g18
g22
g24
g54
tp5432
tp5433
a((g2
g6
g8
g14
g71
g73
g20
g65
g24
tp5434
(g824
g250
tp5435
(g2
g8
g14
g16
g71
g73
g54
tp5436
tp5437
a((g2
g4
g6
g12
g69
g16
g71
g73
g65
g24
g54
g26
tp5438
(g169
tp5439
(g6
g14
g16
g54
tp5440
tp5441
a((g2
g4
g6
g8
g10
g12
g18
g71
g73
g20
g22
g24
g26
tp5442
(g250
tp5443
(g4
g8
g10
g16
g18
g71
g22
g26
tp5444
tp5445
a((g2
g8
g10
g69
g14
g16
g18
g20
g22
g24
g54
g26
tp5446
(g50
g75
g1487
tp5447
(g2
g4
g8
g18
g105
g22
tp5448
tp5449
a((g4
g6
g8
g10
g12
g69
g14
g71
g20
g105
g22
g54
tp5450
(g424
tp5451
(g6
g10
g18
g71
g20
g105
tp5452
tp5453
a((g4
g8
g10
g12
g69
g14
g16
g18
g20
g65
g26
tp5454
(g824
g655
tp5455
(g8
g10
g16
g18
g20
g24
g54
tp5456
tp5457
a((g2
g4
g8
g12
g14
g16
g18
g71
g105
g24
g54
g26
tp5458
(g621
g1510
tp5459
(g8
g12
g71
g105
g22
g24
g54
tp5460
tp5461
a((g4
g6
g12
g69
g16
g73
g20
g22
g65
g54
g26
tp5462
(g3642
g587
tp5463
(g2
g4
g6
g16
g73
g20
g105
g54
g26
tp5464
tp5465
a((g2
g4
g6
g10
g12
g14
g105
g65
tp5466
(g824
g424
g496
tp5467
(g12
g18
g24
g54
tp5468
tp5469
a((g8
g10
g69
g14
g16
g18
g73
g22
g65
g24
g54
g26
tp5470
(g553
g763
tp5471
(g4
g6
g14
g73
g22
g65
g24
g54
tp5472
tp5473
a((g4
g8
g10
g12
g69
g18
g71
g73
g105
g65
g24
g26
tp5474
(g2404
g1120
tp5475
(g2
g4
g8
g10
g12
g71
g73
g65
g24
g54
g26
tp5476
tp5477
a((g2
g10
g12
g14
g18
g73
g20
g105
g65
g54
g26
tp5478
(g655
g748
tp5479
(g8
g10
g18
g73
g105
g65
g24
g54
tp5480
tp5481
a((g2
g4
g6
g8
g10
g12
g69
g16
g73
g105
g22
g65
g24
g26
tp5482
(g640
g851
tp5483
(g2
g4
g10
g69
g18
g73
g105
g26
tp5484
tp5485
a((g2
g6
g8
g10
g69
g14
g16
g18
g71
g73
g20
g105
g22
g24
tp5486
(g122
g763
tp5487
(g2
g4
g10
g12
g14
g16
g73
g20
g105
tp5488
tp5489
a((g2
g6
g8
g12
g69
g16
g18
g71
g73
g105
g54
g26
tp5490
(g655
tp5491
(g6
g8
g24
tp5492
tp5493
a((g2
g4
g6
g8
g69
g18
g71
g20
g105
g22
g26
tp5494
(g284
tp5495
(g4
g6
g69
g14
g71
g105
g22
tp5496
tp5497
a((g4
g6
g8
g10
g14
g71
g73
g105
g22
g65
g24
tp5498
(g109
g424
tp5499
(g69
g18
g71
tp5500
tp5501
a((g6
g8
g10
g69
g14
g16
g71
g24
g54
g26
tp5502
(g587
g1020
tp5503
(g2
g4
g6
g8
g54
tp5504
tp5505
a((g6
g8
g12
g69
g14
g71
g73
g20
g105
g65
g24
g54
tp5506
(g1187
g1164
tp5507
(g6
g8
g12
g14
g18
g71
g20
g105
g22
g24
tp5508
tp5509
a((g2
g4
g10
g12
g69
g14
g16
g18
g71
g20
g22
g65
g24
g54
g26
tp5510
(g553
tp5511
(g2
g6
g10
g12
g14
g16
g20
g54
tp5512
tp5513
a((g2
g6
g8
g10
g12
g69
g14
g16
g71
g73
g105
g65
g54
tp5514
(g352
g1164
tp5515
(g8
g12
g14
g73
g105
g22
g54
g26
tp5516
tp5517
a((g2
g6
g8
g10
g69
g18
g73
g105
g22
g65
g54
tp5518
(g390
tp5519
(g2
g69
g18
g71
g73
g105
g22
tp5520
tp5521
a((g4
g6
g10
g12
g69
g18
g71
g20
g105
g22
g54
g26
tp5522
(g2021
g655
tp5523
(g4
g6
g10
g18
g22
g65
g24
g54
g26
tp5524
tp5525
a((g8
g10
g12
g71
g73
g105
g22
g65
g24
g54
tp5526
(g301
g851
tp5527
(g8
g14
g18
g73
g105
g65
tp5528
tp5529
a((g2
g6
g8
g12
g16
g71
g20
g105
g22
g24
g54
tp5530
(g1256
tp5531
(g6
g10
g12
g16
g20
g24
tp5532
tp5533
a((g4
g6
g8
g10
g69
g14
g16
g18
g20
g105
g65
g24
g26
tp5534
(g587
g390
tp5535
(g2
g4
g14
g16
g71
g20
g105
g65
g26
tp5536
tp5537
a((g6
g8
g10
g12
g69
g16
g18
g71
g73
g105
g22
g65
g24
g54
g26
tp5538
(g284
g337
tp5539
(g6
g10
g12
g69
g14
g16
g18
g20
g65
g24
g54
g26
tp5540
tp5541
a((g2
g4
g8
g12
g71
g20
g22
g65
tp5542
(g572
g957
tp5543
(g2
g69
g18
g71
g65
tp5544
tp5545
a((g2
g4
g10
g69
g14
g16
g71
g73
g20
g105
g22
g65
g24
g54
g26
tp5546
(g553
tp5547
(g4
g6
g14
g16
g71
g73
g105
g65
tp5548
tp5549
a((g2
g6
g8
g69
g14
g16
g20
g105
g22
g54
tp5550
(g218
g390
tp5551
(g6
g8
g14
g71
g20
g22
g65
g54
tp5552
tp5553
a((g4
g12
g69
g14
g16
g18
g73
g105
g22
g54
tp5554
(g50
tp5555
(g12
g14
g73
g105
g65
tp5556
tp5557
a((g2
g8
g12
g69
g18
g71
g20
g22
g65
g24
tp5558
(g640
tp5559
(g2
g8
g69
g18
g20
g22
g24
g54
tp5560
tp5561
a((g2
g4
g10
g18
g71
g73
g105
g22
g65
g24
g54
tp5562
(g318
tp5563
(g4
g8
g71
g54
tp5564
tp5565
a((g2
g6
g8
g69
g14
g16
g18
g71
g20
g105
g22
g24
g26
tp5566
(g218
g235
tp5567
(g12
g69
g18
g71
g65
tp5568
tp5569
a((g2
g4
g6
g16
g71
g20
g105
g22
tp5570
(g572
(istructures.domain
Action
p5571
(dp5572
g30
(lp5573
(S'at_x7'
p5574
tp5575
a(S'at_y5'
p5576
tp5577
asg36
(lp5578
(S'at_y6'
p5579
tp5580
asg40
(tsg41
(lp5581
(S'at_y5'
p5582
tp5583
asg45
I0
sg46
(lp5584
sg48
S'move_7_5_7_6'
p5585
sbtp5586
(g6
g69
g16
g20
g26
tp5587
tp5588
a((g2
g6
g8
g12
g69
g16
g18
g71
g22
g65
g24
g26
tp5589
(g1487
tp5590
(g2
g4
g8
g16
g18
g71
g65
g24
tp5591
tp5592
a((g2
g4
g8
g69
g14
g16
g18
g71
g73
g22
g65
g24
g54
g26
tp5593
(g75
g1070
tp5594
(g2
g4
g8
g12
g69
g71
g73
g105
g24
tp5595
tp5596
a((g2
g10
g18
g73
g24
g54
g26
tp5597
(g122
g1039
g250
tp5598
(g2
g16
g18
g22
g26
tp5599
tp5600
a((g6
g10
g69
g14
g16
g18
g71
g22
g65
g26
tp5601
(g1487
tp5602
(g4
g10
g69
g14
g65
tp5603
tp5604
a((g2
g6
g10
g16
g18
g71
g73
g105
g22
g24
g26
tp5605
(g1147
g235
g2404
tp5606
(g6
g12
g73
g65
g24
g54
tp5607
tp5608
a((g2
g4
g6
g8
g12
g14
g16
g18
g71
g73
g105
g22
g54
tp5609
(g188
g156
tp5610
(g10
g18
g71
g105
g54
g26
tp5611
tp5612
a((g4
g6
g10
g69
g14
g18
g105
g22
g54
g26
tp5613
(g1070
g942
tp5614
(g4
g10
g12
g14
g18
g73
tp5615
tp5616
a((g2
g4
g6
g8
g12
g69
g18
g71
g73
g20
g22
g65
g54
tp5617
(g284
g250
tp5618
(g2
g6
g69
g14
g16
g73
g20
g22
g65
g54
tp5619
tp5620
a((g2
g8
g12
g69
g16
g18
g71
g73
g20
g105
g22
g24
g54
g26
tp5621
(g1487
tp5622
(g2
g4
g71
g73
g20
g22
g54
tp5623
tp5624
a((g2
g4
g6
g10
g12
g69
g71
g73
g20
g105
g65
g24
g54
tp5625
(g1897
g1912
tp5626
(g4
g6
g10
g12
g69
g18
g73
g24
g54
tp5627
tp5628
a((g6
g12
g69
g14
g16
g18
g73
g20
g105
g26
tp5629
(g2021
tp5630
(g6
g12
g69
g14
g18
g73
g20
g65
g26
tp5631
tp5632
a((g4
g8
g12
g14
g18
g71
g20
g22
g54
tp5633
(g50
g572
g889
tp5634
(g2
g14
g65
tp5635
tp5636
a((g2
g4
g6
g8
g10
g12
g69
g14
g16
g71
g73
g105
g22
g24
g54
g26
tp5637
(g424
tp5638
(g12
g69
g14
g16
g18
g71
g73
g105
g22
g24
g54
g26
tp5639
tp5640
a((g2
g4
g8
g10
g69
g14
g18
g71
g73
g20
g22
g65
g24
g54
g26
tp5641
(g235
g250
tp5642
(g4
g8
g12
g16
g18
g71
g73
g20
g65
g24
g26
tp5643
tp5644
a((g2
g4
g6
g8
g12
g18
g71
g20
g105
g22
g24
g54
g26
tp5645
(g218
g156
tp5646
(g2
g6
g10
g12
g20
g22
g65
tp5647
tp5648
a((g10
g12
g69
g16
g71
g73
g20
g105
g65
g24
g26
tp5649
(g301
g748
g1164
tp5650
(g8
g10
g12
g16
g20
g105
g22
g65
tp5651
tp5652
a((g2
g6
g8
g10
g69
g16
g18
g73
g22
g65
g54
g26
tp5653
(g284
tp5654
(g10
g69
g14
g16
g73
g54
g26
tp5655
tp5656
a((g2
g4
g6
g10
g12
g16
g18
g71
g105
g22
g24
g54
tp5657
(g301
g572
tp5658
(g2
g6
g69
g14
g18
tp5659
tp5660
a((g2
g4
g6
g8
g10
g69
g14
g18
g73
g20
g105
g22
g54
tp5661
(g496
g284
tp5662
(g4
g69
g14
g18
g73
g20
g105
g24
tp5663
tp5664
a((g2
g6
g8
g10
g12
g18
g20
g105
g22
g54
g26
tp5665
(g284
tp5666
(g2
g6
g10
g14
g18
g26
tp5667
tp5668
a((g2
g4
g6
g8
g10
g12
g69
g14
g71
g105
g22
g24
g54
g26
tp5669
(g337
tp5670
(g2
g8
g10
g69
g71
g20
g54
g26
tp5671
tp5672
a((g4
g6
g8
g10
g12
g69
g14
g16
g71
g73
g20
g24
g26
tp5673
(g678
g424
g2404
tp5674
(g6
g12
g69
g14
g16
g71
g20
g105
g54
g26
tp5675
tp5676
a((g4
g8
g10
g69
g14
g16
g71
g73
g20
g105
g65
g24
tp5677
(g188
g553
tp5678
(g6
g8
g10
g71
g73
g20
tp5679
tp5680
a((g2
g69
g16
g18
g71
g105
g22
g24
tp5681
(g1147
g640
g763
g851
tp5682
(g4
g69
g18
g22
g24
tp5683
tp5684
a((g4
g10
g69
g14
g18
g71
g73
g20
g105
g24
g26
tp5685
(g318
(istructures.domain
Action
p5686
(dp5687
g30
(lp5688
(S'at_x6'
p5689
tp5690
a(S'at_y1'
p5691
tp5692
asg36
(lp5693
(S'at_x7'
p5694
tp5695
asg40
(tsg41
(lp5696
(S'at_x6'
p5697
tp5698
asg45
I0
sg46
(lp5699
sg48
S'move_6_1_7_1'
p5700
sbtp5701
(g2
g8
g73
g20
g105
g24
g26
tp5702
tp5703
a((g2
g8
g10
g12
g14
g71
g73
g20
g105
g22
g24
g54
g26
tp5704
(g1487
g2964
tp5705
(g4
g12
g69
g71
g22
tp5706
tp5707
a((g2
g4
g6
g8
g12
g69
g14
g71
g22
g65
g26
tp5708
(g424
g156
tp5709
(g6
g10
g69
g14
g18
tp5710
tp5711
a((g2
g4
g6
g10
g12
g69
g14
g16
g18
g20
g105
g22
g54
g26
tp5712
(g50
tp5713
(g2
g12
g16
g65
g26
tp5714
tp5715
a((g8
g10
g12
g69
g16
g18
g71
g73
g20
g105
g65
g24
g54
tp5716
(g265
tp5717
(g10
g69
g71
g20
g22
g65
g24
tp5718
tp5719
a((g10
g69
g16
g18
g71
g73
g105
g22
g65
g24
g26
tp5720
(g1487
g889
tp5721
(g2
g4
g18
g73
g105
g24
tp5722
tp5723
a((g2
g6
g8
g10
g12
g69
g14
g16
g18
g73
g20
g65
g26
tp5724
(g678
g390
tp5725
(g14
g71
g105
g65
tp5726
tp5727
a((g4
g6
g10
g69
g14
g105
g65
g54
tp5728
(g424
g496
tp5729
(g18
g24
tp5730
tp5731
a((g2
g4
g6
g18
g71
g105
g65
g24
g54
tp5732
(g2381
g621
(istructures.domain
Action
p5733
(dp5734
g30
(lp5735
(S'at_x6'
p5736
tp5737
a(S'at_y7'
p5738
tp5739
asg36
(lp5740
(S'at_y6'
p5741
tp5742
asg40
(tsg41
(lp5743
(S'at_y7'
p5744
tp5745
asg45
I0
sg46
(lp5746
sg48
S'move_6_7_6_6'
p5747
sbtp5748
(g4
g69
g18
g73
g54
g26
tp5749
tp5750
a((g4
g6
g8
g10
g69
g14
g16
g71
g105
g22
g65
g24
g54
g26
tp5751
(g851
g587
tp5752
(g2
g4
g10
g18
g71
g22
g24
tp5753
tp5754
a((g2
g4
g8
g10
g69
g71
g73
g20
g105
g22
g65
g24
g54
g26
tp5755
(g1855
g250
tp5756
(g4
g10
g14
g16
g71
g73
g65
g24
g54
tp5757
tp5758
a((g2
g14
g18
g71
g73
g105
g22
g54
tp5759
(g250
tp5760
(g14
g16
g18
g71
g73
g105
g54
tp5761
tp5762
a((g2
g4
g10
g69
g14
g18
g71
g20
g22
g24
g54
g26
tp5763
(g908
tp5764
(g4
g8
g69
g18
g71
g20
tp5765
tp5766
a((g2
g4
g6
g8
g12
g69
g16
g73
g20
g22
g54
tp5767
(g352
tp5768
(g4
g12
g20
g26
tp5769
tp5770
a((g4
g6
g8
g10
g69
g14
g71
g73
g20
g105
g22
g24
g54
tp5771
(g218
g235
tp5772
(g4
g6
g8
g12
g14
g71
g65
g24
g54
tp5773
tp5774
a((g2
g6
g8
g12
g69
g14
g16
g71
g73
g20
g22
g65
g54
tp5775
(g678
g496
g1256
tp5776
(g6
g10
g12
g69
g71
g105
g65
g24
tp5777
tp5778
a((g2
g6
g8
g10
g12
g14
g18
g71
g73
g105
g22
g24
g54
tp5779
(g218
g763
tp5780
(g4
g8
g22
g65
g24
tp5781
tp5782
a((g2
g4
g6
g10
g12
g69
g14
g16
g18
g71
g22
g65
g24
g54
g26
tp5783
(g75
tp5784
(g2
g4
g6
g12
g105
g24
g26
tp5785
tp5786
a((g4
g8
g10
g14
g71
g73
g20
g105
g22
g54
tp5787
(g188
g534
g1344
tp5788
(g10
g12
g73
g24
g26
tp5789
tp5790
a((g2
g4
g6
g8
g12
g69
g71
g73
g20
g105
g22
g26
tp5791
(g218
g250
tp5792
(g4
g12
g69
g16
g71
g73
g65
tp5793
tp5794
a((g4
g6
g10
g12
g69
g14
g16
g18
g73
g20
g65
g24
g54
g26
tp5795
(g587
g390
tp5796
(g4
g6
g10
g12
g16
g18
g71
g20
g24
g54
g26
tp5797
tp5798
a((g2
g4
g8
g10
g12
g14
g71
g73
g20
g105
g22
g65
g54
tp5799
(g109
g265
tp5800
(g2
g4
g10
g69
g14
g20
g105
g22
g65
g54
tp5801
tp5802
a((g4
g8
g10
g12
g16
g18
g71
g105
g22
g26
tp5803
(g284
tp5804
(g10
g12
g14
g16
g71
g22
g26
tp5805
tp5806
a((g4
g6
g8
g10
g14
g16
g18
g71
g73
g22
g65
g24
g54
g26
tp5807
(g337
tp5808
(g4
g6
g10
g14
g71
g73
g20
g65
g24
g54
tp5809
tp5810
a((g4
g6
g8
g10
g12
g69
g16
g20
g105
g22
g24
g54
tp5811
(g218
g188
tp5812
(g8
g12
g65
g24
g26
tp5813
tp5814
a((g2
g6
g8
g14
g16
g18
g20
g22
g24
g54
tp5815
(g50
g156
g2987
tp5816
(g2
g6
g10
g69
g20
g65
g24
tp5817
tp5818
a((g2
g8
g10
g14
g18
g71
g73
g105
g65
g26
tp5819
(g621
tp5820
(g69
g14
g18
g71
g105
g65
tp5821
tp5822
a((g2
g4
g6
g8
g10
g69
g16
g73
g20
g105
g65
g24
tp5823
(g188
g301
tp5824
(g2
g6
g8
g10
g14
g73
g65
g26
tp5825
tp5826
a((g2
g4
g6
g8
g12
g69
g14
g16
g18
g73
g20
g105
g22
g54
tp5827
(g390
tp5828
(g2
g12
g69
g16
g71
tp5829
tp5830
a((g2
g4
g8
g10
g12
g69
g14
g18
g71
g73
g20
g105
g22
g24
g54
g26
tp5831
(g250
tp5832
(g8
g14
g16
g71
g105
g22
g24
tp5833
tp5834
a((g4
g6
g8
g10
g12
g69
g14
g16
g73
g105
g22
g54
tp5835
(g50
g337
tp5836
(g4
g6
g10
g12
g69
g16
g20
g105
g65
tp5837
tp5838
a((g6
g8
g10
g12
g16
g18
g71
g73
g105
g22
g54
g26
tp5839
(g284
g655
tp5840
(g6
g10
g14
g16
g73
g105
g24
tp5841
tp5842
a((g2
g4
g6
g8
g12
g69
g18
g71
g105
g65
tp5843
(g141
g1164
tp5844
(g2
g4
g8
g12
g71
g73
g22
g65
tp5845
tp5846
a((g2
g4
g6
g8
g10
g12
g18
g71
g73
g20
g105
g22
g24
g54
g26
tp5847
(g284
g250
tp5848
(g2
g6
g14
g16
g18
g71
g73
g22
g24
tp5849
tp5850
a((g4
g8
g10
g12
g69
g14
g16
g18
g71
g73
g20
g105
g65
g24
g54
g26
tp5851
(g265
g1120
tp5852
(g2
g4
g16
g18
g71
g105
g22
g54
g26
tp5853
tp5854
a((g2
g6
g10
g12
g69
g14
g16
g18
g73
g20
g105
g22
g65
g24
g26
tp5855
(g824
g390
tp5856
(g2
g6
g18
g71
g73
g20
g105
g54
g26
tp5857
tp5858
a((g2
g4
g6
g8
g10
g18
g71
g73
g20
g22
g54
g26
tp5859
(g109
tp5860
(g2
g4
g8
g10
g69
g18
g54
tp5861
tp5862
a((g6
g14
g16
g18
g71
g73
g22
g24
tp5863
(g122
g763
g695
tp5864
(g6
g12
g16
g73
g22
g26
tp5865
tp5866
a((g2
g4
g6
g10
g69
g14
g16
g18
g20
g105
g22
g26
tp5867
(g1147
g390
tp5868
(g2
g6
g69
g14
g16
g71
g22
g65
g26
tp5869
tp5870
a((g10
g69
g18
g71
g73
g105
g54
g26
tp5871
(g1164
g1487
g1070
tp5872
(g4
g10
g12
g18
g105
tp5873
tp5874
a((g2
g4
g8
g12
g14
g71
g73
g20
g105
g22
g24
g26
tp5875
(g218
g250
g1097
tp5876
(g69
g14
g16
g20
g22
g65
g24
tp5877
tp5878
a((g2
g4
g10
g69
g16
g71
g73
g65
g24
g26
tp5879
(g318
tp5880
(g4
g8
g69
g16
g71
g65
g26
tp5881
tp5882
a((g2
g4
g6
g10
g69
g16
g18
g20
g105
g65
g24
g54
g26
tp5883
(g301
tp5884
(g4
g6
g69
g14
g16
g18
g105
g65
g26
tp5885
tp5886
a((g2
g4
g6
g10
g12
g18
g71
g20
g105
g22
g24
g54
g26
tp5887
(g50
g942
g1302
tp5888
(g18
g73
g20
g105
g26
tp5889
tp5890
a((g4
g6
g8
g69
g18
g20
g22
g24
g54
g26
tp5891
(g587
g390
tp5892
(g18
g71
g20
g24
g54
g26
tp5893
tp5894
a((g2
g4
g6
g8
g10
g69
g14
g71
g73
g105
g22
g65
g24
tp5895
(g250
g337
tp5896
(g2
g4
g6
g8
g10
g16
g20
tp5897
tp5898
a((g4
g10
g12
g69
g14
g16
g18
g71
g105
g65
g26
tp5899
(g265
tp5900
(g71
g105
g22
g65
tp5901
tp5902
a((g2
g4
g6
g18
g71
g105
g65
g24
g54
tp5903
(g782
g265
tp5904
(g18
g22
g65
tp5905
tp5906
a.