(lp0
(istructures.sensor
Sensor
p1
(dp2
S'rhs'
p3
(istructures.sensor
Sensor
p4
(dp5
g3
(istructures.sensor
Sensor
p6
(dp7
g3
NsS'lhs'
p8
(S'at_y0'
p9
tp10
sS'op'
p11
Nsbsg8
(istructures.sensor
Sensor
p12
(dp13
g3
(istructures.sensor
Sensor
p14
(dp15
g3
Nsg8
S'have_item1'
p16
sg11
Nsbsg8
(istructures.sensor
Sensor
p17
(dp18
g3
Nsg8
S'at_y1'
p19
sg11
Nsbsg11
S'v'
p20
sbsg11
g20
sbsg8
(istructures.sensor
Sensor
p21
(dp22
g3
Nsg8
(istructures.sensor
Sensor
p23
(dp24
g3
Nsg8
(g9
tp25
sg11
Nsbsg11
S'-'
p26
sbsg11
S'^'
p27
sba(istructures.sensor
Sensor
p28
(dp29
g3
(istructures.sensor
Sensor
p30
(dp31
g3
(istructures.sensor
Sensor
p32
(dp33
g3
(istructures.sensor
Sensor
p34
(dp35
g3
Nsg8
S'at_x0'
p36
sg11
Nsbsg8
(istructures.sensor
Sensor
p37
(dp38
g3
Nsg8
g16
sg11
Nsbsg11
g20
sbsg8
(istructures.sensor
Sensor
p39
(dp40
g3
Nsg8
(g16
tp41
sg11
Nsbsg11
g27
sbsg8
(istructures.sensor
Sensor
p42
(dp43
g3
(istructures.sensor
Sensor
p44
(dp45
g3
(istructures.sensor
Sensor
p46
(dp47
g3
Nsg8
S'at_x1'
p48
sg11
Nsbsg8
(istructures.sensor
Sensor
p49
(dp50
g3
Nsg8
g19
sg11
Nsbsg11
g27
sbsg8
(istructures.sensor
Sensor
p51
(dp52
g3
(istructures.sensor
Sensor
p53
(dp54
g3
Nsg8
S'have_item3'
p55
sg11
Nsbsg8
(istructures.sensor
Sensor
p56
(dp57
g3
Nsg8
g55
sg11
Nsbsg11
g20
sbsg11
g20
sbsg11
I7
sba(istructures.sensor
Sensor
p58
(dp59
g3
(istructures.sensor
Sensor
p60
(dp61
g3
(istructures.sensor
Sensor
p62
(dp63
g3
Nsg8
(g48
tp64
sg11
Nsbsg8
(istructures.sensor
Sensor
p65
(dp66
g3
Nsg8
(g16
tp67
sg11
Nsbsg11
g27
sbsg8
(istructures.sensor
Sensor
p68
(dp69
g3
Nsg8
(istructures.sensor
Sensor
p70
(dp71
g3
(istructures.sensor
Sensor
p72
(dp73
g3
Nsg8
g48
sg11
Nsbsg8
(istructures.sensor
Sensor
p74
(dp75
g3
Nsg8
g9
sg11
Nsbsg11
g20
sbsg11
g26
sbsg11
g20
sba(istructures.sensor
Sensor
p76
(dp77
g3
Nsg8
(istructures.sensor
Sensor
p78
(dp79
g3
(istructures.sensor
Sensor
p80
(dp81
g3
(istructures.sensor
Sensor
p82
(dp83
g3
Nsg8
g16
sg11
Nsbsg8
(istructures.sensor
Sensor
p84
(dp85
g3
Nsg8
g16
sg11
Nsbsg11
g20
sbsg8
(istructures.sensor
Sensor
p86
(dp87
g3
Nsg8
(g48
tp88
sg11
Nsbsg11
g20
sbsg11
g26
sba(istructures.sensor
Sensor
p89
(dp90
g3
(istructures.sensor
Sensor
p91
(dp92
g3
(istructures.sensor
Sensor
p93
(dp94
g3
Nsg8
(g48
tp95
sg11
Nsbsg8
(istructures.sensor
Sensor
p96
(dp97
g3
Nsg8
(istructures.sensor
Sensor
p98
(dp99
g3
Nsg8
g9
sg11
Nsbsg11
g26
sbsg11
g20
sbsg8
(istructures.sensor
Sensor
p100
(dp101
g3
Nsg8
(g55
tp102
sg11
Nsbsg11
I8
sba(istructures.sensor
Sensor
p103
(dp104
g3
(istructures.sensor
Sensor
p105
(dp106
g3
(istructures.sensor
Sensor
p107
(dp108
g3
(istructures.sensor
Sensor
p109
(dp110
g3
Nsg8
g16
sg11
Nsbsg8
(istructures.sensor
Sensor
p111
(dp112
g3
Nsg8
g36
sg11
Nsbsg11
g27
sbsg8
(istructures.sensor
Sensor
p113
(dp114
g3
Nsg8
(istructures.sensor
Sensor
p115
(dp116
g3
Nsg8
g19
sg11
Nsbsg11
g26
sbsg11
g20
sbsg8
(istructures.sensor
Sensor
p117
(dp118
g3
(istructures.sensor
Sensor
p119
(dp120
g3
(istructures.sensor
Sensor
p121
(dp122
g3
Nsg8
g16
sg11
Nsbsg8
(istructures.sensor
Sensor
p123
(dp124
g3
Nsg8
g48
sg11
Nsbsg11
g27
sbsg8
(istructures.sensor
Sensor
p125
(dp126
g3
(istructures.sensor
Sensor
p127
(dp128
g3
Nsg8
g55
sg11
Nsbsg8
(istructures.sensor
Sensor
p129
(dp130
g3
Nsg8
g19
sg11
Nsbsg11
g27
sbsg11
I2
sbsg11
g27
sba(istructures.sensor
Sensor
p131
(dp132
g3
Nsg8
(g36
tp133
sg11
Nsba(istructures.sensor
Sensor
p134
(dp135
g3
Nsg8
(istructures.sensor
Sensor
p136
(dp137
g3
Nsg8
(istructures.sensor
Sensor
p138
(dp139
g3
(istructures.sensor
Sensor
p140
(dp141
g3
Nsg8
g55
sg11
Nsbsg8
(istructures.sensor
Sensor
p142
(dp143
g3
Nsg8
g19
sg11
Nsbsg11
g27
sbsg11
g26
sbsg11
g26
sba(istructures.sensor
Sensor
p144
(dp145
g3
(istructures.sensor
Sensor
p146
(dp147
g3
(istructures.sensor
Sensor
p148
(dp149
g3
(istructures.sensor
Sensor
p150
(dp151
g3
Nsg8
g36
sg11
Nsbsg8
(istructures.sensor
Sensor
p152
(dp153
g3
Nsg8
g55
sg11
Nsbsg11
g20
sbsg8
(istructures.sensor
Sensor
p154
(dp155
g3
Nsg8
(g36
tp156
sg11
Nsbsg11
I1
sbsg8
(istructures.sensor
Sensor
p157
(dp158
g3
(istructures.sensor
Sensor
p159
(dp160
g3
(istructures.sensor
Sensor
p161
(dp162
g3
Nsg8
g48
sg11
Nsbsg8
(istructures.sensor
Sensor
p163
(dp164
g3
Nsg8
g9
sg11
Nsbsg11
I10
sbsg8
(istructures.sensor
Sensor
p165
(dp166
g3
Nsg8
(g48
tp167
sg11
Nsbsg11
g20
sbsg11
I5
sba(istructures.sensor
Sensor
p168
(dp169
g3
Nsg8
(g36
tp170
sg11
Nsba(istructures.sensor
Sensor
p171
(dp172
g3
Nsg8
(istructures.sensor
Sensor
p173
(dp174
g3
(istructures.sensor
Sensor
p175
(dp176
g3
(istructures.sensor
Sensor
p177
(dp178
g3
Nsg8
g48
sg11
Nsbsg8
(istructures.sensor
Sensor
p179
(dp180
g3
Nsg8
g48
sg11
Nsbsg11
I5
sbsg8
(istructures.sensor
Sensor
p181
(dp182
g3
Nsg8
(istructures.sensor
Sensor
p183
(dp184
g3
Nsg8
g36
sg11
Nsbsg11
g26
sbsg11
g27
sbsg11
g26
sba(istructures.sensor
Sensor
p185
(dp186
g3
Nsg8
(istructures.sensor
Sensor
p187
(dp188
g3
(istructures.sensor
Sensor
p189
(dp190
g3
Nsg8
(g16
tp191
sg11
Nsbsg8
(istructures.sensor
Sensor
p192
(dp193
g3
(istructures.sensor
Sensor
p194
(dp195
g3
Nsg8
g9
sg11
Nsbsg8
(istructures.sensor
Sensor
p196
(dp197
g3
Nsg8
g36
sg11
Nsbsg11
I6
sbsg11
I6
sbsg11
g26
sba(istructures.sensor
Sensor
p198
(dp199
g3
(istructures.sensor
Sensor
p200
(dp201
g3
Nsg8
(istructures.sensor
Sensor
p202
(dp203
g3
(istructures.sensor
Sensor
p204
(dp205
g3
Nsg8
g55
sg11
Nsbsg8
(istructures.sensor
Sensor
p206
(dp207
g3
Nsg8
g9
sg11
Nsbsg11
I6
sbsg11
g26
sbsg8
(istructures.sensor
Sensor
p208
(dp209
g3
(istructures.sensor
Sensor
p210
(dp211
g3
(istructures.sensor
Sensor
p212
(dp213
g3
Nsg8
g19
sg11
Nsbsg8
(istructures.sensor
Sensor
p214
(dp215
g3
Nsg8
g48
sg11
Nsbsg11
g27
sbsg8
(istructures.sensor
Sensor
p216
(dp217
g3
Nsg8
(istructures.sensor
Sensor
p218
(dp219
g3
Nsg8
g9
sg11
Nsbsg11
g26
sbsg11
g20
sbsg11
g20
sba(istructures.sensor
Sensor
p220
(dp221
g3
(istructures.sensor
Sensor
p222
(dp223
g3
Nsg8
(g48
tp224
sg11
Nsbsg8
(istructures.sensor
Sensor
p225
(dp226
g3
(istructures.sensor
Sensor
p227
(dp228
g3
Nsg8
(g9
tp229
sg11
Nsbsg8
(istructures.sensor
Sensor
p230
(dp231
g3
Nsg8
(istructures.sensor
Sensor
p232
(dp233
g3
Nsg8
g36
sg11
Nsbsg11
g26
sbsg11
g27
sbsg11
g27
sba(istructures.sensor
Sensor
p234
(dp235
g3
(istructures.sensor
Sensor
p236
(dp237
g3
(istructures.sensor
Sensor
p238
(dp239
g3
(istructures.sensor
Sensor
p240
(dp241
g3
Nsg8
g16
sg11
Nsbsg8
(istructures.sensor
Sensor
p242
(dp243
g3
Nsg8
g48
sg11
Nsbsg11
g27
sbsg8
(istructures.sensor
Sensor
p244
(dp245
g3
(istructures.sensor
Sensor
p246
(dp247
g3
Nsg8
g19
sg11
Nsbsg8
(istructures.sensor
Sensor
p248
(dp249
g3
Nsg8
g48
sg11
Nsbsg11
I1
sbsg11
I5
sbsg8
(istructures.sensor
Sensor
p250
(dp251
g3
(istructures.sensor
Sensor
p252
(dp253
g3
Nsg8
(g36
tp254
sg11
Nsbsg8
(istructures.sensor
Sensor
p255
(dp256
g3
Nsg8
(istructures.sensor
Sensor
p257
(dp258
g3
Nsg8
g36
sg11
Nsbsg11
g26
sbsg11
I3
sbsg11
I8
sba.