(lp0
(istructures.sensor
Sensor
p1
(dp2
S'rhs'
p3
NsS'lhs'
p4
(S'at_y1'
p5
tp6
sS'op'
p7
Nsba(istructures.sensor
Sensor
p8
(dp9
g3
(istructures.sensor
Sensor
p10
(dp11
g3
(istructures.sensor
Sensor
p12
(dp13
g3
Nsg4
(istructures.sensor
Sensor
p14
(dp15
g3
Nsg4
S'at_x0'
p16
sg7
Nsbsg7
S'-'
p17
sbsg4
(istructures.sensor
Sensor
p18
(dp19
g3
Nsg4
(istructures.sensor
Sensor
p20
(dp21
g3
Nsg4
S'at_y4'
p22
sg7
Nsbsg7
g17
sbsg7
S'^'
p23
sbsg4
(istructures.sensor
Sensor
p24
(dp25
g3
Nsg4
(g5
tp26
sg7
Nsbsg7
S'v'
p27
sba(istructures.sensor
Sensor
p28
(dp29
g3
(istructures.sensor
Sensor
p30
(dp31
g3
Nsg4
(istructures.sensor
Sensor
p32
(dp33
g3
Nsg4
(S'at_x3'
p34
tp35
sg7
Nsbsg7
g17
sbsg4
(istructures.sensor
Sensor
p36
(dp37
g3
(istructures.sensor
Sensor
p38
(dp39
g3
Nsg4
(S'at_y3'
p40
tp41
sg7
Nsbsg4
(istructures.sensor
Sensor
p42
(dp43
g3
Nsg4
(S'at_y6'
p44
tp45
sg7
Nsbsg7
g23
sbsg7
g23
sba(istructures.sensor
Sensor
p46
(dp47
g3
(istructures.sensor
Sensor
p48
(dp49
g3
(istructures.sensor
Sensor
p50
(dp51
g3
(istructures.sensor
Sensor
p52
(dp53
g3
Nsg4
S'at_x2'
p54
sg7
Nsbsg4
(istructures.sensor
Sensor
p55
(dp56
g3
Nsg4
g44
sg7
Nsbsg7
g27
sbsg4
(istructures.sensor
Sensor
p57
(dp58
g3
Nsg4
(g16
tp59
sg7
Nsbsg7
g23
sbsg4
(istructures.sensor
Sensor
p60
(dp61
g3
(istructures.sensor
Sensor
p62
(dp63
g3
Nsg4
(istructures.sensor
Sensor
p64
(dp65
g3
Nsg4
S'at_x6'
p66
sg7
Nsbsg7
g17
sbsg4
(istructures.sensor
Sensor
p67
(dp68
g3
Nsg4
(istructures.sensor
Sensor
p69
(dp70
g3
Nsg4
S'have_item1'
p71
sg7
Nsbsg7
g17
sbsg7
g27
sbsg7
I3
sba(istructures.sensor
Sensor
p72
(dp73
g3
(istructures.sensor
Sensor
p74
(dp75
g3
(istructures.sensor
Sensor
p76
(dp77
g3
Nsg4
(istructures.sensor
Sensor
p78
(dp79
g3
Nsg4
g54
sg7
Nsbsg7
g17
sbsg4
(istructures.sensor
Sensor
p80
(dp81
g3
(istructures.sensor
Sensor
p82
(dp83
g3
Nsg4
S'at_y5'
p84
sg7
Nsbsg4
(istructures.sensor
Sensor
p85
(dp86
g3
Nsg4
S'at_y0'
p87
sg7
Nsbsg7
g27
sbsg7
I7
sbsg4
(istructures.sensor
Sensor
p88
(dp89
g3
Nsg4
(S'at_x7'
p90
tp91
sg7
Nsbsg7
g23
sba(istructures.sensor
Sensor
p92
(dp93
g3
Nsg4
(istructures.sensor
Sensor
p94
(dp95
g3
(istructures.sensor
Sensor
p96
(dp97
g3
Nsg4
(istructures.sensor
Sensor
p98
(dp99
g3
Nsg4
g87
sg7
Nsbsg7
g17
sbsg4
(istructures.sensor
Sensor
p100
(dp101
g3
(istructures.sensor
Sensor
p102
(dp103
g3
Nsg4
g66
sg7
Nsbsg4
(istructures.sensor
Sensor
p104
(dp105
g3
Nsg4
g5
sg7
Nsbsg7
I3
sbsg7
g27
sbsg7
g17
sba(istructures.sensor
Sensor
p106
(dp107
g3
(istructures.sensor
Sensor
p108
(dp109
g3
(istructures.sensor
Sensor
p110
(dp111
g3
(istructures.sensor
Sensor
p112
(dp113
g3
Nsg4
g16
sg7
Nsbsg4
(istructures.sensor
Sensor
p114
(dp115
g3
Nsg4
S'have_item0'
p116
sg7
Nsbsg7
g27
sbsg4
(istructures.sensor
Sensor
p117
(dp118
g3
Nsg4
(istructures.sensor
Sensor
p119
(dp120
g3
Nsg4
S'at_y7'
p121
sg7
Nsbsg7
g17
sbsg7
g23
sbsg4
(istructures.sensor
Sensor
p122
(dp123
g3
(istructures.sensor
Sensor
p124
(dp125
g3
(istructures.sensor
Sensor
p126
(dp127
g3
Nsg4
g16
sg7
Nsbsg4
(istructures.sensor
Sensor
p128
(dp129
g3
Nsg4
g40
sg7
Nsbsg7
g27
sbsg4
(istructures.sensor
Sensor
p130
(dp131
g3
(istructures.sensor
Sensor
p132
(dp133
g3
Nsg4
S'at_x4'
p134
sg7
Nsbsg4
(istructures.sensor
Sensor
p135
(dp136
g3
Nsg4
S'at_x1'
p137
sg7
Nsbsg7
g23
sbsg7
I5
sbsg7
g23
sba(istructures.sensor
Sensor
p138
(dp139
g3
(istructures.sensor
Sensor
p140
(dp141
g3
(istructures.sensor
Sensor
p142
(dp143
g3
Nsg4
(istructures.sensor
Sensor
p144
(dp145
g3
Nsg4
g54
sg7
Nsbsg7
g17
sbsg4
(istructures.sensor
Sensor
p146
(dp147
g3
(istructures.sensor
Sensor
p148
(dp149
g3
Nsg4
g137
sg7
Nsbsg4
(istructures.sensor
Sensor
p150
(dp151
g3
Nsg4
g34
sg7
Nsbsg7
g23
sbsg7
I10
sbsg4
(istructures.sensor
Sensor
p152
(dp153
g3
Nsg4
(istructures.sensor
Sensor
p154
(dp155
g3
(istructures.sensor
Sensor
p156
(dp157
g3
Nsg4
g5
sg7
Nsbsg4
(istructures.sensor
Sensor
p158
(dp159
g3
Nsg4
g137
sg7
Nsbsg7
g23
sbsg7
g17
sbsg7
g27
sba(istructures.sensor
Sensor
p160
(dp161
g3
(istructures.sensor
Sensor
p162
(dp163
g3
Nsg4
(S'at_x5'
p164
tp165
sg7
Nsbsg4
(istructures.sensor
Sensor
p166
(dp167
g3
Nsg4
(S'at_y2'
p168
tp169
sg7
Nsbsg7
g27
sba(istructures.sensor
Sensor
p170
(dp171
g3
(istructures.sensor
Sensor
p172
(dp173
g3
Nsg4
(istructures.sensor
Sensor
p174
(dp175
g3
(istructures.sensor
Sensor
p176
(dp177
g3
Nsg4
g16
sg7
Nsbsg4
(istructures.sensor
Sensor
p178
(dp179
g3
Nsg4
g71
sg7
Nsbsg7
g27
sbsg7
g17
sbsg4
(istructures.sensor
Sensor
p180
(dp181
g3
(istructures.sensor
Sensor
p182
(dp183
g3
Nsg4
(g66
tp184
sg7
Nsbsg4
(istructures.sensor
Sensor
p185
(dp186
g3
Nsg4
(g16
tp187
sg7
Nsbsg7
g23
sbsg7
g23
sba(istructures.sensor
Sensor
p188
(dp189
g3
Nsg4
(istructures.sensor
Sensor
p190
(dp191
g3
(istructures.sensor
Sensor
p192
(dp193
g3
(istructures.sensor
Sensor
p194
(dp195
g3
Nsg4
g54
sg7
Nsbsg4
(istructures.sensor
Sensor
p196
(dp197
g3
Nsg4
g66
sg7
Nsbsg7
g27
sbsg4
(istructures.sensor
Sensor
p198
(dp199
g3
Nsg4
(g44
tp200
sg7
Nsbsg7
I1
sbsg7
g17
sba(istructures.sensor
Sensor
p201
(dp202
g3
Nsg4
(g84
tp203
sg7
Nsba(istructures.sensor
Sensor
p204
(dp205
g3
(istructures.sensor
Sensor
p206
(dp207
g3
Nsg4
(istructures.sensor
Sensor
p208
(dp209
g3
Nsg4
(g137
tp210
sg7
Nsbsg7
g17
sbsg4
(istructures.sensor
Sensor
p211
(dp212
g3
(istructures.sensor
Sensor
p213
(dp214
g3
(istructures.sensor
Sensor
p215
(dp216
g3
Nsg4
g164
sg7
Nsbsg4
(istructures.sensor
Sensor
p217
(dp218
g3
Nsg4
g40
sg7
Nsbsg7
I5
sbsg4
(istructures.sensor
Sensor
p219
(dp220
g3
(istructures.sensor
Sensor
p221
(dp222
g3
Nsg4
g121
sg7
Nsbsg4
(istructures.sensor
Sensor
p223
(dp224
g3
Nsg4
g66
sg7
Nsbsg7
g23
sbsg7
I5
sbsg7
I4
sba(istructures.sensor
Sensor
p225
(dp226
g3
(istructures.sensor
Sensor
p227
(dp228
g3
Nsg4
(istructures.sensor
Sensor
p229
(dp230
g3
(istructures.sensor
Sensor
p231
(dp232
g3
Nsg4
g164
sg7
Nsbsg4
(istructures.sensor
Sensor
p233
(dp234
g3
Nsg4
g34
sg7
Nsbsg7
g23
sbsg7
g17
sbsg4
(istructures.sensor
Sensor
p235
(dp236
g3
(istructures.sensor
Sensor
p237
(dp238
g3
(istructures.sensor
Sensor
p239
(dp240
g3
Nsg4
g66
sg7
Nsbsg4
(istructures.sensor
Sensor
p241
(dp242
g3
Nsg4
g121
sg7
Nsbsg7
g27
sbsg4
(istructures.sensor
Sensor
p243
(dp244
g3
(istructures.sensor
Sensor
p245
(dp246
g3
Nsg4
g40
sg7
Nsbsg4
(istructures.sensor
Sensor
p247
(dp248
g3
Nsg4
g164
sg7
Nsbsg7
g23
sbsg7
g23
sbsg7
g23
sba(istructures.sensor
Sensor
p249
(dp250
g3
Nsg4
(istructures.sensor
Sensor
p251
(dp252
g3
(istructures.sensor
Sensor
p253
(dp254
g3
Nsg4
(g134
tp255
sg7
Nsbsg4
(istructures.sensor
Sensor
p256
(dp257
g3
(istructures.sensor
Sensor
p258
(dp259
g3
Nsg4
g87
sg7
Nsbsg4
(istructures.sensor
Sensor
p260
(dp261
g3
Nsg4
g5
sg7
Nsbsg7
g27
sbsg7
g23
sbsg7
g17
sba.