(lp0
(((S'at_x7'
p1
tp2
(S'at_y5'
p3
tp4
(S'at_y7'
p5
tp6
(S'at_x4'
p7
tp8
(S'at_x6'
p9
tp10
(S'at_x2'
p11
tp12
(S'at_x0'
p13
tp14
(S'at_x1'
p15
tp16
(S'at_y1'
p17
tp18
(S'at_y2'
p19
tp20
(S'at_y4'
p21
tp22
(S'at_y3'
p23
tp24
(S'have_item0'
p25
tp26
tp27
((istructures.domain
Action
p28
(dp29
S'positive_preconditions'
p30
(lp31
(S'at_x7'
p32
tp33
a(S'at_y1'
p34
tp35
asS'add_effects'
p36
(lp37
(S'at_y0'
p38
tp39
asS'parameters'
p40
(tsS'del_effects'
p41
(lp42
(S'at_y1'
p43
tp44
asS'cost'
p45
I0
sS'negative_preconditions'
p46
(lp47
sS'name'
p48
S'move_7_1_7_0'
p49
sb(istructures.domain
Action
p50
(dp51
g30
(lp52
(S'at_x1'
p53
tp54
a(S'at_y3'
p55
tp56
asg36
(lp57
(S'have_item1'
p58
tp59
asg40
(tsg41
(lp60
sg45
I0
sg46
(lp61
sg48
S'easymark_item1_1_3'
p62
sbtp63
(g2
g8
g10
g12
(S'have_item1'
p64
tp65
g14
g16
(S'at_y0'
p66
tp67
g20
g24
tp68
tp69
a((g2
g6
g8
g12
g65
g14
g67
(S'at_x5'
p70
tp71
g22
g24
g26
(S'at_x3'
p72
tp73
tp74
((istructures.domain
Action
p75
(dp76
g30
(lp77
(S'at_x2'
p78
tp79
a(S'at_y3'
p80
tp81
asg36
(lp82
(S'at_y2'
p83
tp84
asg40
(tsg41
(lp85
(S'at_y3'
p86
tp87
asg45
I0
sg46
(lp88
sg48
S'move_2_3_2_2'
p89
sb(istructures.domain
Action
p90
(dp91
g30
(lp92
(S'at_x2'
p93
tp94
a(S'at_y0'
p95
tp96
asg36
(lp97
(S'at_x1'
p98
tp99
asg40
(tsg41
(lp100
(S'at_x2'
p101
tp102
asg45
I0
sg46
(lp103
sg48
S'move_2_0_1_0'
p104
sbtp105
(g8
g14
g16
g20
g22
g26
tp106
tp107
a((g4
(S'at_y6'
p108
tp109
g6
g10
g12
g14
g67
g22
g24
g26
g73
tp110
((istructures.domain
Action
p111
(dp112
g30
(lp113
(S'at_x2'
p114
tp115
a(S'at_y5'
p116
tp117
asg36
(lp118
(S'at_x1'
p119
tp120
asg40
(tsg41
(lp121
(S'at_x2'
p122
tp123
asg45
I0
sg46
(lp124
sg48
S'move_2_5_1_5'
p125
sb(istructures.domain
Action
p126
(dp127
g30
(lp128
(S'at_x3'
p129
tp130
a(S'at_y0'
p131
tp132
asg36
(lp133
(S'at_y1'
p134
tp135
asg40
(tsg41
(lp136
(S'at_y0'
p137
tp138
asg45
I0
sg46
(lp139
sg48
S'move_3_0_3_1'
p140
sbtp141
(g10
g14
g16
g18
g24
g26
g73
tp142
tp143
a((g2
g109
g6
g12
g16
g18
g71
g24
g26
g73
tp144
(g28
(istructures.domain
Action
p145
(dp146
g30
(lp147
(S'at_x2'
p148
tp149
a(S'at_y3'
p150
tp151
asg36
(lp152
(S'at_y4'
p153
tp154
asg40
(tsg41
(lp155
(S'at_y3'
p156
tp157
asg45
I0
sg46
(lp158
sg48
S'move_2_3_2_4'
p159
sbtp160
(g109
g12
g16
g67
g22
g26
g73
tp161
tp162
a((g4
g6
g8
g10
g14
g16
g67
g18
g71
g24
g26
tp163
((istructures.domain
Action
p164
(dp165
g30
(lp166
(S'at_x1'
p167
tp168
a(S'at_y7'
p169
tp170
asg36
(lp171
(S'at_x2'
p172
tp173
asg40
(tsg41
(lp174
(S'at_x1'
p175
tp176
asg45
I0
sg46
(lp177
sg48
S'move_1_7_2_7'
p178
sbtp179
(g10
g12
g67
g18
g71
g24
g26
tp180
tp181
a((g4
g109
g6
g10
g14
g16
g67
g18
g71
g20
g22
g24
g73
tp182
((istructures.domain
Action
p183
(dp184
g30
(lp185
(S'at_x5'
p186
tp187
a(S'at_y7'
p188
tp189
asg36
(lp190
g65
asg40
(tsg41
(lp191
sg45
I0
sg46
(lp192
sg48
S'easymark_item1_5_7'
p193
sbtp194
(g4
g6
g65
g14
g67
g18
g71
g24
tp195
tp196
a((g109
g8
g65
g14
g67
g18
g71
g20
g22
g24
tp197
((istructures.domain
Action
p198
(dp199
g30
(lp200
(S'at_x4'
p201
tp202
a(S'at_y4'
p203
tp204
asg36
(lp205
(S'at_x3'
p206
tp207
asg40
(tsg41
(lp208
(S'at_x4'
p209
tp210
asg45
I0
sg46
(lp211
sg48
S'move_4_4_3_4'
p212
sb(istructures.domain
Action
p213
(dp214
g30
(lp215
(S'at_x5'
p216
tp217
a(S'at_y4'
p218
tp219
asg36
(lp220
(S'at_y5'
p221
tp222
asg40
(tsg41
(lp223
(S'at_y4'
p224
tp225
asg45
I0
sg46
(lp226
sg48
S'move_5_4_5_5'
p227
sbtp228
(g4
g65
g67
g18
g24
g73
tp229
tp230
a((g2
g4
g109
g6
g12
g14
g67
g18
g20
g22
g24
g26
g73
tp231
((istructures.domain
Action
p232
(dp233
g30
(lp234
g14
a(S'at_y0'
p235
tp236
asg36
(lp237
g16
asg40
(tsg41
(lp238
(S'at_x0'
p239
tp240
asg45
I0
sg46
(lp241
sg48
S'move_0_0_1_0'
p242
sb(istructures.domain
Action
p243
(dp244
g30
(lp245
(S'at_x3'
p246
tp247
a(S'at_y0'
p248
tp249
asg36
(lp250
(S'at_x4'
p251
tp252
asg40
(tsg41
(lp253
(S'at_x3'
p254
tp255
asg45
I0
sg46
(lp256
sg48
S'move_3_0_4_0'
p257
sbtp258
(g2
g4
g109
g8
g16
g18
g22
g24
g26
tp259
tp260
a((g109
g6
g8
g12
g16
g18
g71
g24
g26
tp261
((istructures.domain
Action
p262
(dp263
g30
(lp264
(S'at_x4'
p265
tp266
a(S'at_y6'
p267
tp268
asg36
(lp269
(S'at_y5'
p270
tp271
asg40
(tsg41
(lp272
(S'at_y6'
p273
tp274
asg45
I0
sg46
(lp275
sg48
S'move_4_6_4_5'
p276
sbtp277
(g4
g6
g18
g71
g24
tp278
tp279
a((g2
g6
g10
g12
g65
g14
g67
g71
g20
g24
g26
tp280
((istructures.domain
Action
p281
(dp282
g30
(lp283
(S'at_x2'
p284
tp285
a(S'at_y0'
p286
tp287
asg36
(lp288
(S'at_x3'
p289
tp290
asg40
(tsg41
(lp291
(S'at_x2'
p292
tp293
asg45
I0
sg46
(lp294
sg48
S'move_2_0_3_0'
p295
sbg243
tp296
(g6
g8
g10
g65
g14
g67
g71
g20
tp297
tp298
a((g4
g109
g8
g10
g12
g65
g16
g18
g71
g22
g26
g73
tp299
((istructures.domain
Action
p300
(dp301
g30
(lp302
(S'at_x5'
p303
tp304
a(S'at_y1'
p305
tp306
asg36
(lp307
(S'at_y2'
p308
tp309
asg40
(tsg41
(lp310
(S'at_y1'
p311
tp312
asg45
I0
sg46
(lp313
sg48
S'move_5_1_5_2'
p314
sbtp315
(g4
g109
g10
g12
g16
g71
g20
g22
g26
tp316
tp317
a((g2
g109
g6
g8
g65
g14
g16
g18
g20
g22
g24
g26
g73
tp318
(g28
tp319
(g2
g109
g6
g67
g24
g26
g73
tp320
tp321
a((g2
g109
g6
g8
g10
g65
g16
g67
g18
g71
g20
g24
g26
tp322
((istructures.domain
Action
p323
(dp324
g30
(lp325
(S'at_x4'
p326
tp327
a(S'at_y3'
p328
tp329
asg36
(lp330
(S'at_x3'
p331
tp332
asg40
(tsg41
(lp333
(S'at_x4'
p334
tp335
asg45
I0
sg46
(lp336
sg48
S'move_4_3_3_3'
p337
sb(istructures.domain
Action
p338
(dp339
g30
(lp340
(S'at_x6'
p341
tp342
a(S'at_y6'
p343
tp344
asg36
(lp345
(S'at_y5'
p346
tp347
asg40
(tsg41
(lp348
(S'at_y6'
p349
tp350
asg45
I0
sg46
(lp351
sg48
S'move_6_6_6_5'
p352
sbtp353
(g2
g4
g6
g10
g67
g71
g24
g26
g73
tp354
tp355
a((g2
g4
g109
g6
g8
g10
g14
g67
g18
g71
g22
g24
g73
tp356
(g183
tp357
(g2
g4
g109
g8
g65
g14
g18
g24
tp358
tp359
a((g2
g4
g109
g8
g10
g12
g14
g16
g67
g18
g71
g24
g26
g73
tp360
((istructures.domain
Action
p361
(dp362
g30
(lp363
(S'at_x7'
p364
tp365
a(S'at_y1'
p366
tp367
asg36
(lp368
(S'at_y2'
p369
tp370
asg40
(tsg41
(lp371
(S'at_y1'
p372
tp373
asg45
I0
sg46
(lp374
sg48
S'move_7_1_7_2'
p375
sb(istructures.domain
Action
p376
(dp377
g30
(lp378
(S'at_x0'
p379
tp380
a(S'at_y5'
p381
tp382
asg36
(lp383
(S'at_y4'
p384
tp385
asg40
(tsg41
(lp386
(S'at_y5'
p387
tp388
asg45
I0
sg46
(lp389
sg48
S'move_0_5_0_4'
p390
sbtp391
(g2
g8
g14
g16
g67
g71
g20
g22
g24
g26
tp392
tp393
a((g2
g109
g8
g10
g14
g16
g18
g20
g22
g24
g73
tp394
(g28
(istructures.domain
Action
p395
(dp396
g30
(lp397
(S'at_x7'
p398
tp399
a(S'at_y4'
p400
tp401
asg36
(lp402
(S'have_item0'
p403
tp404
asg40
(tsg41
(lp405
sg45
I0
sg46
(lp406
sg48
S'easymark_item0_7_4'
p407
sbtp408
(g109
g8
g10
g14
g16
g67
g24
g26
tp409
tp410
a((g4
g109
g8
g65
g14
g18
g20
g22
g24
g26
g73
tp411
((istructures.domain
Action
p412
(dp413
g30
(lp414
(S'at_x4'
p415
tp416
a(S'at_y6'
p417
tp418
asg36
(lp419
(S'at_y7'
p420
tp421
asg40
(tsg41
(lp422
(S'at_y6'
p423
tp424
asg45
I0
sg46
(lp425
sg48
S'move_4_6_4_7'
p426
sb(istructures.domain
Action
p427
(dp428
g30
(lp429
(S'at_x0'
p430
tp431
a(S'at_y5'
p432
tp433
asg36
(lp434
(S'at_y6'
p435
tp436
asg40
(tsg41
(lp437
(S'at_y5'
p438
tp439
asg45
I0
sg46
(lp440
sg48
S'move_0_5_0_6'
p441
sbtp442
(g109
g6
g65
g14
tp443
tp444
a((g4
g6
g65
g67
g18
g71
g20
g22
tp445
((istructures.domain
Action
p446
(dp447
g30
(lp448
(S'at_x5'
p449
tp450
a(S'at_y4'
p451
tp452
asg36
(lp453
(S'at_x6'
p454
tp455
asg40
(tsg41
(lp456
(S'at_x5'
p457
tp458
asg45
I0
sg46
(lp459
sg48
S'move_5_4_6_4'
p460
sb(istructures.domain
Action
p461
(dp462
g30
(lp463
(S'at_x6'
p464
tp465
a(S'at_y2'
p466
tp467
asg36
(lp468
(S'at_y3'
p469
tp470
asg40
(tsg41
(lp471
(S'at_y2'
p472
tp473
asg45
I0
sg46
(lp474
sg48
S'move_6_2_6_3'
p475
sbtp476
(g4
g6
g10
g65
g67
g24
tp477
tp478
a((g4
g109
g8
g12
g65
g14
g16
g18
g20
g22
g24
tp479
((istructures.domain
Action
p480
(dp481
g30
(lp482
(S'at_x4'
p483
tp484
a(S'at_y4'
p485
tp486
asg36
(lp487
(S'at_x5'
p488
tp489
asg40
(tsg41
(lp490
(S'at_x4'
p491
tp492
asg45
I0
sg46
(lp493
sg48
S'move_4_4_5_4'
p494
sb(istructures.domain
Action
p495
(dp496
g30
(lp497
(S'at_x5'
p498
tp499
a(S'at_y1'
p500
tp501
asg36
(lp502
(S'at_y0'
p503
tp504
asg40
(tsg41
(lp505
(S'at_y1'
p506
tp507
asg45
I0
sg46
(lp508
sg48
S'move_5_1_5_0'
p509
sbtp510
(g109
g65
g16
g67
g71
g20
g22
tp511
tp512
a((g2
g4
g109
g6
g12
g14
g67
g20
g22
g24
g26
tp513
(g232
(istructures.domain
Action
p514
(dp515
g30
(lp516
(S'at_x1'
p517
tp518
a(S'at_y2'
p519
tp520
asg36
(lp521
(S'at_y1'
p522
tp523
asg40
(tsg41
(lp524
(S'at_y2'
p525
tp526
asg45
I0
sg46
(lp527
sg48
S'move_1_2_1_1'
p528
sbtp529
(g2
g4
g109
g16
g67
g18
g26
tp530
tp531
a((g2
g4
g6
g8
g10
g12
g16
g18
g71
g20
g22
g26
g73
tp532
((istructures.domain
Action
p533
(dp534
g30
(lp535
(S'at_x2'
p536
tp537
a(S'at_y4'
p538
tp539
asg36
(lp540
(S'at_y3'
p541
tp542
asg40
(tsg41
(lp543
(S'at_y4'
p544
tp545
asg45
I0
sg46
(lp546
sg48
S'move_2_4_2_3'
p547
sb(istructures.domain
Action
p548
(dp549
g30
(lp550
(S'at_x1'
p551
tp552
a(S'at_y7'
p553
tp554
asg36
(lp555
(S'at_x0'
p556
tp557
asg40
(tsg41
(lp558
(S'at_x1'
p559
tp560
asg45
I0
sg46
(lp561
sg48
S'move_1_7_0_7'
p562
sbtp563
(g4
g8
g10
g14
g71
g24
g26
tp564
tp565
a((g4
g8
g10
g12
g65
g16
g67
g71
g20
g22
g24
tp566
(g198
(istructures.domain
Action
p567
(dp568
g30
(lp569
(S'at_x1'
p570
tp571
a(S'at_y0'
p572
tp573
asg36
(lp574
(S'at_x0'
p575
tp576
asg40
(tsg41
(lp577
(S'at_x1'
p578
tp579
asg45
I0
sg46
(lp580
sg48
S'move_1_0_0_0'
p581
sbtp582
(g4
g12
g14
g22
g24
g73
tp583
tp584
a((g4
g109
g6
g8
g12
g65
g14
g67
g18
g71
g20
g22
g24
tp585
((istructures.domain
Action
p586
(dp587
g30
(lp588
(S'at_x2'
p589
tp590
a(S'at_y5'
p591
tp592
asg36
(lp593
(S'at_x3'
p594
tp595
asg40
(tsg41
(lp596
(S'at_x2'
p597
tp598
asg45
I0
sg46
(lp599
sg48
S'move_2_5_3_5'
p600
sb(istructures.domain
Action
p601
(dp602
g30
(lp603
(S'at_x3'
p604
tp605
a(S'at_y5'
p606
tp607
asg36
(lp608
g26
asg40
(tsg41
(lp609
sg45
I0
sg46
(lp610
sg48
S'easymark_item0_3_5'
p611
sbtp612
(g4
g109
g6
g8
g65
g14
g67
g71
g20
g26
g73
tp613
tp614
a((g2
g109
g6
g8
g10
g12
g67
g18
g22
g24
g26
g73
tp615
((istructures.domain
Action
p616
(dp617
g30
(lp618
(S'at_x6'
p619
tp620
a(S'at_y1'
p621
tp622
asg36
(lp623
(S'have_item1'
p624
tp625
asg40
(tsg41
(lp626
sg45
I0
sg46
(lp627
sg48
S'easymark_item1_6_1'
p628
sbtp629
(g109
g6
g8
g10
g65
g67
g73
tp630
tp631
a((g109
g6
g8
g10
g18
g71
g22
g24
g26
tp632
(g198
tp633
(g18
g71
g22
g24
g26
g73
tp634
tp635
a((g2
g4
g6
g8
g10
g12
g14
g16
g67
g71
g20
tp636
(g183
tp637
(g10
g12
g65
g20
tp638
tp639
a((g4
g6
g8
g14
g67
g20
g22
g24
g73
tp640
((istructures.domain
Action
p641
(dp642
g30
(lp643
g8
a(S'at_y2'
p644
tp645
asg36
(lp646
(S'at_y1'
p647
tp648
asg40
(tsg41
(lp649
(S'at_y2'
p650
tp651
asg45
I0
sg46
(lp652
sg48
S'move_4_2_4_1'
p653
sb(istructures.domain
Action
p654
(dp655
g30
(lp656
(S'at_x3'
p657
tp658
a(S'at_y3'
p659
tp660
asg36
(lp661
g12
asg40
(tsg41
(lp662
(S'at_x3'
p663
tp664
asg45
I0
sg46
(lp665
sg48
S'move_3_3_2_3'
p666
sbg111
tp667
(g4
g6
g8
g14
g16
g18
g24
tp668
tp669
a((g2
g109
g6
g8
g12
g65
g14
g16
g67
g20
g24
g73
tp670
((istructures.domain
Action
p671
(dp672
g30
(lp673
(S'at_x7'
p674
tp675
a(S'at_y7'
p676
tp677
asg36
(lp678
(S'at_x6'
p679
tp680
asg40
(tsg41
(lp681
(S'at_x7'
p682
tp683
asg45
I0
sg46
(lp684
sg48
S'move_7_7_6_7'
p685
sb(istructures.domain
Action
p686
(dp687
g30
(lp688
(S'at_x6'
p689
tp690
a(S'at_y7'
p691
tp692
asg36
(lp693
(S'have_item0'
p694
tp695
asg40
(tsg41
(lp696
sg45
I0
sg46
(lp697
sg48
S'easymark_item0_6_7'
p698
sbtp699
(g8
g10
g65
g20
g26
g73
tp700
tp701
a((g6
g8
g10
g12
g65
g16
g18
g20
g22
g24
tp702
((istructures.domain
Action
p703
(dp704
g30
(lp705
(S'at_x2'
p706
tp707
a(S'at_y1'
p708
tp709
asg36
(lp710
(S'have_item0'
p711
tp712
asg40
(tsg41
(lp713
sg45
I0
sg46
(lp714
sg48
S'easymark_item0_2_1'
p715
sbtp716
(g6
g10
g12
g16
g18
g20
g22
g24
g26
tp717
tp718
a((g109
g6
g8
g65
g20
g22
tp719
(g480
(istructures.domain
Action
p720
(dp721
g30
(lp722
(S'at_x5'
p723
tp724
a(S'at_y4'
p725
tp726
asg36
(lp727
(S'at_y3'
p728
tp729
asg40
(tsg41
(lp730
(S'at_y4'
p731
tp732
asg45
I0
sg46
(lp733
sg48
S'move_5_4_5_3'
p734
sb(istructures.domain
Action
p735
(dp736
g30
(lp737
(S'at_x5'
p738
tp739
a(S'at_y6'
p740
tp741
asg36
(lp742
(S'at_y5'
p743
tp744
asg40
(tsg41
(lp745
(S'at_y6'
p746
tp747
asg45
I0
sg46
(lp748
sg48
S'move_5_6_5_5'
p749
sbtp750
(g4
g6
g65
g71
g20
g24
tp751
tp752
a((g4
g8
g14
g16
g18
g20
g24
g26
g73
tp753
((istructures.domain
Action
p754
(dp755
g30
(lp756
(S'at_x0'
p757
tp758
a(S'at_y3'
p759
tp760
asg36
(lp761
(S'at_y4'
p762
tp763
asg40
(tsg41
(lp764
(S'at_y3'
p765
tp766
asg45
I0
sg46
(lp767
sg48
S'move_0_3_0_4'
p768
sb(istructures.domain
Action
p769
(dp770
g30
(lp771
(S'at_x0'
p772
tp773
a(S'at_y1'
p774
tp775
asg36
(lp776
(S'at_y0'
p777
tp778
asg40
(tsg41
(lp779
(S'at_y1'
p780
tp781
asg45
I0
sg46
(lp782
sg48
S'move_0_1_0_0'
p783
sbtp784
(g4
g8
g67
g20
g22
g26
g73
tp785
tp786
a((g6
g8
g12
g65
g14
g16
g67
g20
g26
g73
tp787
((istructures.domain
Action
p788
(dp789
g30
(lp790
(S'at_x3'
p791
tp792
a(S'at_y7'
p793
tp794
asg36
(lp795
(S'at_y6'
p796
tp797
asg40
(tsg41
(lp798
(S'at_y7'
p799
tp800
asg45
I0
sg46
(lp801
sg48
S'move_3_7_3_6'
p802
sbg262
tp803
(g4
g8
g12
g16
g26
tp804
tp805
a((g2
g4
g109
g6
g8
g10
g12
g14
g67
g18
g73
tp806
(g361
g601
tp807
(g6
g10
g14
g20
g26
tp808
tp809
a((g109
g6
g10
g65
g16
g67
g18
g20
g24
g26
g73
tp810
(g654
g567
tp811
(g109
g12
g65
g14
g67
g18
tp812
tp813
a((g109
g10
g14
g67
g71
g22
g24
g26
g73
tp814
(g126
(istructures.domain
Action
p815
(dp816
g30
(lp817
(S'at_x6'
p818
tp819
a(S'at_y6'
p820
tp821
asg36
(lp822
(S'at_y7'
p823
tp824
asg40
(tsg41
(lp825
(S'at_y6'
p826
tp827
asg45
I0
sg46
(lp828
sg48
S'move_6_6_6_7'
p829
sbtp830
(g6
g10
g14
g18
g26
tp831
tp832
a((g6
g8
g12
g14
g67
g71
g26
tp833
(g90
(istructures.domain
Action
p834
(dp835
g30
(lp836
(S'at_x5'
p837
tp838
a(S'at_y7'
p839
tp840
asg36
(lp841
(S'at_x6'
p842
tp843
asg40
(tsg41
(lp844
(S'at_x5'
p845
tp846
asg45
I0
sg46
(lp847
sg48
S'move_5_7_6_7'
p848
sbtp849
(g8
g10
g14
g16
g67
g26
tp850
tp851
a((g4
g109
g6
g10
g12
g65
g16
g67
g18
g20
g22
g24
g26
g73
tp852
(g567
tp853
(g14
g67
g18
g20
g22
g24
g73
tp854
tp855
a((g2
g4
g109
g6
g10
g14
g16
g18
g71
g22
g24
g26
tp856
(g164
tp857
(g2
g6
g12
g71
g22
g24
g26
tp858
tp859
a((g2
g4
g6
g12
g14
g16
g67
g71
g22
g26
tp860
(g183
(istructures.domain
Action
p861
(dp862
g30
(lp863
(S'at_x5'
p864
tp865
a(S'at_y7'
p866
tp867
asg36
(lp868
(S'at_y6'
p869
tp870
asg40
(tsg41
(lp871
(S'at_y7'
p872
tp873
asg45
I0
sg46
(lp874
sg48
S'move_5_7_5_6'
p875
sbtp876
(g4
g109
g65
g71
g22
g26
tp877
tp878
a((g4
g6
g8
g10
g14
g16
g67
g18
g73
tp879
(g376
(istructures.domain
Action
p880
(dp881
g30
(lp882
(S'at_x4'
p883
tp884
a(S'at_y4'
p885
tp886
asg36
(lp887
(S'at_y3'
p888
tp889
asg40
(tsg41
(lp890
(S'at_y4'
p891
tp892
asg45
I0
sg46
(lp893
sg48
S'move_4_4_4_3'
p894
sbtp895
(g8
g10
g14
g67
g18
g24
g73
tp896
tp897
a((g2
g4
g109
g6
g8
g65
g14
g16
g67
g18
g71
g24
g26
g73
tp898
(g671
tp899
(g8
g10
g18
g71
tp900
tp901
a((g2
g6
g8
g10
g12
g67
g18
g71
g20
g22
g26
g73
tp902
(g90
tp903
(g8
g10
g16
g18
g71
g22
tp904
tp905
a((g2
g4
g109
g12
g65
g67
g18
g20
g24
g26
g73
tp906
((istructures.domain
Action
p907
(dp908
g30
(lp909
(S'at_x7'
p910
tp911
a(S'at_y3'
p912
tp913
asg36
(lp914
(S'at_x6'
p915
tp916
asg40
(tsg41
(lp917
(S'at_x7'
p918
tp919
asg45
I0
sg46
(lp920
sg48
S'move_7_3_6_3'
p921
sb(istructures.domain
Action
p922
(dp923
g30
(lp924
(S'at_x6'
p925
tp926
a(S'at_y3'
p927
tp928
asg36
(lp929
(S'at_x5'
p930
tp931
asg40
(tsg41
(lp932
(S'at_x6'
p933
tp934
asg45
I0
sg46
(lp935
sg48
S'move_6_3_5_3'
p936
sbtp937
(g109
g65
g67
g71
g20
g26
tp938
tp939
a((g4
g109
g6
g8
g12
g14
g16
g67
g18
g71
g26
tp940
(g376
g183
tp941
(g109
g12
g65
g14
g16
g67
g22
g26
tp942
tp943
a((g2
g6
g8
g12
g65
g14
g18
g20
g22
g73
tp944
((istructures.domain
Action
p945
(dp946
g30
(lp947
(S'at_x4'
p948
tp949
a(S'at_y2'
p950
tp951
asg36
(lp952
(S'at_y3'
p953
tp954
asg40
(tsg41
(lp955
(S'at_y2'
p956
tp957
asg45
I0
sg46
(lp958
sg48
S'move_4_2_4_3'
p959
sbg361
tp960
(g12
g20
g22
g24
g73
tp961
tp962
a((g6
g8
g10
g12
g14
g16
g67
g18
g71
g22
g24
g73
tp963
(g861
g50
tp964
(g109
g12
g65
g14
g67
g18
tp965
tp966
a((g2
g4
g6
g8
g10
g12
g14
g67
g18
g22
g24
g26
g73
tp967
(g232
g50
tp968
(g2
g4
g6
g8
g10
g12
g65
g16
g67
g18
g73
tp969
tp970
a((g2
g4
g109
g65
g14
g18
g71
g20
g22
g24
g73
tp971
(g654
(istructures.domain
Action
p972
(dp973
g30
(lp974
(S'at_x2'
p975
tp976
a(S'at_y6'
p977
tp978
asg36
(lp979
(S'at_y7'
p980
tp981
asg40
(tsg41
(lp982
(S'at_y6'
p983
tp984
asg45
I0
sg46
(lp985
sg48
S'move_2_6_2_7'
p986
sbtp987
(g4
g6
g12
g18
g71
tp988
tp989
a((g2
g4
g8
g12
g65
g14
g16
g18
g22
g24
g26
g73
tp990
(g75
(istructures.domain
Action
p991
(dp992
g30
(lp993
(S'at_x7'
p994
tp995
a(S'at_y5'
p996
tp997
asg36
(lp998
(S'at_x6'
p999
tp1000
asg40
(tsg41
(lp1001
(S'at_x7'
p1002
tp1003
asg45
I0
sg46
(lp1004
sg48
S'move_7_5_6_5'
p1005
sbtp1006
(g10
g65
g14
g16
g18
g20
g26
g73
tp1007
tp1008
a((g2
g4
g109
g12
g16
g67
g18
g20
g22
g24
g26
tp1009
(g972
(istructures.domain
Action
p1010
(dp1011
g30
(lp1012
(S'at_x1'
p1013
tp1014
a(S'at_y5'
p1015
tp1016
asg36
(lp1017
(S'at_y6'
p1018
tp1019
asg40
(tsg41
(lp1020
(S'at_y5'
p1021
tp1022
asg45
I0
sg46
(lp1023
sg48
S'move_1_5_1_6'
p1024
sbtp1025
(g2
g109
g6
g12
g16
g26
tp1026
tp1027
a((g2
g4
g109
g6
g10
g12
g67
g18
g24
g26
g73
tp1028
(g111
g654
tp1029
(g109
g10
g12
g16
g67
g24
tp1030
tp1031
a((g2
g109
g8
g12
g65
g14
g67
g18
g20
g24
g26
g73
tp1032
(g232
g907
tp1033
(g109
g10
g65
g16
g67
g18
g24
g26
tp1034
tp1035
a((g4
g109
g6
g10
g12
g67
g24
g73
tp1036
(g75
g601
tp1037
(g12
g67
g20
g26
tp1038
tp1039
a((g4
g109
g8
g10
g12
g14
g16
g71
g22
g24
g73
tp1040
(g412
tp1041
(g4
g6
g71
g22
tp1042
tp1043
a((g109
g6
g8
g10
g14
g16
g20
g24
g26
g73
tp1044
(g641
(istructures.domain
Action
p1045
(dp1046
g30
(lp1047
(S'at_x4'
p1048
tp1049
a(S'at_y3'
p1050
tp1051
asg36
(lp1052
(S'at_y2'
p1053
tp1054
asg40
(tsg41
(lp1055
(S'at_y3'
p1056
tp1057
asg45
I0
sg46
(lp1058
sg48
S'move_4_3_4_2'
p1059
sbtp1060
(g109
g10
g18
g20
tp1061
tp1062
a((g2
g6
g8
g12
g65
g14
g16
g71
g22
g73
tp1063
(g533
g75
tp1064
(g6
g8
g12
g65
g14
g16
g20
g73
tp1065
tp1066
a((g2
g4
g6
g8
g10
g12
g65
g14
g67
g71
g20
g22
tp1067
(g641
g198
tp1068
(g4
g6
g65
g14
g67
g18
g22
g73
tp1069
tp1070
a((g2
g4
g109
g6
g8
g10
g12
g65
g14
g67
g20
g22
g26
g73
tp1071
(g641
tp1072
(g4
g8
g14
g67
g18
g22
tp1073
tp1074
a((g4
g109
g6
g8
g10
g12
g65
g14
g18
g26
tp1075
(g111
tp1076
(g10
g65
g16
tp1077
tp1078
a((g4
g109
g8
g10
g67
g18
g20
g73
tp1079
((istructures.domain
Action
p1080
(dp1081
g30
(lp1082
(S'at_x3'
p1083
tp1084
a(S'at_y0'
p1085
tp1086
asg36
(lp1087
(S'at_x2'
p1088
tp1089
asg40
(tsg41
(lp1090
(S'at_x3'
p1091
tp1092
asg45
I0
sg46
(lp1093
sg48
S'move_3_0_2_0'
p1094
sbtp1095
(g4
g10
g12
tp1096
tp1097
a((g4
g6
g65
g16
g18
g20
g22
g24
g26
g73
tp1098
(g548
g769
tp1099
(g4
g14
g67
g20
g24
g26
tp1100
tp1101
a((g2
g109
g8
g12
g14
g16
g67
g18
g71
g24
g26
g73
tp1102
(g50
tp1103
(g109
g8
g65
g67
g26
g73
tp1104
tp1105
a((g2
g4
g6
g10
g65
g16
g67
g20
g22
g26
g73
tp1106
((istructures.domain
Action
p1107
(dp1108
g30
(lp1109
(S'at_x3'
p1110
tp1111
a(S'at_y4'
p1112
tp1113
asg36
(lp1114
(S'at_y3'
p1115
tp1116
asg40
(tsg41
(lp1117
(S'at_y4'
p1118
tp1119
asg45
I0
sg46
(lp1120
sg48
S'move_3_4_3_3'
p1121
sbtp1122
(g4
g6
g65
g16
g20
g24
g26
tp1123
tp1124
a((g109
g8
g12
g14
g16
g18
g71
g24
g26
g73
tp1125
(g300
tp1126
(g8
g12
g14
g16
g20
g24
tp1127
tp1128
a((g2
g4
g109
g10
g65
g14
g16
g18
g71
g20
g24
g26
g73
tp1129
(g28
g243
tp1130
(g2
g109
g8
g16
g67
g71
g26
tp1131
tp1132
a((g2
g4
g109
g8
g10
g12
g14
g16
g67
g71
g20
g22
g24
tp1133
(g198
g601
tp1134
(g4
g109
g10
g16
g67
g24
g26
g73
tp1135
tp1136
a((g4
g109
g8
g65
g16
g18
g20
tp1137
((istructures.domain
Action
p1138
(dp1139
g30
(lp1140
(S'at_x1'
p1141
tp1142
a(S'at_y2'
p1143
tp1144
asg36
(lp1145
(S'at_y3'
p1146
tp1147
asg40
(tsg41
(lp1148
(S'at_y2'
p1149
tp1150
asg45
I0
sg46
(lp1151
sg48
S'move_1_2_1_3'
p1152
sb(istructures.domain
Action
p1153
(dp1154
g30
(lp1155
(S'at_x1'
p1156
tp1157
a(S'at_y1'
p1158
tp1159
asg36
(lp1160
(S'at_x0'
p1161
tp1162
asg40
(tsg41
(lp1163
(S'at_x1'
p1164
tp1165
asg45
I0
sg46
(lp1166
sg48
S'move_1_1_0_1'
p1167
sbg412
tp1168
(g6
g8
g65
g14
g24
tp1169
tp1170
a((g4
g109
g6
g8
g10
g12
g65
g16
g67
g24
g26
g73
tp1171
(g567
(istructures.domain
Action
p1172
(dp1173
g30
(lp1174
(S'at_x6'
p1175
tp1176
a(S'at_y7'
p1177
tp1178
asg36
(lp1179
(S'at_x7'
p1180
tp1181
asg40
(tsg41
(lp1182
(S'at_x6'
p1183
tp1184
asg45
I0
sg46
(lp1185
sg48
S'move_6_7_7_7'
p1186
sbtp1187
(g2
g6
g8
g12
g14
g67
g73
tp1188
tp1189
a((g4
g109
g8
g12
g65
g67
g18
g20
g22
g24
g26
tp1190
(g111
g412
tp1191
(g4
g6
g16
g18
g20
g22
g26
tp1192
tp1193
a((g2
g109
g6
g12
g14
g16
g18
g71
g20
g24
g26
tp1194
((istructures.domain
Action
p1195
(dp1196
g30
(lp1197
(S'at_x2'
p1198
tp1199
a(S'at_y6'
p1200
tp1201
asg36
(lp1202
(S'at_y5'
p1203
tp1204
asg40
(tsg41
(lp1205
(S'at_y6'
p1206
tp1207
asg45
I0
sg46
(lp1208
sg48
S'move_2_6_2_5'
p1209
sbg183
tp1210
(g2
g4
g6
g65
g18
g24
g26
tp1211
tp1212
a((g4
g6
g8
g10
g12
g14
g67
g18
g20
g24
g26
g73
tp1213
(g232
tp1214
(g6
g10
g12
g16
g18
g20
g26
tp1215
tp1216
a((g2
g109
g6
g8
g10
g12
g16
g18
g20
g22
g26
g73
tp1217
(g28
tp1218
(g2
g109
g6
g8
g67
g22
g26
tp1219
tp1220
a((g2
g4
g109
g10
g12
g16
g18
g71
g24
g73
tp1221
(g815
tp1222
(g6
g10
g12
tp1223
tp1224
a((g2
g109
g6
g8
g10
g65
g14
g67
g71
g24
tp1225
(g232
tp1226
(g2
g6
g16
g67
g24
tp1227
tp1228
a((g2
g109
g6
g10
g65
g14
g16
g67
g18
g20
g22
g26
g73
tp1229
(g164
(istructures.domain
Action
p1230
(dp1231
g30
(lp1232
(S'at_x6'
p1233
tp1234
a(S'at_y7'
p1235
tp1236
asg36
(lp1237
(S'at_x5'
p1238
tp1239
asg40
(tsg41
(lp1240
(S'at_x6'
p1241
tp1242
asg45
I0
sg46
(lp1243
sg48
S'move_6_7_5_7'
p1244
sbtp1245
(g6
g12
g14
g67
g71
g20
g73
tp1246
tp1247
a((g6
g10
g65
g16
g18
g71
g22
g24
g73
tp1248
(g495
(istructures.domain
Action
p1249
(dp1250
g30
(lp1251
(S'at_x1'
p1252
tp1253
a(S'at_y4'
p1254
tp1255
asg36
(lp1256
(S'at_y5'
p1257
tp1258
asg40
(tsg41
(lp1259
(S'at_y4'
p1260
tp1261
asg45
I0
sg46
(lp1262
sg48
S'move_1_4_1_5'
p1263
sbtp1264
(g4
g10
g16
g67
tp1265
tp1266
a((g4
g109
g6
g8
g12
g16
g67
g71
g20
g26
tp1267
((istructures.domain
Action
p1268
(dp1269
g30
(lp1270
(S'at_x5'
p1271
tp1272
a(S'at_y2'
p1273
tp1274
asg36
(lp1275
(S'at_x6'
p1276
tp1277
asg40
(tsg41
(lp1278
(S'at_x5'
p1279
tp1280
asg45
I0
sg46
(lp1281
sg48
S'move_5_2_6_2'
p1282
sbtp1283
(g10
g67
g26
tp1284
tp1285
a((g2
g109
g12
g65
g14
g16
g67
g18
g20
g24
tp1286
(g1195
(istructures.domain
Action
p1287
(dp1288
g30
(lp1289
(S'at_x7'
p1290
tp1291
a(S'at_y5'
p1292
tp1293
asg36
(lp1294
(S'have_item0'
p1295
tp1296
asg40
(tsg41
(lp1297
sg45
I0
sg46
(lp1298
sg48
S'easymark_item0_7_5'
p1299
sbtp1300
(g4
g65
g67
g24
g26
tp1301
tp1302
a((g4
g6
g12
g65
g14
g67
g18
g24
g73
tp1303
(g145
g601
tp1304
(g4
g12
g65
g14
g18
g22
g26
g73
tp1305
tp1306
a((g2
g4
g109
g6
g8
g10
g65
g14
g67
g20
g26
tp1307
(g945
tp1308
(g4
g109
g6
g8
g65
g14
g24
tp1309
tp1310
a((g2
g109
g8
g10
g12
g65
g14
g67
g71
g20
g24
g73
tp1311
(g232
g412
tp1312
(g6
g8
g10
g12
g16
g67
g73
tp1313
tp1314
a((g109
g6
g8
g12
g16
g18
g20
g24
g73
tp1315
((istructures.domain
Action
p1316
(dp1317
g30
(lp1318
(S'at_x4'
p1319
tp1320
a(S'at_y6'
p1321
tp1322
asg36
(lp1323
(S'at_x5'
p1324
tp1325
asg40
(tsg41
(lp1326
(S'at_x4'
p1327
tp1328
asg45
I0
sg46
(lp1329
sg48
S'move_4_6_5_6'
p1330
sbtp1331
(g6
g12
g71
g20
tp1332
tp1333
a((g2
g4
g6
g8
g12
g65
g14
g67
g18
g71
g20
g24
g26
g73
tp1334
(g861
g232
tp1335
(g4
g109
g8
g65
g16
g67
g18
g20
g24
g26
g73
tp1336
tp1337
a((g10
g65
g14
g16
g67
g18
g71
g20
g22
g24
g73
tp1338
((istructures.domain
Action
p1339
(dp1340
g30
(lp1341
(S'at_x5'
p1342
tp1343
a(S'at_y0'
p1344
tp1345
asg36
(lp1346
(S'at_x4'
p1347
tp1348
asg40
(tsg41
(lp1349
(S'at_x5'
p1350
tp1351
asg45
I0
sg46
(lp1352
sg48
S'move_5_0_4_0'
p1353
sb(istructures.domain
Action
p1354
(dp1355
g30
(lp1356
(S'at_x4'
p1357
tp1358
a(S'at_y4'
p1359
tp1360
asg36
(lp1361
(S'at_y5'
p1362
tp1363
asg40
(tsg41
(lp1364
(S'at_y4'
p1365
tp1366
asg45
I0
sg46
(lp1367
sg48
S'move_4_4_4_5'
p1368
sbtp1369
(g4
g8
g10
g65
g14
g16
g67
g18
g20
tp1370
tp1371
a((g2
g4
g109
g6
g8
g12
g65
g14
g67
g18
g71
g20
g24
tp1372
((istructures.domain
Action
p1373
(dp1374
g30
(lp1375
(S'at_x5'
p1376
tp1377
a(S'at_y1'
p1378
tp1379
asg36
(lp1380
(S'have_item0'
p1381
tp1382
asg40
(tsg41
(lp1383
sg45
I0
sg46
(lp1384
sg48
S'easymark_item0_5_1'
p1385
sbtp1386
(g2
g4
g6
g12
g65
g14
g67
g18
g71
g20
g24
g26
tp1387
tp1388
a((g4
g10
g12
g14
g22
g24
g26
tp1389
(g427
g815
tp1390
(g6
g22
g24
g26
tp1391
tp1392
a((g8
g10
g12
g14
g20
g22
g24
g73
tp1393
((istructures.domain
Action
p1394
(dp1395
g30
(lp1396
(S'at_x0'
p1397
tp1398
a(S'at_y4'
p1399
tp1400
asg36
(lp1401
(S'have_item0'
p1402
tp1403
asg40
(tsg41
(lp1404
sg45
I0
sg46
(lp1405
sg48
S'easymark_item0_0_4'
p1406
sbtp1407
(g10
g12
g14
g22
g26
g73
tp1408
tp1409
a((g4
g6
g8
g10
g65
g14
g18
g22
g26
g73
tp1410
((istructures.domain
Action
p1411
(dp1412
g30
(lp1413
g10
a(S'at_y4'
p1414
tp1415
asg36
(lp1416
(S'at_x7'
p1417
tp1418
asg40
(tsg41
(lp1419
(S'at_x6'
p1420
tp1421
asg45
I0
sg46
(lp1422
sg48
S'move_6_4_7_4'
p1423
sbtp1424
(g2
g4
g6
g65
g14
tp1425
tp1426
a((g4
g109
g6
g8
g14
g67
g18
g71
g24
g73
tp1427
(g601
tp1428
(g4
g109
g8
g67
g71
g26
g73
tp1429
tp1430
a((g109
g6
g8
g10
g12
g65
g14
g67
g18
g20
g22
tp1431
(g232
g281
tp1432
(g109
g8
g10
g16
g18
g20
g22
g73
tp1433
tp1434
a((g2
g4
g109
g8
g10
g65
g14
g16
g18
g71
g24
g26
tp1435
(g323
tp1436
(g2
g4
g109
g10
g16
g73
tp1437
tp1438
a((g2
g109
g8
g10
g14
g16
g67
g18
g71
g24
g26
g73
tp1439
(g654
tp1440
(g2
g109
g8
g12
g16
g67
g18
g26
tp1441
tp1442
a((g2
g4
g109
g6
g10
g12
g14
g67
g71
g20
g22
g24
g73
tp1443
(g232
g126
tp1444
(g2
g4
g109
g10
g12
g16
g18
g71
g20
g22
g73
tp1445
tp1446
a((g2
g109
g6
g8
g10
g65
g14
g16
g67
g20
g22
g26
tp1447
(g198
g1080
tp1448
(g12
g65
g14
g16
g20
g22
tp1449
tp1450
a((g2
g4
g109
g6
g12
g14
g16
g67
g18
g71
g20
g22
g26
g73
tp1451
(g1339
tp1452
(g109
g8
g12
g14
g16
g67
g73
tp1453
tp1454
a((g2
g4
g109
g6
g8
g65
g16
g67
g18
g71
g22
g73
tp1455
(g361
tp1456
(g109
g6
g67
g71
g20
tp1457
tp1458
a((g2
g4
g109
g6
g8
g14
g67
g18
g71
g20
g24
g26
tp1459
(g183
tp1460
(g2
g4
g109
g6
g65
g20
g24
g26
tp1461
tp1462
a((g2
g109
g6
g8
g10
g12
g65
g16
g18
g20
g24
g26
tp1463
(g548
tp1464
(g2
g8
g10
g12
g65
g14
g24
g26
tp1465
tp1466
a((g2
g4
g109
g8
g10
g12
g65
g16
g18
g71
g20
g24
g26
tp1467
(g323
g1153
tp1468
(g2
g109
g10
g14
g18
g71
g20
g26
g73
tp1469
tp1470
a((g4
g109
g6
g10
g12
g14
g16
g67
g18
g71
g20
g22
g24
g26
tp1471
(g183
tp1472
(g4
g109
g6
g10
g12
g65
g20
tp1473
tp1474
a((g2
g4
g109
g6
g8
g14
g16
g67
g20
g22
g26
tp1475
(g480
g183
tp1476
(g109
g6
g65
g14
g16
g67
g20
g22
g26
tp1477
tp1478
a((g2
g109
g8
g10
g14
g16
g67
g71
g20
g22
g26
g73
tp1479
(g641
g1354
tp1480
(g2
g4
g109
g10
g67
g18
g71
g26
tp1481
tp1482
a((g4
g8
g10
g65
g16
g67
g71
g20
g22
g73
tp1483
(g567
g1080
tp1484
(g8
g12
g65
g14
g67
g71
g20
tp1485
tp1486
a((g2
g4
g6
g8
g10
g12
g14
g16
g67
g18
g71
g24
tp1487
(g1373
tp1488
(g4
g6
g10
g14
g16
g71
g26
tp1489
tp1490
a((g2
g4
g8
g12
g14
g16
g67
g71
g20
g22
g24
g26
tp1491
(g446
tp1492
(g8
g10
g12
g14
g20
g22
g26
tp1493
tp1494
a((g2
g4
g6
g8
g10
g12
g16
g67
g18
g71
g20
g22
g24
g26
g73
tp1495
(g861
g50
tp1496
(g2
g109
g65
g67
g71
g22
g24
tp1497
tp1498
a((g2
g4
g10
g65
g14
g67
g18
g20
g22
g24
g26
g73
tp1499
(g427
tp1500
(g109
g65
g14
g20
g26
tp1501
tp1502
a((g4
g109
g8
g10
g12
g65
g14
g67
g20
g24
g26
g73
tp1503
(g1316
g243
tp1504
(g8
g10
g14
g67
g71
g26
tp1505
tp1506
a((g4
g109
g8
g10
g65
g14
g16
g67
g18
g20
g24
g73
tp1507
((istructures.domain
Action
p1508
(dp1509
g30
(lp1510
(S'at_x1'
p1511
tp1512
a(S'at_y0'
p1513
tp1514
asg36
(lp1515
(S'at_x2'
p1516
tp1517
asg40
(tsg41
(lp1518
(S'at_x1'
p1519
tp1520
asg45
I0
sg46
(lp1521
sg48
S'move_1_0_2_0'
p1522
sbtp1523
(g4
g109
g10
g12
g65
g14
g67
g73
tp1524
tp1525
a((g4
g6
g10
g65
g14
g18
g20
g22
g26
g73
tp1526
(g1230
(istructures.domain
Action
p1527
(dp1528
g30
(lp1529
(S'at_x0'
p1530
tp1531
a(S'at_y1'
p1532
tp1533
asg36
(lp1534
(S'at_x1'
p1535
tp1536
asg40
(tsg41
(lp1537
(S'at_x0'
p1538
tp1539
asg45
I0
sg46
(lp1540
sg48
S'move_0_1_1_1'
p1541
sbtp1542
(g4
g6
g65
g16
g18
g71
g20
g73
tp1543
tp1544
a((g2
g14
g16
g18
g20
g24
g26
g73
tp1545
(g28
g50
tp1546
(g2
g65
g14
g16
g67
g26
tp1547
tp1548
a((g2
g4
g109
g6
g8
g65
g14
g67
g18
g20
g73
tp1549
(g601
tp1550
(g4
g109
g65
g14
g67
g26
tp1551
tp1552
a((g6
g8
g10
g65
g14
g67
g18
g71
g22
g26
g73
tp1553
(g232
g300
tp1554
(g16
g71
g20
tp1555
tp1556
a((g2
g4
g6
g8
g10
g65
g16
g18
g71
g26
g73
tp1557
(g361
(istructures.domain
Action
p1558
(dp1559
g30
(lp1560
(S'at_x6'
p1561
tp1562
a(S'at_y5'
p1563
tp1564
asg36
(lp1565
(S'at_y4'
p1566
tp1567
asg40
(tsg41
(lp1568
(S'at_y5'
p1569
tp1570
asg45
I0
sg46
(lp1571
sg48
S'move_6_5_6_4'
p1572
sbtp1573
(g6
g10
g65
g20
g22
tp1574
tp1575
a((g2
g4
g6
g65
g14
g67
g18
g71
g22
g26
g73
tp1576
(g1080
tp1577
(g2
g4
g6
g12
g67
tp1578
tp1579
a((g2
g4
g109
g8
g10
g12
g14
g16
g18
g20
g24
g73
tp1580
(g1316
g50
tp1581
(g2
g109
g12
g65
g14
g16
g71
g73
tp1582
tp1583
a((g2
g4
g6
g8
g10
g65
g14
g16
g67
g18
g71
g20
g24
g73
tp1584
(g654
tp1585
(g2
g6
g8
g10
g12
g18
g71
g20
g24
tp1586
tp1587
a((g2
g4
g109
g6
g8
g10
g12
g65
g16
g67
g18
g20
g24
g73
tp1588
(g601
tp1589
(g2
g4
g8
g67
g20
g24
g26
tp1590
tp1591
a((g2
g4
g109
g12
g65
g14
g16
g18
g20
g22
g24
g26
tp1592
(g907
tp1593
(g4
g10
g12
g22
g26
tp1594
tp1595
a((g4
g6
g65
g14
g67
g18
g71
g20
g22
g26
tp1596
(g232
tp1597
(g65
g16
g18
g71
g20
tp1598
tp1599
a((g2
g4
g109
g6
g10
g12
g14
g16
g18
g26
tp1600
(g586
g616
tp1601
(g4
g109
g10
g65
g14
g16
g18
g26
g73
tp1602
tp1603
a((g2
g109
g6
g8
g12
g65
g14
g67
g18
g71
g20
g22
g24
g26
g73
tp1604
(g232
tp1605
(g2
g109
g6
g8
g12
g16
g67
g18
g26
g73
tp1606
tp1607
a((g109
g6
g8
g10
g12
g14
g18
g22
g24
tp1608
(g1354
g1527
tp1609
(g4
g109
g8
g10
g12
g16
tp1610
tp1611
a((g2
g109
g12
g65
g14
g16
g67
g71
g22
g24
g73
tp1612
(g1339
g395
tp1613
(g8
g65
g16
g67
g26
tp1614
tp1615
a((g2
g4
g109
g8
g10
g65
g16
g67
g71
g20
g24
g26
g73
tp1616
(g412
tp1617
(g2
g6
g8
g65
g16
g71
g73
tp1618
tp1619
a((g4
g109
g65
g14
g16
g67
g71
g20
g22
g24
g26
g73
tp1620
(g514
(istructures.domain
Action
p1621
(dp1622
g30
(lp1623
(S'at_x1'
p1624
tp1625
a(S'at_y3'
p1626
tp1627
asg36
(lp1628
(S'at_y2'
p1629
tp1630
asg40
(tsg41
(lp1631
(S'at_y3'
p1632
tp1633
asg45
I0
sg46
(lp1634
sg48
S'move_1_3_1_2'
p1635
sbtp1636
(g109
g16
g67
g18
g71
g20
g22
tp1637
tp1638
a((g4
g109
g8
g10
g12
g65
g14
g16
g67
g18
g71
g22
g26
g73
tp1639
(g533
tp1640
(g4
g8
g10
g65
g14
g18
g24
g73
tp1641
tp1642
a((g2
g109
g6
g8
g10
g12
g14
g16
g18
g20
g22
g24
g73
tp1643
(g480
g1373
tp1644
(g2
g6
g18
g71
g22
g26
g73
tp1645
tp1646
a((g2
g109
g6
g65
g16
g67
g18
g71
g22
g24
g26
g73
tp1647
(g567
tp1648
(g2
g109
g6
g14
g22
g26
g73
tp1649
tp1650
a((g2
g109
g12
g14
g67
g18
g20
g22
g73
tp1651
(g243
tp1652
(g2
g8
g12
tp1653
tp1654
a((g2
g109
g6
g8
g12
g65
g16
g67
g18
g71
g20
g22
g24
tp1655
(g1373
tp1656
(g2
g8
g67
g71
g22
g24
g26
tp1657
tp1658
a((g2
g4
g109
g10
g12
g14
g67
g18
g24
g73
tp1659
(g232
tp1660
(g4
g16
g67
g18
g73
tp1661
tp1662
a((g4
g109
g6
g8
g12
g65
g14
g16
g71
g20
g22
tp1663
(g586
g601
tp1664
(g109
g8
g71
g22
g26
g73
tp1665
tp1666
a((g109
g6
g8
g10
g65
g16
g67
g18
g71
g20
g24
g26
g73
tp1667
(g262
tp1668
(g4
g8
g65
g67
g71
g20
g24
tp1669
tp1670
a((g2
g4
g109
g6
g8
g12
g65
g67
g71
g20
g24
g26
g73
tp1671
(g641
g111
tp1672
(g6
g8
g16
g67
g18
g71
tp1673
tp1674
a((g2
g6
g14
g16
g67
g18
g71
g20
g22
g73
tp1675
(g1373
tp1676
(g14
g16
g67
g71
g20
g26
g73
tp1677
tp1678
a((g2
g6
g8
g10
g12
g65
g16
g67
g18
g20
g22
g26
tp1679
((istructures.domain
Action
p1680
(dp1681
g30
(lp1682
g2
a(S'at_y7'
p1683
tp1684
asg36
(lp1685
(S'at_y6'
p1686
tp1687
asg40
(tsg41
(lp1688
(S'at_y7'
p1689
tp1690
asg45
I0
sg46
(lp1691
sg48
S'move_7_7_7_6'
p1692
sbg567
tp1693
(g109
g10
g12
g14
g67
g18
g22
tp1694
tp1695
a((g2
g6
g10
g14
g18
g20
g22
g73
tp1696
(g1680
(istructures.domain
Action
p1697
(dp1698
g30
(lp1699
(S'at_x3'
p1700
tp1701
a(S'at_y4'
p1702
tp1703
asg36
(lp1704
(S'at_y5'
p1705
tp1706
asg40
(tsg41
(lp1707
(S'at_y4'
p1708
tp1709
asg45
I0
sg46
(lp1710
sg48
S'move_3_4_3_5'
p1711
sbtp1712
(g2
g4
g109
g20
g73
tp1713
tp1714
a((g2
g4
g109
g6
g8
g10
g65
g14
g16
g20
g22
g24
g73
tp1715
(g480
tp1716
(g2
g109
g6
g65
g16
g71
g22
g73
tp1717
tp1718
a((g4
g109
g6
g10
g14
g16
g67
g18
g71
g24
g26
g73
tp1719
(g164
tp1720
(g4
g109
g12
g18
g71
g24
g26
g73
tp1721
tp1722
a((g2
g6
g16
g67
g71
g22
g24
g26
g73
tp1723
(g567
g671
tp1724
(g6
g10
g14
g71
g22
g24
g26
g73
tp1725
tp1726
a((g4
g8
g12
g65
g16
g67
g22
g24
g26
tp1727
(g75
g641
tp1728
(g12
g67
g18
g26
tp1729
tp1730
a((g2
g4
g6
g12
g65
g14
g16
g67
g18
g20
g24
g26
tp1731
(g145
tp1732
(g2
g4
g16
g18
g20
g22
tp1733
tp1734
a((g109
g6
g10
g65
g16
g18
g71
g20
g22
g24
g26
g73
tp1735
(g548
(istructures.domain
Action
p1736
(dp1737
g30
(lp1738
(S'at_x5'
p1739
tp1740
a(S'at_y2'
p1741
tp1742
asg36
(lp1743
(S'at_x4'
p1744
tp1745
asg40
(tsg41
(lp1746
(S'at_x5'
p1747
tp1748
asg45
I0
sg46
(lp1749
sg48
S'move_5_2_4_2'
p1750
sbtp1751
(g109
g6
g8
g65
g14
g18
g20
g24
tp1752
tp1753
a((g4
g6
g8
g12
g14
g16
g18
g71
g20
tp1754
(g1138
g834
tp1755
(g4
g10
g12
g24
tp1756
tp1757
a((g2
g109
g8
g10
g12
g65
g14
g67
g18
g24
g73
tp1758
(g361
g262
tp1759
(g4
g10
g12
g20
g24
g73
tp1760
tp1761
a((g4
g6
g8
g10
g65
g14
g16
g67
g18
g20
g24
g73
tp1762
(g376
g788
tp1763
(g109
g18
g20
g22
g24
tp1764
tp1765
a((g2
g109
g8
g10
g16
g67
g71
g20
g22
g26
g73
tp1766
(g1138
g50
tp1767
(g2
g109
g8
g65
g24
g26
tp1768
tp1769
a((g2
g4
g109
g8
g10
g12
g14
g16
g67
g20
g22
g24
g26
tp1770
(g641
tp1771
(g2
g4
g10
g12
g14
g16
g18
g22
g24
tp1772
tp1773
a((g4
g109
g6
g10
g12
g65
g14
g16
g67
g18
g71
g22
g24
g26
g73
tp1774
(g1411
tp1775
(g2
g16
g18
g71
g22
g24
tp1776
tp1777
a((g4
g109
g6
g8
g14
g16
g18
g71
g20
g24
g26
tp1778
(g376
tp1779
(g6
g14
g18
g71
g22
g26
tp1780
tp1781
a((g2
g4
g109
g12
g65
g16
g67
g18
g22
g24
tp1782
(g75
tp1783
(g4
g16
g67
g18
g20
tp1784
tp1785
a((g4
g6
g8
g10
g12
g65
g14
g67
g18
g71
g22
g73
tp1786
(g533
g75
tp1787
(g4
g6
g8
g10
g12
g67
g18
g20
g73
tp1788
tp1789
a((g2
g4
g109
g10
g65
g16
g67
g18
g71
g20
g24
tp1790
(g567
g815
tp1791
(g4
g6
g10
g65
g14
g18
g71
tp1792
tp1793
a((g2
g109
g8
g10
g12
g65
g16
g18
g71
g22
g24
g26
g73
tp1794
(g75
tp1795
(g109
g65
g16
g18
g71
g20
g73
tp1796
tp1797
a((g2
g4
g109
g6
g8
g10
g12
g65
g14
g16
g67
g18
g71
g22
g24
g26
g73
tp1798
(g361
tp1799
(g8
g10
g67
g71
g20
g22
g26
tp1800
tp1801
a((g2
g4
g109
g6
g12
g65
g14
g16
g67
g18
g71
g22
g24
g26
g73
tp1802
(g361
tp1803
(g2
g109
g67
g20
g22
g26
tp1804
tp1805
a((g2
g4
g6
g8
g65
g16
g18
g71
g20
g22
g24
tp1806
(g164
g1373
tp1807
(g2
g8
g12
g65
g18
g20
g24
g26
tp1808
tp1809
a((g2
g4
g6
g16
g18
g71
g22
g24
g26
g73
tp1810
(g654
g28
tp1811
(g2
g12
g16
g67
g71
g26
tp1812
tp1813
a((g2
g4
g109
g8
g12
g65
g14
g16
g18
g22
g26
tp1814
(g198
g533
tp1815
(g2
g109
g12
g18
g24
g26
g73
tp1816
tp1817
a((g109
g6
g8
g10
g65
g14
g16
g67
g20
g22
g24
g73
tp1818
(g654
g1411
tp1819
(g2
g109
g8
g12
g65
g16
g20
g22
g24
tp1820
tp1821
a((g2
g4
g109
g10
g12
g14
g16
g67
g18
g71
g73
tp1822
(g1339
g616
tp1823
(g2
g109
g8
g10
g65
g14
g16
g67
tp1824
tp1825
a((g2
g109
g6
g8
g16
g71
g20
g26
g73
tp1826
(g548
(istructures.domain
Action
p1827
(dp1828
g30
(lp1829
(S'at_x3'
p1830
tp1831
a(S'at_y7'
p1832
tp1833
asg36
(lp1834
(S'at_x2'
p1835
tp1836
asg40
(tsg41
(lp1837
(S'at_x3'
p1838
tp1839
asg45
I0
sg46
(lp1840
sg48
S'move_3_7_2_7'
p1841
sbtp1842
(g8
g12
g14
g71
g20
g26
tp1843
tp1844
a((g2
g109
g6
g8
g10
g12
g14
g16
g18
g71
g22
g26
g73
tp1845
(g28
g1354
tp1846
(g4
g6
g8
g12
g67
g71
tp1847
tp1848
a((g2
g4
g109
g6
g12
g65
g14
g18
g71
g20
g24
g73
tp1849
(g376
tp1850
(g109
g65
g22
g24
tp1851
tp1852
a((g8
g10
g12
g65
g67
g18
g71
g20
g24
tp1853
(g90
(istructures.domain
Action
p1854
(dp1855
g30
(lp1856
(S'at_x6'
p1857
tp1858
a(S'at_y1'
p1859
tp1860
asg36
(lp1861
(S'at_x7'
p1862
tp1863
asg40
(tsg41
(lp1864
(S'at_x6'
p1865
tp1866
asg45
I0
sg46
(lp1867
sg48
S'move_6_1_7_1'
p1868
sbtp1869
(g2
g8
g65
g16
g67
g71
g20
g24
tp1870
tp1871
a((g2
g4
g6
g10
g12
g65
g14
g16
g67
g18
g71
tp1872
(g361
tp1873
(g4
g6
g12
g14
g67
g20
tp1874
tp1875
a((g4
g6
g12
g65
g14
g16
g67
g71
g20
g24
g26
g73
tp1876
(g427
g1339
tp1877
(g109
g6
g8
g12
g14
g16
g20
g24
g26
g73
tp1878
tp1879
a((g6
g8
g10
g12
g65
g16
g67
g18
g22
g26
g73
tp1880
(g788
tp1881
(g109
g10
g12
g26
g73
tp1882
tp1883
a((g4
g8
g10
g65
g14
g67
g18
g71
g22
g73
tp1884
(g300
g601
tp1885
(g4
g10
g67
g71
g20
g26
g73
tp1886
tp1887
a((g2
g8
g10
g65
g16
g67
g18
g71
g20
g22
g26
tp1888
(g1508
g281
tp1889
(g8
g10
g65
g67
g18
g71
g20
g73
tp1890
tp1891
a((g2
g4
g109
g6
g8
g10
g65
g14
g67
g18
g22
tp1892
(g232
g1230
tp1893
(g4
g6
g8
g65
g16
g67
g71
tp1894
tp1895
a((g4
g109
g6
g12
g65
g14
g67
g24
tp1896
(g376
g1195
tp1897
(g4
g6
g67
g22
g24
tp1898
tp1899
a((g4
g6
g8
g10
g65
g14
g16
g18
g22
g24
g26
g73
tp1900
(g654
g769
tp1901
(g6
g8
g12
g67
g24
tp1902
tp1903
a((g2
g4
g8
g10
g12
g18
g71
g24
g26
g73
tp1904
((istructures.domain
Action
p1905
(dp1906
g30
(lp1907
(S'at_x6'
p1908
tp1909
a(S'at_y5'
p1910
tp1911
asg36
(lp1912
(S'at_y6'
p1913
tp1914
asg40
(tsg41
(lp1915
(S'at_y5'
p1916
tp1917
asg45
I0
sg46
(lp1918
sg48
S'move_6_5_6_6'
p1919
sbg616
tp1920
(g109
g65
g24
tp1921
tp1922
a((g2
g109
g6
g8
g10
g12
g14
g67
g20
g22
g24
g73
tp1923
(g641
g922
tp1924
(g2
g109
g6
g8
g67
g18
g71
g73
tp1925
tp1926
a((g6
g8
g12
g16
g67
g18
g71
g22
g24
tp1927
(g300
tp1928
(g6
g12
g16
g67
g20
g24
tp1929
tp1930
a((g109
g8
g10
g12
g14
g67
g22
g26
g73
tp1931
(g533
tp1932
(g14
g67
g24
tp1933
tp1934
a((g2
g4
g109
g6
g10
g14
g16
g67
g71
g20
g73
tp1935
(g601
tp1936
(g109
g6
g10
g26
tp1937
tp1938
a((g2
g109
g6
g12
g65
g14
g67
g18
g71
g20
g22
g26
tp1939
(g232
g1339
tp1940
(g109
g8
g65
g16
g18
g20
tp1941
tp1942
a((g2
g4
g109
g6
g10
g14
g16
g67
g18
g71
g20
g24
g26
g73
tp1943
(g164
tp1944
(g4
g6
g12
g67
g71
g24
g73
tp1945
tp1946
a((g2
g109
g6
g8
g10
g12
g65
g67
g20
g24
g73
tp1947
(g641
g145
tp1948
(g8
g10
g18
g22
g73
tp1949
tp1950
a((g4
g109
g6
g8
g10
g65
g14
g67
g71
g26
g73
tp1951
(g126
g300
tp1952
(g4
g6
g10
g65
g14
g71
g20
g26
g73
tp1953
tp1954
a((g2
g109
g8
g10
g65
g14
g67
g18
g71
g22
g24
g26
tp1955
(g361
g412
tp1956
(g2
g6
g10
g14
g67
g71
g20
g22
g24
tp1957
tp1958
a((g2
g6
g16
g67
g18
g22
g26
g73
tp1959
(g164
g1680
g533
tp1960
(g2
g109
g12
g24
g26
g73
tp1961
tp1962
a((g2
g109
g6
g8
g10
g12
g67
g71
g24
g26
g73
tp1963
(g262
g1558
tp1964
(g2
g10
g22
g24
g73
tp1965
tp1966
a((g4
g109
g10
g12
g65
g14
g67
g18
g71
g20
g24
g26
g73
tp1967
(g232
g815
tp1968
(g6
g10
g16
g67
g73
tp1969
tp1970
a((g2
g109
g8
g10
g14
g16
g22
g24
g73
tp1971
(g1045
tp1972
(g2
g109
g10
g14
g20
tp1973
tp1974
a((g2
g4
g109
g6
g10
g12
g65
g14
g18
g22
g24
g26
tp1975
(g75
tp1976
(g4
g109
g6
g14
g18
g20
tp1977
tp1978
a((g2
g109
g6
g8
g10
g65
g14
g16
g67
g71
g20
g22
g24
g73
tp1979
(g641
tp1980
(g6
g16
g18
g71
g24
g73
tp1981
tp1982
a((g4
g109
g10
g12
g65
g16
g67
g71
g20
g22
g24
g26
g73
tp1983
(g1411
g446
tp1984
(g2
g4
g10
g67
g22
g24
g26
tp1985
tp1986
a((g4
g109
g8
g10
g12
g65
g16
g71
g22
g26
g73
tp1987
(g533
g75
tp1988
(g4
g109
g8
g10
g12
g65
g20
g26
g73
tp1989
tp1990
a((g2
g109
g8
g12
g16
g67
g71
g20
g22
g24
g26
tp1991
(g446
g50
tp1992
(g109
g8
g10
g12
g65
g67
g22
g24
tp1993
tp1994
a((g2
g6
g10
g12
g65
g14
g18
g24
g26
tp1995
(g361
g922
(istructures.domain
Action
p1996
(dp1997
g30
(lp1998
(S'at_x2'
p1999
tp2000
a(S'at_y7'
p2001
tp2002
asg36
(lp2003
(S'at_x1'
p2004
tp2005
asg40
(tsg41
(lp2006
(S'at_x2'
p2007
tp2008
asg45
I0
sg46
(lp2009
sg48
S'move_2_7_1_7'
p2010
sbtp2011
(g2
g14
g16
g71
g20
g26
tp2012
tp2013
a((g2
g109
g6
g8
g10
g12
g14
g67
g18
g71
g20
g22
g24
g73
tp2014
(g1354
tp2015
(g4
g6
g8
g14
g18
g71
g20
tp2016
tp2017
a((g2
g4
g109
g12
g65
g16
g67
g18
tp2018
(g567
tp2019
(g4
g109
g12
g14
g67
tp2020
tp2021
a((g2
g109
g6
g8
g12
g67
g71
g20
g22
g73
tp2022
(g641
g1373
tp2023
(g6
g67
g18
g71
g26
g73
tp2024
tp2025
a((g4
g6
g8
g10
g65
g67
g18
g22
g24
g26
tp2026
(g198
g922
tp2027
(g6
g18
g71
g22
g26
g73
tp2028
tp2029
a((g6
g8
g10
g65
g67
g20
g24
tp2030
(g323
g788
(istructures.domain
Action
p2031
(dp2032
g30
(lp2033
(S'at_x3'
p2034
tp2035
a(S'at_y3'
p2036
tp2037
asg36
(lp2038
(S'at_y4'
p2039
tp2040
asg40
(tsg41
(lp2041
(S'at_y3'
p2042
tp2043
asg45
I0
sg46
(lp2044
sg48
S'move_3_3_3_4'
p2045
sbtp2046
(g109
g20
g22
g73
tp2047
tp2048
a((g2
g4
g109
g8
g10
g12
g67
g18
g71
g22
g24
g26
tp2049
(g198
g616
tp2050
(g2
g4
g109
g65
g18
g71
g24
g26
g73
tp2051
tp2052
a((g4
g109
g6
g12
g14
g16
g67
g18
g71
g20
g24
g26
tp2053
(g586
tp2054
(g109
g6
g14
g16
g67
g18
g71
g20
g24
g73
tp2055
tp2056
a((g4
g109
g6
g8
g10
g14
g16
g67
g71
g20
g24
g26
g73
tp2057
(g654
g183
tp2058
(g6
g10
g12
g65
g14
g20
g24
tp2059
tp2060
a((g2
g4
g109
g12
g14
g16
g67
g18
g71
g20
g73
tp2061
(g1268
g616
tp2062
(g4
g10
g65
g18
g73
tp2063
tp2064
a((g2
g6
g8
g12
g65
g14
g20
g22
g24
g26
g73
tp2065
(g480
g446
tp2066
(g2
g6
g10
g14
g22
g73
tp2067
tp2068
a((g2
g4
g6
g8
g12
g65
g16
g67
g18
g71
g20
g22
g24
g26
g73
tp2069
(g861
tp2070
(g109
g8
g16
g18
g22
g73
tp2071
tp2072
a((g2
g4
g6
g10
g12
g65
g14
g16
g67
g18
g71
g20
g24
g26
tp2073
(g376
g1339
tp2074
(g8
g10
g14
g20
g22
g24
tp2075
tp2076
a((g2
g4
g109
g6
g10
g12
g65
g16
g67
g18
g71
g20
g24
g26
tp2077
(g567
tp2078
(g4
g6
g14
g67
g71
g24
g26
tp2079
tp2080
a((g2
g4
g6
g8
g10
g16
g67
g18
g22
g26
g73
tp2081
(g567
g427
tp2082
(g2
g109
g6
g10
g14
g67
g18
g73
tp2083
tp2084
a((g2
g109
g8
g10
g12
g65
g16
g67
g71
g20
g22
g26
g73
tp2085
(g567
g533
tp2086
(g2
g8
g10
g12
g14
g71
g24
g26
tp2087
tp2088
a((g4
g10
g65
g14
g18
g71
g20
g22
g24
tp2089
(g1527
tp2090
(g16
g18
g71
g20
g22
tp2091
tp2092
a((g4
g10
g12
g14
g16
g67
g71
g22
g24
g73
tp2093
(g601
tp2094
(g4
g26
g73
tp2095
tp2096
a((g4
g109
g6
g10
g12
g65
g14
g18
g71
g24
tp2097
(g300
g1172
tp2098
(g2
g4
g109
g12
g65
g14
g71
g20
g24
tp2099
tp2100
a((g2
g6
g8
g12
g65
g16
g18
g71
g20
g26
g73
tp2101
(g28
g671
tp2102
(g8
g10
g12
g65
g16
g67
g20
g26
tp2103
tp2104
a((g2
g6
g8
g10
g12
g67
g18
g71
g22
tp2105
(g533
g281
tp2106
(g6
g8
g18
g71
g24
g73
tp2107
tp2108
a((g2
g4
g109
g6
g65
g14
g16
g67
g18
g71
g22
g24
g26
tp2109
(g361
g1339
tp2110
(g109
g6
g8
g67
g20
g24
tp2111
tp2112
a((g2
g109
g8
g12
g14
g16
g18
g20
g22
g24
g26
tp2113
(g480
g50
tp2114
(g65
g18
g71
g20
g22
g24
g26
tp2115
tp2116
a((g2
g109
g6
g10
g12
g14
g16
g71
g20
g22
g24
g26
tp2117
((istructures.domain
Action
p2118
(dp2119
g30
(lp2120
(S'at_x2'
p2121
tp2122
a(S'at_y4'
p2123
tp2124
asg36
(lp2125
(S'at_x3'
p2126
tp2127
asg40
(tsg41
(lp2128
(S'at_x2'
p2129
tp2130
asg45
I0
sg46
(lp2131
sg48
S'move_2_4_3_4'
p2132
sbtp2133
(g6
g10
g14
g16
g26
g73
tp2134
tp2135
a((g2
g109
g6
g12
g65
g67
g71
g20
g22
g24
g26
tp2136
(g281
g213
tp2137
(g2
g4
g67
g71
g24
g26
g73
tp2138
tp2139
a((g2
g109
g6
g8
g10
g12
g67
g18
g71
g20
g22
g26
g73
tp2140
(g90
tp2141
(g2
g109
g6
g8
g16
g71
g20
g22
g26
tp2142
tp2143
a((g2
g109
g8
g14
g16
g18
g71
g20
g24
g26
g73
tp2144
(g754
g1354
tp2145
(g4
g109
g8
tp2146
tp2147
a((g4
g109
g10
g65
g16
g71
g20
g22
g26
g73
tp2148
(g514
(istructures.domain
Action
p2149
(dp2150
g30
(lp2151
(S'at_x5'
p2152
tp2153
a(S'at_y6'
p2154
tp2155
asg36
(lp2156
(S'at_x4'
p2157
tp2158
asg40
(tsg41
(lp2159
(S'at_x5'
p2160
tp2161
asg45
I0
sg46
(lp2162
sg48
S'move_5_6_4_6'
p2163
sb(istructures.domain
Action
p2164
(dp2165
g30
(lp2166
(S'at_x1'
p2167
tp2168
a(S'at_y1'
p2169
tp2170
asg36
(lp2171
(S'at_x2'
p2172
tp2173
asg40
(tsg41
(lp2174
(S'at_x1'
p2175
tp2176
asg45
I0
sg46
(lp2177
sg48
S'move_1_1_2_1'
p2178
sbtp2179
(g109
g8
g12
g65
g18
g73
tp2180
tp2181
a((g2
g4
g6
g8
g10
g12
g16
g67
g18
g71
g20
g22
g26
tp2182
(g567
g533
tp2183
(g2
g6
g10
g14
g67
g24
g26
tp2184
tp2185
a((g2
g4
g109
g6
g16
g67
g18
g71
g22
g24
g73
tp2186
(g567
g1339
tp2187
(g4
g8
g14
g67
g24
g73
tp2188
tp2189
a((g2
g6
g8
g12
g67
g18
g71
g22
g26
tp2190
(g861
g446
g90
tp2191
(g2
g109
g8
g10
g16
g67
g18
g26
tp2192
tp2193
a((g2
g6
g8
g12
g65
g14
g16
g67
g22
g24
g26
tp2194
(g75
g533
tp2195
(g6
g8
g65
g14
g67
g20
g24
g26
tp2196
tp2197
a((g2
g4
g10
g12
g16
g67
g18
g71
g20
g26
g73
tp2198
(g1558
g616
tp2199
(g2
g10
g65
g16
g71
g20
g22
g73
tp2200
tp2201
a((g2
g109
g6
g10
g14
g16
g67
g18
g71
g20
g22
g24
g73
tp2202
(g654
g1373
tp2203
(g109
g12
g14
g16
g67
g18
g20
g26
tp2204
tp2205
a((g2
g109
g8
g14
g16
g67
g18
g22
g24
g26
tp2206
(g361
(istructures.domain
Action
p2207
(dp2208
g30
(lp2209
(S'at_x0'
p2210
tp2211
a(S'at_y0'
p2212
tp2213
asg36
(lp2214
(S'at_y1'
p2215
tp2216
asg40
(tsg41
(lp2217
(S'at_y0'
p2218
tp2219
asg45
I0
sg46
(lp2220
sg48
S'move_0_0_0_1'
p2221
sbtp2222
(g2
g8
g14
g16
g18
g20
g24
tp2223
tp2224
a((g2
g109
g6
g10
g12
g65
g67
g18
g71
g20
g22
g24
g73
tp2225
(g90
g654
tp2226
(g109
g6
g12
g16
g67
g18
g71
g20
g22
g24
tp2227
tp2228
a((g2
g109
g6
g12
g65
g16
g67
g18
g71
g20
g22
g26
g73
tp2229
(g243
tp2230
(g2
g6
g8
g12
g71
tp2231
tp2232
a((g2
g4
g109
g6
g8
g10
g12
g65
g67
g18
g71
g22
g26
g73
tp2233
(g111
tp2234
(g4
g6
g8
g10
g65
g16
g67
g18
g22
g26
g73
tp2235
tp2236
a((g6
g8
g12
g16
g67
g18
g71
g20
g22
g24
g26
tp2237
(g198
g1249
tp2238
(g4
g12
g16
g71
g20
g73
tp2239
tp2240
a((g109
g6
g12
g14
g67
g18
g71
g22
g24
tp2241
(g1373
g183
tp2242
(g109
g6
g12
g65
g14
g71
g26
tp2243
tp2244
a((g109
g8
g10
g14
g67
g18
g71
g20
g22
g24
g26
tp2245
(g232
tp2246
(g8
g16
g67
g18
g24
g26
tp2247
tp2248
a((g2
g4
g109
g8
g12
g16
g67
g18
g71
g20
g22
g24
g26
g73
tp2249
(g412
tp2250
(g2
g4
g6
g16
g18
g71
g22
g24
g73
tp2251
tp2252
a((g2
g109
g6
g10
g12
g65
g16
g18
g71
g20
g22
g73
tp2253
(g28
g533
tp2254
(g109
g6
g12
g16
g67
g24
tp2255
tp2256
a((g2
g4
g6
g8
g10
g65
g14
g16
g71
g20
g24
g73
tp2257
(g654
tp2258
(g2
g6
g8
g12
g71
g24
tp2259
tp2260
a((g2
g4
g6
g8
g10
g65
g16
g26
g73
tp2261
(g1680
g1558
g880
tp2262
(g2
g109
g8
g65
g24
g26
g73
tp2263
tp2264
a((g4
g109
g8
g10
g16
g67
g18
g71
g20
g24
g73
tp2265
(g1558
tp2266
(g16
g67
g71
g22
g24
g73
tp2267
tp2268
a((g2
g6
g10
g12
g16
g67
g71
g22
g24
g26
g73
tp2269
(g1339
tp2270
(g8
g10
g16
g67
g24
g73
tp2271
tp2272
a((g6
g10
g65
g14
g16
g67
g18
g71
g22
g24
g26
g73
tp2273
(g654
tp2274
(g6
g10
g12
g16
g67
g71
tp2275
tp2276
a((g2
g109
g6
g8
g12
g65
g14
g20
g22
g24
g26
g73
tp2277
(g641
(istructures.domain
Action
p2278
(dp2279
g30
(lp2280
(S'at_x2'
p2281
tp2282
a(S'at_y6'
p2283
tp2284
asg36
(lp2285
(S'at_x1'
p2286
tp2287
asg40
(tsg41
(lp2288
(S'at_x2'
p2289
tp2290
asg45
I0
sg46
(lp2291
sg48
S'move_2_6_1_6'
p2292
sbtp2293
(g2
g109
g6
g14
g16
g18
g22
g73
tp2294
tp2295
a((g6
g8
g10
g65
g14
g16
g71
g20
g22
g26
tp2296
(g641
g198
tp2297
(g6
g10
g14
g18
g73
tp2298
tp2299
a((g10
g65
g14
g71
g20
g22
g26
g73
tp2300
(g1736
tp2301
(g8
g65
g20
g73
tp2302
tp2303
a((g6
g8
g10
g12
g18
g20
g22
g24
g26
g73
tp2304
(g788
g616
tp2305
(g109
g65
g18
g20
g22
g24
g26
g73
tp2306
tp2307
a((g109
g6
g65
g14
g18
g20
g22
tp2308
((istructures.domain
Action
p2309
(dp2310
g30
(lp2311
(S'at_x0'
p2312
tp2313
a(S'at_y6'
p2314
tp2315
asg36
(lp2316
(S'at_y5'
p2317
tp2318
asg40
(tsg41
(lp2319
(S'at_y6'
p2320
tp2321
asg45
I0
sg46
(lp2322
sg48
S'move_0_6_0_5'
p2323
sbg769
(istructures.domain
Action
p2324
(dp2325
g30
(lp2326
(S'at_x0'
p2327
tp2328
a(S'at_y2'
p2329
tp2330
asg36
(lp2331
(S'at_y3'
p2332
tp2333
asg40
(tsg41
(lp2334
(S'at_y2'
p2335
tp2336
asg45
I0
sg46
(lp2337
sg48
S'move_0_2_0_3'
p2338
sbtp2339
(g4
g65
g67
g24
tp2340
tp2341
a((g2
g4
g109
g8
g10
g12
g14
g16
g18
g71
g22
g24
g26
g73
tp2342
(g361
g412
tp2343
(g6
g12
g20
g22
tp2344
tp2345
a((g2
g12
g67
g18
g20
g22
g24
g26
g73
tp2346
(g90
g1249
tp2347
(g2
g4
g16
g18
g20
g24
g73
tp2348
tp2349
a((g2
g4
g6
g10
g12
g65
g14
g16
g67
g71
g22
g24
g73
tp2350
(g75
g126
tp2351
(g4
g6
g12
g14
g16
g18
g71
g20
g22
tp2352
tp2353
a((g2
g109
g6
g8
g10
g12
g14
g16
g67
g18
g20
g24
g26
tp2354
(g262
tp2355
(g4
g6
g8
g10
g12
g14
g18
g20
g26
tp2356
tp2357
a((g4
g109
g6
g8
g10
g12
g71
g22
g24
g26
g73
tp2358
(g111
g654
tp2359
(g109
g8
g10
g12
g16
g22
g24
tp2360
tp2361
a((g2
g109
g8
g65
g16
g67
g18
g20
g22
g73
tp2362
(g480
(istructures.domain
Action
p2363
(dp2364
g30
(lp2365
(S'at_x1'
p2366
tp2367
a(S'at_y6'
p2368
tp2369
asg36
(lp2370
(S'at_y5'
p2371
tp2372
asg40
(tsg41
(lp2373
(S'at_y6'
p2374
tp2375
asg45
I0
sg46
(lp2376
sg48
S'move_1_6_1_5'
p2377
sbtp2378
(g2
g4
g65
g16
g18
g71
g22
g73
tp2379
tp2380
a((g2
g6
g8
g16
g67
g71
g20
g24
g26
g73
tp2381
(g164
g1268
tp2382
(g2
g6
g10
g12
g26
g73
tp2383
tp2384
a((g2
g4
g8
g10
g65
g16
g18
g22
g26
g73
tp2385
(g1905
g2164
tp2386
(g109
g8
g10
g12
g65
g73
tp2387
tp2388
a((g4
g109
g10
g12
g14
g16
g67
g71
g20
g22
g24
g26
g73
tp2389
(g1339
g1411
tp2390
(g2
g109
g8
g12
g14
g16
g20
g22
g24
g26
g73
tp2391
tp2392
a((g2
g109
g8
g10
g12
g65
g18
g71
g24
g73
tp2393
(g145
tp2394
(g18
g22
tp2395
tp2396
a((g2
g109
g12
g65
g16
g18
g71
g20
g22
g24
g73
tp2397
(g446
g1153
tp2398
(g10
g65
g14
g20
g24
tp2399
tp2400
a((g4
g109
g8
g10
g12
g14
g67
g18
g71
g20
g22
g24
g26
g73
tp2401
(g1411
tp2402
(g2
g8
g20
g22
g24
g26
g73
tp2403
tp2404
a((g4
g6
g8
g10
g12
g65
g71
g20
g24
tp2405
(g111
tp2406
(g6
g8
g65
g16
g24
tp2407
tp2408
a((g109
g6
g10
g65
g14
g16
g71
g20
g24
g26
tp2409
(g164
g145
g2324
tp2410
(g109
g6
g12
g65
g14
g22
g24
g26
tp2411
tp2412
a((g2
g6
g8
g10
g65
g16
g67
g18
g20
g22
g24
g26
tp2413
(g198
g922
tp2414
(g18
g71
g20
g24
g73
tp2415
tp2416
a((g2
g4
g6
g8
g10
g12
g16
g18
g71
g20
g22
g26
g73
tp2417
(g533
g183
tp2418
(g4
g6
g8
g65
g18
g20
g24
g26
tp2419
tp2420
a((g2
g6
g8
g10
g12
g65
g14
g18
g71
g22
g24
g73
tp2421
(g28
g232
tp2422
(g16
g67
g71
g22
g24
tp2423
tp2424
a((g2
g109
g6
g10
g12
g65
g14
g71
g22
g24
g73
tp2425
(g75
g1736
tp2426
(g109
g6
g8
g10
g65
g20
g73
tp2427
tp2428
a((g2
g4
g109
g6
g8
g10
g14
g16
g67
g18
g71
g24
g73
tp2429
(g376
g183
tp2430
(g6
g65
g16
g67
g22
g24
tp2431
tp2432
a((g2
g4
g109
g6
g8
g14
g67
g18
g71
g22
g24
g73
tp2433
(g361
g601
tp2434
(g2
g109
g8
g14
g67
g20
g24
g26
tp2435
tp2436
a((g4
g109
g8
g10
g12
g16
g67
g18
g20
g26
g73
tp2437
(g1316
tp2438
(g109
g12
g67
g71
g20
g26
tp2439
tp2440
a((g2
g4
g109
g8
g10
g12
g16
g71
g20
g73
tp2441
(g641
g1558
g616
tp2442
(g2
g109
g8
g65
g16
g71
g22
g73
tp2443
tp2444
a((g2
g4
g109
g6
g12
g65
g71
g20
tp2445
(g586
g601
tp2446
(g4
g6
g20
g26
g73
tp2447
tp2448
a((g109
g12
g65
g14
g16
g18
g22
g24
g26
g73
tp2449
((istructures.domain
Action
p2450
(dp2451
g30
(lp2452
(S'at_x3'
p2453
tp2454
a(S'at_y6'
p2455
tp2456
asg36
(lp2457
(S'at_x4'
p2458
tp2459
asg40
(tsg41
(lp2460
(S'at_x3'
p2461
tp2462
asg45
I0
sg46
(lp2463
sg48
S'move_3_6_4_6'
p2464
sbg480
tp2465
(g12
g65
g14
g16
g71
g22
g24
tp2466
tp2467
a((g2
g109
g6
g8
g12
g16
g67
g20
g24
g26
g73
tp2468
(g262
g50
tp2469
(g2
g4
g65
g67
g20
g24
g26
g73
tp2470
tp2471
a((g2
g109
g8
g65
g14
g16
g18
g20
g22
g26
g73
tp2472
(g1138
g654
tp2473
(g2
g109
g8
g12
g65
g14
g16
g24
tp2474
tp2475
a((g109
g6
g8
g10
g67
g18
g20
g22
g24
g26
g73
tp2476
(g654
g1411
tp2477
(g2
g109
g6
g12
g67
g22
tp2478
tp2479
a((g2
g4
g109
g12
g65
g14
g20
g24
tp2480
((istructures.domain
Action
p2481
(dp2482
g30
(lp2483
(S'at_x0'
p2484
tp2485
a(S'at_y3'
p2486
tp2487
asg36
(lp2488
(S'at_x1'
p2489
tp2490
asg40
(tsg41
(lp2491
(S'at_x0'
p2492
tp2493
asg45
I0
sg46
(lp2494
sg48
S'move_0_3_1_3'
p2495
sbtp2496
(g2
g109
g12
g65
g16
g20
g24
tp2497
tp2498
a((g2
g4
g109
g6
g10
g12
g65
g14
g20
g22
g24
g26
tp2499
(g111
tp2500
(g2
g4
g6
g65
g14
g16
g22
g26
tp2501
tp2502
a((g2
g6
g10
g12
g65
g14
g16
g71
g20
g22
g26
tp2503
(g861
g514
g1249
tp2504
(g4
g109
g10
g14
g16
g18
g26
tp2505
tp2506
a((g2
g4
g109
g6
g10
g14
g16
g67
g18
g71
g22
g24
g26
g73
tp2507
(g183
tp2508
(g2
g109
g6
g10
g65
g14
g67
g22
g26
g73
tp2509
tp2510
a((g2
g4
g6
g8
g12
g65
g67
g18
g24
g26
tp2511
(g145
g671
tp2512
(g4
g6
g8
g10
g12
g67
g22
tp2513
tp2514
a((g2
g4
g8
g12
g67
g18
g71
g24
g73
tp2515
((istructures.domain
Action
p2516
(dp2517
g30
(lp2518
(S'at_x5'
p2519
tp2520
a(S'at_y0'
p2521
tp2522
asg36
(lp2523
(S'at_x6'
p2524
tp2525
asg40
(tsg41
(lp2526
(S'at_x5'
p2527
tp2528
asg45
I0
sg46
(lp2529
sg48
S'move_5_0_6_0'
p2530
sbtp2531
(g2
g4
g10
g67
g24
g73
tp2532
tp2533
a((g4
g6
g8
g10
g12
g14
g16
g67
g71
g26
g73
tp2534
(g861
g376
g262
tp2535
(g4
g8
g10
g67
g22
g26
g73
tp2536
tp2537
a((g109
g6
g65
g16
g67
g71
g22
g26
tp2538
(g1339
g198
g1080
tp2539
(g6
g12
g16
g22
g26
tp2540
tp2541
a((g2
g109
g6
g8
g65
g14
g67
g18
g71
g20
g22
g24
g73
tp2542
(g654
g90
tp2543
(g2
g109
g6
g14
g16
g71
g20
g24
tp2544
tp2545
a((g2
g4
g8
g12
g65
g16
g18
g71
g22
g73
tp2546
(g601
tp2547
(g65
g18
g22
g26
tp2548
tp2549
a((g4
g6
g10
g12
g65
g14
g67
g20
tp2550
(g427
tp2551
(g109
g6
g10
g20
tp2552
tp2553
a((g2
g4
g6
g8
g10
g14
g16
g67
g20
g22
g24
g73
tp2554
(g601
tp2555
(g4
g8
g14
g67
g26
tp2556
tp2557
a((g2
g109
g6
g8
g16
g67
g18
g71
g24
g73
tp2558
(g834
tp2559
(g2
g6
g8
g10
g16
g67
g24
g73
tp2560
tp2561
a((g4
g109
g8
g10
g12
g65
g16
g67
g18
g22
g24
g26
g73
tp2562
(g480
g75
tp2563
(g4
g109
g10
g12
g65
g16
g71
g20
g22
tp2564
tp2565
a((g4
g109
g6
g8
g65
g14
g16
g20
g22
g73
tp2566
(g164
g601
tp2567
(g4
g109
g12
g65
g26
tp2568
tp2569
a((g6
g8
g12
g65
g16
g18
g71
g20
g22
tp2570
(g1373
g495
tp2571
(g8
g65
g67
g71
g20
g22
g26
tp2572
tp2573
a((g2
g4
g109
g6
g10
g12
g65
g16
g67
g18
g71
g20
g22
g24
g26
tp2574
(g586
g164
tp2575
(g4
g10
g12
g67
g71
g22
g73
tp2576
tp2577
a((g2
g4
g109
g10
g65
g14
g16
g67
g18
g22
g26
g73
tp2578
(g243
g412
tp2579
(g4
g6
g8
g10
g65
g16
g67
g22
g26
tp2580
tp2581
a((g4
g109
g8
g10
g12
g65
g67
g18
g71
g20
g22
g26
g73
tp2582
(g111
g412
tp2583
(g4
g6
g10
g16
g20
g26
tp2584
tp2585
a((g109
g6
g10
g12
g65
g14
g67
g18
g20
g22
g26
tp2586
(g90
tp2587
(g6
g14
g16
g67
g22
g26
tp2588
tp2589
a((g4
g109
g6
g8
g10
g12
g65
g14
g16
g67
g20
g22
g26
g73
tp2590
(g533
tp2591
(g109
g8
g65
g14
g16
g67
g24
g73
tp2592
tp2593
a((g2
g4
g6
g8
g12
g67
g18
g20
g22
g24
g73
tp2594
(g111
tp2595
(g16
g22
tp2596
tp2597
a((g109
g10
g12
g16
g67
g18
g20
g73
tp2598
(g243
tp2599
(g109
g8
g10
g12
g16
g67
g20
tp2600
tp2601
a((g2
g4
g6
g10
g12
g65
g18
g22
g24
g26
g73
tp2602
(g922
(istructures.domain
Action
p2603
(dp2604
g30
(lp2605
(S'at_x3'
p2606
tp2607
a(S'at_y7'
p2608
tp2609
asg36
(lp2610
(S'at_x4'
p2611
tp2612
asg40
(tsg41
(lp2613
(S'at_x3'
p2614
tp2615
asg45
I0
sg46
(lp2616
sg48
S'move_3_7_4_7'
p2617
sbtp2618
(g6
g8
g65
g71
g24
g26
tp2619
tp2620
a((g109
g6
g10
g12
g65
g14
g67
g18
g71
g20
g22
g26
g73
tp2621
(g533
g1172
tp2622
(g2
g109
g12
g65
g14
g71
g20
g24
g26
tp2623
tp2624
a((g2
g109
g12
g65
g16
g67
g20
g24
g73
tp2625
(g145
g567
tp2626
(g2
g14
g67
g22
g73
tp2627
tp2628
a((g2
g4
g109
g8
g10
g12
g14
g67
g18
g20
g22
g24
g26
g73
tp2629
(g111
g922
tp2630
(g109
g8
g14
g16
g18
g71
g22
g24
g73
tp2631
tp2632
a((g2
g4
g6
g12
g65
g14
g67
g18
g20
g24
g26
tp2633
(g427
g671
tp2634
(g109
g6
g10
g12
g65
g20
g26
tp2635
tp2636
a((g2
g4
g6
g12
g65
g16
g67
g18
g71
g20
g73
tp2637
(g1339
g671
tp2638
(g4
g8
g10
g16
g18
g20
g73
tp2639
tp2640
a((g2
g4
g109
g6
g12
g14
g18
g71
g22
g26
tp2641
(g533
tp2642
(g4
g12
g18
g24
tp2643
tp2644
a((g2
g4
g8
g10
g12
g14
g67
g20
g22
g24
g73
tp2645
(g126
tp2646
(g2
g4
g8
g10
g14
g18
g20
g22
g24
tp2647
tp2648
a((g2
g109
g6
g8
g10
g12
g65
g14
g16
g71
g20
g22
g24
g26
tp2649
(g198
g1249
tp2650
(g4
g10
g12
g65
g71
g20
g26
g73
tp2651
tp2652
a((g2
g109
g6
g8
g10
g16
g67
g18
g71
g20
g22
g26
tp2653
(g567
g183
tp2654
(g2
g8
g65
g14
g18
tp2655
tp2656
a((g2
g109
g12
g65
g18
g24
g26
g73
tp2657
(g972
g2603
tp2658
(g2
g6
g8
g65
g24
tp2659
tp2660
a((g2
g109
g8
g10
g16
g67
g18
g20
g26
g73
tp2661
(g567
g1080
tp2662
(g2
g8
g10
g12
g14
tp2663
tp2664
a((g2
g109
g6
g10
g65
g14
g16
g67
g73
tp2665
(g338
tp2666
(g4
g10
g14
g73
tp2667
tp2668
a((g6
g14
g16
g67
g18
g22
g24
g73
tp2669
(g164
g703
tp2670
(g12
g14
g22
g26
g73
tp2671
tp2672
a((g2
g109
g6
g8
g10
g65
g14
g16
g67
g22
g26
g73
tp2673
(g164
g126
tp2674
(g6
g12
g65
g18
g26
g73
tp2675
tp2676
a((g2
g109
g8
g12
g65
g14
g16
g20
g22
g26
g73
tp2677
(g480
tp2678
(g71
g73
tp2679
tp2680
a((g6
g8
g10
g12
g14
g16
g18
g71
g20
g24
g26
g73
tp2681
(g145
tp2682
(g6
g10
g14
g16
g18
g71
g20
g22
tp2683
tp2684
a((g6
g10
g12
g14
g16
g67
g18
g71
g20
g22
g24
g73
tp2685
(g1339
g703
tp2686
(g6
g8
g10
g12
g14
g16
g20
g22
g24
g26
g73
tp2687
tp2688
a((g4
g109
g6
g8
g14
g16
g67
g18
g71
g20
g22
tp2689
(g446
g1411
tp2690
(g2
g6
g8
g22
tp2691
tp2692
a((g4
g109
g8
g10
g65
g16
g67
g24
g73
tp2693
(g654
g567
tp2694
(g4
g8
g10
g12
g14
tp2695
tp2696
a((g2
g4
g16
g18
g71
g20
g22
g26
tp2697
(g1010
(istructures.domain
Action
p2698
(dp2699
g30
(lp2700
(S'at_x5'
p2701
tp2702
a(S'at_y6'
p2703
tp2704
asg36
(lp2705
(S'at_y7'
p2706
tp2707
asg40
(tsg41
(lp2708
(S'at_y6'
p2709
tp2710
asg45
I0
sg46
(lp2711
sg48
S'move_5_6_5_7'
p2712
sbtp2713
(g2
g6
g18
g71
tp2714
tp2715
a((g2
g4
g109
g6
g8
g12
g16
g67
g18
g20
g22
g24
g73
tp2716
(g567
g601
tp2717
(g109
g12
g14
g67
g24
g26
tp2718
tp2719
a((g6
g10
g12
g16
g18
g71
g20
g24
g26
g73
tp2720
(g183
tp2721
(g6
g10
g12
g65
g18
g71
g26
tp2722
tp2723
a((g2
g6
g10
g12
g16
g67
g18
g71
g22
g24
g26
tp2724
(g861
g281
tp2725
(g2
g109
g18
g24
g73
tp2726
tp2727
a((g4
g6
g8
g10
g12
g65
g16
g67
g18
g24
g73
tp2728
(g1905
(istructures.domain
Action
p2729
(dp2730
g30
(lp2731
(S'at_x1'
p2732
tp2733
a(S'at_y1'
p2734
tp2735
asg36
(lp2736
(S'at_y2'
p2737
tp2738
asg40
(tsg41
(lp2739
(S'at_y1'
p2740
tp2741
asg45
I0
sg46
(lp2742
sg48
S'move_1_1_1_2'
p2743
sbtp2744
(g109
g6
g8
g65
g20
g24
g73
tp2745
tp2746
a((g4
g109
g10
g14
g18
g22
g24
g26
g73
tp2747
(g1527
tp2748
(g4
g109
g10
g16
g24
tp2749
tp2750
a((g4
g109
g6
g8
g10
g12
g65
g67
g18
g22
g24
g26
tp2751
(g480
g111
tp2752
(g4
g109
g6
g16
g71
g26
tp2753
tp2754
a((g2
g4
g6
g10
g14
g16
g71
g20
g22
g24
g26
g73
tp2755
(g514
g1621
tp2756
(g2
g4
g10
g18
g20
g26
tp2757
tp2758
a((g6
g8
g10
g12
g65
g14
g16
g18
g71
g22
g24
g26
tp2759
(g1354
tp2760
(g4
g8
g65
g14
g16
g71
g24
g26
tp2761
tp2762
a((g2
g4
g6
g8
g16
g67
g18
g71
g22
g73
tp2763
(g446
g480
tp2764
(g2
g4
g10
g16
g67
g71
tp2765
tp2766
a((g2
g4
g109
g6
g8
g10
g12
g65
g67
g18
g71
g22
g26
tp2767
(g361
g111
tp2768
(g4
g109
g8
g16
g67
g20
g22
g26
tp2769
tp2770
a((g2
g109
g6
g8
g12
g14
g16
g67
g71
g20
g22
g24
g73
tp2771
(g183
tp2772
(g109
g6
g8
g65
g14
g16
g67
g20
g22
g24
g73
tp2773
tp2774
a((g2
g4
g8
g10
g12
g65
g14
g16
g67
g18
g71
g24
g26
g73
tp2775
(g427
g412
tp2776
(g6
g12
g16
g24
g26
g73
tp2777
tp2778
a((g4
g109
g6
g10
g65
g16
g18
g20
g24
g73
tp2779
(g1558
(istructures.domain
Action
p2780
(dp2781
g30
(lp2782
(S'at_x1'
p2783
tp2784
a(S'at_y1'
p2785
tp2786
asg36
(lp2787
(S'at_y0'
p2788
tp2789
asg40
(tsg41
(lp2790
(S'at_y1'
p2791
tp2792
asg45
I0
sg46
(lp2793
sg48
S'move_1_1_1_0'
p2794
sbtp2795
(g109
g6
g10
g65
g67
g22
g73
tp2796
tp2797
a((g2
g4
g109
g6
g10
g12
g65
g16
g67
g71
g20
g22
g73
tp2798
(g126
tp2799
(g6
g10
g65
g16
g18
g20
g22
g73
tp2800
tp2801
a((g2
g4
g10
g12
g65
g14
g16
g18
g20
g22
g26
tp2802
(g427
tp2803
(g109
g12
g65
g14
g18
g26
tp2804
tp2805
a((g2
g4
g10
g12
g14
g67
g18
g71
g20
g24
g26
tp2806
(g427
g616
tp2807
(g2
g109
g10
g65
g18
g71
g24
tp2808
tp2809
a((g2
g4
g109
g8
g10
g65
g14
g67
g71
g20
g22
g26
g73
tp2810
(g412
g1080
tp2811
(g6
g8
g12
g14
g67
g71
g20
g22
tp2812
tp2813
a((g109
g8
g10
g12
g16
g18
g71
g20
g22
g24
g26
g73
tp2814
(g495
g50
tp2815
(g10
g12
g65
g16
g67
g22
g24
g26
g73
tp2816
tp2817
a((g4
g6
g8
g10
g12
g14
g22
g24
g26
g73
tp2818
(g1411
tp2819
(g2
g73
tp2820
tp2821
a((g2
g4
g12
g16
g18
g22
g24
g26
g73
tp2822
(g28
g1010
tp2823
(g109
g12
g16
g67
g24
tp2824
tp2825
a((g2
g4
g10
g12
g65
g14
g16
g67
g71
g20
g24
g26
g73
tp2826
(g427
g1339
tp2827
(g2
g109
g8
g10
g65
g16
g67
g20
g73
tp2828
tp2829
a((g4
g6
g8
g10
g65
g14
g16
g67
g71
g22
g26
g73
tp2830
(g427
g126
tp2831
(g109
g6
g10
g14
g18
g71
g22
tp2832
tp2833
a((g2
g4
g109
g6
g65
g16
g18
g20
g24
g73
tp2834
(g671
g922
tp2835
(g4
g6
g16
g71
g20
g24
g73
tp2836
tp2837
a((g2
g4
g109
g6
g8
g10
g65
g14
g16
g71
g20
g26
tp2838
(g164
g586
tp2839
(g8
g14
g71
g20
g26
g73
tp2840
tp2841
a((g6
g12
g16
g67
g71
g20
g73
tp2842
(g183
g1268
tp2843
(g6
g10
g65
g16
g20
g73
tp2844
tp2845
a((g6
g10
g12
g14
g16
g18
g20
g22
g24
g26
g73
tp2846
(g922
g1736
tp2847
(g8
g14
g18
g20
g73
tp2848
tp2849
a((g4
g109
g6
g10
g12
g65
g14
g16
g67
g22
g26
tp2850
(g586
g1411
tp2851
(g2
g4
g6
g65
g22
g26
g73
tp2852
tp2853
a((g2
g4
g109
g8
g10
g12
g14
g18
g20
g22
g26
g73
tp2854
(g28
g232
tp2855
(g2
g8
g16
g67
g22
tp2856
tp2857
a((g4
g10
g12
g65
g22
g24
g26
tp2858
(g1411
(istructures.domain
Action
p2859
(dp2860
g30
(lp2861
(S'at_x2'
p2862
tp2863
a(S'at_y5'
p2864
tp2865
asg36
(lp2866
(S'at_y6'
p2867
tp2868
asg40
(tsg41
(lp2869
(S'at_y5'
p2870
tp2871
asg45
I0
sg46
(lp2872
sg48
S'move_2_5_2_6'
p2873
sbtp2874
(g2
g109
g12
g65
tp2875
tp2876
a((g2
g4
g109
g14
g16
g67
g18
g20
g26
g73
tp2877
(g1508
tp2878
(g4
g109
g12
g14
g67
g18
g26
tp2879
tp2880
a((g109
g10
g12
g65
g16
g67
g71
g20
g22
g24
g26
g73
tp2881
(g1411
g972
tp2882
(g2
g6
g65
g71
g20
g24
g26
g73
tp2883
tp2884
a((g2
g4
g109
g67
g18
g71
g22
g26
g73
tp2885
(g361
g126
g1736
tp2886
(g4
g8
g18
g20
g22
tp2887
tp2888
a((g2
g4
g109
g8
g65
g16
g67
g18
g71
g20
g24
g26
g73
tp2889
(g654
(istructures.domain
Action
p2890
(dp2891
g30
(lp2892
(S'at_x2'
p2893
tp2894
a(S'at_y5'
p2895
tp2896
asg36
(lp2897
(S'at_y4'
p2898
tp2899
asg40
(tsg41
(lp2900
(S'at_y5'
p2901
tp2902
asg45
I0
sg46
(lp2903
sg48
S'move_2_5_2_4'
p2904
sbtp2905
(g2
g12
g65
g67
g71
g20
g22
g24
g26
tp2906
tp2907
a((g2
g4
g109
g6
g10
g65
g14
g67
g18
g71
g24
g26
tp2908
(g232
g361
tp2909
(g6
g10
g16
g67
g71
g20
g24
g26
tp2910
tp2911
a((g2
g4
g8
g12
g14
g16
g18
g71
g20
g22
g24
g73
tp2912
(g427
g412
tp2913
(g6
g8
g14
g18
g71
g22
g24
g73
tp2914
tp2915
a((g2
g4
g109
g6
g8
g10
g12
g14
g16
g18
g71
g24
tp2916
(g361
g145
tp2917
(g2
g109
g8
g10
g14
g16
g71
g20
g22
tp2918
tp2919
a((g2
g4
g109
g6
g14
g16
g18
g71
g20
g22
g24
g26
tp2920
(g1736
g198
tp2921
(g2
g14
g16
g18
g24
g26
g73
tp2922
tp2923
a((g109
g6
g10
g65
g14
g16
g18
g71
g20
g22
g24
g26
tp2924
(g164
g338
tp2925
(g4
g12
g65
g14
g71
g20
g24
tp2926
tp2927
a((g2
g8
g10
g12
g14
g67
g71
g20
g26
g73
tp2928
(g90
tp2929
(g8
g10
g14
g16
g67
g26
g73
tp2930
tp2931
a((g109
g6
g10
g12
g65
g14
g16
g67
g18
g71
g20
g22
g24
g73
tp2932
(g1373
tp2933
(g109
g65
g16
g67
g18
g20
g22
g26
tp2934
tp2935
a((g2
g4
g109
g8
g10
g65
g14
g16
g67
g18
g71
g20
g24
tp2936
(g754
tp2937
(g2
g4
g8
g67
g22
tp2938
tp2939
a((g2
g6
g8
g12
g65
g14
g18
g71
g20
g73
tp2940
(g945
g671
tp2941
(g6
g8
g10
g12
g65
g18
g71
g24
tp2942
tp2943
a((g2
g6
g12
g16
g67
g18
g20
g24
g26
g73
tp2944
(g1680
tp2945
(g2
g109
g12
g67
g18
g26
g73
tp2946
tp2947
a((g2
g6
g8
g12
g14
g16
g67
g71
g20
g26
g73
tp2948
(g126
tp2949
(g8
g14
g16
g18
g71
g20
tp2950
tp2951
a((g2
g4
g109
g8
g10
g65
g14
g18
g71
g20
g22
g26
tp2952
(g28
tp2953
(g8
g10
g65
g67
g71
tp2954
tp2955
a((g109
g6
g10
g12
g65
g14
g16
g18
g71
g24
g26
tp2956
(g2149
g323
tp2957
(g6
g10
g12
g65
g16
g24
g73
tp2958
tp2959
a((g2
g4
g109
g10
g65
g16
g67
g20
g22
g24
g73
tp2960
(g567
g601
tp2961
(g2
g109
g10
g65
g14
g20
g24
g26
tp2962
tp2963
a((g2
g4
g6
g8
g10
g16
g67
g71
g20
g22
g26
g73
tp2964
(g641
g567
tp2965
(g6
g8
g10
g14
g18
g71
g73
tp2966
tp2967
a((g2
g109
g8
g10
g12
g65
g14
g16
g67
g18
g71
g22
g73
tp2968
(g262
tp2969
(g4
g8
g10
g65
g16
g18
g71
g22
g73
tp2970
tp2971
a((g2
g109
g6
g10
g12
g65
g14
g16
g18
g71
g20
g22
g24
tp2972
(g28
g1339
tp2973
(g8
g10
g65
g16
g67
g20
tp2974
tp2975
a((g4
g109
g6
g8
g10
g12
g65
g14
g18
g20
g24
g73
tp2976
(g145
tp2977
(g4
g109
g6
g10
g12
g22
tp2978
tp2979
a((g2
g109
g8
g10
g12
g14
g18
g71
g20
g24
g26
g73
tp2980
(g1527
g412
tp2981
(g2
g6
g8
g10
g12
g16
g24
g26
g73
tp2982
tp2983
a((g4
g6
g8
g12
g65
g14
g16
g18
g71
g22
g26
g73
tp2984
(g533
g75
tp2985
(g4
g8
g12
g14
g18
g20
g26
g73
tp2986
tp2987
a((g4
g6
g8
g10
g14
g16
g71
g22
g24
g26
tp2988
(g183
tp2989
(g10
g65
g14
g16
g71
g22
g26
tp2990
tp2991
a((g2
g109
g6
g8
g10
g12
g16
g18
g71
g20
g22
g24
g26
tp2992
(g1354
tp2993
(g4
g6
g10
g18
g20
g26
tp2994
tp2995
a((g2
g109
g8
g12
g65
g14
g67
g18
g20
g22
g24
tp2996
(g412
tp2997
(g6
g12
g65
g14
g67
tp2998
tp2999
a((g109
g6
g10
g12
g65
g18
g71
g22
g24
tp3000
(g300
g2278
tp3001
(g10
g65
g16
g71
g20
g22
g24
tp3002
tp3003
a((g2
g4
g109
g10
g12
g14
g16
g67
g20
g24
g26
tp3004
(g145
g815
tp3005
(g6
g12
g16
g22
tp3006
tp3007
a((g2
g4
g8
g10
g12
g65
g14
g67
g18
g71
g20
g22
g24
g26
g73
tp3008
(g427
g1354
tp3009
(g2
g4
g109
g8
g12
g14
g67
g18
g24
g73
tp3010
tp3011
a((g2
g109
g6
g10
g12
g67
g71
g20
g24
g26
g73
tp3012
(g90
g338
tp3013
(g2
g4
g6
g10
g16
g67
g20
g73
tp3014
tp3015
a((g2
g6
g8
g10
g12
g14
g18
g71
g22
g26
g73
tp3016
(g183
tp3017
(g2
g10
g12
g65
g14
g71
g26
tp3018
tp3019
a((g2
g109
g6
g8
g12
g16
g18
g22
g26
g73
tp3020
(g480
g533
tp3021
(g2
g12
g18
g71
g24
g73
tp3022
tp3023
a((g2
g4
g6
g10
g65
g16
g67
g18
g20
g22
g24
g26
g73
tp3024
(g922
g243
tp3025
(g2
g4
g8
g67
g71
tp3026
tp3027
a((g6
g8
g10
g12
g14
g67
g71
g20
g22
g24
g26
tp3028
(g198
g232
tp3029
(g6
g10
g16
g67
g22
g73
tp3030
tp3031
a((g2
g8
g10
g12
g65
g14
g67
g71
g22
g24
g73
tp3032
(g75
tp3033
(g2
g8
g71
g20
g22
tp3034
tp3035
a((g2
g109
g12
g14
g16
g67
g22
g24
g26
g73
tp3036
(g50
tp3037
(g2
g109
g12
g65
g16
g67
g22
g24
tp3038
tp3039
a((g2
g6
g8
g10
g65
g16
g18
g20
g22
g73
tp3040
(g880
tp3041
(g10
g16
g20
g24
tp3042
tp3043
a((g2
g109
g8
g12
g16
g67
g18
g22
g24
g26
tp3044
(g75
g262
tp3045
(g2
g4
g8
g67
g18
g20
g22
tp3046
tp3047
a((g4
g6
g12
g65
g14
g16
g71
g22
g24
g73
tp3048
(g861
g2149
g601
tp3049
(g4
g109
g8
g14
g22
g24
g26
g73
tp3050
tp3051
a((g2
g109
g6
g8
g12
g65
g14
g18
g71
g20
g22
g26
g73
tp3052
(g28
g945
tp3053
(g2
g6
g8
g12
g65
g14
g67
g22
g24
g73
tp3054
tp3055
a((g4
g109
g10
g12
g65
g14
g16
g67
g18
g71
g22
g26
g73
tp3056
(g300
tp3057
(g109
g12
g65
g16
g67
g71
g20
g22
g26
tp3058
tp3059
a((g2
g4
g109
g6
g8
g10
g65
g14
g16
g18
g20
g22
g26
g73
tp3060
(g28
g1138
tp3061
(g2
g4
g109
g6
g8
g16
g67
g24
g26
g73
tp3062
tp3063
a((g4
g8
g10
g67
g71
g22
g24
tp3064
(g198
g1411
tp3065
(g2
g4
g22
g24
g73
tp3066
tp3067
a((g2
g4
g6
g8
g65
g14
g71
g20
g22
g24
g26
g73
tp3068
(g654
g198
tp3069
(g2
g6
g12
g65
g71
g24
g26
g73
tp3070
tp3071
a((g2
g6
g65
g18
g71
g26
tp3072
(g861
g28
(istructures.domain
Action
p3073
(dp3074
g30
(lp3075
(S'at_x7'
p3076
tp3077
a(S'at_y0'
p3078
tp3079
asg36
(lp3080
(S'at_x6'
p3081
tp3082
asg40
(tsg41
(lp3083
(S'at_x7'
p3084
tp3085
asg45
I0
sg46
(lp3086
sg48
S'move_7_0_6_0'
p3087
sbtp3088
(g109
g10
g65
g67
g71
tp3089
tp3090
a((g2
g109
g6
g8
g10
g12
g14
g67
g20
g24
tp3091
(g323
tp3092
(g10
g12
g67
g20
g73
tp3093
tp3094
a((g2
g4
g109
g8
g65
g14
g67
g18
g71
g20
g22
g24
g26
g73
tp3095
(g654
g111
tp3096
(g2
g4
g109
g65
g14
g16
g18
g71
tp3097
tp3098
a((g2
g4
g109
g6
g65
g16
g71
g20
g22
g24
g26
tp3099
(g548
(istructures.domain
Action
p3100
(dp3101
g30
(lp3102
(S'at_x7'
p3103
tp3104
a(S'at_y2'
p3105
tp3106
asg36
(lp3107
(S'at_y1'
p3108
tp3109
asg40
(tsg41
(lp3110
(S'at_y2'
p3111
tp3112
asg45
I0
sg46
(lp3113
sg48
S'move_7_2_7_1'
p3114
sbtp3115
(g2
g109
g6
g14
g18
g24
g26
tp3116
tp3117
a((g4
g109
g6
g65
g14
g16
g18
g71
g20
g22
g24
g26
g73
tp3118
(g164
g495
tp3119
(g4
g12
g65
g67
g71
g24
g73
tp3120
tp3121
a((g109
g6
g10
g12
g16
g67
g18
g22
g26
g73
tp3122
(g1230
tp3123
(g109
g12
g16
g67
g18
g71
g26
tp3124
tp3125
a((g2
g4
g8
g10
g65
g14
g16
g71
g20
g22
g24
g26
g73
tp3126
(g427
g1354
tp3127
(g2
g4
g109
g8
g10
g65
tp3128
tp3129
a((g2
g109
g6
g65
g14
g67
g18
g22
g24
g26
g73
tp3130
(g671
g922
tp3131
(g109
g71
g22
g24
g73
tp3132
tp3133
a((g2
g4
g109
g6
g8
g10
g65
g14
g67
g18
g20
g22
g24
tp3134
(g395
tp3135
(g2
g109
g6
g8
g65
g14
g67
g18
g24
g26
tp3136
tp3137
a((g4
g109
g8
g10
g65
g14
g16
g67
g18
g71
g20
g24
g73
tp3138
(g654
tp3139
(g4
g10
g12
g16
g67
tp3140
tp3141
a((g2
g6
g8
g14
g16
g22
g24
g73
tp3142
(g1680
g1354
tp3143
(g4
g109
g8
g14
g16
g24
tp3144
tp3145
a((g2
g4
g109
g12
g65
g14
g67
g71
g22
g24
g73
tp3146
(g446
g601
tp3147
(g2
g4
g109
g10
g12
g14
g26
tp3148
tp3149
a((g4
g109
g6
g12
g65
g18
g22
tp3150
(g703
(istructures.domain
Action
p3151
(dp3152
g30
(lp3153
(S'at_x2'
p3154
tp3155
a(S'at_y1'
p3156
tp3157
asg36
(lp3158
(S'at_y2'
p3159
tp3160
asg40
(tsg41
(lp3161
(S'at_y1'
p3162
tp3163
asg45
I0
sg46
(lp3164
sg48
S'move_2_1_2_2'
p3165
sbtp3166
(g4
g109
g20
g22
g26
tp3167
tp3168
a((g2
g4
g6
g8
g12
g65
g14
g16
g67
g71
g20
g22
tp3169
(g533
g586
tp3170
(g4
g6
g8
g65
g14
g16
g67
g71
g20
g24
g73
tp3171
tp3172
a((g2
g4
g65
g14
g16
g18
g71
g22
g24
g73
tp3173
((istructures.domain
Action
p3174
(dp3175
g30
(lp3176
(S'at_x3'
p3177
tp3178
a(S'at_y5'
p3179
tp3180
asg36
(lp3181
(S'at_x4'
p3182
tp3183
asg40
(tsg41
(lp3184
(S'at_x3'
p3185
tp3186
asg45
I0
sg46
(lp3187
sg48
S'move_3_5_4_5'
p3188
sbg1373
tp3189
(g4
g8
g14
g71
g22
g24
g26
tp3190
tp3191
a((g4
g109
g10
g12
g14
g16
g71
g22
g24
g26
tp3192
(g1411
g2149
tp3193
(g2
g109
g8
g14
g22
tp3194
tp3195
a((g2
g6
g8
g12
g65
g14
g16
g67
g18
g22
g26
g73
tp3196
(g480
g361
tp3197
(g2
g65
g71
g20
g22
g73
tp3198
tp3199
a((g4
g109
g8
g10
g16
g67
g71
g20
tp3200
(g567
g376
tp3201
(g109
g14
g67
g71
g20
g22
tp3202
tp3203
a((g2
g4
g109
g6
g12
g65
g14
g67
g71
g22
g24
g73
tp3204
(g446
tp3205
(g4
g109
g10
g12
g65
g73
tp3206
tp3207
a((g2
g4
g6
g12
g65
g14
g16
g18
g20
g22
g24
g73
tp3208
(g671
g922
tp3209
(g4
g12
g65
g14
g16
g18
g71
g20
tp3210
tp3211
a((g2
g109
g6
g8
g10
g12
g65
g16
g67
g18
g71
g20
g22
g26
tp3212
(g198
tp3213
(g2
g6
g10
g65
g18
g20
g22
g73
tp3214
tp3215
a((g2
g4
g109
g6
g8
g10
g12
g16
g67
g18
g71
g24
g26
g73
tp3216
(g567
g183
tp3217
(g6
g8
g65
g14
g67
g18
g71
g26
tp3218
tp3219
a((g109
g10
g12
g65
g14
g18
g24
g26
tp3220
(g815
tp3221
(g6
g12
g65
g24
tp3222
tp3223
a((g4
g8
g12
g14
g20
g22
g24
g26
g73
tp3224
(g480
(istructures.domain
Action
p3225
(dp3226
g30
(lp3227
(S'at_x0'
p3228
tp3229
a(S'at_y4'
p3230
tp3231
asg36
(lp3232
(S'at_x1'
p3233
tp3234
asg40
(tsg41
(lp3235
(S'at_x0'
p3236
tp3237
asg45
I0
sg46
(lp3238
sg48
S'move_0_4_1_4'
p3239
sbtp3240
(g12
g16
g71
g26
g73
tp3241
tp3242
a((g4
g109
g6
g8
g65
g14
g67
g20
g22
g26
tp3243
(g480
g232
g164
tp3244
(g109
g12
g71
g20
g22
tp3245
tp3246
a((g6
g8
g10
g16
g18
g71
g20
g22
g24
tp3247
(g183
tp3248
(g8
g65
g20
g24
tp3249
tp3250
a((g6
g8
g10
g12
g65
g14
g20
g22
g24
g26
g73
tp3251
(g1354
tp3252
(g4
g8
g10
g12
g24
g73
tp3253
tp3254
a((g2
g4
g109
g6
g8
g12
g65
g16
g67
g71
g20
g22
g73
tp3255
(g567
tp3256
(g4
g6
g65
g14
g71
g22
g73
tp3257
tp3258
a((g2
g4
g6
g8
g10
g12
g65
g14
g16
g67
g71
g20
g22
g73
tp3259
(g533
tp3260
(g4
g10
g12
g16
g71
g20
g24
g73
tp3261
tp3262
a((g2
g109
g6
g8
g12
g65
g16
g67
g18
g71
g20
g26
tp3263
(g567
g262
tp3264
(g4
g65
g14
g67
g20
tp3265
tp3266
a((g2
g4
g6
g10
g12
g16
g20
g22
g26
g73
tp3267
(g1680
tp3268
(g4
g109
g12
g16
g26
tp3269
tp3270
a((g2
g6
g8
g12
g65
g14
g67
g18
g71
g20
g22
g24
g26
tp3271
(g281
tp3272
(g2
g6
g8
g65
g67
g18
g71
g20
g73
tp3273
tp3274
a((g2
g4
g6
g8
g12
g67
g18
g20
g22
g73
tp3275
(g111
g1080
tp3276
(g6
g12
g16
g20
g22
tp3277
tp3278
a((g4
g6
g8
g10
g12
g67
g71
g20
g24
g73
tp3279
(g601
tp3280
(g4
g8
g10
g12
g71
g26
g73
tp3281
tp3282
a((g2
g4
g8
g12
g14
g67
g18
g71
g20
g22
g26
g73
tp3283
(g427
tp3284
(g109
g8
g12
g14
g18
g22
g26
g73
tp3285
tp3286
a((g109
g6
g8
g10
g12
g65
g14
g67
g71
g24
g73
tp3287
(g126
tp3288
(g109
g6
g8
g10
g18
g71
g73
tp3289
tp3290
a((g4
g109
g8
g12
g65
g16
g67
g71
g73
tp3291
(g567
g2516
tp3292
(g10
g12
g65
g14
g67
g73
tp3293
tp3294
a((g2
g4
g6
g12
g14
g71
g24
g26
g73
tp3295
(g861
g907
g2481
tp3296
(g4
g109
g10
g12
g16
g26
g73
tp3297
tp3298
a((g2
g109
g8
g10
g12
g67
g18
g71
g20
g22
g24
g26
g73
tp3299
(g616
tp3300
(g2
g109
g65
g67
g26
g73
tp3301
tp3302
a((g2
g109
g8
g12
g65
g14
g16
g67
g71
g20
g24
g73
tp3303
(g641
g1373
tp3304
(g8
g12
g14
g18
g71
g24
g26
tp3305
tp3306
a((g2
g4
g109
g8
g10
g12
g16
g67
g18
g20
g26
g73
tp3307
(g1558
g412
tp3308
(g6
g8
g12
g67
g18
g20
g22
g26
g73
tp3309
tp3310
a((g2
g6
g10
g12
g67
g18
g71
g20
g24
g73
tp3311
(g1373
tp3312
(g6
g10
g12
g67
g18
g24
g26
tp3313
tp3314
a((g2
g4
g109
g6
g8
g10
g12
g65
g14
g16
g67
g18
g71
g20
g22
tp3315
(g198
g601
tp3316
(g2
g4
g109
g6
g12
g16
g18
g71
g20
g26
g73
tp3317
tp3318
a((g2
g4
g109
g8
g65
g16
g67
g18
g71
g20
g24
g26
g73
tp3319
(g567
g754
tp3320
(g2
g4
g109
g8
g65
g14
g67
g18
g71
g20
g22
g26
tp3321
tp3322
a((g2
g4
g109
g6
g8
g10
g12
g65
g14
g67
g18
g71
g24
g73
tp3323
(g75
tp3324
(g2
g109
g10
g18
g20
g73
tp3325
tp3326
a((g4
g14
g16
g67
g18
g20
g22
g24
g26
g73
tp3327
(g243
g480
tp3328
(g4
g14
g71
g20
g24
tp3329
tp3330
a((g2
g109
g6
g8
g12
g65
g14
g67
g20
g22
g24
g26
g73
tp3331
(g90
tp3332
(g2
g109
g14
g16
g20
g22
g26
g73
tp3333
tp3334
a((g4
g109
g6
g8
g12
g65
g14
g16
g67
g18
g20
g22
g26
g73
tp3335
(g480
g533
tp3336
(g109
g6
g14
g16
g67
g18
g71
g20
g24
g73
tp3337
tp3338
a((g4
g109
g8
g65
g16
g18
g71
g22
g24
g26
g73
tp3339
(g446
tp3340
(g4
g10
g16
g22
g73
tp3341
tp3342
a((g2
g4
g109
g6
g8
g16
g18
g71
g20
g22
g26
g73
tp3343
(g446
tp3344
(g2
g8
g10
g16
g18
g26
tp3345
tp3346
a((g4
g6
g65
g14
g16
g67
g18
g71
g20
g24
g73
tp3347
(g1268
g243
tp3348
(g6
g8
g10
g67
tp3349
tp3350
a((g2
g6
g8
g10
g14
g67
g18
g22
g24
g26
g73
tp3351
(g654
g1354
tp3352
(g2
g4
g10
g12
g26
tp3353
tp3354
a((g4
g109
g6
g8
g14
g16
g67
g18
g71
g20
g22
g26
g73
tp3355
(g164
g533
tp3356
(g6
g12
g71
g20
g24
tp3357
tp3358
a((g109
g6
g10
g20
g24
g73
tp3359
((istructures.domain
Action
p3360
(dp3361
g30
(lp3362
(S'at_x3'
p3363
tp3364
a(S'at_y2'
p3365
tp3366
asg36
(lp3367
(S'at_y1'
p3368
tp3369
asg40
(tsg41
(lp3370
(S'at_y2'
p3371
tp3372
asg45
I0
sg46
(lp3373
sg48
S'move_3_2_3_1'
p3374
sb(istructures.domain
Action
p3375
(dp3376
g30
(lp3377
(S'at_x3'
p3378
tp3379
a(S'at_y1'
p3380
tp3381
asg36
(lp3382
(S'at_y0'
p3383
tp3384
asg40
(tsg41
(lp3385
(S'at_y1'
p3386
tp3387
asg45
I0
sg46
(lp3388
sg48
S'move_3_1_3_0'
p3389
sbtp3390
(g109
g6
g10
g67
g24
tp3391
tp3392
a((g2
g4
g109
g6
g8
g12
g16
g18
g71
g20
g22
g24
tp3393
(g548
g183
tp3394
(g12
g65
g14
g18
g71
g22
tp3395
tp3396
a((g4
g8
g10
g16
g71
g20
g24
g73
tp3397
(g641
g1045
tp3398
(g4
g8
g18
g71
g20
g73
tp3399
tp3400
a((g4
g109
g8
g10
g65
g14
g18
g26
tp3401
(g376
g1527
g412
tp3402
(g6
g8
g65
g16
g22
g26
tp3403
tp3404
a((g2
g4
g6
g8
g10
g14
g16
g67
g18
g24
g26
tp3405
(g164
g586
tp3406
(g4
g8
g14
g67
g26
g73
tp3407
tp3408
a((g4
g6
g8
g10
g12
g14
g67
g71
g20
g22
g24
g26
g73
tp3409
(g232
g1905
tp3410
(g109
g6
g8
g10
g16
g71
g24
g26
tp3411
tp3412
a((g8
g10
g65
g67
g71
g22
g24
tp3413
((istructures.domain
Action
p3414
(dp3415
g30
(lp3416
(S'at_x6'
p3417
tp3418
a(S'at_y0'
p3419
tp3420
asg36
(lp3421
(S'at_y1'
p3422
tp3423
asg40
(tsg41
(lp3424
(S'at_y0'
p3425
tp3426
asg45
I0
sg46
(lp3427
sg48
S'move_6_0_6_1'
p3428
sbtp3429
(g8
g10
g65
g18
g71
tp3430
tp3431
a((g4
g109
g10
g12
g65
g14
g67
g18
g71
g20
g26
g73
tp3432
(g232
g1854
tp3433
(g2
g4
g12
g16
g67
g73
tp3434
tp3435
a((g4
g109
g6
g10
g12
g65
g16
g67
g18
g71
g20
g26
g73
tp3436
(g567
tp3437
(g10
g14
g18
g71
g20
g26
tp3438
tp3439
a((g2
g4
g6
g8
g12
g14
g18
g71
g24
g73
tp3440
(g145
g111
tp3441
(g6
g8
g14
g16
g71
g22
g73
tp3442
tp3443
a((g2
g4
g6
g8
g10
g18
g71
g24
g26
g73
tp3444
((istructures.domain
Action
p3445
(dp3446
g30
(lp3447
(S'at_x4'
p3448
tp3449
a(S'at_y3'
p3450
tp3451
asg36
(lp3452
(S'at_y4'
p3453
tp3454
asg40
(tsg41
(lp3455
(S'at_y3'
p3456
tp3457
asg45
I0
sg46
(lp3458
sg48
S'move_4_3_4_4'
p3459
sbtp3460
(g4
g6
g10
g22
g26
g73
tp3461
tp3462
a((g2
g4
g8
g10
g65
g14
g16
g67
g18
g71
g22
g26
tp3463
(g198
tp3464
(g4
g14
g71
g22
g73
tp3465
tp3466
a((g2
g109
g6
g10
g65
g14
g16
g20
g22
g24
g26
g73
tp3467
(g514
g922
tp3468
(g2
g6
g65
g18
g71
g22
g24
tp3469
tp3470
a((g2
g109
g8
g65
g14
g16
g20
g22
tp3471
((istructures.domain
Action
p3472
(dp3473
g30
(lp3474
(S'at_x1'
p3475
tp3476
a(S'at_y4'
p3477
tp3478
asg36
(lp3479
(S'at_x2'
p3480
tp3481
asg40
(tsg41
(lp3482
(S'at_x1'
p3483
tp3484
asg45
I0
sg46
(lp3485
sg48
S'move_1_4_2_4'
p3486
sbtp3487
(g109
g12
g20
tp3488
tp3489
a((g2
g4
g109
g10
g65
g14
g16
g20
tp3490
(g376
g514
g28
tp3491
(g2
g109
g10
g16
g67
g22
tp3492
tp3493
a((g4
g6
g8
g10
g14
g16
g67
g18
g20
g24
tp3494
((istructures.domain
Action
p3495
(dp3496
g30
(lp3497
(S'at_x4'
p3498
tp3499
a(S'at_y0'
p3500
tp3501
asg36
(lp3502
(S'at_x5'
p3503
tp3504
asg40
(tsg41
(lp3505
(S'at_x4'
p3506
tp3507
asg45
I0
sg46
(lp3508
sg48
S'move_4_0_5_0'
p3509
sbg861
tp3510
(g4
g109
g67
g71
g20
tp3511
tp3512
a((g2
g109
g8
g10
g12
g65
g14
g16
g67
g71
g20
g22
g24
g26
g73
tp3513
(g412
tp3514
(g6
g8
g10
g14
g16
g20
g26
tp3515
tp3516
a((g109
g6
g8
g10
g12
g65
g67
g18
g71
g20
g73
tp3517
(g90
g567
tp3518
(g6
g8
g10
g14
g71
g73
tp3519
tp3520
a((g6
g8
g10
g12
g65
g14
g18
g71
g22
g24
g26
g73
tp3521
(g861
g1411
tp3522
(g2
g109
g8
g12
g14
g71
g24
g26
tp3523
tp3524
a((g4
g6
g10
g12
g65
g14
g18
g71
g20
g22
g26
tp3525
(g2324
tp3526
(g6
g10
g12
g65
g71
g22
g24
tp3527
tp3528
a((g2
g4
g6
g8
g65
g16
g71
g20
g24
g26
g73
tp3529
(g548
tp3530
(g2
g4
g6
g8
g65
g14
g71
g26
tp3531
tp3532
a((g2
g109
g6
g8
g12
g65
g16
g67
g18
g20
g24
g73
tp3533
((istructures.domain
Action
p3534
(dp3535
g30
(lp3536
(S'at_x7'
p3537
tp3538
a(S'at_y2'
p3539
tp3540
asg36
(lp3541
(S'have_item0'
p3542
tp3543
asg40
(tsg41
(lp3544
sg45
I0
sg46
(lp3545
sg48
S'easymark_item0_7_2'
p3546
sbtp3547
(g109
g12
g18
g20
g26
g73
tp3548
tp3549
a((g8
g12
g65
g14
g16
g18
g71
g22
g73
tp3550
(g533
g75
tp3551
(g12
g65
g16
g18
g20
g73
tp3552
tp3553
a((g2
g4
g109
g8
g10
g65
g16
g67
g18
g71
g22
g26
g73
tp3554
(g567
g1080
tp3555
(g2
g109
g8
g10
g12
g65
g14
g71
g22
tp3556
tp3557
a((g4
g6
g12
g16
g18
g71
g24
g26
g73
tp3558
(g495
g2890
tp3559
(g67
g22
g24
tp3560
tp3561
a((g2
g4
g16
g67
g18
g20
g22
g24
tp3562
(g567
g907
tp3563
(g10
g14
g22
g24
tp3564
tp3565
a((g4
g109
g8
g12
g14
g16
g67
g18
g20
g22
g24
g26
tp3566
(g412
tp3567
(g6
g8
g12
g14
g67
g18
g20
g24
tp3568
tp3569
a((g2
g109
g6
g14
g67
g20
g22
g73
tp3570
(g232
g1138
g50
tp3571
(g2
g6
g65
g67
g22
g73
tp3572
tp3573
a((g2
g4
g109
g6
g8
g10
g12
g67
g18
g71
g20
g22
g24
g73
tp3574
(g111
g567
tp3575
(g6
g8
g10
g14
g67
g20
g22
g73
tp3576
tp3577
a((g109
g8
g10
g18
g71
g20
g22
g24
g26
g73
tp3578
(g1354
tp3579
(g4
g109
g10
g71
g20
g26
tp3580
tp3581
a((g2
g4
g109
g8
g10
g65
g14
g67
g18
g71
g20
g22
g24
g26
tp3582
(g232
tp3583
(g2
g109
g8
g16
g67
g22
tp3584
tp3585
a((g2
g4
g109
g6
g8
g65
g14
g16
g18
g71
g20
g22
g26
g73
tp3586
(g880
tp3587
(g4
g6
g8
g65
g18
g20
g24
g73
tp3588
tp3589
a((g2
g4
g109
g6
g65
g14
g16
g67
g18
g71
tp3590
(g834
tp3591
(g2
g109
g10
g14
g16
g18
tp3592
tp3593
a((g2
g6
g10
g12
g16
g18
g71
g20
g22
g24
g26
g73
tp3594
(g861
g50
tp3595
(g2
g109
g10
g65
g16
g20
g73
tp3596
tp3597
a((g2
g4
g109
g6
g8
g65
g16
g71
g24
g26
g73
tp3598
(g3445
tp3599
(g4
g65
g16
g22
g26
g73
tp3600
tp3601
a((g6
g8
g10
g12
g16
g71
g20
g24
g73
tp3602
(g861
(istructures.domain
Action
p3603
(dp3604
g30
(lp3605
(S'at_x6'
p3606
tp3607
a(S'at_y2'
p3608
tp3609
asg36
(lp3610
(S'at_x7'
p3611
tp3612
asg40
(tsg41
(lp3613
(S'at_x6'
p3614
tp3615
asg45
I0
sg46
(lp3616
sg48
S'move_6_2_7_2'
p3617
sbtp3618
(g2
g109
g8
g12
g20
g24
g73
tp3619
tp3620
a((g4
g109
g6
g10
g12
g65
g14
g16
g67
g71
g20
g24
g26
g73
tp3621
(g145
g126
tp3622
(g6
g12
g16
g18
g22
g26
g73
tp3623
tp3624
a((g4
g6
g10
g12
g18
g71
g22
g26
g73
tp3625
(g1411
g183
tp3626
(g2
g65
g18
g71
g26
g73
tp3627
tp3628
a((g2
g4
g109
g8
g14
g16
g18
g20
g22
g24
g26
g73
tp3629
((istructures.domain
Action
p3630
(dp3631
g30
(lp3632
(S'at_x1'
p3633
tp3634
a(S'at_y3'
p3635
tp3636
asg36
(lp3637
(S'at_x2'
p3638
tp3639
asg40
(tsg41
(lp3640
(S'at_x1'
p3641
tp3642
asg45
I0
sg46
(lp3643
sg48
S'move_1_3_2_3'
p3644
sbtp3645
(g2
g4
g12
g20
g22
g24
g73
tp3646
tp3647
a((g2
g4
g109
g6
g12
g65
g14
g18
g71
g20
g24
g26
g73
tp3648
(g28
g3100
tp3649
(g2
g4
g109
g6
g65
g14
g67
g18
g24
tp3650
tp3651
a((g2
g109
g6
g10
g65
g14
g16
g67
g18
g71
g20
g22
g24
g26
tp3652
(g164
g1339
tp3653
(g6
g8
g10
g12
g67
g18
g24
tp3654
tp3655
a((g2
g4
g109
g10
g65
g67
g18
g20
g24
tp3656
(g922
g1339
tp3657
(g2
g4
g109
g8
g65
g67
g18
g20
tp3658
tp3659
a((g2
g4
g8
g12
g65
g14
g16
g20
g22
g73
tp3660
(g641
g427
tp3661
(g109
g12
g16
g18
tp3662
tp3663
a((g2
g4
g109
g6
g8
g65
g14
g16
g67
g20
g22
g26
g73
tp3664
(g164
g232
tp3665
(g109
g8
g12
g65
g16
g26
g73
tp3666
tp3667
a((g4
g109
g8
g10
g65
g14
g71
g20
g22
g24
g73
tp3668
(g641
g495
tp3669
(g109
g14
g67
g71
g22
g24
tp3670
tp3671
a((g4
g109
g6
g8
g10
g65
g14
g16
g67
g71
g20
g22
g24
g73
tp3672
(g654
tp3673
(g4
g109
g6
g10
g12
g14
g16
g20
g22
g24
tp3674
tp3675
a((g4
g6
g14
g16
g67
g71
g20
g24
g26
tp3676
(g861
g50
tp3677
(g109
g65
g14
g16
g67
g71
g24
g26
tp3678
tp3679
a((g2
g4
g109
g8
g10
g65
g14
g16
g24
g26
tp3680
(g1045
(istructures.domain
Action
p3681
(dp3682
g30
(lp3683
(S'at_x1'
p3684
tp3685
a(S'at_y5'
p3686
tp3687
asg36
(lp3688
(S'at_x2'
p3689
tp3690
asg40
(tsg41
(lp3691
(S'at_x1'
p3692
tp3693
asg45
I0
sg46
(lp3694
sg48
S'move_1_5_2_5'
p3695
sbtp3696
(g2
g8
g10
g12
g65
g14
g20
tp3697
tp3698
a((g2
g109
g8
g16
g67
g18
g20
g22
g26
g73
tp3699
(g1138
g412
tp3700
(g2
g6
g8
g67
g18
g22
g24
tp3701
tp3702
a((g2
g4
g109
g10
g65
g14
g16
g71
g24
tp3703
(g1621
tp3704
(g4
g20
tp3705
tp3706
a((g2
g4
g6
g8
g10
g65
g16
g18
g71
g20
g22
tp3707
(g1373
tp3708
(g2
g4
g65
g18
g71
g26
tp3709
tp3710
a((g4
g6
g8
g10
g12
g65
g14
g18
g71
g20
g22
g26
g73
tp3711
(g111
g1138
tp3712
(g4
g6
g16
g71
g22
g24
g73
tp3713
tp3714
a((g4
g6
g8
g10
g65
g14
g67
g22
g24
tp3715
(g480
g2207
tp3716
(g4
g6
g65
g18
g71
g22
tp3717
tp3718
a((g4
g109
g8
g10
g12
g16
g67
g18
g71
tp3719
(g567
g616
tp3720
(g4
g65
g14
g18
tp3721
tp3722
a((g2
g109
g8
g65
g14
g67
g18
g24
g73
tp3723
(g1045
tp3724
(g2
g109
g8
g65
g14
g67
g18
g20
g73
tp3725
tp3726
a((g2
g109
g6
g8
g10
g12
g65
g14
g16
g67
g18
g24
g73
tp3727
(g361
g1316
tp3728
(g2
g109
g6
g12
g65
g14
g67
g71
g20
g24
g73
tp3729
tp3730
a((g2
g109
g8
g10
g12
g65
g14
g67
g71
g20
g22
g26
tp3731
(g232
(istructures.domain
Action
p3732
(dp3733
g30
(lp3734
(S'at_x1'
p3735
tp3736
a(S'at_y0'
p3737
tp3738
asg36
(lp3739
(S'at_y1'
p3740
tp3741
asg40
(tsg41
(lp3742
(S'at_y0'
p3743
tp3744
asg45
I0
sg46
(lp3745
sg48
S'move_1_0_1_1'
p3746
sbtp3747
(g10
g16
g18
g71
g20
tp3748
tp3749
a((g4
g6
g8
g10
g12
g65
g14
g16
g18
g71
g20
g24
g26
g73
tp3750
(g145
g1411
tp3751
(g2
g4
g6
g8
g65
g14
g18
g71
g22
g26
g73
tp3752
tp3753
a((g2
g109
g6
g10
g65
g14
g16
g67
g18
g20
g22
tp3754
(g1249
g1287
tp3755
(g4
g109
g6
g65
g16
g20
g26
tp3756
tp3757
a((g2
g109
g6
g8
g10
g12
g14
g16
g71
g22
tp3758
(g198
g183
tp3759
(g2
g109
g6
g10
g65
g16
g71
g22
g73
tp3760
tp3761
a((g2
g4
g109
g6
g8
g14
g16
g71
g20
g22
g24
g26
g73
tp3762
(g183
tp3763
(g109
g65
g16
g20
g24
tp3764
tp3765
a((g2
g109
g6
g8
g65
g14
g16
g18
g20
g22
g26
g73
tp3766
(g480
g2603
tp3767
(g2
g109
g8
g65
g16
g18
g71
g20
g26
tp3768
tp3769
a((g109
g8
g10
g65
g16
g67
g18
g22
tp3770
(g198
g1107
tp3771
(g10
g24
g73
tp3772
tp3773
a((g4
g6
g14
g16
g67
g18
g71
g22
g24
g26
tp3774
(g164
g75
tp3775
(g4
g12
g14
g18
g71
g20
g26
tp3776
tp3777
a((g2
g4
g109
g6
g8
g71
g22
g24
g26
g73
tp3778
(g446
g1045
tp3779
(g109
g6
g10
g20
g22
g26
g73
tp3780
tp3781
a((g2
g4
g109
g6
g8
g10
g65
g16
g67
g18
g71
g24
g26
tp3782
(g323
g1621
tp3783
(g4
g109
g18
g20
g26
g73
tp3784
tp3785
a((g4
g109
g8
g10
g12
g14
g67
g18
g71
g20
g26
g73
tp3786
(g945
g616
tp3787
(g4
g109
g10
g65
g71
g24
g26
g73
tp3788
tp3789
a((g2
g4
g6
g12
g14
g16
g67
g24
g26
tp3790
(g671
g50
tp3791
(g4
g10
g12
g65
g24
tp3792
tp3793
a((g2
g4
g109
g8
g10
g12
g65
g16
g67
g20
g22
g24
g73
tp3794
(g480
g601
tp3795
(g2
g109
g12
g65
g16
g67
g71
g20
g24
g26
g73
tp3796
tp3797
a((g2
g4
g10
g12
g65
g14
g67
g71
g22
tp3798
(g427
g533
(istructures.domain
Action
p3799
(dp3800
g30
(lp3801
(S'at_x7'
p3802
tp3803
a(S'at_y3'
p3804
tp3805
asg36
(lp3806
(S'have_item0'
p3807
tp3808
asg40
(tsg41
(lp3809
sg45
I0
sg46
(lp3810
sg48
S'easymark_item0_7_3'
p3811
sbtp3812
(g2
g109
g10
g12
g67
g71
g24
g26
tp3813
tp3814
a((g2
g4
g6
g8
g10
g16
g20
g24
g73
tp3815
(g654
g1287
tp3816
(g8
g10
g12
g24
g26
tp3817
tp3818
a((g2
g6
g8
g10
g12
g65
g14
g24
g26
tp3819
(g75
(istructures.domain
Action
p3820
(dp3821
g30
(lp3822
(S'at_x0'
p3823
tp3824
a(S'at_y2'
p3825
tp3826
asg36
(lp3827
(S'at_x1'
p3828
tp3829
asg40
(tsg41
(lp3830
(S'at_x0'
p3831
tp3832
asg45
I0
sg46
(lp3833
sg48
S'move_0_2_1_2'
p3834
sbtp3835
(g2
g6
g10
g16
g20
tp3836
tp3837
a((g2
g4
g14
g16
g67
g71
g26
tp3838
(g1508
g991
tp3839
(g4
g10
g12
g14
g71
g26
tp3840
tp3841
a((g2
g4
g109
g8
g10
g12
g14
g71
g20
g24
g26
g73
tp3842
(g376
g2278
tp3843
(g2
g109
g8
g14
g16
g22
g24
g26
g73
tp3844
tp3845
a((g2
g109
g6
g8
g10
g12
g18
g20
g22
g24
tp3846
(g616
tp3847
(g109
g6
g12
g65
tp3848
tp3849
a((g2
g109
g6
g10
g12
g16
g67
g18
g71
g24
g26
g73
tp3850
(g75
g338
tp3851
(g4
g18
g71
g20
tp3852
tp3853
a((g4
g109
g6
g8
g10
g12
g65
g14
g16
g71
g24
g26
g73
tp3854
(g145
tp3855
(g8
g71
g22
g73
tp3856
tp3857
a((g109
g8
g12
g67
g18
g71
g20
g24
g26
tp3858
(g323
g1268
g1854
tp3859
(g2
g24
g73
tp3860
tp3861
a((g2
g4
g109
g6
g8
g12
g65
g14
g67
g18
g20
g22
g24
g26
g73
tp3862
(g480
g446
tp3863
(g2
g6
g10
g65
g67
g20
g22
g24
g26
g73
tp3864
tp3865
a((g4
g6
g10
g12
g65
g67
g18
g20
g26
g73
tp3866
(g111
g567
tp3867
(g6
g10
g65
g14
g67
g18
g20
g26
tp3868
tp3869
a((g2
g4
g109
g8
g12
g24
g26
g73
tp3870
(g907
g922
tp3871
(g4
g109
g8
g71
g26
g73
tp3872
tp3873
a((g2
g4
g109
g8
g12
g65
g14
g18
g26
g73
tp3874
(g28
g232
tp3875
(g2
g4
g16
g67
g26
g73
tp3876
tp3877
a((g4
g6
g10
g12
g65
g14
g16
g67
g18
g71
g20
g22
g24
g26
tp3878
(g1411
tp3879
(g2
g4
g65
g16
g67
g18
tp3880
tp3881
a((g2
g4
g6
g8
g10
g12
g18
g20
g22
tp3882
(g395
g616
tp3883
(g6
g8
g65
g20
g22
g26
tp3884
tp3885
a((g2
g4
g6
g8
g12
g65
g16
g67
g18
g22
tp3886
(g361
g567
tp3887
(g2
g12
g65
g14
g67
g20
tp3888
tp3889
a((g4
g109
g6
g8
g12
g65
g14
g16
g67
g22
g26
g73
tp3890
(g480
g243
tp3891
(g8
g14
g67
g71
g22
g26
tp3892
tp3893
a((g2
g109
g6
g8
g10
g12
g65
g14
g16
g67
g18
g71
g20
g22
g26
g73
tp3894
(g1354
tp3895
(g4
g8
g10
g65
g16
g67
g20
g26
tp3896
tp3897
a((g4
g6
g8
g10
g65
g14
g18
g71
g20
g22
g24
g73
tp3898
(g861
g601
tp3899
(g109
g10
g18
g24
g26
tp3900
tp3901
a((g4
g6
g65
g14
g67
g71
g20
g22
g24
g26
g73
tp3902
(g861
tp3903
(g4
g109
g73
tp3904
tp3905
a((g2
g109
g10
g12
g65
g14
g16
g67
g18
g20
g22
g73
tp3906
(g1249
g601
tp3907
(g4
g109
g10
g67
g20
g26
g73
tp3908
tp3909
a((g109
g8
g10
g65
g14
g18
g71
g20
g24
g26
tp3910
(g495
tp3911
(g109
g65
g67
g71
g20
tp3912
tp3913
a((g2
g4
g10
g12
g14
g67
g18
tp3914
(g376
g395
tp3915
(g12
g14
g67
g22
g26
tp3916
tp3917
a((g2
g109
g6
g8
g10
g12
g65
g14
g18
g20
g22
g24
g26
g73
tp3918
(g480
tp3919
(g2
g109
g10
g65
g71
g22
g73
tp3920
tp3921
a((g109
g6
g8
g10
g12
g14
g18
g22
g24
g73
tp3922
(g1411
g2278
tp3923
(g2
g6
g14
g16
g73
tp3924
tp3925
a((g2
g4
g6
g8
g10
g12
g65
g16
g67
g18
g71
g22
g26
tp3926
(g361
g533
tp3927
(g2
g6
g12
g71
g20
g24
tp3928
tp3929
a((g109
g8
g10
g12
g65
g16
g67
g71
g20
g22
g73
tp3930
(g567
g1411
tp3931
(g2
g8
g14
g67
g20
g22
tp3932
tp3933
a((g109
g6
g8
g12
g14
g16
g67
g18
g71
g20
g26
g73
tp3934
(g1268
tp3935
(g109
g6
g10
g12
g67
g18
g20
tp3936
tp3937
a((g2
g109
g14
g16
g18
g71
g22
g24
g26
tp3938
(g361
g3630
tp3939
(g12
g14
g71
g20
g24
g26
tp3940
tp3941
a((g4
g109
g6
g8
g10
g12
g14
g18
g20
g24
g26
g73
tp3942
(g1172
tp3943
(g2
g4
g109
g6
g18
g24
g26
tp3944
tp3945
a((g2
g4
g6
g8
g65
g14
g18
g22
tp3946
(g198
g1827
tp3947
(g2
g6
g12
g22
tp3948
tp3949
a((g6
g8
g10
g12
g65
g14
g16
g67
g22
g24
g26
tp3950
(g480
tp3951
(g10
g14
g71
g22
g24
tp3952
tp3953
a((g2
g4
g6
g10
g14
g16
g18
g71
g22
g24
tp3954
(g361
g183
tp3955
(g4
g65
g14
g71
g20
tp3956
tp3957
a((g2
g4
g109
g8
g10
g65
g14
g16
g67
g18
g71
g24
g26
tp3958
(g412
tp3959
(g2
g4
g6
g65
g14
g16
g71
tp3960
tp3961
a((g2
g4
g109
g6
g12
g14
g16
g18
g71
g20
g24
g26
tp3962
(g1736
tp3963
(g4
g109
g8
g12
g14
g18
tp3964
tp3965
a((g4
g6
g8
g12
g18
g71
g20
g22
g24
g26
g73
tp3966
(g111
g183
tp3967
(g4
g6
g65
g16
g18
g20
g22
g26
g73
tp3968
tp3969
a((g2
g10
g12
g65
g16
g67
g71
g20
g24
g26
tp3970
(g281
g1508
tp3971
(g2
g12
g67
g71
g73
tp3972
tp3973
a((g109
g6
g8
g10
g12
g65
g67
g18
g20
g24
tp3974
(g1316
g145
tp3975
(g109
g65
g18
g71
g22
tp3976
tp3977
a((g2
g4
g109
g8
g10
g12
g14
g67
g18
g71
g20
g22
g24
g26
tp3978
(g232
tp3979
(g10
g12
g16
g18
g20
tp3980
tp3981
a((g2
g4
g6
g10
g12
g65
g14
g67
g18
g71
g20
g22
g24
g73
tp3982
(g232
g601
tp3983
(g2
g10
g65
g16
g18
g71
g22
g26
g73
tp3984
tp3985
a((g2
g4
g109
g10
g12
g65
g16
g67
g18
g22
g24
tp3986
(g815
tp3987
(g2
g4
g6
g65
g16
g67
g22
tp3988
tp3989
a((g2
g4
g109
g8
g14
g16
g18
g71
g26
g73
tp3990
(g376
tp3991
(g14
g16
g18
g22
g73
tp3992
tp3993
a((g2
g4
g109
g6
g8
g10
g12
g14
g16
g67
g18
g71
g20
g24
g26
tp3994
(g323
g183
tp3995
(g2
g4
g10
g65
g16
g67
g18
g71
g24
g73
tp3996
tp3997
a((g2
g4
g6
g8
g10
g12
g14
g16
g18
g71
g20
g22
g24
g26
tp3998
(g427
g183
tp3999
(g109
g6
g12
g65
g71
g22
tp4000
tp4001
a((g2
g4
g109
g6
g8
g10
g12
g65
g14
g22
g26
g73
tp4002
(g533
tp4003
(g2
g8
g10
g12
g65
g24
g26
g73
tp4004
tp4005
a((g2
g4
g6
g10
g12
g14
g16
g67
g18
g71
g20
g22
g24
g26
tp4006
(g427
g1339
tp4007
(g109
g6
g8
g16
g18
g22
g26
tp4008
tp4009
a((g4
g109
g6
g8
g65
g16
g67
g18
g71
g22
g24
g26
tp4010
(g567
tp4011
(g8
g14
g67
g71
g22
g24
tp4012
tp4013
a((g2
g8
g10
g12
g65
g14
g16
g18
g20
g24
g26
g73
tp4014
(g28
g145
tp4015
(g2
g8
g12
g65
g14
g16
g67
g20
g22
g73
tp4016
tp4017
a((g6
g8
g10
g12
g65
g14
g67
g71
g20
g22
g24
g73
tp4018
(g641
g1354
tp4019
(g4
g6
g10
g65
g14
g18
g71
g24
g73
tp4020
tp4021
a((g2
g109
g6
g8
g10
g12
g14
g16
g67
g18
g71
g20
g24
g26
tp4022
(g145
g262
tp4023
(g2
g4
g6
g8
g10
g12
g18
g20
g22
tp4024
tp4025
a((g6
g8
g10
g16
g67
g18
g71
g26
g73
tp4026
(g861
g616
tp4027
(g109
g8
g10
g65
g67
g18
g71
g26
tp4028
tp4029
a((g2
g4
g6
g10
g65
g14
g16
g67
g18
g71
g22
g24
g73
tp4030
(g164
g75
tp4031
(g6
g10
g12
g67
g18
g71
g20
g22
g73
tp4032
tp4033
a((g4
g6
g10
g12
g65
g67
g24
g73
tp4034
(g75
g1905
g243
tp4035
(g109
g6
g8
g10
g67
g20
tp4036
tp4037
a((g2
g109
g8
g10
g12
g14
g16
g67
g71
g26
g73
tp4038
(g262
g376
tp4039
(g2
g10
g14
g16
g71
g22
g73
tp4040
tp4041
a((g4
g109
g6
g10
g14
g16
g18
g20
g22
tp4042
(g1411
tp4043
(g2
g4
g109
g14
g18
g20
tp4044
tp4045
a((g2
g6
g8
g12
g65
g67
g18
g20
g22
g24
g26
tp4046
(g671
g922
tp4047
(g6
g8
g65
g67
g71
g22
g24
g26
tp4048
tp4049
a((g2
g4
g6
g65
g14
g16
g18
g71
g22
g24
g26
g73
tp4050
(g671
g1621
tp4051
(g6
g10
g65
g14
g18
g71
g20
g22
g73
tp4052
tp4053
a((g4
g8
g10
g65
g14
g67
g18
g20
g22
g24
g26
g73
tp4054
(g654
g232
tp4055
(g4
g8
g12
g65
g16
g67
g24
g26
tp4056
tp4057
a((g2
g6
g16
g71
g20
g22
tp4058
(g548
g446
tp4059
(g10
g14
g20
g22
tp4060
tp4061
a((g4
g109
g10
g12
g65
g16
g67
g18
g71
g20
g22
tp4062
(g1373
tp4063
(g109
g10
g12
g65
g67
g20
g22
g26
tp4064
tp4065
a((g2
g4
g109
g12
g14
g67
g18
g71
g22
g24
g26
tp4066
(g361
g2207
tp4067
(g12
g18
g71
g20
g22
g24
g26
tp4068
tp4069
a((g2
g4
g6
g8
g65
g16
g18
g71
g22
g24
g26
tp4070
(g861
g28
tp4071
(g2
g4
g109
g67
g71
g22
g24
tp4072
tp4073
a((g2
g4
g109
g6
g8
g10
g12
g14
g67
g18
g71
g22
g24
tp4074
(g232
g361
tp4075
(g12
g16
g67
g20
g22
g24
tp4076
tp4077
a((g4
g6
g10
g65
g14
g16
g67
g71
g20
g22
g24
tp4078
(g2207
tp4079
(g16
g18
g71
g20
g24
tp4080
tp4081
a((g2
g4
g109
g6
g16
g18
g20
g22
g24
g26
tp4082
(g50
g548
tp4083
(g6
g65
g14
g18
g20
g24
tp4084
tp4085
a((g2
g8
g10
g12
g65
g67
g18
g20
g24
tp4086
(g323
g3534
tp4087
(g12
g65
g24
g26
g73
tp4088
tp4089
a((g2
g4
g109
g65
g14
g16
g67
g18
g71
g20
g22
g73
tp4090
(g991
g601
tp4091
(g4
g109
g10
g65
g14
g16
g18
g71
g20
g26
tp4092
tp4093
a((g2
g4
g6
g8
g65
g14
g16
g18
g71
g20
g24
g26
g73
tp4094
(g654
g145
tp4095
(g12
g18
g22
g26
tp4096
tp4097
a((g4
g109
g6
g8
g10
g12
g65
g16
g67
g18
g71
g22
g26
g73
tp4098
(g533
g300
tp4099
(g6
g8
g12
g16
g67
g71
g20
g24
g73
tp4100
tp4101
a((g6
g8
g10
g65
g14
g67
g18
g22
g26
g73
tp4102
(g480
g232
g164
tp4103
(g10
g12
g67
g18
g71
g73
tp4104
tp4105
a((g4
g109
g6
g8
g10
g12
g65
g14
g67
g18
tp4106
(g1172
g1287
tp4107
(g2
g109
g12
g65
g14
g26
tp4108
tp4109
a((g2
g109
g6
g8
g10
g12
g65
g16
g67
g20
g22
g73
tp4110
(g395
tp4111
(g109
g65
g16
g67
g20
g26
tp4112
tp4113
a((g2
g4
g109
g6
g8
g12
g65
g16
g67
g71
g20
g24
g26
g73
tp4114
(g671
tp4115
(g4
g109
g6
g10
g12
g65
g16
g67
g24
g26
g73
tp4116
tp4117
a((g4
g109
g6
g10
g65
g14
g16
g18
g71
g20
g22
g24
g26
tp4118
(g1411
tp4119
(g2
g109
g16
g18
g71
g20
g22
g24
tp4120
tp4121
a((g2
g4
g109
g6
g8
g10
g14
g16
g18
g20
g22
g26
g73
tp4122
(g28
tp4123
(g2
g4
g109
g8
g10
g14
g16
g67
g20
g26
g73
tp4124
tp4125
a((g2
g109
g6
g8
g10
g12
g16
g67
g71
g22
g24
g26
tp4126
(g75
g533
tp4127
(g109
g10
g67
g71
g20
g24
tp4128
tp4129
a((g2
g6
g8
g10
g65
g67
g18
g24
g73
tp4130
(g1680
g3799
tp4131
(g2
g109
g10
g65
g18
g24
g26
g73
tp4132
tp4133
a((g4
g109
g6
g8
g14
g67
g18
g71
g20
g22
g24
g26
tp4134
(g232
g164
tp4135
(g109
g8
g12
g71
g20
g24
g26
tp4136
tp4137
a((g2
g6
g8
g10
g12
g65
g14
g67
g18
g24
g26
g73
tp4138
(g1680
tp4139
(g2
g109
g12
g65
g14
g24
tp4140
tp4141
a((g2
g109
g6
g8
g12
g65
g14
g67
g18
g20
g24
g26
g73
tp4142
(g1316
tp4143
(g2
g109
g14
g67
g18
g71
g20
g24
g26
g73
tp4144
tp4145
a((g2
g109
g8
g10
g12
g65
g14
g67
g18
g71
g24
g73
tp4146
(g232
g1373
tp4147
(g8
g65
g16
g67
g18
g26
tp4148
tp4149
a((g2
g4
g109
g6
g65
g14
g67
g18
g22
g26
g73
tp4150
(g232
g1107
tp4151
(g2
g4
g6
g65
g16
g24
g26
g73
tp4152
tp4153
a((g2
g4
g8
g14
g16
g67
g18
g20
g22
g24
g26
tp4154
(g50
tp4155
(g2
g8
g65
g16
g67
g18
g22
tp4156
tp4157
a((g2
g4
g6
g8
g12
g67
g71
g22
g24
g73
tp4158
(g861
tp4159
(g2
g109
g8
g12
g67
g71
g24
g73
tp4160
tp4161
a((g2
g6
g8
g10
g12
g65
g14
g16
g18
g71
g22
g24
g73
tp4162
(g361
g395
tp4163
(g6
g65
g14
g16
g20
g24
g26
g73
tp4164
tp4165
a((g4
g109
g6
g10
g12
g65
g16
g67
g22
g24
tp4166
(g3732
tp4167
(g4
g6
g18
g22
g24
tp4168
tp4169
a((g2
g109
g6
g12
g65
g14
g16
g67
g71
g22
g26
tp4170
(g1339
g198
tp4171
(g2
g12
g65
g16
g22
g73
tp4172
tp4173
a((g2
g4
g6
g8
g10
g16
g18
g20
g22
g26
g73
tp4174
(g480
g861
tp4175
(g109
g10
g16
g71
tp4176
tp4177
a((g2
g4
g109
g6
g12
g65
g14
g16
g67
g22
g24
g26
g73
tp4178
(g126
tp4179
(g2
g109
g12
g65
g18
g22
g24
tp4180
tp4181
a((g2
g4
g6
g8
g12
g16
g67
g71
g73
tp4182
(g183
tp4183
(g2
g4
g12
g65
g67
g71
g73
tp4184
tp4185
a((g2
g109
g6
g12
g65
g14
g18
g22
g24
tp4186
(g28
(istructures.domain
Action
p4187
(dp4188
g30
(lp4189
(S'at_x7'
p4190
tp4191
a(S'at_y4'
p4192
tp4193
asg36
(lp4194
(S'at_y5'
p4195
tp4196
asg40
(tsg41
(lp4197
(S'at_y4'
p4198
tp4199
asg45
I0
sg46
(lp4200
sg48
S'move_7_4_7_5'
p4201
sbtp4202
(g4
g109
g14
g67
tp4203
tp4204
a((g2
g4
g109
g6
g12
g16
g71
g20
g24
g26
g73
tp4205
(g145
g446
tp4206
(g2
g4
g6
g10
g22
g26
g73
tp4207
tp4208
a((g2
g4
g6
g8
g10
g12
g14
g67
g18
g71
g20
g22
g24
g73
tp4209
(g232
g183
tp4210
(g2
g8
g12
g65
g16
g18
g71
g20
g22
g24
tp4211
tp4212
a((g4
g109
g6
g8
g10
g12
g14
g16
g67
g18
g20
g24
g26
tp4213
(g50
tp4214
(g109
g6
g10
g65
g14
g67
g18
g20
g24
tp4215
tp4216
a((g4
g8
g10
g12
g16
g67
g18
g20
g22
g26
tp4217
(g198
g616
tp4218
(g4
g12
g65
g16
g18
g73
tp4219
tp4220
a((g2
g4
g6
g10
g65
g14
g16
g18
g71
g20
g26
g73
tp4221
(g376
g1827
tp4222
(g6
g12
g65
g16
g18
g71
g20
g22
tp4223
tp4224
a((g2
g4
g109
g6
g8
g65
g16
g18
g71
g22
g24
tp4225
(g28
g395
tp4226
(g109
g6
g8
g65
g16
g67
g71
g24
g26
tp4227
tp4228
a((g2
g6
g65
g14
g16
g18
g71
g20
g22
g24
g26
tp4229
(g164
tp4230
(g2
g12
g65
g18
g22
g26
tp4231
tp4232
a((g2
g109
g6
g10
g12
g14
g16
g67
g18
g22
g24
g73
tp4233
(g922
g1249
tp4234
(g2
g4
g109
g6
g12
g67
g71
g24
tp4235
tp4236
a((g4
g109
g6
g10
g12
g65
g14
g16
g18
g22
g24
tp4237
(g586
g1411
tp4238
(g2
g109
g6
g65
g14
g16
g73
tp4239
tp4240
a((g2
g4
g109
g6
g10
g12
g65
g14
g18
g71
g22
g24
g26
g73
tp4241
(g75
tp4242
(g10
g65
g18
g20
g73
tp4243
tp4244
a((g2
g109
g12
g65
g14
g16
g67
g18
g71
g20
g22
g24
g73
tp4245
(g1339
g1354
tp4246
(g2
g4
g109
g8
g65
g16
g24
tp4247
tp4248
a((g4
g109
g6
g12
g65
g16
g67
g20
g22
tp4249
(g567
tp4250
(g4
g65
g14
g20
g22
tp4251
tp4252
a((g2
g4
g109
g10
g12
g14
g67
g18
g20
g22
g24
g26
g73
tp4253
(g815
tp4254
(g6
g10
g18
g24
g26
g73
tp4255
tp4256
a((g6
g65
g67
g71
g24
tp4257
(g861
g735
tp4258
(g4
g65
tp4259
tp4260
a((g2
g4
g109
g6
g65
g16
g67
g18
g71
g20
g26
tp4261
(g567
g1339
tp4262
(g2
g6
g8
g65
g14
g20
g26
tp4263
tp4264
a((g2
g4
g109
g10
g12
g65
g14
g67
g71
g20
g22
tp4265
(g395
tp4266
(g109
g10
g12
g65
g71
g20
g22
g26
tp4267
tp4268
a((g4
g6
g10
g65
g16
g20
g73
tp4269
(g1230
tp4270
(g4
g71
g73
tp4271
tp4272
a((g4
g109
g6
g8
g10
g14
g16
g67
g18
g20
g22
g24
g73
tp4273
(g480
g601
tp4274
(g4
g10
g14
g71
g20
g22
g24
g26
g73
tp4275
tp4276
a((g2
g109
g10
g12
g65
g16
g18
g71
g24
g26
g73
tp4277
(g2149
tp4278
(g109
g8
g24
g26
tp4279
tp4280
a((g2
g109
g8
g12
g14
g16
g67
g18
g71
g20
g26
g73
tp4281
(g1268
tp4282
(g8
g10
g12
g26
tp4283
tp4284
a((g4
g109
g8
g10
g65
g14
g16
g67
g18
g71
g20
g24
g26
g73
tp4285
(g1854
tp4286
(g2
g8
g65
g14
g18
g20
tp4287
tp4288
a((g2
g4
g109
g6
g8
g10
g12
g14
g16
g67
g18
g71
g24
tp4289
(g75
g376
tp4290
(g109
g6
g10
g67
g18
g20
g22
tp4291
tp4292
a((g2
g109
g8
g12
g65
g14
g16
g67
g71
g20
g22
g24
tp4293
(g198
g395
tp4294
(g2
g109
g12
g65
g20
g26
g73
tp4295
tp4296
a((g2
g109
g65
g14
g16
g18
g71
g22
g26
g73
tp4297
(g361
g1138
g654
tp4298
(g2
g12
g65
g71
g22
g24
tp4299
tp4300
a((g2
g4
g109
g6
g8
g10
g12
g65
g14
g16
g18
g20
g22
g26
g73
tp4301
(g28
g1230
tp4302
(g2
g6
g8
g12
g65
g14
g67
g71
g26
g73
tp4303
tp4304
a((g4
g6
g8
g10
g12
g65
g14
g16
g67
g71
g20
g26
g73
tp4305
(g861
tp4306
(g4
g109
g12
g65
g67
g26
g73
tp4307
tp4308
a((g2
g6
g8
g10
g12
g14
g16
g67
g71
g20
g22
g24
g73
tp4309
(g641
tp4310
(g2
g6
g8
g12
g67
g18
g71
tp4311
tp4312
a((g2
g109
g6
g10
g12
g16
g67
g18
g24
g26
tp4313
(g922
g1339
tp4314
(g2
g8
g18
g24
g26
tp4315
tp4316
a((g2
g6
g8
g10
g65
g14
g67
g18
g24
g26
g73
tp4317
(g3495
tp4318
(g65
g67
g71
g26
g73
tp4319
tp4320
a((g2
g109
g8
g12
g14
g71
g20
g22
g24
g26
tp4321
(g641
g75
g1527
tp4322
(g2
g109
g8
g12
g16
g18
g71
g20
g22
g26
tp4323
tp4324
a((g2
g4
g109
g10
g16
g18
g20
g22
g26
g73
tp4325
(g1153
tp4326
(g2
g109
g10
g14
g20
g22
g26
g73
tp4327
tp4328
a((g4
g8
g10
g12
g65
g14
g16
g67
g18
tp4329
((istructures.domain
Action
p4330
(dp4331
g30
(lp4332
(S'at_x4'
p4333
tp4334
a(S'at_y0'
p4335
tp4336
asg36
(lp4337
(S'at_x3'
p4338
tp4339
asg40
(tsg41
(lp4340
(S'at_x4'
p4341
tp4342
asg45
I0
sg46
(lp4343
sg48
S'move_4_0_3_0'
p4344
sbtp4345
(g65
g16
g67
g73
tp4346
tp4347
a((g2
g4
g8
g12
g65
g14
g16
g67
g18
g71
g22
g24
g26
tp4348
(g427
g907
tp4349
(g109
g8
g10
g16
g18
g71
g24
g26
tp4350
tp4351
a((g2
g4
g6
g8
g10
g12
g65
g14
g16
g67
g71
g22
g73
tp4352
(g533
g376
tp4353
(g8
g10
g12
g14
g22
g24
tp4354
tp4355
a((g4
g109
g12
g14
g16
g67
g71
g20
g24
tp4356
(g50
tp4357
(g4
g65
g67
g20
tp4358
tp4359
a((g4
g6
g8
g14
g67
g18
g71
g20
g22
g24
g73
tp4360
(g232
g601
tp4361
(g6
g8
g16
g20
g22
g26
g73
tp4362
tp4363
a((g4
g109
g16
g67
g18
g71
g20
g73
tp4364
(g1508
g601
tp4365
(g4
g109
g12
g67
g18
g71
g20
g26
tp4366
tp4367
a((g6
g8
g10
g12
g14
g16
g67
g18
g20
g22
g26
g73
tp4368
(g480
g183
tp4369
(g65
g14
g16
g67
g18
g71
g20
g26
g73
tp4370
tp4371
a((g2
g4
g10
g16
g67
g18
g71
g20
g22
g26
g73
tp4372
(g1339
g1905
tp4373
(g2
g109
g8
g16
g18
g20
g22
g26
g73
tp4374
tp4375
a((g4
g6
g8
g10
g12
g16
g71
g20
g24
tp4376
(g641
g183
tp4377
(g10
g12
g65
g18
tp4378
tp4379
a((g2
g109
g6
g10
g12
g65
g16
g67
g71
g20
g22
g26
g73
tp4380
(g567
g90
tp4381
(g65
g14
g16
g67
g20
g22
g26
g73
tp4382
tp4383
a((g4
g6
g8
g14
g20
g22
g24
g26
g73
tp4384
(g788
tp4385
(g4
g109
g8
g14
tp4386
tp4387
a((g2
g4
g109
g6
g10
g12
g65
g67
g71
g20
g22
g73
tp4388
(g243
tp4389
(g2
g4
g109
g8
g10
g12
g67
g71
g20
g22
tp4390
tp4391
a((g2
g4
g109
g6
g8
g10
g12
g65
g16
g18
g71
g22
g24
g26
tp4392
(g198
tp4393
(g2
g6
g12
g71
g73
tp4394
tp4395
a((g2
g4
g109
g6
g8
g14
g16
g67
g18
g71
g20
g22
g24
g26
g73
tp4396
(g446
tp4397
(g2
g8
g10
g16
g22
g24
g26
tp4398
tp4399
a((g4
g109
g6
g8
g10
g65
g14
g67
g18
g71
g26
tp4400
(g376
g880
tp4401
(g6
g8
g65
g14
g71
g24
g26
tp4402
tp4403
a((g2
g6
g8
g10
g65
g14
g16
g67
g18
g20
g22
g24
g26
g73
tp4404
(g922
tp4405
(g6
g8
g67
g18
g71
g22
g24
tp4406
tp4407
a((g4
g109
g6
g8
g65
g16
g71
g20
g24
g26
g73
tp4408
(g641
g3445
tp4409
(g4
g109
g6
g8
g65
g18
g71
g22
g26
g73
tp4410
tp4411
a((g4
g109
g8
g12
g65
g14
g18
g22
g24
g73
tp4412
(g601
tp4413
(g4
g12
g65
g14
g18
g26
g73
tp4414
tp4415
a((g109
g6
g10
g12
g14
g18
g71
g20
g22
g73
tp4416
(g533
tp4417
(g10
g71
g24
tp4418
tp4419
a((g4
g8
g10
g14
g16
g18
g71
g24
g26
tp4420
(g1854
tp4421
(g2
g8
g71
g24
tp4422
tp4423
a((g2
g4
g109
g8
g10
g12
g14
g16
g67
g20
g22
g26
tp4424
(g1138
g50
tp4425
(g4
g109
g8
g12
g65
g14
g16
g22
g24
tp4426
tp4427
a((g2
g4
g109
g8
g10
g12
g14
g16
g71
g20
g24
g26
tp4428
(g641
g145
tp4429
(g109
g8
g12
g14
g16
g18
g71
g22
tp4430
tp4431
a((g2
g109
g6
g10
g12
g14
g67
g18
g71
g20
g22
g73
tp4432
(g1339
g395
tp4433
(g2
g6
g8
g12
g67
g26
g73
tp4434
tp4435
a((g2
g4
g6
g10
g65
g14
g67
g18
g71
g20
g24
g26
g73
tp4436
(g232
g243
tp4437
(g2
g4
g6
g8
g10
g65
g16
g71
tp4438
tp4439
a((g4
g6
g10
g12
g16
g67
g71
g24
g73
tp4440
(g861
g50
tp4441
(g4
g109
g10
g65
g67
g71
g24
g73
tp4442
tp4443
a((g2
g4
g109
g6
g12
g65
g14
g16
g18
g71
g73
tp4444
(g376
tp4445
(g12
g14
g16
g71
g22
tp4446
tp4447
a((g2
g4
g109
g65
g14
g16
g67
g18
g71
g24
tp4448
(g361
g1339
tp4449
(g8
g16
g67
g20
tp4450
tp4451
a((g2
g4
g109
g8
g10
g65
g14
g16
g67
g22
g24
g73
tp4452
(g126
g1045
tp4453
(g109
g8
g10
g16
g18
g20
tp4454
tp4455
a((g109
g6
g67
g20
g22
g24
g26
g73
tp4456
(g654
g1195
tp4457
(g4
g6
g12
g24
g26
tp4458
tp4459
a((g2
g4
g109
g10
g12
g65
g14
g67
g71
g20
g22
g73
tp4460
(g533
g243
tp4461
(g2
g8
g10
g12
g65
g14
g67
g71
g24
tp4462
tp4463
a((g2
g109
g8
g10
g12
g65
g14
g67
g18
g20
g24
g26
g73
tp4464
(g262
tp4465
(g2
g4
g12
g65
g14
g24
g26
tp4466
tp4467
a((g2
g109
g6
g10
g65
g14
g18
g71
g22
g24
g73
tp4468
(g28
g395
tp4469
(g2
g6
g10
g14
g67
g26
tp4470
tp4471
a((g2
g4
g6
g8
g10
g12
g14
g16
g67
g18
g24
tp4472
(g323
g50
tp4473
(g4
g10
g65
g14
g16
g73
tp4474
tp4475
a((g2
g4
g109
g8
g12
g65
g71
g22
g24
g26
g73
tp4476
(g75
g111
tp4477
(g8
g16
g71
g20
g22
g73
tp4478
tp4479
a((g2
g4
g109
g6
g8
g10
g65
g67
g20
g26
tp4480
(g4330
tp4481
(g2
g10
g65
g67
g20
g73
tp4482
tp4483
a((g2
g4
g6
g8
g10
g65
g16
g71
g20
g24
g73
tp4484
(g1905
g3445
tp4485
(g109
g6
g10
g16
g71
g22
tp4486
tp4487
a((g109
g6
g8
g65
g16
g67
g18
g71
g20
g24
g26
tp4488
(g323
tp4489
(g6
g65
g16
g67
g18
g71
g20
g24
g73
tp4490
tp4491
a((g2
g6
g8
g12
g16
g20
g22
g24
g73
tp4492
(g480
g183
tp4493
(g12
g65
g16
g71
g73
tp4494
tp4495
a((g4
g109
g6
g10
g12
g65
g14
g16
g67
g18
g71
tp4496
(g376
g281
tp4497
(g6
g67
g22
g73
tp4498
tp4499
a((g2
g109
g6
g8
g10
g65
g16
g67
g18
g71
g20
g26
tp4500
(g1138
tp4501
(g2
g8
g67
g18
g24
g26
tp4502
tp4503
a((g2
g4
g109
g6
g12
g16
g18
g71
g20
g24
g26
tp4504
(g28
g671
tp4505
(g4
g109
g6
g10
g12
g67
g71
g24
g26
tp4506
tp4507
a((g2
g6
g10
g12
g14
g67
g18
g71
g20
g24
tp4508
(g145
g1339
tp4509
(g2
g8
g10
g14
g20
g22
tp4510
tp4511
a((g2
g4
g10
g12
g65
g14
g67
g18
g71
g20
g24
g26
g73
tp4512
(g376
tp4513
(g2
g14
g67
g18
g20
g22
g24
g73
tp4514
tp4515
a((g2
g4
g6
g12
g65
g14
g16
g67
g18
g71
g20
g22
g26
tp4516
(g533
tp4517
(g6
g12
g14
g16
g20
g24
tp4518
tp4519
a((g4
g6
g8
g10
g65
g16
g18
g22
g24
g73
tp4520
(g1045
tp4521
(g6
g16
g20
g73
tp4522
tp4523
a((g2
g4
g109
g6
g12
g65
g18
g71
g24
g26
g73
tp4524
(g145
tp4525
(g2
g6
g65
g22
g26
tp4526
tp4527
a((g2
g109
g6
g10
g12
g65
g14
g16
g67
g18
g22
tp4528
(g281
g164
tp4529
(g10
g12
g65
g67
g18
g22
g73
tp4530
tp4531
a((g2
g4
g109
g6
g8
g12
g16
g67
g71
g22
g24
g26
tp4532
(g75
g446
tp4533
(g8
g10
g12
g67
g20
g22
tp4534
tp4535
a((g2
g4
g109
g6
g10
g12
g14
g67
g20
g24
g26
g73
tp4536
(g232
tp4537
(g4
g6
g10
g12
g16
g20
g24
tp4538
tp4539
a((g2
g4
g6
g65
g67
g18
g71
g20
g24
g26
g73
tp4540
(g861
g2031
tp4541
(g2
g4
g109
g67
g20
g22
g26
tp4542
tp4543
a((g2
g4
g109
g6
g8
g10
g12
g65
g14
g16
g18
g20
g22
g73
tp4544
(g533
g376
tp4545
(g2
g8
g12
g14
g16
g20
g22
g24
g73
tp4546
tp4547
a((g4
g6
g8
g12
g65
g14
g67
g18
g71
g20
g24
tp4548
(g861
g232
tp4549
(g109
g12
g65
g16
g18
g71
tp4550
tp4551
a((g2
g4
g6
g8
g10
g12
g65
g14
g71
g20
g22
g24
g26
g73
tp4552
(g3225
tp4553
(g2
g4
g12
g16
g22
tp4554
tp4555
a((g2
g4
g109
g6
g8
g12
g65
g14
g16
g67
g20
g22
g24
g73
tp4556
(g480
g601
tp4557
(g109
g6
g12
g65
g14
g67
g71
g20
g22
g24
g26
g73
tp4558
tp4559
a((g2
g109
g6
g10
g12
g65
g16
g71
g24
g26
g73
tp4560
(g548
tp4561
(g2
g109
g6
g10
g12
g65
g14
tp4562
tp4563
a((g4
g109
g6
g8
g67
g18
g20
g22
g73
tp4564
(g1080
tp4565
(g109
g8
g12
g20
tp4566
tp4567
a((g2
g4
g109
g6
g8
g10
g12
g65
g14
g16
g67
g18
g22
g24
g73
tp4568
(g922
tp4569
(g2
g8
g65
g14
g16
g67
g18
g71
g24
g73
tp4570
tp4571
a((g109
g6
g8
g10
g12
g65
g14
g16
g18
g20
g22
g26
g73
tp4572
(g262
g788
tp4573
(g4
g109
g65
g16
g22
tp4574
tp4575
a((g109
g6
g8
g10
g12
g65
g16
g67
g71
g20
g22
g24
g73
tp4576
(g126
g1373
tp4577
(g6
g8
g10
g65
g18
g71
g20
g26
tp4578
tp4579
a((g4
g109
g6
g10
g16
g18
g71
g22
g24
g26
g73
tp4580
(g654
tp4581
(g10
g12
g18
g24
g26
tp4582
tp4583
a((g2
g4
g109
g6
g10
g12
g65
g14
g16
g20
g73
tp4584
(g376
tp4585
(g2
g109
g65
g16
g20
g22
g73
tp4586
tp4587
a((g2
g109
g8
g10
g14
g16
g67
g71
g20
tp4588
(g412
tp4589
(g6
g8
g16
g67
g20
tp4590
tp4591
a((g2
g4
g109
g6
g8
g10
g12
g65
g14
g18
g71
g20
g22
g73
tp4592
(g28
g533
tp4593
(g4
g8
g12
g65
g14
g67
g24
tp4594
tp4595
a((g2
g4
g109
g6
g8
g14
g67
g18
g71
g20
g24
g73
tp4596
(g232
(istructures.domain
Action
p4597
(dp4598
g30
(lp4599
(S'at_x7'
p4600
tp4601
a(S'at_y5'
p4602
tp4603
asg36
(lp4604
(S'at_y4'
p4605
tp4606
asg40
(tsg41
(lp4607
(S'at_y5'
p4608
tp4609
asg45
I0
sg46
(lp4610
sg48
S'move_7_5_7_4'
p4611
sbtp4612
(g6
g8
g16
g67
g18
g20
g22
g24
g73
tp4613
tp4614
a((g2
g4
g8
g10
g65
g14
g67
g18
g71
g20
g24
tp4615
(g376
g1373
tp4616
(g10
g67
g18
g20
g22
g26
tp4617
tp4618
a((g4
g109
g8
g10
g65
g14
g67
g18
g71
g20
g22
g24
g73
tp4619
(g654
tp4620
(g12
g65
g14
g18
g20
g22
tp4621
tp4622
a((g4
g12
g65
g14
g16
g67
g18
g71
g20
g22
g73
tp4623
(g533
g376
tp4624
(g65
g14
g16
g67
g18
g20
g22
g24
g73
tp4625
tp4626
a((g2
g109
g6
g8
g10
g12
g67
g18
g20
g22
g24
g26
tp4627
(g616
tp4628
(g2
g109
g8
g10
g12
g65
g20
g26
tp4629
tp4630
a((g2
g4
g109
g8
g10
g65
g14
g16
g67
g18
g71
g22
g24
g26
g73
tp4631
(g412
tp4632
(g2
g4
g6
g8
g10
g67
g18
g22
g24
g73
tp4633
tp4634
a((g2
g109
g6
g12
g65
g14
g16
g67
g20
g22
g26
g73
tp4635
(g514
tp4636
(g2
g12
g65
g16
g67
g18
g22
g26
tp4637
tp4638
a((g2
g4
g109
g8
g10
g65
g14
g16
g18
g20
g24
g26
g73
tp4639
(g1316
g815
tp4640
(g6
g10
g18
g71
g20
g24
tp4641
tp4642
a((g8
g12
g14
g16
g71
g20
g22
tp4643
(g641
g533
g50
tp4644
(g12
g65
g16
g18
g71
g24
tp4645
tp4646
a((g109
g6
g8
g10
g14
g18
g71
g20
g22
g24
g73
tp4647
(g1354
g183
tp4648
(g4
g6
g8
g65
g14
g18
g71
g20
g24
tp4649
tp4650
a((g2
g109
g8
g10
g12
g14
g16
g67
g71
g20
g22
g24
tp4651
(g395
tp4652
(g2
g10
g12
g14
g16
g24
g26
tp4653
tp4654
a((g2
g4
g109
g6
g12
g65
g14
g67
g71
g20
g22
g24
g73
tp4655
(g126
tp4656
(g2
g4
g109
g6
g12
g14
g18
g71
g20
g22
tp4657
tp4658
a((g4
g109
g6
g10
g65
g14
g16
g67
g18
g20
g22
g73
tp4659
(g1411
tp4660
(g2
g4
g109
g14
g16
g67
g18
g20
tp4661
tp4662
a((g4
g6
g8
g10
g12
g65
g14
g67
g18
g20
g24
g73
tp4663
(g145
tp4664
(g4
g6
g8
g10
g12
g14
g20
g22
tp4665
tp4666
a((g2
g4
g109
g6
g8
g12
g65
g14
g18
g20
g26
tp4667
(g376
g262
tp4668
(g2
g4
g6
g12
g14
g20
g22
g26
tp4669
tp4670
a((g4
g109
g6
g8
g10
g14
g16
g18
g20
g26
tp4671
(g164
g586
tp4672
(g6
g8
g18
g26
g73
tp4673
tp4674
a((g2
g4
g109
g65
g14
g16
g18
g71
g20
g24
tp4675
(g28
g1339
tp4676
(g2
g4
g8
g65
g16
g67
g20
tp4677
tp4678
a((g2
g109
g6
g8
g10
g14
g16
g67
g18
g71
g20
g22
g73
tp4679
(g1138
g183
tp4680
(g2
g6
g10
g65
g67
g24
g73
tp4681
tp4682
a((g2
g4
g109
g10
g12
g14
g16
g67
g71
g22
g24
tp4683
(g2207
g50
tp4684
(g65
g16
g18
g22
g24
tp4685
tp4686
a((g2
g4
g6
g8
g10
g12
g65
g14
g67
g18
g20
g22
g73
tp4687
(g601
tp4688
(g2
g8
g65
g14
g67
g20
g22
g26
tp4689
tp4690
a((g6
g8
g10
g12
g65
g14
g16
g67
g18
g22
g24
g73
tp4691
(g75
g1230
tp4692
(g8
g65
g71
g20
g22
tp4693
tp4694
a((g6
g8
g10
g12
g14
g67
g71
g20
g22
g73
tp4695
(g861
g1394
tp4696
(g109
g8
g67
g20
g26
g73
tp4697
tp4698
a((g2
g4
g6
g8
g10
g12
g65
g16
g67
g18
g71
g20
g24
g73
tp4699
(g145
g1138
tp4700
(g4
g6
g8
g12
g67
g18
g71
g22
g24
g73
tp4701
tp4702
a((g4
g109
g8
g10
g12
g14
g16
g67
g20
g22
tp4703
(g1138
g50
tp4704
(g109
g8
g10
g12
g65
g16
g22
g24
tp4705
tp4706
a((g4
g67
g18
g71
g20
g22
g26
g73
tp4707
(g446
g1411
(istructures.domain
Action
p4708
(dp4709
g30
(lp4710
(S'at_x7'
p4711
tp4712
a(S'at_y2'
p4713
tp4714
asg36
(lp4715
(S'at_y3'
p4716
tp4717
asg40
(tsg41
(lp4718
(S'at_y2'
p4719
tp4720
asg45
I0
sg46
(lp4721
sg48
S'move_7_2_7_3'
p4722
sbtp4723
(g2
g4
g67
g18
g24
g26
tp4724
tp4725
a((g109
g6
g12
g65
g16
g18
g20
g24
g26
tp4726
(g1195
(istructures.domain
Action
p4727
(dp4728
g30
(lp4729
(S'at_x1'
p4730
tp4731
a(S'at_y7'
p4732
tp4733
asg36
(lp4734
(S'at_y6'
p4735
tp4736
asg40
(tsg41
(lp4737
(S'at_y7'
p4738
tp4739
asg45
I0
sg46
(lp4740
sg48
S'move_1_7_1_6'
p4741
sbtp4742
(g4
g109
g65
g24
g26
tp4743
tp4744
a((g2
g109
g8
g10
g12
g65
g67
g18
g71
g20
g22
g24
tp4745
(g412
g1373
tp4746
(g2
g6
g12
g65
g18
g71
g26
tp4747
tp4748
a((g6
g65
g16
g67
g18
g20
g22
tp4749
(g164
g703
(istructures.domain
Action
p4750
(dp4751
g30
(lp4752
(S'at_x2'
p4753
tp4754
a(S'at_y2'
p4755
tp4756
asg36
(lp4757
(S'at_y3'
p4758
tp4759
asg40
(tsg41
(lp4760
(S'at_y2'
p4761
tp4762
asg45
I0
sg46
(lp4763
sg48
S'move_2_2_2_3'
p4764
sbtp4765
(g12
g65
g22
g24
g26
tp4766
tp4767
a((g109
g8
g10
g12
g65
g14
g16
g22
tp4768
(g198
g533
(istructures.domain
Action
p4769
(dp4770
g30
(lp4771
(S'at_x6'
p4772
tp4773
a(S'at_y6'
p4774
tp4775
asg36
(lp4776
(S'have_item0'
p4777
tp4778
asg40
(tsg41
(lp4779
sg45
I0
sg46
(lp4780
sg48
S'easymark_item0_6_6'
p4781
sbtp4782
(g10
g65
g14
g24
g26
g73
tp4783
tp4784
a((g2
g4
g6
g8
g10
g12
g65
g14
g67
g18
g20
g22
g24
g73
tp4785
(g111
tp4786
(g2
g4
g6
g8
g10
g65
g14
g16
g67
g20
g22
g24
tp4787
tp4788
a((g4
g109
g6
g10
g12
g14
g16
g71
g20
g22
g24
g26
tp4789
(g586
g2603
tp4790
(g4
g109
g8
g10
g16
g71
g20
g22
g26
tp4791
tp4792
a((g2
g4
g109
g6
g8
g10
g12
g14
g67
g18
g71
g22
g24
g26
g73
tp4793
(g232
g361
tp4794
(g4
g16
g20
g26
tp4795
tp4796
a((g4
g109
g6
g12
g14
g67
g71
g22
g26
g73
tp4797
(g126
g183
tp4798
(g4
g65
g14
g18
g71
g22
tp4799
tp4800
a((g2
g109
g12
g65
g18
g71
g22
g73
tp4801
(g2149
g395
tp4802
(g2
g109
g8
g65
g18
g26
g73
tp4803
tp4804
a((g4
g109
g8
g10
g12
g16
g67
g18
g20
g22
g26
tp4805
(g1411
tp4806
(g2
g109
g22
g26
tp4807
tp4808
a((g2
g8
g12
g14
g67
g18
g71
g20
g26
g73
tp4809
(g232
g1138
g907
tp4810
(g8
g10
g16
g67
g18
g24
g26
g73
tp4811
tp4812
a((g2
g109
g12
g65
g14
g16
g67
g20
g22
g26
g73
tp4813
(g126
tp4814
(g109
g12
g65
g18
g22
g26
tp4815
tp4816
a((g4
g109
g6
g8
g12
g14
g16
g67
g18
g22
g24
g26
tp4817
(g198
g50
tp4818
(g6
g65
g67
g18
g24
g26
g73
tp4819
tp4820
a((g2
g4
g109
g6
g8
g12
g14
g16
g67
g18
g26
tp4821
(g671
g616
tp4822
(g4
g6
g8
g65
g14
g67
g18
tp4823
tp4824
a((g2
g4
g6
g8
g10
g12
g65
g16
g18
g20
g26
g73
tp4825
(g1680
tp4826
(g109
g10
g16
g20
g26
tp4827
tp4828
a((g4
g109
g8
g10
g12
g14
g16
g67
g71
g20
g22
g26
tp4829
(g533
g50
tp4830
(g4
g109
g10
g12
g65
g14
g24
tp4831
tp4832
a((g6
g8
g10
g14
g16
g67
g71
g22
g24
g26
g73
tp4833
(g183
tp4834
(g6
g8
g65
g14
g26
tp4835
tp4836
a((g2
g6
g10
g65
g67
g18
g20
g24
g26
g73
tp4837
(g1680
tp4838
(g2
g109
g65
g67
g20
tp4839
tp4840
a((g2
g4
g6
g8
g10
g12
g65
g14
g67
g18
g71
g20
g24
g73
tp4841
(g145
tp4842
(g2
g8
g10
g65
g67
g18
g71
g20
g22
tp4843
tp4844
a((g4
g109
g6
g8
g10
g14
g16
g67
g20
g24
g73
tp4845
(g50
tp4846
(g109
g6
g10
g65
g14
g16
g24
tp4847
tp4848
a((g2
g4
g109
g6
g10
g12
g14
g67
g18
g71
g24
g26
g73
tp4849
(g183
tp4850
(g2
g4
g6
g65
g14
g67
g18
g71
g24
g26
g73
tp4851
tp4852
a((g4
g6
g8
g10
g12
g65
g16
g67
g18
g20
g26
tp4853
(g1138
tp4854
(g10
g12
g18
g24
g26
tp4855
tp4856
a((g2
g4
g109
g8
g12
g65
g14
g67
g18
g71
g20
g22
g26
tp4857
(g198
g1339
tp4858
(g2
g4
g109
g8
g12
g67
g18
g26
g73
tp4859
tp4860
a((g2
g4
g109
g6
g8
g14
g67
g18
g24
g26
g73
tp4861
(g654
g111
tp4862
(g2
g4
g6
g8
g14
g16
g18
g24
tp4863
tp4864
a((g2
g4
g10
g67
g18
g71
g22
g24
g26
g73
tp4865
(g654
g111
g1905
tp4866
(g2
g109
g16
g71
g22
tp4867
tp4868
a((g2
g109
g6
g8
g10
g14
g16
g71
g22
g24
g26
g73
tp4869
(g164
g183
tp4870
(g10
g12
g65
g14
g22
g24
g26
g73
tp4871
tp4872
a((g4
g109
g6
g8
g12
g65
g14
g16
g67
g71
g20
tp4873
(g376
tp4874
(g109
g8
g67
g22
tp4875
tp4876
a((g109
g8
g10
g12
g65
g16
g18
g22
g24
tp4877
(g2780
tp4878
(g12
g65
g16
g67
g22
tp4879
tp4880
a((g2
g4
g12
g14
g16
g67
g18
g71
g20
g22
g24
g73
tp4881
(g601
tp4882
(g4
g12
g16
g71
g20
g22
g26
g73
tp4883
tp4884
a((g2
g4
g6
g14
g67
g20
g22
g24
tp4885
(g671
g922
tp4886
(g6
g14
g67
g71
g22
g24
tp4887
tp4888
a((g2
g109
g6
g8
g10
g12
g14
g67
g18
g71
g20
g73
tp4889
(g232
g183
tp4890
(g109
g6
g12
g65
g16
g67
g18
g71
tp4891
tp4892
a((g4
g109
g8
g12
g14
g67
g18
g71
g20
g22
g26
tp4893
(g533
g412
tp4894
(g6
g67
g18
g20
g24
tp4895
tp4896
a((g2
g4
g109
g6
g10
g12
g16
g18
g24
g73
tp4897
(g145
g548
tp4898
(g109
g6
g10
g12
g14
g22
g73
tp4899
tp4900
a((g2
g4
g6
g8
g12
g14
g18
g20
g22
g24
tp4901
(g586
g1527
tp4902
(g6
g8
g16
g20
g73
tp4903
tp4904
a((g2
g4
g109
g8
g65
g14
g16
g18
g71
g73
tp4905
(g412
g671
tp4906
(g6
g8
g10
g14
g16
g18
tp4907
tp4908
a((g4
g109
g6
g8
g12
g14
g16
g18
g20
g22
g24
g26
g73
tp4909
(g480
g183
tp4910
(g4
g6
g12
g65
g14
g18
g71
g22
g73
tp4911
tp4912
a((g109
g6
g8
g10
g12
g14
g16
g67
g22
g24
tp4913
(g1411
g281
tp4914
(g2
g109
g6
g8
g14
g16
g67
g24
g73
tp4915
tp4916
a((g2
g10
g67
g18
g20
g22
g24
g26
g73
tp4917
(g616
tp4918
(g65
g67
g22
g24
g26
g73
tp4919
tp4920
a((g2
g109
g8
g12
g16
g71
g20
g26
g73
tp4921
(g1268
g412
tp4922
(g6
g8
g10
g12
g16
g20
tp4923
tp4924
a((g4
g109
g6
g10
g12
g65
g14
g67
g18
g71
tp4925
(g232
g1558
tp4926
(g10
g16
g71
g22
tp4927
tp4928
a((g2
g109
g8
g12
g65
g18
g71
g20
g24
tp4929
(g1268
(istructures.domain
Action
p4930
(dp4931
g30
(lp4932
(S'at_x2'
p4933
tp4934
a(S'at_y6'
p4935
tp4936
asg36
(lp4937
(S'at_x3'
p4938
tp4939
asg40
(tsg41
(lp4940
(S'at_x2'
p4941
tp4942
asg45
I0
sg46
(lp4943
sg48
S'move_2_6_3_6'
p4944
sbtp4945
(g2
g109
g8
g10
g65
g20
g24
g73
tp4946
tp4947
a((g109
g10
g65
g14
g16
g67
g18
g20
g22
g24
g26
g73
tp4948
(g1249
g243
tp4949
(g4
g109
g8
g16
g26
tp4950
tp4951
a((g2
g109
g8
g12
g16
g18
g71
g22
g26
tp4952
(g198
tp4953
(g2
g12
g16
g26
g73
tp4954
tp4955
a((g2
g4
g8
g65
g14
g16
g67
g18
g20
g22
g24
tp4956
(g427
g395
tp4957
(g2
g109
g8
g14
g16
g67
g18
g22
g24
g26
tp4958
tp4959
a((g2
g4
g109
g6
g8
g12
g14
g67
g18
g20
g22
g24
g26
g73
tp4960
(g480
g446
tp4961
(g2
g6
g10
g24
g73
tp4962
tp4963
a((g2
g4
g6
g8
g10
g12
g65
g14
g16
g67
g71
g22
g73
tp4964
(g601
tp4965
(g10
g12
g14
g71
g26
g73
tp4966
tp4967
a((g2
g109
g6
g8
g10
g65
g14
g67
g71
g22
g24
g73
tp4968
(g654
g90
tp4969
(g6
g65
g14
g16
g71
g22
g24
tp4970
tp4971
a((g2
g6
g10
g12
g14
g16
g18
g20
g22
g24
g73
tp4972
(g28
tp4973
(g2
g6
g12
g14
g67
g20
g73
tp4974
tp4975
a((g4
g6
g8
g18
g71
g22
g24
g73
tp4976
(g861
g495
tp4977
(g4
g109
g8
g67
g71
g24
g73
tp4978
tp4979
a((g2
g4
g6
g8
g12
g16
g18
g71
g24
tp4980
(g28
g183
tp4981
(g6
g65
g16
g67
g24
tp4982
tp4983
a((g2
g10
g65
g16
g67
g18
g22
g24
g73
tp4984
(g395
tp4985
(g10
g65
g67
g18
g22
g26
g73
tp4986
tp4987
a((g4
g109
g6
g8
g10
g14
g16
g67
g71
g22
g26
g73
tp4988
(g164
tp4989
(g109
g6
g10
g12
g14
g71
g22
g26
g73
tp4990
tp4991
a((g2
g4
g6
g8
g10
g12
g65
g14
g16
g67
g18
g20
g22
g24
tp4992
(g395
tp4993
(g4
g6
g10
g14
g16
g67
g18
g20
g24
g26
tp4994
tp4995
a((g2
g6
g8
g10
g12
g16
g67
g24
g26
tp4996
(g1680
tp4997
(g2
g109
g8
g10
g12
g16
tp4998
tp4999
a((g4
g109
g6
g10
g12
g14
g71
g22
g24
g26
g73
tp5000
(g111
tp5001
(g4
g109
g16
g22
g24
g26
g73
tp5002
tp5003
a((g109
g6
g8
g10
g12
g65
g14
g16
g67
g20
g22
g24
g73
tp5004
(g480
g1249
tp5005
(g4
g109
g6
g12
g14
g67
g71
tp5006
tp5007
a((g10
g12
g16
g67
g18
g71
g26
tp5008
(g616
tp5009
(g10
g65
tp5010
tp5011
a((g4
g6
g8
g10
g12
g14
g16
g71
g20
g22
g73
tp5012
(g641
g1411
tp5013
(g2
g4
g6
g8
g12
g14
g18
g73
tp5014
tp5015
a((g2
g109
g8
g10
g12
g65
g14
g16
g67
g20
g26
tp5016
(g2207
(istructures.domain
Action
p5017
(dp5018
g30
(lp5019
(S'at_x6'
p5020
tp5021
a(S'at_y2'
p5022
tp5023
asg36
(lp5024
(S'at_x5'
p5025
tp5026
asg40
(tsg41
(lp5027
(S'at_x6'
p5028
tp5029
asg45
I0
sg46
(lp5030
sg48
S'move_6_2_5_2'
p5031
sbtp5032
(g2
g8
g65
g16
g18
g71
g20
tp5033
tp5034
a((g2
g6
g65
g14
g67
g71
g20
g22
g24
tp5035
(g232
g395
tp5036
(g2
g65
g16
g20
g22
g24
g26
tp5037
tp5038
a((g4
g109
g6
g10
g16
g18
g26
tp5039
(g164
g586
g1558
tp5040
(g109
g6
g10
g18
g22
g26
g73
tp5041
tp5042
a((g2
g109
g6
g8
g10
g12
g65
g14
g16
g67
g18
g71
g26
g73
tp5043
(g361
g126
tp5044
(g109
g6
g18
g20
tp5045
tp5046
a((g2
g4
g8
g10
g12
g65
g67
g18
g22
g24
g26
g73
tp5047
(g361
tp5048
(g2
g10
g65
g67
g20
g22
tp5049
tp5050
a((g2
g8
g10
g65
g16
g67
g71
g22
g24
g26
g73
tp5051
(g567
g1045
tp5052
(g10
g65
g14
g20
g26
g73
tp5053
tp5054
a((g2
g4
g109
g8
g10
g12
g65
g67
g18
g71
g24
g73
tp5055
(g412
tp5056
(g4
g6
g10
g12
g65
g18
g71
g73
tp5057
tp5058
a((g2
g109
g6
g12
g65
g14
g16
g18
g73
tp5059
(g361
tp5060
(g12
g65
g14
g20
g73
tp5061
tp5062
a((g4
g109
g6
g8
g10
g12
g65
g16
g67
g71
g20
g22
g26
tp5063
(g567
g533
tp5064
(g4
g6
g65
g14
g20
g24
tp5065
tp5066
a((g2
g109
g14
g16
g71
g20
g22
g24
g73
tp5067
(g395
tp5068
(g14
g71
g22
g24
g26
g73
tp5069
tp5070
a((g109
g6
g10
g12
g14
g16
g67
g18
g20
g24
g73
tp5071
(g145
g616
tp5072
(g10
g65
g14
g16
g18
g20
g22
g73
tp5073
tp5074
a((g10
g65
g16
g67
g71
g20
g22
g24
g73
tp5075
(g1411
g395
tp5076
(g2
g65
g16
g22
g24
g26
g73
tp5077
tp5078
a((g4
g109
g6
g12
g14
g71
g22
g24
g26
g73
tp5079
(g3225
tp5080
(g4
g109
g12
g16
g24
g73
tp5081
tp5082
a((g2
g4
g109
g6
g12
g14
g71
g20
g22
g24
g73
tp5083
(g183
tp5084
(g6
g12
g65
g71
g20
g24
g73
tp5085
tp5086
a((g109
g65
g14
g16
g67
g22
g26
g73
tp5087
(g126
(istructures.domain
Action
p5088
(dp5089
g30
(lp5090
(S'at_x0'
p5091
tp5092
a(S'at_y1'
p5093
tp5094
asg36
(lp5095
(S'at_y2'
p5096
tp5097
asg40
(tsg41
(lp5098
(S'at_y1'
p5099
tp5100
asg45
I0
sg46
(lp5101
sg48
S'move_0_1_0_2'
p5102
sbtp5103
(g65
g14
g16
g20
tp5104
tp5105
a((g2
g6
g10
g65
g14
g16
g67
g71
g20
g22
g26
g73
tp5106
(g126
tp5107
(g6
g14
g18
g20
g73
tp5108
tp5109
a((g2
g109
g6
g12
g65
g14
g67
g18
g71
g20
g22
g24
g26
tp5110
(g1339
g198
tp5111
(g2
g6
g12
g65
g18
g20
g22
g73
tp5112
tp5113
a((g4
g109
g6
g65
g14
g67
g18
g20
g22
g26
g73
tp5114
(g1107
tp5115
(g109
g6
g65
g14
g18
g24
g26
tp5116
tp5117
a((g2
g4
g6
g10
g12
g65
g14
g67
g18
g71
g20
g22
g24
g73
tp5118
(g861
g232
tp5119
(g2
g109
g65
g16
g67
g71
g73
tp5120
tp5121
a((g2
g109
g6
g8
g12
g65
g67
g71
g20
g22
g26
g73
tp5122
(g641
g533
tp5123
(g8
g12
g18
g71
g24
g26
g73
tp5124
tp5125
a((g6
g10
g14
g67
g20
g22
tp5126
((istructures.domain
Action
p5127
(dp5128
g30
(lp5129
(S'at_x6'
p5130
tp5131
a(S'at_y7'
p5132
tp5133
asg36
(lp5134
(S'at_y6'
p5135
tp5136
asg40
(tsg41
(lp5137
(S'at_y7'
p5138
tp5139
asg45
I0
sg46
(lp5140
sg48
S'move_6_7_6_6'
p5141
sbg2324
tp5142
(g109
g10
g67
g22
g24
tp5143
tp5144
a((g2
g4
g109
g8
g10
g12
g65
g14
g16
g67
g71
g22
tp5145
(g198
tp5146
(g4
g109
g16
g67
g71
g73
tp5147
tp5148
a((g2
g4
g109
g6
g8
g10
g65
g67
g71
g20
g22
g24
g73
tp5149
(g654
g198
tp5150
(g4
g10
g12
g65
g71
g73
tp5151
tp5152
a((g2
g4
g109
g8
g10
g12
g14
g20
g22
g26
g73
tp5153
(g641
(istructures.domain
Action
p5154
(dp5155
g30
(lp5156
(S'at_x6'
p5157
tp5158
a(S'at_y5'
p5159
tp5160
asg36
(lp5161
(S'at_x5'
p5162
tp5163
asg40
(tsg41
(lp5164
(S'at_x6'
p5165
tp5166
asg45
I0
sg46
(lp5167
sg48
S'move_6_5_5_5'
p5168
sbtp5169
(g2
g4
g109
g8
g18
g71
g22
tp5170
tp5171
a((g2
g109
g8
g12
g65
g14
g67
g18
g71
g20
g22
g73
tp5172
(g945
tp5173
(g2
g109
g67
g71
g22
g24
tp5174
tp5175
a((g6
g8
g12
g14
g16
g18
g71
g22
g24
tp5176
(g861
g50
tp5177
(g109
g8
g12
g65
g16
tp5178
tp5179
a((g2
g4
g6
g8
g10
g12
g65
g14
g16
g67
g71
g20
g24
g73
tp5180
(g641
g427
tp5181
(g2
g109
g6
g8
g12
g65
g16
g67
g18
g73
tp5182
tp5183
a((g109
g6
g8
g65
g14
g71
g20
g22
g26
g73
tp5184
(g1827
tp5185
(g109
g6
g8
g12
g65
g71
g22
tp5186
tp5187
a((g2
g4
g6
g8
g10
g14
g16
g71
g22
g24
tp5188
(g861
tp5189
(g4
g109
g8
g14
g16
g22
tp5190
tp5191
a((g2
g12
g16
g18
g71
g22
g26
tp5192
(g361
g1736
tp5193
(g2
g8
g16
g20
g22
g26
tp5194
tp5195
a((g2
g4
g109
g6
g10
g65
g14
g16
g67
g18
g71
g24
tp5196
(g164
g361
tp5197
(g2
g109
g6
g10
g12
g65
g14
g67
g71
g20
g24
tp5198
tp5199
a((g109
g6
g8
g12
g14
g67
g20
g22
g24
g26
g73
tp5200
(g641
g480
tp5201
(g67
g18
g71
g22
g26
tp5202
tp5203
a((g4
g109
g8
g65
g14
g67
g18
g22
g24
tp5204
(g480
g1373
tp5205
(g14
g67
g18
g71
g22
g26
tp5206
tp5207
a((g2
g4
g109
g12
g65
g16
g67
g20
tp5208
(g972
g1287
tp5209
(g2
g4
g6
g12
g65
g16
g20
g26
tp5210
tp5211
a((g4
g109
g8
g12
g65
g14
g67
g71
g20
g22
g26
tp5212
(g641
g446
tp5213
(g4
g10
g18
g26
tp5214
tp5215
a((g2
g4
g109
g6
g14
g16
g67
g71
g20
g22
tp5216
(g164
g533
tp5217
(g12
g14
g67
g71
g24
tp5218
tp5219
a((g2
g109
g8
g12
g16
g67
g18
g22
g26
tp5220
(g198
g533
tp5221
(g2
g12
g16
g24
g26
g73
tp5222
tp5223
a((g4
g109
g14
g16
g18
g71
g24
g26
tp5224
(g300
(istructures.domain
Action
p5225
(dp5226
g30
(lp5227
(S'at_x0'
p5228
tp5229
a(S'at_y6'
p5230
tp5231
asg36
(lp5232
(S'at_y7'
p5233
tp5234
asg40
(tsg41
(lp5235
(S'at_y6'
p5236
tp5237
asg45
I0
sg46
(lp5238
sg48
S'move_0_6_0_7'
p5239
sbtp5240
(g4
g6
g14
g20
g24
g26
tp5241
tp5242
a((g2
g4
g109
g6
g8
g10
g65
g71
g20
g22
g26
g73
tp5243
(g641
g1827
tp5244
(g2
g10
g12
g65
g18
g26
tp5245
tp5246
a((g2
g4
g109
g8
g14
g18
g71
g20
g22
tp5247
(g880
tp5248
(g4
g109
g18
g71
g20
g24
tp5249
tp5250
a((g2
g109
g6
g10
g12
g65
g16
g18
g20
g22
g24
g73
tp5251
(g395
tp5252
(g6
g12
g18
g22
g24
g26
g73
tp5253
tp5254
a((g4
g6
g10
g12
g65
g16
g67
g22
g24
g26
g73
tp5255
(g75
g567
tp5256
(g4
g6
g10
g65
g14
g67
g20
g26
tp5257
tp5258
a((g2
g4
g6
g8
g10
g14
g16
g67
g71
g20
g73
tp5259
(g164
g126
tp5260
(g2
g4
g6
g8
g12
g14
g18
g20
tp5261
tp5262
a((g2
g4
g109
g6
g8
g10
g12
g65
g16
g67
g18
g71
g20
g26
tp5263
(g586
tp5264
(g2
g8
g10
g71
g73
tp5265
tp5266
a((g2
g4
g109
g6
g8
g12
g65
g14
g16
g67
g18
g71
g20
g22
g26
g73
tp5267
(g533
tp5268
(g2
g6
g14
g16
g67
g18
g71
g20
g24
tp5269
tp5270
a((g2
g4
g10
g65
g14
g16
g18
g26
g73
tp5271
(g28
g376
g243
tp5272
(g8
g65
g14
g67
g22
tp5273
tp5274
a((g2
g65
g16
g67
g71
g20
g22
g24
g73
tp5275
(g1249
g1010
tp5276
(g2
g109
g65
g16
g24
tp5277
tp5278
a((g2
g6
g8
g10
g65
g14
g16
g18
g20
g22
tp5279
(g1680
g395
tp5280
(g2
g109
g65
g18
g20
g26
tp5281
tp5282
a((g4
g109
g8
g10
g14
g16
g67
g71
g20
g22
g24
g26
g73
tp5283
(g654
tp5284
(g12
g14
g71
g22
g24
g26
tp5285
tp5286
a((g2
g6
g8
g10
g12
g65
g14
g67
g18
g22
g26
g73
tp5287
(g1680
g533
tp5288
(g109
g10
g67
g24
tp5289
tp5290
a((g2
g109
g6
g8
g10
g16
g67
g18
g71
g22
g24
g26
g73
tp5291
(g164
tp5292
(g8
g10
g12
g18
g26
g73
tp5293
tp5294
a((g2
g4
g8
g12
g14
g18
g20
g24
tp5295
(g323
g427
tp5296
(g109
g18
g73
tp5297
tp5298
a((g4
g109
g6
g8
g12
g65
g14
g16
g67
g20
g24
g73
tp5299
(g1316
g145
tp5300
(g4
g6
g65
g71
g22
tp5301
tp5302
a((g2
g6
g10
g14
g67
g18
g71
g22
g24
g73
tp5303
(g361
tp5304
(g10
g14
g71
g20
g22
g73
tp5305
tp5306
a((g4
g109
g6
g10
g65
g14
g67
g18
g71
g20
g22
g24
g26
g73
tp5307
(g232
g1339
tp5308
(g8
g10
g16
g20
g24
g26
g73
tp5309
tp5310
a((g2
g109
g6
g8
g12
g14
g67
g20
g22
g73
tp5311
(g1354
tp5312
(g2
g4
g67
g73
tp5313
tp5314
a((g2
g6
g8
g12
g16
g67
g18
g71
g24
tp5315
(g75
g183
tp5316
(g65
g67
g18
g71
g20
tp5317
tp5318
a((g2
g4
g6
g8
g10
g12
g65
g14
g16
g67
g22
g24
g73
tp5319
(g75
g601
tp5320
(g6
g8
g65
g16
g67
g20
g26
tp5321
tp5322
a((g2
g4
g109
g6
g8
g10
g12
g65
g14
g67
g18
g71
g22
g24
g26
g73
tp5323
(g111
tp5324
(g4
g65
g14
g16
g24
g26
g73
tp5325
tp5326
a((g2
g109
g8
g10
g12
g65
g14
g16
g71
g22
g24
g73
tp5327
(g1354
g145
tp5328
(g4
g109
g10
g12
g16
g22
tp5329
tp5330
a((g2
g4
g12
g16
g18
g24
g73
tp5331
(g75
g3174
tp5332
(g2
g4
g8
g16
g18
g20
tp5333
tp5334
a((g2
g4
g109
g8
g10
g14
g16
g67
g18
g71
g20
g24
tp5335
(g1508
g1373
tp5336
(g8
g10
g12
g67
g18
g71
g24
g26
tp5337
tp5338
a((g4
g109
g6
g8
g10
g65
g16
g67
g71
g24
g26
g73
tp5339
(g654
tp5340
(g109
g8
g10
g12
g65
g16
g67
tp5341
tp5342
a((g2
g4
g109
g8
g14
g18
g71
g20
g22
g73
tp5343
(g880
g654
tp5344
(g12
g18
g20
g24
tp5345
tp5346
a((g2
g4
g6
g8
g12
g65
g16
g67
g71
g22
g24
g26
g73
tp5347
(g75
tp5348
(g2
g4
g8
g20
g22
g26
tp5349
tp5350
a((g2
g109
g12
g65
g14
g18
g20
g24
g26
g73
tp5351
(g145
g972
tp5352
(g6
g65
g14
g18
g20
g22
g26
tp5353
tp5354
a((g109
g6
g10
g12
g65
g14
g16
g67
g18
g22
g24
g26
tp5355
(g922
g281
tp5356
(g6
g18
g71
g24
g26
g73
tp5357
tp5358
a((g4
g6
g10
g65
g14
g16
g67
g71
g20
g22
g24
g26
g73
tp5359
(g427
g1411
tp5360
(g2
g109
g6
g65
g14
g16
g20
tp5361
tp5362
a((g6
g8
g10
g12
g65
g14
g16
g67
g18
g73
tp5363
(g3495
tp5364
(g6
g10
g12
g65
g67
g71
tp5365
tp5366
a((g2
g4
g6
g10
g65
g14
g16
g67
g18
g71
g20
g22
g26
g73
tp5367
(g164
tp5368
(g4
g6
g10
g12
g20
g22
g26
tp5369
tp5370
a((g2
g4
g6
g8
g10
g65
g14
g16
g67
g71
g20
g26
g73
tp5371
(g1138
tp5372
(g2
g4
g8
g14
g16
g71
g24
tp5373
tp5374
a((g2
g4
g109
g6
g8
g12
g14
g71
g20
g22
tp5375
(g395
tp5376
(g2
g4
g109
g6
g12
g14
g71
g22
g26
tp5377
tp5378
a((g4
g6
g14
g16
g67
g18
g71
g24
g26
g73
tp5379
(g376
g1339
tp5380
(g8
g16
g67
g22
g24
tp5381
tp5382
a((g109
g10
g12
g65
g16
g67
g18
g71
g20
g22
g24
tp5383
(g1249
g815
tp5384
(g4
g6
g10
g67
g20
tp5385
tp5386
a((g2
g6
g8
g65
g14
g16
g18
g71
g20
g24
g26
tp5387
(g861
g754
g1138
tp5388
(g2
g109
g65
g14
g18
g71
g22
g24
g26
tp5389
tp5390
a((g4
g6
g10
g12
g14
g16
g18
g71
g20
g22
g26
tp5391
(g495
g514
tp5392
(g10
g12
g67
g18
g22
g26
tp5393
tp5394
a((g2
g109
g6
g8
g10
g16
g18
g71
g20
g24
g26
tp5395
(g323
tp5396
(g18
g71
g26
g73
tp5397
tp5398
a((g2
g4
g109
g6
g67
g22
g24
g26
g73
tp5399
(g126
g671
tp5400
(g6
g10
g18
g22
g24
g26
tp5401
tp5402
a((g4
g6
g10
g65
g14
g16
g22
g24
g73
tp5403
(g654
g1411
g1680
tp5404
(g2
g4
g109
g12
g16
tp5405
tp5406
a((g4
g109
g8
g65
g14
g18
g22
g24
g73
tp5407
(g1045
g769
tp5408
(g4
g14
g67
g20
tp5409
tp5410
a((g2
g109
g10
g65
g14
g16
g67
g20
g24
g26
tp5411
(g514
g922
tp5412
(g2
g65
g18
g71
g24
g26
tp5413
tp5414
a((g2
g4
g8
g12
g14
g67
g18
g71
g20
g24
g73
tp5415
(g111
tp5416
(g14
g16
g67
g18
g71
g20
g73
tp5417
tp5418
a((g2
g4
g6
g8
g10
g12
g65
g14
g16
g67
g71
g20
g73
tp5419
(g861
g641
tp5420
(g4
g109
g10
g12
g65
g16
g67
g18
tp5421
tp5422
a((g2
g6
g8
g10
g12
g65
g14
g16
g20
g22
tp5423
(g641
g480
g28
tp5424
(g2
g6
g12
g14
g67
g71
tp5425
tp5426
a((g4
g109
g10
g65
g67
g18
g71
g20
g22
g24
tp5427
(g1339
g198
g601
tp5428
(g4
g109
g10
g65
g20
g22
g24
g26
g73
tp5429
tp5430
a((g2
g109
g6
g8
g10
g12
g65
g16
g67
g20
g22
g24
g26
g73
tp5431
(g567
g90
tp5432
(g2
g10
g14
g16
g67
g20
g22
g73
tp5433
tp5434
a((g2
g4
g109
g6
g8
g10
g12
g65
g16
g67
g71
g20
g22
g24
g26
g73
tp5435
(g567
tp5436
(g2
g12
g14
g22
g24
g26
tp5437
tp5438
a((g2
g109
g6
g10
g65
g14
g16
g18
g20
g22
g26
g73
tp5439
(g164
tp5440
(g2
g109
g12
g65
g18
g20
g22
g73
tp5441
tp5442
a((g2
g4
g6
g10
g65
g67
g18
g71
g20
g22
tp5443
(g861
g1339
g198
tp5444
(g109
g10
g67
g18
g22
g73
tp5445
tp5446
a((g4
g109
g8
g10
g65
g14
g67
g71
g22
g24
tp5447
(g232
g1045
tp5448
(g8
g10
g65
g16
g67
g20
tp5449
tp5450
a((g6
g10
g12
g65
g14
g18
g20
g22
g73
tp5451
(g533
g922
g1527
tp5452
(g12
g16
g71
g20
g24
g73
tp5453
tp5454
a((g4
g109
g6
g8
g12
g65
g14
g67
g20
g22
g24
tp5455
(g641
g198
g232
tp5456
(g12
g16
g18
g22
g73
tp5457
tp5458
a((g2
g8
g12
g16
g71
g20
g24
g73
tp5459
(g641
g28
g3799
tp5460
(g2
g67
g24
g26
g73
tp5461
tp5462
a((g2
g109
g12
g65
g16
g67
g71
g20
g22
g26
g73
tp5463
(g533
g907
tp5464
(g109
g10
g16
g67
g71
g24
tp5465
tp5466
a((g2
g4
g6
g8
g10
g12
g20
g24
g26
g73
tp5467
(g641
tp5468
(g2
g4
g8
g18
g26
tp5469
tp5470
a((g2
g109
g6
g8
g10
g14
g16
g67
g18
g20
g22
g24
tp5471
(g922
g183
tp5472
(g8
g65
g71
g22
tp5473
tp5474
a((g2
g109
g6
g10
g14
g16
g67
g18
g71
g22
g26
g73
tp5475
(g164
g1339
tp5476
(g109
g6
g8
g10
g12
g14
g22
g26
g73
tp5477
tp5478
a((g4
g109
g6
g8
g10
g16
g67
g71
g20
g26
g73
tp5479
(g567
tp5480
(g4
g6
g8
g10
g14
g67
g71
g20
g26
g73
tp5481
tp5482
a((g2
g109
g8
g10
g12
g16
g71
g20
g26
g73
tp5483
(g412
tp5484
(g6
g20
g73
tp5485
tp5486
a((g4
g14
g16
g71
g22
g26
g73
tp5487
(g446
g3681
tp5488
(g10
g12
g26
g73
tp5489
tp5490
a((g4
g109
g8
g10
g12
g65
g14
g16
g18
g22
tp5491
(g412
tp5492
(g4
g6
g8
g10
g12
g65
g14
tp5493
tp5494
a((g2
g4
g109
g10
g12
g14
g16
g18
g71
g22
g24
g26
g73
tp5495
(g50
tp5496
(g2
g109
g10
g12
g65
g18
tp5497
tp5498
a((g4
g109
g6
g8
g10
g65
g14
g16
g67
g18
g20
g22
g24
g73
tp5499
(g480
g243
tp5500
(g109
g6
g8
g10
g65
g16
g67
g18
g71
g20
g22
tp5501
tp5502
a((g2
g109
g6
g65
g14
g18
g22
g26
g73
tp5503
(g28
g232
g243
tp5504
(g109
g6
g8
g16
g67
g26
tp5505
tp5506
a((g4
g109
g6
g65
g14
g18
g71
g20
g22
tp5507
(g720
tp5508
(g18
g71
g20
g24
tp5509
tp5510
a((g109
g10
g12
g14
g16
g71
g20
g22
g26
g73
tp5511
(g1249
tp5512
(g4
g10
g12
g14
g16
g71
g20
g73
tp5513
tp5514
a((g4
g6
g8
g12
g65
g14
g67
g24
g26
g73
tp5515
(g232
g145
g480
tp5516
(g12
g16
g67
g71
g22
tp5517
tp5518
a((g2
g4
g109
g6
g8
g10
g12
g65
g71
g20
g24
g26
tp5519
(g323
g1558
tp5520
(g2
g109
g6
g10
g65
g20
g22
g24
g26
g73
tp5521
tp5522
a((g109
g8
g12
g65
g67
g18
g71
g20
g24
g26
tp5523
(g323
g90
tp5524
(g65
g16
g18
g20
g26
g73
tp5525
tp5526
a((g2
g109
g6
g8
g10
g12
g14
g67
g71
g20
g22
g73
tp5527
(g232
g262
tp5528
(g4
g6
g10
g16
g71
g22
g73
tp5529
tp5530
a((g2
g4
g109
g6
g8
g10
g65
g67
g18
g71
g20
g22
g24
g26
g73
tp5531
(g654
tp5532
(g4
g8
g10
g12
g65
g18
g71
g26
tp5533
tp5534
a((g2
g4
g6
g10
g12
g65
g14
g18
g71
g24
g73
tp5535
(g861
g361
tp5536
(g4
g109
g10
g12
g20
tp5537
tp5538
a((g2
g109
g8
g12
g65
g16
g71
g24
g26
tp5539
((istructures.domain
Action
p5540
(dp5541
g30
(lp5542
(S'at_x1'
p5543
tp5544
a(S'at_y3'
p5545
tp5546
asg36
(lp5547
(S'at_x0'
p5548
tp5549
asg40
(tsg41
(lp5550
(S'at_x1'
p5551
tp5552
asg45
I0
sg46
(lp5553
sg48
S'move_1_3_0_3'
p5554
sbg2278
tp5555
(g109
g14
g16
g71
g26
tp5556
tp5557
a((g4
g6
g8
g10
g12
g16
g20
g22
g26
tp5558
(g586
g1411
tp5559
(g2
g6
g8
g26
g73
tp5560
tp5561
a((g2
g4
g6
g8
g10
g12
g65
g67
g18
g71
g22
g73
tp5562
(g533
g601
tp5563
(g2
g4
g6
g8
g10
g65
g67
g71
g24
g26
g73
tp5564
tp5565
a((g2
g4
g6
g8
g10
g12
g67
g18
g71
g20
g22
g24
g26
g73
tp5566
(g111
g183
tp5567
(g4
g6
g65
g16
g71
g20
g24
g26
tp5568
tp5569
a((g2
g4
g109
g6
g10
g14
g16
g71
g24
g73
tp5570
(g601
g183
tp5571
(g2
g6
g65
g14
g24
g26
g73
tp5572
tp5573
a((g4
g109
g6
g8
g65
g16
g18
g71
g20
g24
g26
g73
tp5574
(g1268
tp5575
(g4
g6
g8
g10
g20
g24
g73
tp5576
tp5577
a((g4
g6
g10
g12
g65
g14
g16
g67
g18
g71
g22
g24
tp5578
(g427
g1339
tp5579
(g109
g6
g8
g65
g67
g22
g24
tp5580
tp5581
a((g2
g4
g109
g8
g12
g65
g14
g16
g18
g22
g24
g73
tp5582
(g601
tp5583
(g4
g109
g8
g12
g14
g16
g18
g22
g26
tp5584
tp5585
a((g6
g8
g10
g12
g65
g14
g67
g18
g22
g24
g26
g73
tp5586
(g75
tp5587
(g10
g65
g14
g67
g20
g26
g73
tp5588
tp5589
a((g2
g4
g6
g8
g67
g18
g71
g20
g24
g73
tp5590
(g654
g1373
tp5591
(g2
g4
g6
g8
g12
g18
g20
g26
tp5592
tp5593
a((g4
g109
g10
g12
g65
g16
g67
g71
g20
g22
g24
tp5594
(g1339
g3732
tp5595
(g4
g8
g12
g16
g18
g20
g24
tp5596
tp5597
a((g4
g6
g16
g67
g71
g22
g26
g73
tp5598
(g861
g567
g1339
tp5599
(g109
g8
g14
g22
tp5600
tp5601
a((g4
g109
g6
g8
g10
g12
g65
g14
g18
g20
g22
g24
tp5602
(g198
tp5603
(g4
g6
g10
g12
g22
g73
tp5604
tp5605
a((g2
g109
g6
g8
g10
g65
g14
g18
g71
g20
g24
g26
g73
tp5606
(g754
tp5607
(g2
g109
g14
g18
g71
g22
g26
g73
tp5608
tp5609
a((g2
g109
g6
g10
g65
g16
g67
g71
g20
g22
g24
g73
tp5610
(g395
tp5611
(g2
g10
g16
g71
g22
g24
g26
tp5612
tp5613
a((g6
g8
g12
g18
g71
g20
g22
g26
g73
tp5614
(g861
g945
g1354
tp5615
(g4
g109
g8
g12
g18
g71
g24
g73
tp5616
tp5617
a((g2
g4
g109
g6
g8
g65
g16
g18
g71
g20
g22
g24
g26
tp5618
(g164
g28
tp5619
(g2
g12
g65
g67
g20
g26
tp5620
tp5621
a((g2
g4
g109
g10
g12
g14
g22
g26
g73
tp5622
(g533
g75
g3100
tp5623
(g10
g14
g18
g73
tp5624
tp5625
a((g2
g4
g6
g10
g14
g67
g18
g71
g20
g26
tp5626
(g232
tp5627
(g2
g4
g10
g16
g67
g18
tp5628
tp5629
a((g2
g109
g6
g8
g14
g16
g67
g18
g71
g22
g24
tp5630
(g361
g262
tp5631
(g4
g8
g16
g20
g22
g24
tp5632
tp5633
a((g4
g6
g10
g12
g14
g18
g71
g20
g22
g24
g26
g73
tp5634
(g111
g2603
tp5635
(g6
g8
g10
g14
g16
g18
g71
g22
g26
tp5636
tp5637
a((g2
g109
g10
g14
g67
g18
g71
g22
g26
g73
tp5638
(g232
g815
tp5639
(g6
g10
g16
g18
g71
g26
g73
tp5640
tp5641
a((g2
g4
g6
g8
g10
g12
g65
g16
g71
g73
tp5642
(g601
tp5643
(g2
g6
g10
g16
g71
g26
g73
tp5644
tp5645
a((g2
g6
g8
g10
g12
g14
g16
g67
g18
g22
g24
g26
tp5646
(g361
g281
tp5647
(g2
g6
g8
g10
g14
g67
g20
g24
g73
tp5648
tp5649
a((g4
g109
g6
g10
g65
g16
g67
g71
g24
g26
g73
tp5650
(g126
g2603
tp5651
(g4
g109
g6
g8
g18
g71
g24
g26
tp5652
tp5653
a((g2
g109
g8
g12
g65
g14
g16
g67
g71
g24
g26
g73
tp5654
(g145
g126
tp5655
(g2
g109
g14
g18
g22
g26
g73
tp5656
tp5657
a((g2
g6
g12
g16
g18
g71
g20
g22
g24
g26
tp5658
(g28
g183
tp5659
(g2
g65
g67
g71
g24
g26
tp5660
tp5661
a((g2
g4
g109
g8
g12
g65
g14
g16
g67
g71
g24
g26
tp5662
(g323
g1339
tp5663
(g2
g4
g109
g8
g12
g65
g14
g16
g67
g24
g26
g73
tp5664
tp5665
a((g109
g8
g10
g12
g16
g67
g24
g73
tp5666
(g567
tp5667
(g109
g8
g10
g14
g67
tp5668
tp5669
a((g4
g109
g12
g14
g16
g18
g71
g20
g26
g73
tp5670
(g1268
g1854
tp5671
(g2
g4
g109
g12
g14
g16
g20
g26
tp5672
tp5673
a((g2
g109
g8
g10
g65
g14
g18
g71
g20
g24
g73
tp5674
(g412
tp5675
(g2
g6
g10
g14
g18
g71
g20
tp5676
tp5677
a((g2
g4
g6
g10
g65
g22
g24
g73
tp5678
(g654
g111
g922
tp5679
(g2
g4
g6
g16
g71
g22
tp5680
tp5681
a((g2
g4
g10
g12
g14
g71
g20
g22
g24
g26
tp5682
(g3225
g50
tp5683
(g2
g4
g10
g12
g65
g16
g22
g26
tp5684
tp5685
a((g4
g12
g16
g67
g71
g20
g22
g26
tp5686
(g446
g3732
tp5687
(g10
g16
g18
g20
g26
tp5688
tp5689
a((g4
g6
g14
g67
g22
g24
g26
g73
tp5690
(g654
tp5691
(g4
g6
g12
tp5692
tp5693
a((g4
g109
g6
g8
g12
g14
g16
g18
g71
g20
g26
g73
tp5694
(g495
g183
tp5695
(g109
g6
g8
g12
g65
g67
g71
g20
g73
tp5696
tp5697
a((g2
g6
g8
g10
g65
g14
g16
g18
g20
g22
g26
g73
tp5698
(g164
g1680
tp5699
(g109
g8
g12
g18
g22
g26
tp5700
tp5701
a((g2
g8
g10
g12
g67
g18
g22
g24
tp5702
(g281
g395
tp5703
(g2
g8
g67
g18
g26
g73
tp5704
tp5705
a((g2
g4
g109
g6
g10
g14
g16
g67
g18
g22
g24
g26
g73
tp5706
(g361
g50
tp5707
(g6
g65
g20
g26
tp5708
tp5709
a((g2
g4
g6
g10
g12
g14
g67
g18
g71
g20
g22
g26
g73
tp5710
(g861
g1339
tp5711
(g109
g8
g10
g14
g20
tp5712
tp5713
a((g4
g109
g6
g8
g10
g12
g65
g14
g67
g20
g26
g73
tp5714
(g126
g1172
tp5715
(g2
g109
g6
g8
g18
g20
tp5716
tp5717
a((g2
g4
g8
g10
g12
g16
g18
g71
g20
g22
g24
g26
g73
tp5718
(g1905
g1153
tp5719
(g109
g8
g10
g12
g14
g18
g24
g26
tp5720
tp5721
a((g6
g8
g10
g12
g16
g67
g18
g71
g22
g24
g26
tp5722
(g567
g300
tp5723
(g6
g14
g71
g20
g24
tp5724
tp5725
a((g2
g4
g6
g8
g12
g65
g16
g67
g18
g71
g22
tp5726
(g567
tp5727
(g2
g6
g14
tp5728
tp5729
a((g8
g10
g65
g67
g20
g24
g73
tp5730
(g3603
tp5731
(g2
g65
g67
g24
tp5732
tp5733
a((g2
g4
g6
g8
g10
g12
g65
g14
g16
g18
g71
g20
g22
g24
g73
tp5734
(g601
tp5735
(g8
g12
g65
g14
g71
g26
tp5736
tp5737
a((g2
g4
g109
g6
g8
g65
g16
g67
g71
g20
g22
g24
g26
g73
tp5738
(g641
tp5739
(g2
g4
g67
g18
g24
tp5740
tp5741
a((g2
g4
g109
g10
g12
g65
g14
g16
g18
g71
g20
tp5742
(g1736
g1287
tp5743
(g2
g8
g65
g18
g20
g26
tp5744
tp5745
a((g2
g4
g109
g8
g12
g65
g14
g67
g18
g71
g20
g22
g24
tp5746
(g198
g232
tp5747
(g2
g4
g109
g12
g16
g67
g18
g22
g73
tp5748
tp5749
a((g2
g4
g109
g6
g10
g12
g18
g71
g22
g24
g26
g73
tp5750
(g2149
tp5751
(g2
g109
g8
g12
g18
g26
tp5752
tp5753
a((g4
g8
g10
g12
g18
g22
g24
g73
tp5754
(g480
g111
g1153
tp5755
(g4
g10
g14
g18
g71
g73
tp5756
tp5757
a((g109
g6
g12
g65
g14
g67
g18
g71
g22
g24
g26
g73
tp5758
(g75
g213
tp5759
(g4
g6
g12
g65
g20
tp5760
tp5761
a((g4
g109
g8
g10
g14
g16
g67
g18
g71
g22
g24
tp5762
(g1411
tp5763
(g2
g4
g8
tp5764
tp5765
a((g2
g4
g6
g8
g10
g12
g65
g16
g67
g18
g22
g24
g26
g73
tp5766
(g75
g567
tp5767
(g8
g12
g14
g67
g18
g20
g26
tp5768
tp5769
a((g4
g8
g12
g65
g14
g16
g67
g20
g22
g73
tp5770
(g641
g427
g703
tp5771
(g109
g8
g65
g14
g67
g18
g26
tp5772
tp5773
a((g4
g109
g8
g10
g12
g16
g67
g20
tp5774
(g1558
g412
tp5775
(g6
g12
g16
g67
g20
g22
tp5776
tp5777
a((g2
g4
g109
g6
g8
g12
g16
g67
g71
g24
tp5778
(g567
tp5779
(g4
g6
g14
g67
g71
tp5780
tp5781
a((g4
g109
g6
g10
g12
g65
g67
g18
g71
g22
g24
g73
tp5782
(g111
g567
tp5783
(g109
g14
g67
g18
g24
tp5784
tp5785
a((g2
g4
g109
g6
g14
g16
g67
g18
g71
g20
g26
tp5786
(g183
tp5787
(g2
g4
g6
g65
g14
g67
g20
tp5788
tp5789
a((g2
g4
g109
g6
g8
g12
g65
g18
g71
g20
g22
tp5790
(g1373
tp5791
(g2
g109
g8
g12
g18
g20
g26
tp5792
tp5793
a((g2
g4
g6
g8
g65
g14
g67
g71
g24
g26
g73
tp5794
(g376
g126
tp5795
(g2
g8
g14
g18
g22
g24
g26
tp5796
tp5797
a((g6
g8
g10
g12
g14
g16
g67
g18
g71
g20
g26
g73
tp5798
(g861
g616
tp5799
(g109
g8
g12
g65
g14
g67
g18
g71
g20
g26
tp5800
tp5801
a((g2
g4
g10
g14
g16
g67
g71
g22
g24
g26
g73
tp5802
(g243
tp5803
(g2
g4
g8
g10
g14
g16
g67
g71
tp5804
tp5805
a((g2
g109
g8
g10
g12
g65
g16
g18
g71
g20
g22
g73
tp5806
(g1354
g601
tp5807
(g2
g4
g109
g10
g65
g18
g26
g73
tp5808
tp5809
a((g2
g4
g6
g8
g10
g12
g16
g20
g24
tp5810
(g1680
g50
tp5811
(g2
g4
g109
g8
g12
g65
tp5812
tp5813
a((g4
g10
g12
g16
g67
g18
g20
g24
g26
tp5814
(g1905
g815
tp5815
(g6
g10
g67
g20
g24
tp5816
tp5817
a((g109
g6
g8
g10
g12
g14
g16
g67
g18
g71
g22
g24
tp5818
(g300
g183
tp5819
(g8
g10
g12
g65
g16
g67
g20
g24
tp5820
tp5821
a((g2
g4
g109
g8
g65
g16
g67
g71
g22
g24
g26
g73
tp5822
(g446
g412
tp5823
(g6
g8
g10
g16
g67
g22
g73
tp5824
tp5825
a((g2
g4
g6
g8
g12
g16
g67
g20
g22
g24
g26
g73
tp5826
(g50
tp5827
(g6
g12
g65
g16
g67
g20
g22
g24
g73
tp5828
tp5829
a((g2
g109
g8
g10
g12
g65
g14
g16
g67
g18
g71
g20
g22
g24
g26
tp5830
(g1354
tp5831
(g2
g4
g109
g10
g65
g14
g16
g18
g71
g20
g24
tp5832
tp5833
a((g109
g6
g8
g12
g65
g14
g16
g67
g18
g71
g22
g24
g26
tp5834
(g1354
tp5835
(g4
g109
g6
g8
g65
g67
g18
g71
g26
tp5836
tp5837
a((g4
g109
g10
g12
g14
g67
g18
g20
g22
g26
g73
tp5838
(g232
g1411
tp5839
(g2
g4
g109
g12
g16
g67
g18
g22
g26
tp5840
tp5841
a((g2
g4
g6
g10
g12
g65
g14
g16
g18
g71
g22
g24
g26
tp5842
(g28
g75
tp5843
(g4
g6
g65
g14
g67
g71
g20
tp5844
tp5845
a((g2
g4
g109
g8
g10
g65
g16
g67
g18
g71
g20
g22
g73
tp5846
(g880
tp5847
(g109
g10
g16
g20
g24
g73
tp5848
tp5849
a((g2
g4
g109
g6
g12
g65
g14
g16
g18
g71
g22
g73
tp5850
(g28
tp5851
(g4
g6
g12
g65
g14
g67
g22
g73
tp5852
tp5853
a((g2
g4
g6
g12
g65
g16
g18
g26
g73
tp5854
(g361
g1010
tp5855
(g109
g6
g12
g16
g20
tp5856
tp5857
a((g4
g109
g8
g12
g65
g14
g67
g18
g71
g20
g22
g26
tp5858
(g533
tp5859
(g109
g8
g65
g14
g71
g20
g24
g26
tp5860
tp5861
a((g4
g109
g6
g8
g10
g12
g65
g67
g18
g71
g22
g24
g26
tp5862
(g75
g1411
tp5863
(g2
g109
g12
g67
g18
g71
g20
g22
g26
tp5864
tp5865
a((g2
g4
g109
g6
g10
g12
g65
g16
g67
g18
g20
g22
g24
g26
tp5866
(g586
g243
tp5867
(g2
g109
g6
g8
g10
g67
g22
g24
g26
tp5868
tp5869
a((g2
g4
g8
g10
g65
g71
g20
g22
g26
tp5870
(g641
g28
tp5871
(g4
g8
g10
g65
g67
g26
tp5872
tp5873
a((g109
g10
g12
g16
g67
g22
g24
tp5874
(g75
g1249
g5154
tp5875
(g4
g12
g67
g71
g20
tp5876
tp5877
a((g4
g109
g6
g8
g10
g12
g65
g67
g20
g22
g24
g26
g73
tp5878
(g1411
tp5879
(g2
g109
g8
g20
g22
g73
tp5880
tp5881
a((g109
g10
g65
g14
g16
g18
g71
g22
g24
g73
tp5882
(g1411
tp5883
(g2
g109
g65
g14
g16
g73
tp5884
tp5885
a((g2
g4
g109
g6
g8
g10
g12
g65
g16
g67
g18
g20
g22
g73
tp5886
(g601
tp5887
(g2
g4
g109
g6
g10
g12
g65
g67
g20
g22
g26
g73
tp5888
tp5889
a((g4
g6
g12
g14
g67
g18
g71
g22
g24
g26
g73
tp5890
(g183
tp5891
(g6
g65
g67
g71
g26
g73
tp5892
tp5893
a((g2
g4
g6
g8
g10
g12
g14
g16
g18
g71
g22
g26
g73
tp5894
(g861
tp5895
(g4
g109
g8
g18
g22
tp5896
tp5897
a((g2
g6
g10
g12
g14
g16
g67
g71
g20
g22
g24
g73
tp5898
(g183
tp5899
(g6
g10
g12
g65
g16
g67
g73
tp5900
tp5901
a((g2
g6
g8
g10
g67
g20
g24
g26
g73
tp5902
(g641
g3495
g183
tp5903
(g6
g65
g67
g18
g71
g24
g26
g73
tp5904
tp5905
a((g2
g4
g6
g10
g14
g16
g67
g71
g20
g73
tp5906
(g164
g601
tp5907
(g6
g12
g67
g26
tp5908
tp5909
a((g2
g109
g6
g8
g10
g12
g14
g16
g67
g71
g20
g22
g24
g73
tp5910
(g126
tp5911
(g109
g6
g8
g12
g14
g18
g71
g20
tp5912
tp5913
a((g2
g109
g6
g10
g65
g18
g71
g22
g24
g73
tp5914
(g654
tp5915
(g2
g6
g10
g12
g22
g24
tp5916
tp5917
a((g2
g6
g12
g65
g16
g67
g71
g20
g24
g26
g73
tp5918
(g1268
g243
tp5919
(g2
g6
g8
g10
g65
g16
g24
tp5920
tp5921
a((g2
g6
g10
g12
g65
g14
g16
g67
g18
g71
g24
g26
g73
tp5922
(g861
g361
tp5923
(g109
g12
g65
g16
g71
g20
g26
tp5924
tp5925
a((g2
g109
g6
g65
g14
g67
g18
g71
g24
g73
tp5926
(g654
tp5927
(g109
g6
g12
g14
g67
g71
g24
tp5928
tp5929
a((g4
g6
g8
g12
g65
g14
g18
g71
g24
tp5930
(g834
tp5931
(g6
g8
g10
g12
g14
tp5932
tp5933
a((g2
g4
g109
g6
g8
g10
g12
g65
g14
g16
g67
g18
g71
g20
g24
g73
tp5934
(g601
tp5935
(g2
g8
g67
g18
g71
g24
g26
g73
tp5936
tp5937
a((g2
g109
g6
g10
g14
g16
g71
g20
g22
tp5938
(g395
tp5939
(g2
g109
g14
g22
g26
tp5940
tp5941
a((g4
g109
g6
g10
g12
g65
g14
g16
g67
g71
g20
g22
g73
tp5942
(g601
tp5943
(g10
g12
g65
g16
g67
g20
g26
g73
tp5944
tp5945
a((g2
g6
g8
g10
g12
g65
g14
g16
g67
g18
g22
g24
g73
tp5946
(g395
tp5947
(g2
g8
g10
g12
g16
g67
g26
tp5948
tp5949
a((g2
g4
g10
g12
g65
g16
g67
g18
g71
g20
g22
tp5950
(g1339
g395
tp5951
(g2
g4
g8
g12
g65
g16
g67
g18
g22
g26
tp5952
tp5953
a((g2
g109
g6
g10
g12
g16
g67
g71
g24
g26
g73
tp5954
(g567
g338
tp5955
(g4
g6
g14
g67
g71
g26
g73
tp5956
tp5957
a((g4
g10
g12
g16
g67
g18
g71
g20
g22
g24
g73
tp5958
(g1411
g1010
tp5959
(g2
g109
g16
g71
g20
g22
tp5960
tp5961
a((g2
g109
g10
g12
g16
g67
g18
g71
g20
g22
g73
tp5962
(g1249
tp5963
(g4
g18
g71
g20
tp5964
tp5965
a((g2
g4
g109
g8
g12
g65
g16
g67
g24
tp5966
(g3732
g1287
tp5967
(g2
g109
g8
g65
g18
g24
g26
tp5968
tp5969
a((g2
g4
g8
g10
g12
g65
g16
g67
g20
g24
g73
tp5970
(g3495
g601
tp5971
(g2
g12
g65
g16
g71
g20
g24
g26
g73
tp5972
tp5973
a((g2
g4
g6
g10
g12
g65
g16
g67
g18
g71
g22
g24
g73
tp5974
(g567
g601
tp5975
(g2
g4
g10
g12
g65
g14
g67
g18
g24
g26
g73
tp5976
tp5977
a((g2
g4
g6
g12
g65
g14
g67
g18
g71
g22
g24
tp5978
(g861
g586
tp5979
(g4
g109
g65
g14
g73
tp5980
tp5981
a.