(lp0
(istructures.sensor
Sensor
p1
(dp2
S'rhs'
p3
NsS'lhs'
p4
(istructures.sensor
Sensor
p5
(dp6
g3
Nsg4
(S'ready-to-load-goods5-market1-level0'
p7
tp8
sS'op'
p9
Nsbsg9
S'-'
p10
sba(istructures.sensor
Sensor
p11
(dp12
g3
(istructures.sensor
Sensor
p13
(dp14
g3
(istructures.sensor
Sensor
p15
(dp16
g3
Nsg4
(S'loaded-goods4-truck2-level0'
p17
tp18
sg9
Nsbsg4
(istructures.sensor
Sensor
p19
(dp20
g3
(istructures.sensor
Sensor
p21
(dp22
g3
Nsg4
S'stored-goods4-level1'
p23
sg9
Nsbsg4
(istructures.sensor
Sensor
p24
(dp25
g3
Nsg4
S'at-truck2-market2'
p26
sg9
Nsbsg9
S'^'
p27
sbsg9
I3
sbsg4
(istructures.sensor
Sensor
p28
(dp29
g3
(istructures.sensor
Sensor
p30
(dp31
g3
Nsg4
(istructures.sensor
Sensor
p32
(dp33
g3
Nsg4
S'loaded-goods5-truck2-level1'
p34
sg9
Nsbsg9
g10
sbsg4
(istructures.sensor
Sensor
p35
(dp36
g3
Nsg4
(istructures.sensor
Sensor
p37
(dp38
g3
Nsg4
S'on-sale-goods5-market1-level1'
p39
sg9
Nsbsg9
g10
sbsg9
I5
sbsg9
g27
sba(istructures.sensor
Sensor
p40
(dp41
g3
Nsg4
(S'ready-to-load-goods4-market1-level1'
p42
tp43
sg9
Nsba(istructures.sensor
Sensor
p44
(dp45
g3
(istructures.sensor
Sensor
p46
(dp47
g3
(istructures.sensor
Sensor
p48
(dp49
g3
Nsg4
(S'loaded-goods5-truck2-level0'
p50
tp51
sg9
Nsbsg4
(istructures.sensor
Sensor
p52
(dp53
g3
(istructures.sensor
Sensor
p54
(dp55
g3
Nsg4
S'ready-to-load-goods5-market1-level1'
p56
sg9
Nsbsg4
(istructures.sensor
Sensor
p57
(dp58
g3
Nsg4
S'stored-goods5-level0'
p59
sg9
Nsbsg9
g27
sbsg9
g27
sbsg4
(istructures.sensor
Sensor
p60
(dp61
g3
(istructures.sensor
Sensor
p62
(dp63
g3
(istructures.sensor
Sensor
p64
(dp65
g3
Nsg4
S'at-truck1-market2'
p66
sg9
Nsbsg4
(istructures.sensor
Sensor
p67
(dp68
g3
Nsg4
g26
sg9
Nsbsg9
g27
sbsg4
(istructures.sensor
Sensor
p69
(dp70
g3
Nsg4
(S'on-sale-goods4-market1-level1'
p71
tp72
sg9
Nsbsg9
S'v'
p73
sbsg9
I1
sba(istructures.sensor
Sensor
p74
(dp75
g3
(istructures.sensor
Sensor
p76
(dp77
g3
Nsg4
(istructures.sensor
Sensor
p78
(dp79
g3
Nsg4
(istructures.sensor
Sensor
p80
(dp81
g3
Nsg4
g66
sg9
Nsbsg9
g10
sbsg9
g10
sbsg4
(istructures.sensor
Sensor
p82
(dp83
g3
Nsg4
(istructures.sensor
Sensor
p84
(dp85
g3
Nsg4
(istructures.sensor
Sensor
p86
(dp87
g3
Nsg4
g56
sg9
Nsbsg9
g10
sbsg9
g10
sbsg9
g27
sba(istructures.sensor
Sensor
p88
(dp89
g3
Nsg4
(istructures.sensor
Sensor
p90
(dp91
g3
(istructures.sensor
Sensor
p92
(dp93
g3
Nsg4
(g7
tp94
sg9
Nsbsg4
(istructures.sensor
Sensor
p95
(dp96
g3
(istructures.sensor
Sensor
p97
(dp98
g3
Nsg4
S'loaded-goods4-truck1-level1'
p99
sg9
Nsbsg4
(istructures.sensor
Sensor
p100
(dp101
g3
Nsg4
g99
sg9
Nsbsg9
I9
sbsg9
I1
sbsg9
g10
sba(istructures.sensor
Sensor
p102
(dp103
g3
(istructures.sensor
Sensor
p104
(dp105
g3
Nsg4
(istructures.sensor
Sensor
p106
(dp107
g3
Nsg4
(istructures.sensor
Sensor
p108
(dp109
g3
Nsg4
S'loaded-goods4-truck2-level1'
p110
sg9
Nsbsg9
g10
sbsg9
g10
sbsg4
(istructures.sensor
Sensor
p111
(dp112
g3
Nsg4
(g34
tp113
sg9
Nsbsg9
g27
sba(istructures.sensor
Sensor
p114
(dp115
g3
Nsg4
(istructures.sensor
Sensor
p116
(dp117
g3
(istructures.sensor
Sensor
p118
(dp119
g3
Nsg4
(S'stored-goods4-level0'
p120
tp121
sg9
Nsbsg4
(istructures.sensor
Sensor
p122
(dp123
g3
(istructures.sensor
Sensor
p124
(dp125
g3
Nsg4
g99
sg9
Nsbsg4
(istructures.sensor
Sensor
p126
(dp127
g3
Nsg4
g26
sg9
Nsbsg9
g27
sbsg9
I7
sbsg9
g10
sba(istructures.sensor
Sensor
p128
(dp129
g3
Nsg4
(g39
tp130
sg9
Nsba(istructures.sensor
Sensor
p131
(dp132
g3
(istructures.sensor
Sensor
p133
(dp134
g3
Nsg4
(S'loaded-goods5-truck1-level0'
p135
tp136
sg9
Nsbsg4
(istructures.sensor
Sensor
p137
(dp138
g3
Nsg4
(istructures.sensor
Sensor
p139
(dp140
g3
(istructures.sensor
Sensor
p141
(dp142
g3
Nsg4
g66
sg9
Nsbsg4
(istructures.sensor
Sensor
p143
(dp144
g3
Nsg4
S'at-truck2-depot1'
p145
sg9
Nsbsg9
g27
sbsg9
g10
sbsg9
g27
sba(istructures.sensor
Sensor
p146
(dp147
g3
Nsg4
(g59
tp148
sg9
Nsba(istructures.sensor
Sensor
p149
(dp150
g3
(istructures.sensor
Sensor
p151
(dp152
g3
(istructures.sensor
Sensor
p153
(dp154
g3
Nsg4
(istructures.sensor
Sensor
p155
(dp156
g3
Nsg4
g99
sg9
Nsbsg9
g10
sbsg4
(istructures.sensor
Sensor
p157
(dp158
g3
Nsg4
(g66
tp159
sg9
Nsbsg9
I4
sbsg4
(istructures.sensor
Sensor
p160
(dp161
g3
(istructures.sensor
Sensor
p162
(dp163
g3
Nsg4
(istructures.sensor
Sensor
p164
(dp165
g3
Nsg4
g34
sg9
Nsbsg9
g10
sbsg4
(istructures.sensor
Sensor
p166
(dp167
g3
(istructures.sensor
Sensor
p168
(dp169
g3
Nsg4
S'at-truck1-market1'
p170
sg9
Nsbsg4
(istructures.sensor
Sensor
p171
(dp172
g3
Nsg4
g39
sg9
Nsbsg9
I7
sbsg9
I9
sbsg9
I7
sba(istructures.sensor
Sensor
p173
(dp174
g3
(istructures.sensor
Sensor
p175
(dp176
g3
(istructures.sensor
Sensor
p177
(dp178
g3
(istructures.sensor
Sensor
p179
(dp180
g3
Nsg4
g170
sg9
Nsbsg4
(istructures.sensor
Sensor
p181
(dp182
g3
Nsg4
g135
sg9
Nsbsg9
g73
sbsg4
(istructures.sensor
Sensor
p183
(dp184
g3
(istructures.sensor
Sensor
p185
(dp186
g3
Nsg4
S'ready-to-load-goods4-market1-level0'
p187
sg9
Nsbsg4
(istructures.sensor
Sensor
p188
(dp189
g3
Nsg4
S'stored-goods5-level1'
p190
sg9
Nsbsg9
g27
sbsg9
g27
sbsg4
(istructures.sensor
Sensor
p191
(dp192
g3
(istructures.sensor
Sensor
p193
(dp194
g3
(istructures.sensor
Sensor
p195
(dp196
g3
Nsg4
S'loaded-goods5-truck1-level1'
p197
sg9
Nsbsg4
(istructures.sensor
Sensor
p198
(dp199
g3
Nsg4
S'at-truck2-market1'
p200
sg9
Nsbsg9
I6
sbsg4
(istructures.sensor
Sensor
p201
(dp202
g3
Nsg4
(S'at-truck1-depot1'
p203
tp204
sg9
Nsbsg9
I1
sbsg9
g73
sba(istructures.sensor
Sensor
p205
(dp206
g3
(istructures.sensor
Sensor
p207
(dp208
g3
(istructures.sensor
Sensor
p209
(dp210
g3
(istructures.sensor
Sensor
p211
(dp212
g3
Nsg4
g170
sg9
Nsbsg4
(istructures.sensor
Sensor
p213
(dp214
g3
Nsg4
g187
sg9
Nsbsg9
I1
sbsg4
(istructures.sensor
Sensor
p215
(dp216
g3
(istructures.sensor
Sensor
p217
(dp218
g3
Nsg4
g50
sg9
Nsbsg4
(istructures.sensor
Sensor
p219
(dp220
g3
Nsg4
g17
sg9
Nsbsg9
I6
sbsg9
I2
sbsg4
(istructures.sensor
Sensor
p221
(dp222
g3
(istructures.sensor
Sensor
p223
(dp224
g3
(istructures.sensor
Sensor
p225
(dp226
g3
Nsg4
g50
sg9
Nsbsg4
(istructures.sensor
Sensor
p227
(dp228
g3
Nsg4
g170
sg9
Nsbsg9
g27
sbsg4
(istructures.sensor
Sensor
p229
(dp230
g3
(istructures.sensor
Sensor
p231
(dp232
g3
Nsg4
g110
sg9
Nsbsg4
(istructures.sensor
Sensor
p233
(dp234
g3
Nsg4
S'loaded-goods4-truck1-level0'
p235
sg9
Nsbsg9
I10
sbsg9
I7
sbsg9
g73
sba(istructures.sensor
Sensor
p236
(dp237
g3
(istructures.sensor
Sensor
p238
(dp239
g3
(istructures.sensor
Sensor
p240
(dp241
g3
(istructures.sensor
Sensor
p242
(dp243
g3
Nsg4
S'on-sale-goods5-market1-level0'
p244
sg9
Nsbsg4
(istructures.sensor
Sensor
p245
(dp246
g3
Nsg4
g145
sg9
Nsbsg9
g73
sbsg4
(istructures.sensor
Sensor
p247
(dp248
g3
Nsg4
(istructures.sensor
Sensor
p249
(dp250
g3
Nsg4
g66
sg9
Nsbsg9
g10
sbsg9
g27
sbsg4
(istructures.sensor
Sensor
p251
(dp252
g3
(istructures.sensor
Sensor
p253
(dp254
g3
(istructures.sensor
Sensor
p255
(dp256
g3
Nsg4
g170
sg9
Nsbsg4
(istructures.sensor
Sensor
p257
(dp258
g3
Nsg4
g244
sg9
Nsbsg9
g27
sbsg4
(istructures.sensor
Sensor
p259
(dp260
g3
Nsg4
(g66
tp261
sg9
Nsbsg9
g27
sbsg9
g73
sba.