(lp0
(istructures.sensor
Sensor
p1
(dp2
S'rhs'
p3
NsS'lhs'
p4
(S'have_item1'
p5
tp6
sS'op'
p7
Nsba(istructures.sensor
Sensor
p8
(dp9
g3
(istructures.sensor
Sensor
p10
(dp11
g3
(istructures.sensor
Sensor
p12
(dp13
g3
(istructures.sensor
Sensor
p14
(dp15
g3
Nsg4
S'have_item2'
p16
sg7
Nsbsg4
(istructures.sensor
Sensor
p17
(dp18
g3
Nsg4
S'have_item7'
p19
sg7
Nsbsg7
S'^'
p20
sbsg4
(istructures.sensor
Sensor
p21
(dp22
g3
(istructures.sensor
Sensor
p23
(dp24
g3
Nsg4
S'at_x3'
p25
sg7
Nsbsg4
(istructures.sensor
Sensor
p26
(dp27
g3
Nsg4
S'have_item4'
p28
sg7
Nsbsg7
g20
sbsg7
g20
sbsg4
(istructures.sensor
Sensor
p29
(dp30
g3
Nsg4
(istructures.sensor
Sensor
p31
(dp32
g3
(istructures.sensor
Sensor
p33
(dp34
g3
Nsg4
g5
sg7
Nsbsg4
(istructures.sensor
Sensor
p35
(dp36
g3
Nsg4
S'at_y2'
p37
sg7
Nsbsg7
S'v'
p38
sbsg7
S'-'
p39
sbsg7
g38
sba(istructures.sensor
Sensor
p40
(dp41
g3
(istructures.sensor
Sensor
p42
(dp43
g3
(istructures.sensor
Sensor
p44
(dp45
g3
(istructures.sensor
Sensor
p46
(dp47
g3
Nsg4
g25
sg7
Nsbsg4
(istructures.sensor
Sensor
p48
(dp49
g3
Nsg4
g37
sg7
Nsbsg7
I5
sbsg4
(istructures.sensor
Sensor
p50
(dp51
g3
Nsg4
(istructures.sensor
Sensor
p52
(dp53
g3
Nsg4
S'at_y0'
p54
sg7
Nsbsg7
g39
sbsg7
g38
sbsg4
(istructures.sensor
Sensor
p55
(dp56
g3
(istructures.sensor
Sensor
p57
(dp58
g3
Nsg4
(S'at_x0'
p59
tp60
sg7
Nsbsg4
(istructures.sensor
Sensor
p61
(dp62
g3
(istructures.sensor
Sensor
p63
(dp64
g3
Nsg4
g19
sg7
Nsbsg4
(istructures.sensor
Sensor
p65
(dp66
g3
Nsg4
S'have_item3'
p67
sg7
Nsbsg7
g38
sbsg7
g38
sbsg7
g20
sba(istructures.sensor
Sensor
p68
(dp69
g3
Nsg4
(istructures.sensor
Sensor
p70
(dp71
g3
(istructures.sensor
Sensor
p72
(dp73
g3
Nsg4
(g16
tp74
sg7
Nsbsg4
(istructures.sensor
Sensor
p75
(dp76
g3
(istructures.sensor
Sensor
p77
(dp78
g3
Nsg4
S'at_y1'
p79
sg7
Nsbsg4
(istructures.sensor
Sensor
p80
(dp81
g3
Nsg4
g79
sg7
Nsbsg7
g38
sbsg7
g20
sbsg7
g39
sba(istructures.sensor
Sensor
p82
(dp83
g3
(istructures.sensor
Sensor
p84
(dp85
g3
Nsg4
(S'at_x1'
p86
tp87
sg7
Nsbsg4
(istructures.sensor
Sensor
p88
(dp89
g3
Nsg4
(g79
tp90
sg7
Nsbsg7
g38
sba(istructures.sensor
Sensor
p91
(dp92
g3
(istructures.sensor
Sensor
p93
(dp94
g3
Nsg4
(istructures.sensor
Sensor
p95
(dp96
g3
Nsg4
(S'have_item5'
p97
tp98
sg7
Nsbsg7
g39
sbsg4
(istructures.sensor
Sensor
p99
(dp100
g3
(istructures.sensor
Sensor
p101
(dp102
g3
(istructures.sensor
Sensor
p103
(dp104
g3
Nsg4
g16
sg7
Nsbsg4
(istructures.sensor
Sensor
p105
(dp106
g3
Nsg4
g54
sg7
Nsbsg7
g20
sbsg4
(istructures.sensor
Sensor
p107
(dp108
g3
Nsg4
(g97
tp109
sg7
Nsbsg7
g20
sbsg7
g38
sba(istructures.sensor
Sensor
p110
(dp111
g3
Nsg4
(g25
tp112
sg7
Nsba(istructures.sensor
Sensor
p113
(dp114
g3
Nsg4
(g97
tp115
sg7
Nsba(istructures.sensor
Sensor
p116
(dp117
g3
Nsg4
(istructures.sensor
Sensor
p118
(dp119
g3
Nsg4
(g16
tp120
sg7
Nsbsg7
g39
sba(istructures.sensor
Sensor
p121
(dp122
g3
Nsg4
(g28
tp123
sg7
Nsba(istructures.sensor
Sensor
p124
(dp125
g3
(istructures.sensor
Sensor
p126
(dp127
g3
Nsg4
(istructures.sensor
Sensor
p128
(dp129
g3
Nsg4
(istructures.sensor
Sensor
p130
(dp131
g3
Nsg4
g86
sg7
Nsbsg7
g39
sbsg7
g39
sbsg4
(istructures.sensor
Sensor
p132
(dp133
g3
Nsg4
(g19
tp134
sg7
Nsbsg7
g38
sba(istructures.sensor
Sensor
p135
(dp136
g3
(istructures.sensor
Sensor
p137
(dp138
g3
(istructures.sensor
Sensor
p139
(dp140
g3
(istructures.sensor
Sensor
p141
(dp142
g3
Nsg4
g67
sg7
Nsbsg4
(istructures.sensor
Sensor
p143
(dp144
g3
Nsg4
g79
sg7
Nsbsg7
g38
sbsg4
(istructures.sensor
Sensor
p145
(dp146
g3
Nsg4
(g59
tp147
sg7
Nsbsg7
g38
sbsg4
(istructures.sensor
Sensor
p148
(dp149
g3
Nsg4
(g37
tp150
sg7
Nsbsg7
g38
sba(istructures.sensor
Sensor
p151
(dp152
g3
(istructures.sensor
Sensor
p153
(dp154
g3
(istructures.sensor
Sensor
p155
(dp156
g3
(istructures.sensor
Sensor
p157
(dp158
g3
Nsg4
S'at_y3'
p159
sg7
Nsbsg4
(istructures.sensor
Sensor
p160
(dp161
g3
Nsg4
g79
sg7
Nsbsg7
I9
sbsg4
(istructures.sensor
Sensor
p162
(dp163
g3
Nsg4
(istructures.sensor
Sensor
p164
(dp165
g3
Nsg4
g5
sg7
Nsbsg7
g39
sbsg7
g38
sbsg4
(istructures.sensor
Sensor
p166
(dp167
g3
(istructures.sensor
Sensor
p168
(dp169
g3
(istructures.sensor
Sensor
p170
(dp171
g3
Nsg4
g37
sg7
Nsbsg4
(istructures.sensor
Sensor
p172
(dp173
g3
Nsg4
g28
sg7
Nsbsg7
g20
sbsg4
(istructures.sensor
Sensor
p174
(dp175
g3
(istructures.sensor
Sensor
p176
(dp177
g3
Nsg4
g37
sg7
Nsbsg4
(istructures.sensor
Sensor
p178
(dp179
g3
Nsg4
S'have_item0'
p180
sg7
Nsbsg7
g20
sbsg7
I10
sbsg7
g38
sba(istructures.sensor
Sensor
p181
(dp182
g3
(istructures.sensor
Sensor
p183
(dp184
g3
(istructures.sensor
Sensor
p185
(dp186
g3
(istructures.sensor
Sensor
p187
(dp188
g3
Nsg4
g19
sg7
Nsbsg4
(istructures.sensor
Sensor
p189
(dp190
g3
Nsg4
g54
sg7
Nsbsg7
g20
sbsg4
(istructures.sensor
Sensor
p191
(dp192
g3
(istructures.sensor
Sensor
p193
(dp194
g3
Nsg4
g79
sg7
Nsbsg4
(istructures.sensor
Sensor
p195
(dp196
g3
Nsg4
S'at_x2'
p197
sg7
Nsbsg7
I10
sbsg7
I2
sbsg4
(istructures.sensor
Sensor
p198
(dp199
g3
(istructures.sensor
Sensor
p200
(dp201
g3
Nsg4
(g67
tp202
sg7
Nsbsg4
(istructures.sensor
Sensor
p203
(dp204
g3
Nsg4
(g79
tp205
sg7
Nsbsg7
I8
sbsg7
g20
sba(istructures.sensor
Sensor
p206
(dp207
g3
(istructures.sensor
Sensor
p208
(dp209
g3
(istructures.sensor
Sensor
p210
(dp211
g3
(istructures.sensor
Sensor
p212
(dp213
g3
Nsg4
g5
sg7
Nsbsg4
(istructures.sensor
Sensor
p214
(dp215
g3
Nsg4
g28
sg7
Nsbsg7
g38
sbsg4
(istructures.sensor
Sensor
p216
(dp217
g3
(istructures.sensor
Sensor
p218
(dp219
g3
Nsg4
g86
sg7
Nsbsg4
(istructures.sensor
Sensor
p220
(dp221
g3
Nsg4
g180
sg7
Nsbsg7
g20
sbsg7
g20
sbsg4
(istructures.sensor
Sensor
p222
(dp223
g3
(istructures.sensor
Sensor
p224
(dp225
g3
(istructures.sensor
Sensor
p226
(dp227
g3
Nsg4
g54
sg7
Nsbsg4
(istructures.sensor
Sensor
p228
(dp229
g3
Nsg4
g197
sg7
Nsbsg7
g20
sbsg4
(istructures.sensor
Sensor
p230
(dp231
g3
Nsg4
(istructures.sensor
Sensor
p232
(dp233
g3
Nsg4
g97
sg7
Nsbsg7
g39
sbsg7
g20
sbsg7
I4
sba.