(lp0
(istructures.sensor
Sensor
p1
(dp2
S'rhs'
p3
(istructures.sensor
Sensor
p4
(dp5
g3
NsS'lhs'
p6
(istructures.sensor
Sensor
p7
(dp8
g3
(istructures.sensor
Sensor
p9
(dp10
g3
Nsg6
S'have_item4'
p11
sS'op'
p12
Nsbsg6
(istructures.sensor
Sensor
p13
(dp14
g3
Nsg6
S'at_x5'
p15
sg12
Nsbsg12
S'^'
p16
sbsg12
S'-'
p17
sbsg6
(istructures.sensor
Sensor
p18
(dp19
g3
(istructures.sensor
Sensor
p20
(dp21
g3
(istructures.sensor
Sensor
p22
(dp23
g3
Nsg6
S'have_item2'
p24
sg12
Nsbsg6
(istructures.sensor
Sensor
p25
(dp26
g3
Nsg6
S'at_y4'
p27
sg12
Nsbsg12
I4
sbsg6
(istructures.sensor
Sensor
p28
(dp29
g3
(istructures.sensor
Sensor
p30
(dp31
g3
Nsg6
S'at_x0'
p32
sg12
Nsbsg6
(istructures.sensor
Sensor
p33
(dp34
g3
Nsg6
S'at_y2'
p35
sg12
Nsbsg12
S'v'
p36
sbsg12
g16
sbsg12
g36
sba(istructures.sensor
Sensor
p37
(dp38
g3
(istructures.sensor
Sensor
p39
(dp40
g3
(istructures.sensor
Sensor
p41
(dp42
g3
(istructures.sensor
Sensor
p43
(dp44
g3
Nsg6
S'at_y0'
p45
sg12
Nsbsg6
(istructures.sensor
Sensor
p46
(dp47
g3
Nsg6
g35
sg12
Nsbsg12
g16
sbsg6
(istructures.sensor
Sensor
p48
(dp49
g3
Nsg6
(S'at_x4'
p50
tp51
sg12
Nsbsg12
I7
sbsg6
(istructures.sensor
Sensor
p52
(dp53
g3
(istructures.sensor
Sensor
p54
(dp55
g3
(istructures.sensor
Sensor
p56
(dp57
g3
Nsg6
S'at_y1'
p58
sg12
Nsbsg6
(istructures.sensor
Sensor
p59
(dp60
g3
Nsg6
g35
sg12
Nsbsg12
g36
sbsg6
(istructures.sensor
Sensor
p61
(dp62
g3
(istructures.sensor
Sensor
p63
(dp64
g3
Nsg6
g58
sg12
Nsbsg6
(istructures.sensor
Sensor
p65
(dp66
g3
Nsg6
g50
sg12
Nsbsg12
g16
sbsg12
I10
sbsg12
I5
sba(istructures.sensor
Sensor
p67
(dp68
g3
Nsg6
(S'have_item7'
p69
tp70
sg12
Nsba(istructures.sensor
Sensor
p71
(dp72
g3
(istructures.sensor
Sensor
p73
(dp74
g3
Nsg6
(S'at_x1'
p75
tp76
sg12
Nsbsg6
(istructures.sensor
Sensor
p77
(dp78
g3
Nsg6
(g32
tp79
sg12
Nsbsg12
I6
sba(istructures.sensor
Sensor
p80
(dp81
g3
Nsg6
(istructures.sensor
Sensor
p82
(dp83
g3
(istructures.sensor
Sensor
p84
(dp85
g3
Nsg6
(g15
tp86
sg12
Nsbsg6
(istructures.sensor
Sensor
p87
(dp88
g3
(istructures.sensor
Sensor
p89
(dp90
g3
Nsg6
g32
sg12
Nsbsg6
(istructures.sensor
Sensor
p91
(dp92
g3
Nsg6
S'at_y3'
p93
sg12
Nsbsg12
g36
sbsg12
g36
sbsg12
g17
sba(istructures.sensor
Sensor
p94
(dp95
g3
(istructures.sensor
Sensor
p96
(dp97
g3
(istructures.sensor
Sensor
p98
(dp99
g3
Nsg6
(istructures.sensor
Sensor
p100
(dp101
g3
Nsg6
g32
sg12
Nsbsg12
g17
sbsg6
(istructures.sensor
Sensor
p102
(dp103
g3
Nsg6
(g69
tp104
sg12
Nsbsg12
g16
sbsg6
(istructures.sensor
Sensor
p105
(dp106
g3
(istructures.sensor
Sensor
p107
(dp108
g3
(istructures.sensor
Sensor
p109
(dp110
g3
Nsg6
S'have_item3'
p111
sg12
Nsbsg6
(istructures.sensor
Sensor
p112
(dp113
g3
Nsg6
g75
sg12
Nsbsg12
g36
sbsg6
(istructures.sensor
Sensor
p114
(dp115
g3
Nsg6
(g27
tp116
sg12
Nsbsg12
g36
sbsg12
g16
sba(istructures.sensor
Sensor
p117
(dp118
g3
(istructures.sensor
Sensor
p119
(dp120
g3
Nsg6
(istructures.sensor
Sensor
p121
(dp122
g3
Nsg6
(istructures.sensor
Sensor
p123
(dp124
g3
Nsg6
g11
sg12
Nsbsg12
g17
sbsg12
g17
sbsg6
(istructures.sensor
Sensor
p125
(dp126
g3
(istructures.sensor
Sensor
p127
(dp128
g3
Nsg6
(istructures.sensor
Sensor
p129
(dp130
g3
Nsg6
g35
sg12
Nsbsg12
g17
sbsg6
(istructures.sensor
Sensor
p131
(dp132
g3
Nsg6
(S'have_item5'
p133
tp134
sg12
Nsbsg12
I5
sbsg12
g36
sba(istructures.sensor
Sensor
p135
(dp136
g3
Nsg6
(istructures.sensor
Sensor
p137
(dp138
g3
Nsg6
(istructures.sensor
Sensor
p139
(dp140
g3
(istructures.sensor
Sensor
p141
(dp142
g3
Nsg6
g27
sg12
Nsbsg6
(istructures.sensor
Sensor
p143
(dp144
g3
Nsg6
g45
sg12
Nsbsg12
g36
sbsg12
g17
sbsg12
g17
sba(istructures.sensor
Sensor
p145
(dp146
g3
Nsg6
(istructures.sensor
Sensor
p147
(dp148
g3
(istructures.sensor
Sensor
p149
(dp150
g3
(istructures.sensor
Sensor
p151
(dp152
g3
Nsg6
S'have_item6'
p153
sg12
Nsbsg6
(istructures.sensor
Sensor
p154
(dp155
g3
Nsg6
S'have_item0'
p156
sg12
Nsbsg12
I7
sbsg6
(istructures.sensor
Sensor
p157
(dp158
g3
(istructures.sensor
Sensor
p159
(dp160
g3
Nsg6
g111
sg12
Nsbsg6
(istructures.sensor
Sensor
p161
(dp162
g3
Nsg6
S'have_item1'
p163
sg12
Nsbsg12
I1
sbsg12
g16
sbsg12
g17
sba(istructures.sensor
Sensor
p164
(dp165
g3
Nsg6
(istructures.sensor
Sensor
p166
(dp167
g3
(istructures.sensor
Sensor
p168
(dp169
g3
Nsg6
(istructures.sensor
Sensor
p170
(dp171
g3
Nsg6
g111
sg12
Nsbsg12
g17
sbsg6
(istructures.sensor
Sensor
p172
(dp173
g3
Nsg6
(istructures.sensor
Sensor
p174
(dp175
g3
Nsg6
g69
sg12
Nsbsg12
g17
sbsg12
g16
sbsg12
g17
sba(istructures.sensor
Sensor
p176
(dp177
g3
(istructures.sensor
Sensor
p178
(dp179
g3
(istructures.sensor
Sensor
p180
(dp181
g3
Nsg6
(istructures.sensor
Sensor
p182
(dp183
g3
Nsg6
g27
sg12
Nsbsg12
g17
sbsg6
(istructures.sensor
Sensor
p184
(dp185
g3
Nsg6
(g69
tp186
sg12
Nsbsg12
g16
sbsg6
(istructures.sensor
Sensor
p187
(dp188
g3
Nsg6
(istructures.sensor
Sensor
p189
(dp190
g3
(istructures.sensor
Sensor
p191
(dp192
g3
Nsg6
S'at_y5'
p193
sg12
Nsbsg6
(istructures.sensor
Sensor
p194
(dp195
g3
Nsg6
g133
sg12
Nsbsg12
I7
sbsg12
g17
sbsg12
g16
sba(istructures.sensor
Sensor
p196
(dp197
g3
Nsg6
(istructures.sensor
Sensor
p198
(dp199
g3
Nsg6
(g193
tp200
sg12
Nsbsg12
g17
sba(istructures.sensor
Sensor
p201
(dp202
g3
Nsg6
(istructures.sensor
Sensor
p203
(dp204
g3
(istructures.sensor
Sensor
p205
(dp206
g3
Nsg6
(istructures.sensor
Sensor
p207
(dp208
g3
Nsg6
g153
sg12
Nsbsg12
g17
sbsg6
(istructures.sensor
Sensor
p209
(dp210
g3
(istructures.sensor
Sensor
p211
(dp212
g3
Nsg6
g58
sg12
Nsbsg6
(istructures.sensor
Sensor
p213
(dp214
g3
Nsg6
g35
sg12
Nsbsg12
g16
sbsg12
g16
sbsg12
g17
sba(istructures.sensor
Sensor
p215
(dp216
g3
Nsg6
(g69
tp217
sg12
Nsba(istructures.sensor
Sensor
p218
(dp219
g3
(istructures.sensor
Sensor
p220
(dp221
g3
(istructures.sensor
Sensor
p222
(dp223
g3
(istructures.sensor
Sensor
p224
(dp225
g3
Nsg6
g111
sg12
Nsbsg6
(istructures.sensor
Sensor
p226
(dp227
g3
Nsg6
S'at_x2'
p228
sg12
Nsbsg12
g36
sbsg6
(istructures.sensor
Sensor
p229
(dp230
g3
(istructures.sensor
Sensor
p231
(dp232
g3
Nsg6
g69
sg12
Nsbsg6
(istructures.sensor
Sensor
p233
(dp234
g3
Nsg6
g111
sg12
Nsbsg12
g16
sbsg12
I10
sbsg6
(istructures.sensor
Sensor
p235
(dp236
g3
(istructures.sensor
Sensor
p237
(dp238
g3
(istructures.sensor
Sensor
p239
(dp240
g3
Nsg6
g27
sg12
Nsbsg6
(istructures.sensor
Sensor
p241
(dp242
g3
Nsg6
g111
sg12
Nsbsg12
I6
sbsg6
(istructures.sensor
Sensor
p243
(dp244
g3
Nsg6
(g69
tp245
sg12
Nsbsg12
g36
sbsg12
g36
sba.