(lp0
(((S'at_y5'
p1
tp2
(S'at_x4'
p3
tp4
(S'have_item3'
p5
tp6
(S'at_x1'
p7
tp8
(S'have_item5'
p9
tp10
(S'at_x2'
p11
tp12
(S'have_item7'
p13
tp14
(S'have_item6'
p15
tp16
(S'have_item0'
p17
tp18
(S'at_x5'
p19
tp20
(S'at_y2'
p21
tp22
(S'at_y4'
p23
tp24
(S'have_item1'
p25
tp26
(S'at_x3'
p27
tp28
tp29
((istructures.domain
Action
p30
(dp31
S'positive_preconditions'
p32
(lp33
(S'at_x4'
p34
tp35
a(S'at_y4'
p36
tp37
asS'add_effects'
p38
(lp39
(S'at_y3'
p40
tp41
asS'parameters'
p42
(tsS'del_effects'
p43
(lp44
(S'at_y4'
p45
tp46
asS'cost'
p47
I0
sS'negative_preconditions'
p48
(lp49
sS'name'
p50
S'move_4_4_4_3'
p51
sb(istructures.domain
Action
p52
(dp53
g32
(lp54
(S'at_x1'
p55
tp56
a(S'at_y2'
p57
tp58
asg38
(lp59
(S'have_item4'
p60
tp61
asg42
(tsg43
(lp62
sg47
I0
sg48
(lp63
sg50
S'easymark_item4_1_2'
p64
sbtp65
(g6
g10
g12
g14
g20
g22
(S'have_item4'
p66
tp67
(S'at_y3'
p68
tp69
tp70
tp71
a(((S'have_item2'
p72
tp73
g2
g4
g6
g8
g10
g12
g14
g18
(S'at_y0'
p74
tp75
g22
g67
g26
tp76
((istructures.domain
Action
p77
(dp78
g32
(lp79
(S'at_x4'
p80
tp81
a(S'at_y2'
p82
tp83
asg38
(lp84
(S'at_y3'
p85
tp86
asg42
(tsg43
(lp87
(S'at_y2'
p88
tp89
asg47
I0
sg48
(lp90
sg50
S'move_4_2_4_3'
p91
sb(istructures.domain
Action
p92
(dp93
g32
(lp94
(S'at_x1'
p95
tp96
a(S'at_y0'
p97
tp98
asg38
(lp99
(S'at_y1'
p100
tp101
asg42
(tsg43
(lp102
(S'at_y0'
p103
tp104
asg47
I0
sg48
(lp105
sg50
S'move_1_0_1_1'
p106
sbtp107
(g73
g2
g4
g8
g10
g14
(S'at_y1'
p108
tp109
g67
g69
g26
tp110
tp111
a((g73
(S'at_x0'
p112
tp113
g10
g18
g75
g20
g67
g24
g69
g28
tp114
((istructures.domain
Action
p115
(dp116
g32
(lp117
(S'at_x5'
p118
tp119
a(S'at_y4'
p120
tp121
asg38
(lp122
(S'at_y5'
p123
tp124
asg42
(tsg43
(lp125
(S'at_y4'
p126
tp127
asg47
I0
sg48
(lp128
sg50
S'move_5_4_5_5'
p129
sbtp130
(g2
g28
tp131
tp132
a((g4
g113
g14
g16
g18
g75
g109
g20
g22
g24
tp133
((istructures.domain
Action
p134
(dp135
g32
(lp136
(S'at_x0'
p137
tp138
a(S'at_y0'
p139
tp140
asg38
(lp141
g8
asg42
(tsg43
(lp142
(S'at_x0'
p143
tp144
asg47
I0
sg48
(lp145
sg50
S'move_0_0_1_0'
p146
sb(istructures.domain
Action
p147
(dp148
g32
(lp149
(S'at_x5'
p150
tp151
a(S'at_y4'
p152
tp153
asg38
(lp154
(S'have_item2'
p155
tp156
asg42
(tsg43
(lp157
sg47
I0
sg48
(lp158
sg50
S'easymark_item2_5_4'
p159
sbtp160
(g73
g4
g8
g75
g20
g22
g24
tp161
tp162
a((g4
g6
g113
g14
g16
g20
g22
g67
tp163
(g77
(istructures.domain
Action
p164
(dp165
g32
(lp166
(S'at_x4'
p167
tp168
a(S'at_y3'
p169
tp170
asg38
(lp171
(S'at_x3'
p172
tp173
asg42
(tsg43
(lp174
(S'at_x4'
p175
tp176
asg47
I0
sg48
(lp177
sg50
S'move_4_3_3_3'
p178
sb(istructures.domain
Action
p179
(dp180
g32
(lp181
(S'at_x0'
p182
tp183
a(S'at_y3'
p184
tp185
asg38
(lp186
(S'at_x1'
p187
tp188
asg42
(tsg43
(lp189
(S'at_x0'
p190
tp191
asg47
I0
sg48
(lp192
sg50
S'move_0_3_1_3'
p193
sbtp194
(g8
g69
g28
tp195
tp196
a((g4
g8
g113
g10
g12
g14
g20
g22
g24
g69
g26
g28
tp197
((istructures.domain
Action
p198
(dp199
g32
(lp200
g4
a(S'at_y2'
p201
tp202
asg38
(lp203
(S'at_y1'
p204
tp205
asg42
(tsg43
(lp206
(S'at_y2'
p207
tp208
asg47
I0
sg48
(lp209
sg50
S'move_4_2_4_1'
p210
sb(istructures.domain
Action
p211
(dp212
g32
(lp213
(S'at_x2'
p214
tp215
a(S'at_y4'
p216
tp217
asg38
(lp218
g73
asg42
(tsg43
(lp219
sg47
I0
sg48
(lp220
sg50
S'easymark_item2_2_4'
p221
sbtp222
(g73
g113
g10
g14
g109
g20
g26
tp223
tp224
a((g73
g2
g4
g8
g113
g12
g14
g16
g75
g22
tp225
((istructures.domain
Action
p226
(dp227
g32
(lp228
(S'at_x0'
p229
tp230
a(S'at_y5'
p231
tp232
asg38
(lp233
(S'have_item5'
p234
tp235
asg42
(tsg43
(lp236
sg47
I0
sg48
(lp237
sg50
S'easymark_item5_0_5'
p238
sb(istructures.domain
Action
p239
(dp240
g32
(lp241
(S'at_x1'
p242
tp243
a(S'at_y5'
p244
tp245
asg38
(lp246
(S'have_item0'
p247
tp248
asg42
(tsg43
(lp249
sg47
I0
sg48
(lp250
sg50
S'easymark_item0_1_5'
p251
sbtp252
(g2
g4
g113
g10
g12
g14
g16
g18
tp253
tp254
a((g6
g113
g10
g12
g16
g18
g75
g20
g22
g28
tp255
((istructures.domain
Action
p256
(dp257
g32
(lp258
(S'at_x3'
p259
tp260
a(S'at_y2'
p261
tp262
asg38
(lp263
(S'at_y1'
p264
tp265
asg42
(tsg43
(lp266
(S'at_y2'
p267
tp268
asg47
I0
sg48
(lp269
sg50
S'move_3_2_3_1'
p270
sb(istructures.domain
Action
p271
(dp272
g32
(lp273
(S'at_x5'
p274
tp275
a(S'at_y0'
p276
tp277
asg38
(lp278
g67
asg42
(tsg43
(lp279
sg47
I0
sg48
(lp280
sg50
S'easymark_item4_5_0'
p281
sbtp282
(g6
g113
g10
g12
g16
g75
g109
g67
g28
tp283
tp284
a((g4
g6
g8
g113
g10
g12
g14
g16
g18
g75
g67
g24
g26
tp285
(g211
tp286
(g73
g6
g113
g10
g67
g24
g26
tp287
tp288
a((g73
g4
g8
g113
g10
g16
g18
g75
g109
g22
g67
g24
g69
g28
tp289
((istructures.domain
Action
p290
(dp291
g32
(lp292
(S'at_x3'
p293
tp294
a(S'at_y3'
p295
tp296
asg38
(lp297
g12
asg42
(tsg43
(lp298
(S'at_x3'
p299
tp300
asg47
I0
sg48
(lp301
sg50
S'move_3_3_2_3'
p302
sb(istructures.domain
Action
p303
(dp304
g32
(lp305
(S'at_x0'
p306
tp307
a(S'at_y1'
p308
tp309
asg38
(lp310
g26
asg42
(tsg43
(lp311
sg47
I0
sg48
(lp312
sg50
S'easymark_item1_0_1'
p313
sbtp314
(g113
g10
g12
g18
g22
g69
g26
tp315
tp316
a((g4
g6
g8
g113
g10
g12
g14
g16
g75
g109
g20
g22
g24
g69
tp317
(g271
tp318
(g4
g14
g16
g20
g22
g67
g24
tp319
tp320
a((g2
g6
g8
g113
g10
g12
g14
g16
g75
g109
g20
g67
g24
g69
g28
tp321
(g211
tp322
(g73
g2
g8
g10
g12
g14
g16
g20
g67
tp323
tp324
a((g2
g4
g8
g113
g12
g14
g16
g109
g20
g22
g69
g26
tp325
((istructures.domain
Action
p326
(dp327
g32
(lp328
(S'at_x2'
p329
tp330
a(S'at_y3'
p331
tp332
asg38
(lp333
(S'at_y4'
p334
tp335
asg42
(tsg43
(lp336
(S'at_y3'
p337
tp338
asg47
I0
sg48
(lp339
sg50
S'move_2_3_2_4'
p340
sbg77
tp341
(g2
g4
g8
g14
g109
g20
g24
g69
g26
tp342
tp343
a((g2
g4
g10
g12
g16
g18
g75
g20
g22
g67
g24
g69
g26
g28
tp344
((istructures.domain
Action
p345
(dp346
g32
(lp347
(S'at_x3'
p348
tp349
a(S'at_y3'
p350
tp351
asg38
(lp352
g14
asg42
(tsg43
(lp353
sg47
I0
sg48
(lp354
sg50
S'easymark_item7_3_3'
p355
sbg211
tp356
(g73
g2
g12
g14
g16
g20
g22
g67
g24
g69
g26
tp357
tp358
a((g73
g4
g6
g8
g113
g12
g14
g16
g75
g109
g20
g67
g24
g69
g26
g28
tp359
((istructures.domain
Action
p360
(dp361
g32
(lp362
(S'at_x2'
p363
tp364
a(S'at_y4'
p365
tp366
asg38
(lp367
(S'at_y5'
p368
tp369
asg42
(tsg43
(lp370
(S'at_y4'
p371
tp372
asg47
I0
sg48
(lp373
sg50
S'move_2_4_2_5'
p374
sbtp375
(g73
g2
g4
g6
g109
tp376
tp377
a((g73
g4
g6
g14
g75
g109
g20
g22
g24
g69
g28
tp378
((istructures.domain
Action
p379
(dp380
g32
(lp381
(S'at_x3'
p382
tp383
a(S'at_y0'
p384
tp385
asg38
(lp386
(S'have_item6'
p387
tp388
asg42
(tsg43
(lp389
sg47
I0
sg48
(lp390
sg50
S'easymark_item6_3_0'
p391
sbtp392
(g4
g14
g16
g22
g24
g69
g28
tp393
tp394
a((g73
g2
g4
g6
g8
g10
g12
g20
g22
g67
g69
g28
tp395
(g326
g239
tp396
(g2
g6
g8
g18
g20
g67
g24
g28
tp397
tp398
a((g73
g2
g4
g6
g8
g113
g12
g14
g16
g18
g75
g109
g20
g26
g28
tp399
((istructures.domain
Action
p400
(dp401
g32
(lp402
(S'at_x0'
p403
tp404
a(S'at_y5'
p405
tp406
asg38
(lp407
(S'at_y4'
p408
tp409
asg42
(tsg43
(lp410
(S'at_y5'
p411
tp412
asg47
I0
sg48
(lp413
sg50
S'move_0_5_0_4'
p414
sbtp415
(g73
g6
g8
g113
g109
g24
g28
tp416
tp417
a((g73
g2
g4
g6
g8
g113
g10
g12
g14
g16
g75
g67
g28
tp418
(g239
(istructures.domain
Action
p419
(dp420
g32
(lp421
(S'at_x4'
p422
tp423
a(S'at_y0'
p424
tp425
asg38
(lp426
(S'at_x5'
p427
tp428
asg42
(tsg43
(lp429
(S'at_x4'
p430
tp431
asg47
I0
sg48
(lp432
sg50
S'move_4_0_5_0'
p433
sbtp434
(g73
g2
g6
g8
g113
g10
g12
g14
g16
g18
g20
g28
tp435
tp436
a((g73
g2
g6
g8
g113
g12
g16
g18
g75
g109
g20
g67
g24
g69
tp437
((istructures.domain
Action
p438
(dp439
g32
(lp440
g113
a(S'at_y1'
p441
tp442
asg38
(lp443
g10
asg42
(tsg43
(lp444
sg47
I0
sg48
(lp445
sg50
S'easymark_item5_0_1'
p446
sbtp447
(g73
g6
g8
g113
g10
g12
g16
g18
g75
g109
g67
g24
g69
tp448
tp449
a((g2
g4
g8
g113
g10
g14
g109
g20
g22
g26
g28
tp450
(g77
(istructures.domain
Action
p451
(dp452
g32
(lp453
(S'at_x1'
p454
tp455
a(S'at_y3'
p456
tp457
asg38
(lp458
(S'have_item2'
p459
tp460
asg42
(tsg43
(lp461
sg47
I0
sg48
(lp462
sg50
S'easymark_item2_1_3'
p463
sbtp464
(g73
g2
g4
g10
g28
tp465
tp466
a((g73
g2
g4
g6
g8
g10
g12
g18
g109
g22
g24
g69
g26
g28
tp467
((istructures.domain
Action
p468
(dp469
g32
(lp470
(S'at_x4'
p471
tp472
a(S'at_y4'
p473
tp474
asg38
(lp475
(S'at_x5'
p476
tp477
asg42
(tsg43
(lp478
(S'at_x4'
p479
tp480
asg47
I0
sg48
(lp481
sg50
S'move_4_4_5_4'
p482
sbtp483
(g6
g10
g12
g18
g109
g20
g69
g26
g28
tp484
tp485
a((g73
g113
g10
g12
g14
g16
g109
g20
g22
g69
tp486
((istructures.domain
Action
p487
(dp488
g32
(lp489
(S'at_x5'
p490
tp491
a(S'at_y1'
p492
tp493
asg38
(lp494
(S'at_y0'
p495
tp496
asg42
(tsg43
(lp497
(S'at_y1'
p498
tp499
asg47
I0
sg48
(lp500
sg50
S'move_5_1_5_0'
p501
sb(istructures.domain
Action
p502
(dp503
g32
(lp504
(S'at_x2'
p505
tp506
a(S'at_y0'
p507
tp508
asg38
(lp509
(S'at_x3'
p510
tp511
asg42
(tsg43
(lp512
(S'at_x2'
p513
tp514
asg47
I0
sg48
(lp515
sg50
S'move_2_0_3_0'
p516
sbtp517
(g73
g10
g75
g20
g22
g28
tp518
tp519
a((g73
g2
g4
g10
g12
g14
g16
g18
g109
g20
g67
tp520
((istructures.domain
Action
p521
(dp522
g32
(lp523
(S'at_x2'
p524
tp525
a(S'at_y5'
p526
tp527
asg38
(lp528
(S'at_y4'
p529
tp530
asg42
(tsg43
(lp531
(S'at_y5'
p532
tp533
asg47
I0
sg48
(lp534
sg50
S'move_2_5_2_4'
p535
sb(istructures.domain
Action
p536
(dp537
g32
(lp538
(S'at_x4'
p539
tp540
a(S'at_y1'
p541
tp542
asg38
(lp543
(S'have_item1'
p544
tp545
asg42
(tsg43
(lp546
sg47
I0
sg48
(lp547
sg50
S'easymark_item1_4_1'
p548
sbtp549
(g73
g4
g10
g16
g67
g24
g26
tp550
tp551
a((g73
g2
g6
g113
g10
g12
g14
g16
g20
g22
g24
g69
g26
tp552
((istructures.domain
Action
p553
(dp554
g32
(lp555
(S'at_x0'
p556
tp557
a(S'at_y4'
p558
tp559
asg38
(lp560
(S'at_x1'
p561
tp562
asg42
(tsg43
(lp563
(S'at_x0'
p564
tp565
asg47
I0
sg48
(lp566
sg50
S'move_0_4_1_4'
p567
sbg52
tp568
(g8
g12
g14
g20
g22
g67
tp569
tp570
a((g73
g2
g6
g113
g10
g14
g16
g18
g109
g20
g22
g67
g69
g26
g28
tp571
(g290
(istructures.domain
Action
p572
(dp573
g32
(lp574
(S'at_x0'
p575
tp576
a(S'at_y1'
p577
tp578
asg38
(lp579
(S'at_x1'
p580
tp581
asg42
(tsg43
(lp582
(S'at_x0'
p583
tp584
asg47
I0
sg48
(lp585
sg50
S'move_0_1_1_1'
p586
sbtp587
(g8
g12
g22
g67
g69
tp588
tp589
a((g73
g2
g6
g8
g113
g10
g12
g18
g75
g20
g69
g26
g28
tp590
((istructures.domain
Action
p591
(dp592
g32
(lp593
(S'at_x5'
p594
tp595
a(S'at_y0'
p596
tp597
asg38
(lp598
(S'at_x4'
p599
tp600
asg42
(tsg43
(lp601
(S'at_x5'
p602
tp603
asg47
I0
sg48
(lp604
sg50
S'move_5_0_4_0'
p605
sbtp606
(g73
g2
g4
g8
g113
g18
g75
g69
g26
tp607
tp608
a((g73
g2
g4
g6
g113
g12
g14
g75
g109
g22
g67
g69
tp609
(g303
tp610
(g73
g2
g113
g14
g75
g22
g26
tp611
tp612
a((g2
g4
g113
g10
g12
g16
g75
g109
g67
g24
tp613
(g211
tp614
(g73
g2
g4
g113
g75
g24
tp615
tp616
a((g4
g6
g8
g113
g10
g12
g16
g18
g75
g20
g22
g67
g24
g26
g28
tp617
(g360
(istructures.domain
Action
p618
(dp619
g32
(lp620
(S'at_x3'
p621
tp622
a(S'at_y2'
p623
tp624
asg38
(lp625
(S'have_item7'
p626
tp627
asg42
(tsg43
(lp628
sg47
I0
sg48
(lp629
sg50
S'easymark_item7_3_2'
p630
sbtp631
(g2
g6
g8
g10
g12
g14
g75
g20
g22
g26
g28
tp632
tp633
a((g4
g6
g8
g113
g14
g16
g18
g75
g109
g22
g67
g24
g26
g28
tp634
((istructures.domain
Action
p635
(dp636
g32
(lp637
(S'at_x3'
p638
tp639
a(S'at_y4'
p640
tp641
asg38
(lp642
(S'have_item2'
p643
tp644
asg42
(tsg43
(lp645
sg47
I0
sg48
(lp646
sg50
S'easymark_item2_3_4'
p647
sbtp648
(g73
g6
g14
g16
g18
g109
g26
g28
tp649
tp650
a((g73
g4
g8
g12
g18
g75
g24
g69
g26
g28
tp651
(g92
tp652
(g73
g4
g109
g24
g28
tp653
tp654
a((g2
g4
g6
g8
g113
g12
g75
g109
g20
g22
g67
g24
g69
g26
g28
tp655
(g211
tp656
(g73
g4
g12
g109
g67
g24
g28
tp657
tp658
a((g73
g2
g4
g8
g113
g10
g12
g16
g20
g22
g24
tp659
(g198
tp660
(g73
g2
g8
g113
g109
g20
g24
tp661
tp662
a((g73
g6
g10
g12
g18
g75
g109
g67
g69
g26
tp663
(g326
(istructures.domain
Action
p664
(dp665
g32
(lp666
(S'at_x2'
p667
tp668
a(S'at_y0'
p669
tp670
asg38
(lp671
(S'at_x1'
p672
tp673
asg42
(tsg43
(lp674
(S'at_x2'
p675
tp676
asg47
I0
sg48
(lp677
sg50
S'move_2_0_1_0'
p678
sb(istructures.domain
Action
p679
(dp680
g32
(lp681
(S'at_x1'
p682
tp683
a(S'at_y0'
p684
tp685
asg38
(lp686
(S'at_x0'
p687
tp688
asg42
(tsg43
(lp689
(S'at_x1'
p690
tp691
asg47
I0
sg48
(lp692
sg50
S'move_1_0_0_0'
p693
sbtp694
(g113
g75
g109
g67
g24
tp695
tp696
a((g73
g2
g4
g10
g12
g18
g75
g109
g20
g24
g69
g26
tp697
((istructures.domain
Action
p698
(dp699
g32
(lp700
(S'at_x2'
p701
tp702
a(S'at_y5'
p703
tp704
asg38
(lp705
(S'at_x1'
p706
tp707
asg42
(tsg43
(lp708
(S'at_x2'
p709
tp710
asg47
I0
sg48
(lp711
sg50
S'move_2_5_1_5'
p712
sbg271
tp713
(g2
g8
g75
g109
g67
g69
tp714
tp715
a((g73
g4
g8
g113
g12
g14
g16
g109
g20
g67
g24
g69
g26
g28
tp716
(g438
(istructures.domain
Action
p717
(dp718
g32
(lp719
(S'at_x4'
p720
tp721
a(S'at_y3'
p722
tp723
asg38
(lp724
g18
asg42
(tsg43
(lp725
sg47
I0
sg48
(lp726
sg50
S'easymark_item0_4_3'
p727
sbtp728
(g73
g10
g14
g18
g20
g67
g24
g69
g28
tp729
tp730
a((g73
g2
g4
g6
g113
g10
g12
g16
g75
g109
g20
g24
g69
g28
tp731
(g717
tp732
(g4
g6
g10
g18
g75
g69
tp733
tp734
a((g2
g4
g8
g113
g12
g14
g18
g109
g20
g22
g67
g69
g26
tp735
((istructures.domain
Action
p736
(dp737
g32
(lp738
(S'at_x1'
p739
tp740
a(S'at_y5'
p741
tp742
asg38
(lp743
g16
asg42
(tsg43
(lp744
sg47
I0
sg48
(lp745
sg50
S'easymark_item6_1_5'
p746
sbtp747
(g8
g113
g16
g18
g109
g22
g67
g69
tp748
tp749
a((g4
g6
g8
g10
g20
g22
g67
g69
g28
tp750
(g345
g451
tp751
(g73
g4
g10
g14
g69
g28
tp752
tp753
a((g73
g2
g6
g8
g113
g12
g14
g16
g18
g75
g109
g20
g22
g24
g69
g26
tp754
(g271
tp755
(g73
g2
g6
g113
g12
g14
g18
g75
g20
g67
g24
g26
tp756
tp757
a((g4
g6
g113
g10
g14
g18
g75
g20
g22
g67
g24
g69
g26
g28
tp758
((istructures.domain
Action
p759
(dp760
g32
(lp761
(S'at_x4'
p762
tp763
a(S'at_y4'
p764
tp765
asg38
(lp766
(S'at_y5'
p767
tp768
asg42
(tsg43
(lp769
(S'at_y4'
p770
tp771
asg47
I0
sg48
(lp772
sg50
S'move_4_4_4_5'
p773
sbg379
tp774
(g2
g113
g10
g16
g75
g67
g26
g28
tp775
tp776
a((g73
g4
g6
g12
g14
g16
g18
g109
g22
g24
g26
tp777
((istructures.domain
Action
p778
(dp779
g32
(lp780
(S'at_x4'
p781
tp782
a(S'at_y1'
p783
tp784
asg38
(lp785
(S'have_item4'
p786
tp787
asg42
(tsg43
(lp788
sg47
I0
sg48
(lp789
sg50
S'easymark_item4_4_1'
p790
sb(istructures.domain
Action
p791
(dp792
g32
(lp793
(S'at_x4'
p794
tp795
a(S'at_y4'
p796
tp797
asg38
(lp798
(S'at_x3'
p799
tp800
asg42
(tsg43
(lp801
(S'at_x4'
p802
tp803
asg47
I0
sg48
(lp804
sg50
S'move_4_4_3_4'
p805
sbtp806
(g73
g12
g14
g109
g67
g28
tp807
tp808
a((g73
g4
g6
g8
g75
g109
g22
g67
g24
g69
g26
g28
tp809
(g468
g379
tp810
(g73
g16
g109
g20
g22
g67
tp811
tp812
a((g73
g2
g6
g8
g113
g16
g18
g109
g20
g22
g24
tp813
((istructures.domain
Action
p814
(dp815
g32
(lp816
(S'at_x0'
p817
tp818
a(S'at_y2'
p819
tp820
asg38
(lp821
(S'at_y3'
p822
tp823
asg42
(tsg43
(lp824
(S'at_y2'
p825
tp826
asg47
I0
sg48
(lp827
sg50
S'move_0_2_0_3'
p828
sbtp829
(g73
g8
g109
g20
g24
g69
tp830
tp831
a((g73
g2
g4
g6
g113
g12
g75
g109
g20
g24
g69
g26
g28
tp832
(g271
tp833
(g2
g4
g12
g75
g20
g67
g24
g26
tp834
tp835
a((g73
g8
g10
g12
g16
g18
g75
g20
g22
g24
tp836
(g271
(istructures.domain
Action
p837
(dp838
g32
(lp839
(S'at_x1'
p840
tp841
a(S'at_y4'
p842
tp843
asg38
(lp844
g6
asg42
(tsg43
(lp845
sg47
I0
sg48
(lp846
sg50
S'easymark_item3_1_4'
p847
sbtp848
(g73
g6
g8
g12
g18
g75
g20
g22
g67
tp849
tp850
a((g73
g2
g4
g6
g8
g113
g12
g14
g16
g75
g109
g20
g69
tp851
(g438
tp852
(g73
g6
g8
g113
g10
g16
g75
g109
g20
g69
tp853
tp854
a((g73
g2
g4
g6
g8
g113
g14
g16
g18
g75
g109
g20
g24
g26
tp855
(g791
g591
tp856
(g2
g4
g6
g14
g16
g75
g24
g28
tp857
tp858
a((g73
g2
g4
g6
g8
g113
g12
g14
g16
g18
g75
g109
g69
g26
g28
tp859
(g438
(istructures.domain
Action
p860
(dp861
g32
(lp862
(S'at_x4'
p863
tp864
a(S'at_y1'
p865
tp866
asg38
(lp867
(S'at_x5'
p868
tp869
asg42
(tsg43
(lp870
(S'at_x4'
p871
tp872
asg47
I0
sg48
(lp873
sg50
S'move_4_1_5_1'
p874
sbtp875
(g73
g6
g8
g113
g10
g16
g18
g75
g20
g69
g26
g28
tp876
tp877
a((g73
g8
g16
g18
g22
g67
g24
g69
g26
tp878
((istructures.domain
Action
p879
(dp880
g32
(lp881
(S'at_x1'
p882
tp883
a(S'at_y4'
p884
tp885
asg38
(lp886
(S'at_y5'
p887
tp888
asg42
(tsg43
(lp889
(S'at_y4'
p890
tp891
asg47
I0
sg48
(lp892
sg50
S'move_1_4_1_5'
p893
sb(istructures.domain
Action
p894
(dp895
g32
(lp896
(S'at_x1'
p897
tp898
a(S'at_y3'
p899
tp900
asg38
(lp901
(S'at_x2'
p902
tp903
asg42
(tsg43
(lp904
(S'at_x1'
p905
tp906
asg47
I0
sg48
(lp907
sg50
S'move_1_3_2_3'
p908
sbg326
tp909
(g73
g2
g12
g18
g22
g67
g24
g26
tp910
tp911
a((g73
g4
g6
g8
g10
g14
g18
g20
g67
g69
g28
tp912
((istructures.domain
Action
p913
(dp914
g32
(lp915
(S'at_x1'
p916
tp917
a(S'at_y3'
p918
tp919
asg38
(lp920
(S'at_x0'
p921
tp922
asg42
(tsg43
(lp923
(S'at_x1'
p924
tp925
asg47
I0
sg48
(lp926
sg50
S'move_1_3_0_3'
p927
sb(istructures.domain
Action
p928
(dp929
g32
(lp930
(S'at_x0'
p931
tp932
a(S'at_y3'
p933
tp934
asg38
(lp935
(S'at_y4'
p936
tp937
asg42
(tsg43
(lp938
(S'at_y3'
p939
tp940
asg47
I0
sg48
(lp941
sg50
S'move_0_3_0_4'
p942
sbtp943
(g113
g14
g18
g20
g24
tp944
tp945
a((g73
g4
g6
g12
g14
g16
g18
g75
g109
g20
g22
g24
g26
tp946
(g360
(istructures.domain
Action
p947
(dp948
g32
(lp949
(S'at_x2'
p950
tp951
a(S'at_y5'
p952
tp953
asg38
(lp954
(S'at_x3'
p955
tp956
asg42
(tsg43
(lp957
(S'at_x2'
p958
tp959
asg47
I0
sg48
(lp960
sg50
S'move_2_5_3_5'
p961
sbtp962
(g73
g2
g4
g14
g16
g18
g75
g109
g20
g22
g28
tp963
tp964
a((g73
g2
g4
g6
g12
g14
g16
g18
g75
g22
g24
g69
g28
tp965
(g468
g698
tp966
(g73
g6
g8
g14
g20
g28
tp967
tp968
a((g2
g113
g10
g12
g18
g75
g67
g24
g69
g28
tp969
(g379
tp970
(g2
g10
g16
g24
g69
tp971
tp972
a((g73
g6
g8
g10
g12
g14
g16
g18
g109
g20
g22
g24
g69
g28
tp973
((istructures.domain
Action
p974
(dp975
g32
(lp976
(S'at_x5'
p977
tp978
a(S'at_y4'
p979
tp980
asg38
(lp981
(S'at_x4'
p982
tp983
asg42
(tsg43
(lp984
(S'at_x5'
p985
tp986
asg47
I0
sg48
(lp987
sg50
S'move_5_4_4_4'
p988
sbg536
tp989
(g4
g10
g12
g16
g18
g69
g26
tp990
tp991
a((g73
g6
g8
g113
g10
g12
g16
g18
g20
g22
g67
g24
g69
g28
tp992
(g345
(istructures.domain
Action
p993
(dp994
g32
(lp995
(S'at_x5'
p996
tp997
a(S'at_y2'
p998
tp999
asg38
(lp1000
(S'have_item1'
p1001
tp1002
asg42
(tsg43
(lp1003
sg47
I0
sg48
(lp1004
sg50
S'easymark_item1_5_2'
p1005
sbtp1006
(g8
g113
g14
g16
g20
g67
g26
tp1007
tp1008
a((g2
g113
g10
g14
g16
g18
g75
g22
g67
g69
g26
g28
tp1009
(g134
(istructures.domain
Action
p1010
(dp1011
g32
(lp1012
(S'at_x1'
p1013
tp1014
a(S'at_y2'
p1015
tp1016
asg38
(lp1017
(S'at_y1'
p1018
tp1019
asg42
(tsg43
(lp1020
(S'at_y2'
p1021
tp1022
asg47
I0
sg48
(lp1023
sg50
S'move_1_2_1_1'
p1024
sb(istructures.domain
Action
p1025
(dp1026
g32
(lp1027
(S'at_x1'
p1028
tp1029
a(S'at_y0'
p1030
tp1031
asg38
(lp1032
(S'at_x2'
p1033
tp1034
asg42
(tsg43
(lp1035
(S'at_x1'
p1036
tp1037
asg47
I0
sg48
(lp1038
sg50
S'move_1_0_2_0'
p1039
sbtp1040
(g12
g14
g16
g18
g75
g109
g67
g28
tp1041
tp1042
a((g2
g4
g113
g10
g14
g16
g20
g22
g24
tp1043
(g198
g572
tp1044
(g2
g4
g8
g16
g109
g24
tp1045
tp1046
a((g73
g113
g14
g18
g75
g109
g20
g22
g67
g24
g69
tp1047
(g438
(istructures.domain
Action
p1048
(dp1049
g32
(lp1050
(S'at_x5'
p1051
tp1052
a(S'at_y3'
p1053
tp1054
asg38
(lp1055
(S'have_item3'
p1056
tp1057
asg42
(tsg43
(lp1058
sg47
I0
sg48
(lp1059
sg50
S'easymark_item3_5_3'
p1060
sbtp1061
(g6
g113
g10
g18
g75
g109
g67
g24
g69
tp1062
tp1063
a((g73
g2
g10
g12
g14
g16
g75
g20
g22
g24
g26
g28
tp1064
(g256
g271
tp1065
(g73
g2
g14
g16
g75
g109
g67
g26
tp1066
tp1067
a((g2
g4
g12
g16
g18
g75
g67
g24
g26
g28
tp1068
(g30
g521
tp1069
(g4
g67
g24
g69
g26
g28
tp1070
tp1071
a((g73
g2
g4
g6
g10
g16
g75
g20
g22
g67
g69
g26
tp1072
((istructures.domain
Action
p1073
(dp1074
g32
(lp1075
(S'at_x4'
p1076
tp1077
a(S'at_y0'
p1078
tp1079
asg38
(lp1080
(S'have_item7'
p1081
tp1082
asg42
(tsg43
(lp1083
sg47
I0
sg48
(lp1084
sg50
S'easymark_item7_4_0'
p1085
sbtp1086
(g2
g10
g14
g20
g67
g69
g26
tp1087
tp1088
a((g73
g6
g8
g113
g10
g14
g16
g109
g20
g24
g69
g28
tp1089
(g290
tp1090
(g73
g10
g12
g16
g109
g20
g69
tp1091
tp1092
a((g73
g8
g113
g10
g14
g16
g18
g75
g20
g24
g69
g26
tp1093
(g1025
g1048
tp1094
(g73
g6
g113
g10
g12
g24
g69
g26
tp1095
tp1096
a((g73
g4
g6
g8
g113
g12
g75
g20
g67
g24
g69
tp1097
(g717
(istructures.domain
Action
p1098
(dp1099
g32
(lp1100
(S'at_x1'
p1101
tp1102
a(S'at_y4'
p1103
tp1104
asg38
(lp1105
(S'have_item5'
p1106
tp1107
asg42
(tsg43
(lp1108
sg47
I0
sg48
(lp1109
sg50
S'easymark_item5_1_4'
p1110
sbtp1111
(g73
g113
g10
g18
g75
g67
g24
g69
tp1112
tp1113
a((g73
g2
g8
g12
g14
g18
g20
g22
g24
g26
g28
tp1114
(g736
(istructures.domain
Action
p1115
(dp1116
g32
(lp1117
(S'at_x3'
p1118
tp1119
a(S'at_y2'
p1120
tp1121
asg38
(lp1122
(S'at_y3'
p1123
tp1124
asg42
(tsg43
(lp1125
(S'at_y2'
p1126
tp1127
asg47
I0
sg48
(lp1128
sg50
S'move_3_2_3_3'
p1129
sbtp1130
(g14
g16
g24
g69
g26
g28
tp1131
tp1132
a((g73
g2
g4
g113
g10
g12
g14
g18
g75
g22
g67
tp1133
(g134
g521
tp1134
(g4
g8
g10
g22
g24
tp1135
tp1136
a((g73
g4
g6
g10
g12
g14
g18
g20
g22
g24
g28
tp1137
(g198
(istructures.domain
Action
p1138
(dp1139
g32
(lp1140
(S'at_x4'
p1141
tp1142
a(S'at_y1'
p1143
tp1144
asg38
(lp1145
(S'at_y0'
p1146
tp1147
asg42
(tsg43
(lp1148
(S'at_y1'
p1149
tp1150
asg47
I0
sg48
(lp1151
sg50
S'move_4_1_4_0'
p1152
sbtp1153
(g73
g4
g10
g12
g75
g20
tp1154
tp1155
a((g73
g4
g6
g8
g10
g16
g18
g109
g67
g24
tp1156
(g791
(istructures.domain
Action
p1157
(dp1158
g32
(lp1159
(S'at_x1'
p1160
tp1161
a(S'at_y1'
p1162
tp1163
asg38
(lp1164
(S'at_x0'
p1165
tp1166
asg42
(tsg43
(lp1167
(S'at_x1'
p1168
tp1169
asg47
I0
sg48
(lp1170
sg50
S'move_1_1_0_1'
p1171
sb(istructures.domain
Action
p1172
(dp1173
g32
(lp1174
(S'at_x3'
p1175
tp1176
a(S'at_y4'
p1177
tp1178
asg38
(lp1179
(S'at_x2'
p1180
tp1181
asg42
(tsg43
(lp1182
(S'at_x3'
p1183
tp1184
asg47
I0
sg48
(lp1185
sg50
S'move_3_4_2_4'
p1186
sbtp1187
(g113
g10
g12
g18
g67
g24
tp1188
tp1189
a((g4
g113
g10
g12
g14
g75
g20
g22
g24
g69
g26
tp1190
(g502
g717
tp1191
(g4
g113
g10
g14
g18
g24
g26
g28
tp1192
tp1193
a((g8
g10
g16
g18
g109
g20
g69
g28
tp1194
((istructures.domain
Action
p1195
(dp1196
g32
(lp1197
(S'at_x5'
p1198
tp1199
a(S'at_y1'
p1200
tp1201
asg38
(lp1202
(S'at_x4'
p1203
tp1204
asg42
(tsg43
(lp1205
(S'at_x5'
p1206
tp1207
asg47
I0
sg48
(lp1208
sg50
S'move_5_1_4_1'
p1209
sbg451
tp1210
(g73
g4
g8
g10
g16
g69
g28
tp1211
tp1212
a((g73
g4
g6
g113
g10
g12
g75
g20
g67
g24
g28
tp1213
(g379
g1073
tp1214
(g113
g12
g14
g16
g20
g24
g28
tp1215
tp1216
a((g73
g2
g4
g10
g12
g14
g75
g109
g69
tp1217
(g717
g326
tp1218
(g73
g4
g12
g14
g18
g24
tp1219
tp1220
a((g73
g8
g113
g12
g14
g16
g18
g20
g22
g24
g69
tp1221
(g974
tp1222
(g73
g4
g8
g14
g69
tp1223
tp1224
a((g2
g6
g8
g113
g10
g12
g14
g16
g20
g24
g69
tp1225
(g211
tp1226
(g73
g2
g6
g113
g10
g16
g20
tp1227
tp1228
a((g73
g4
g8
g113
g12
g14
g75
g109
g20
g22
g67
g69
g26
g28
tp1229
(g379
tp1230
(g8
g113
g16
g22
g69
tp1231
tp1232
a((g73
g2
g8
g113
g14
g18
g75
g109
g20
g22
g67
g24
g26
tp1233
(g438
g837
tp1234
(g73
g2
g6
g113
g10
g14
g20
g22
g24
g26
tp1235
tp1236
a((g73
g2
g4
g113
g10
g14
g16
g18
g75
g109
g20
g24
g26
g28
tp1237
((istructures.domain
Action
p1238
(dp1239
g32
(lp1240
(S'at_x3'
p1241
tp1242
a(S'at_y0'
p1243
tp1244
asg38
(lp1245
(S'at_x2'
p1246
tp1247
asg42
(tsg43
(lp1248
(S'at_x3'
p1249
tp1250
asg47
I0
sg48
(lp1251
sg50
S'move_3_0_2_0'
p1252
sbtp1253
(g73
g113
g10
g12
g16
g18
g109
g24
g26
tp1254
tp1255
a((g4
g10
g14
g16
g75
g20
g67
g69
g28
tp1256
((istructures.domain
Action
p1257
(dp1258
g32
(lp1259
(S'at_x4'
p1260
tp1261
a(S'at_y3'
p1262
tp1263
asg38
(lp1264
(S'at_y4'
p1265
tp1266
asg42
(tsg43
(lp1267
(S'at_y3'
p1268
tp1269
asg47
I0
sg48
(lp1270
sg50
S'move_4_3_4_4'
p1271
sbg147
tp1272
(g73
g14
g16
tp1273
tp1274
a((g73
g2
g6
g8
g10
g12
g14
g16
g109
g20
g24
g69
g26
g28
tp1275
((istructures.domain
Action
p1276
(dp1277
g32
(lp1278
(S'at_x2'
p1279
tp1280
a(S'at_y3'
p1281
tp1282
asg38
(lp1283
(S'at_y2'
p1284
tp1285
asg42
(tsg43
(lp1286
(S'at_y3'
p1287
tp1288
asg47
I0
sg48
(lp1289
sg50
S'move_2_3_2_2'
p1290
sb(istructures.domain
Action
p1291
(dp1292
g32
(lp1293
(S'at_x5'
p1294
tp1295
a(S'at_y4'
p1296
tp1297
asg38
(lp1298
(S'at_y3'
p1299
tp1300
asg42
(tsg43
(lp1301
(S'at_y4'
p1302
tp1303
asg47
I0
sg48
(lp1304
sg50
S'move_5_4_5_3'
p1305
sbtp1306
(g73
g8
g10
g14
g16
g109
g20
g22
g69
tp1307
tp1308
a((g73
g2
g4
g113
g10
g14
g18
g75
g109
g67
g24
g69
g26
tp1309
((istructures.domain
Action
p1310
(dp1311
g32
(lp1312
(S'at_x4'
p1313
tp1314
a(S'at_y1'
p1315
tp1316
asg38
(lp1317
(S'have_item6'
p1318
tp1319
asg42
(tsg43
(lp1320
sg47
I0
sg48
(lp1321
sg50
S'easymark_item6_4_1'
p1322
sb(istructures.domain
Action
p1323
(dp1324
g32
(lp1325
(S'at_x0'
p1326
tp1327
a(S'at_y1'
p1328
tp1329
asg38
(lp1330
(S'at_y2'
p1331
tp1332
asg42
(tsg43
(lp1333
(S'at_y1'
p1334
tp1335
asg47
I0
sg48
(lp1336
sg50
S'move_0_1_0_2'
p1337
sbtp1338
(g113
g14
g16
g18
g22
g67
g24
g69
tp1339
tp1340
a((g2
g6
g113
g12
g14
g18
g109
g20
g22
g67
g24
g28
tp1341
(g974
g211
tp1342
(g73
g2
g4
g113
g12
g18
g109
g22
g67
g28
tp1343
tp1344
a((g73
g6
g8
g12
g14
g18
g75
g109
g22
g67
g24
g69
tp1345
((istructures.domain
Action
p1346
(dp1347
g32
(lp1348
(S'at_x1'
p1349
tp1350
a(S'at_y2'
p1351
tp1352
asg38
(lp1353
(S'have_item5'
p1354
tp1355
asg42
(tsg43
(lp1356
sg47
I0
sg48
(lp1357
sg50
S'easymark_item5_1_2'
p1358
sb(istructures.domain
Action
p1359
(dp1360
g32
(lp1361
(S'at_x2'
p1362
tp1363
a(S'at_y4'
p1364
tp1365
asg38
(lp1366
(S'have_item6'
p1367
tp1368
asg42
(tsg43
(lp1369
sg47
I0
sg48
(lp1370
sg50
S'easymark_item6_2_4'
p1371
sbtp1372
(g6
g8
g10
g16
g75
tp1373
tp1374
a((g6
g8
g12
g14
g20
g22
g24
g69
g26
tp1375
(g913
tp1376
(g6
g113
g12
g22
g24
g26
tp1377
tp1378
a((g73
g2
g8
g10
g12
g14
g16
g18
g75
g109
g20
g22
g26
g28
tp1379
(g679
g271
tp1380
(g113
g10
g12
g14
g16
g18
g67
g28
tp1381
tp1382
a((g73
g4
g6
g8
g14
g16
g75
g109
g20
g22
g67
g69
g26
tp1383
(g1257
tp1384
(g6
g8
g14
g75
g109
g20
g22
g24
g26
tp1385
tp1386
a((g73
g4
g10
g12
g16
g18
g75
g20
g67
g24
g26
g28
tp1387
(g30
tp1388
(g10
g12
g20
g67
g69
g28
tp1389
tp1390
a((g2
g4
g6
g8
g10
g14
g18
g75
g109
g20
g22
g67
g24
g69
g26
tp1391
(g913
g1310
tp1392
(g2
g6
g113
g10
g16
g75
g20
g22
g67
g24
g69
tp1393
tp1394
a((g73
g8
g113
g14
g16
g18
g75
g109
g24
g26
g28
tp1395
(g1238
g837
tp1396
(g6
g12
g14
g109
tp1397
tp1398
a((g73
g2
g8
g113
g12
g14
g16
g75
g109
g22
g24
g69
g26
g28
tp1399
((istructures.domain
Action
p1400
(dp1401
g32
(lp1402
(S'at_x3'
p1403
tp1404
a(S'at_y3'
p1405
tp1406
asg38
(lp1407
(S'at_x4'
p1408
tp1409
asg42
(tsg43
(lp1410
(S'at_x3'
p1411
tp1412
asg47
I0
sg48
(lp1413
sg50
S'move_3_3_4_3'
p1414
sbtp1415
(g73
g2
g4
g8
g113
g12
g14
g75
g22
g24
g69
tp1416
tp1417
a((g73
g4
g8
g113
g10
g18
g109
g20
g67
g24
g26
g28
tp1418
((istructures.domain
Action
p1419
(dp1420
g32
(lp1421
(S'at_x5'
p1422
tp1423
a(S'at_y1'
p1424
tp1425
asg38
(lp1426
(S'at_y2'
p1427
tp1428
asg42
(tsg43
(lp1429
(S'at_y1'
p1430
tp1431
asg47
I0
sg48
(lp1432
sg50
S'move_5_1_5_2'
p1433
sbg759
tp1434
(g73
g2
g8
g18
g20
g22
g67
g26
g28
tp1435
tp1436
a((g73
g2
g4
g8
g113
g14
g16
g75
g109
g20
g67
g24
g69
g26
g28
tp1437
(g438
g837
tp1438
(g73
g2
g6
g8
g113
g10
g16
g75
g109
g20
g67
g28
tp1439
tp1440
a((g2
g4
g6
g8
g113
g12
g14
g16
g18
g75
g109
g22
g67
g69
g26
tp1441
(g164
g451
tp1442
(g73
g2
g14
g18
g75
g22
g26
g28
tp1443
tp1444
a((g2
g4
g8
g10
g12
g16
g18
g75
g109
g22
g24
g69
g26
tp1445
(g468
g913
tp1446
(g2
g113
g12
g16
g109
g20
g22
g26
tp1447
tp1448
a((g73
g6
g113
g10
g12
g18
g75
g22
g67
g24
g69
g26
tp1449
(g502
g379
tp1450
(g113
g16
g67
g24
g26
g28
tp1451
tp1452
a((g2
g6
g8
g10
g14
g18
g109
g20
g22
g69
g26
g28
tp1453
(g1400
tp1454
(g4
g8
g10
g14
g18
g20
tp1455
tp1456
a((g73
g4
g6
g8
g12
g16
g22
g24
g69
g26
tp1457
(g1346
tp1458
(g4
g6
g10
g12
tp1459
tp1460
a((g73
g2
g6
g113
g10
g14
g109
g20
g67
g26
g28
tp1461
(g400
g487
g1291
tp1462
(g14
g75
g67
g69
g28
tp1463
tp1464
a((g4
g113
g10
g12
g14
g16
g109
g20
g22
g67
g69
g28
tp1465
(g572
g451
tp1466
(g73
g4
g8
g12
g16
g109
g22
g69
g28
tp1467
tp1468
a((g2
g113
g10
g14
g18
g75
g109
g20
g22
g67
g24
g26
g28
tp1469
(g134
g1291
tp1470
(g2
g8
g10
g75
g67
g69
g26
tp1471
tp1472
a((g73
g2
g4
g6
g8
g113
g10
g14
g75
g20
g67
g69
g26
g28
tp1473
(g928
g736
tp1474
(g2
g4
g6
g113
g10
g14
g16
g75
g20
g24
tp1475
tp1476
a((g73
g2
g4
g8
g10
g16
g109
g20
g67
g24
g69
g26
g28
tp1477
(g1138
g345
tp1478
(g73
g8
g10
g14
g75
g67
g69
g28
tp1479
tp1480
a((g73
g2
g4
g6
g8
g113
g12
g14
g16
g109
g20
g67
g24
g28
tp1481
(g1138
g239
tp1482
(g73
g113
g14
g16
g18
g75
g20
tp1483
tp1484
a((g73
g2
g4
g10
g12
g18
g75
g109
g20
g67
g24
g69
g26
g28
tp1485
(g1276
g618
tp1486
(g10
g12
g14
g18
g75
g109
g22
g67
g24
g26
tp1487
tp1488
a((g2
g6
g8
g113
g10
g14
g20
g22
g67
g28
tp1489
((istructures.domain
Action
p1490
(dp1491
g32
(lp1492
(S'at_x5'
p1493
tp1494
a(S'at_y2'
p1495
tp1496
asg38
(lp1497
(S'at_x4'
p1498
tp1499
asg42
(tsg43
(lp1500
(S'at_x5'
p1501
tp1502
asg47
I0
sg48
(lp1503
sg50
S'move_5_2_4_2'
p1504
sb(istructures.domain
Action
p1505
(dp1506
g32
(lp1507
(S'at_x1'
p1508
tp1509
a(S'at_y5'
p1510
tp1511
asg38
(lp1512
(S'at_x2'
p1513
tp1514
asg42
(tsg43
(lp1515
(S'at_x1'
p1516
tp1517
asg47
I0
sg48
(lp1518
sg50
S'move_1_5_2_5'
p1519
sbtp1520
(g2
g4
g6
g10
g12
g67
g28
tp1521
tp1522
a((g2
g6
g8
g113
g12
g16
g18
g75
g109
g67
g24
g69
g26
g28
tp1523
(g345
g211
tp1524
(g73
g2
g14
g75
g109
g67
g69
g28
tp1525
tp1526
a((g73
g4
g6
g113
g10
g16
g18
g75
g20
g22
g24
g69
g26
tp1527
(g791
g345
tp1528
(g113
g10
g14
g20
g22
g24
g69
g26
g28
tp1529
tp1530
a((g4
g6
g8
g113
g10
g14
g16
g18
g109
g20
g67
g24
g69
g28
tp1531
(g290
tp1532
(g4
g113
g12
g14
g18
g67
g69
tp1533
tp1534
a((g73
g2
g8
g113
g14
g16
g75
g109
g20
g22
g67
g69
g26
g28
tp1535
(g438
g239
tp1536
(g73
g8
g10
g14
g16
g18
g75
g109
g20
g67
g26
tp1537
tp1538
a((g73
g4
g6
g8
g113
g10
g16
g18
g75
g20
g22
g67
g28
tp1539
(g1025
g77
tp1540
(g73
g12
g18
g75
g67
g69
tp1541
tp1542
a((g73
g2
g4
g6
g113
g12
g14
g16
g18
g75
g67
g24
g69
g26
g28
tp1543
(g468
(istructures.domain
Action
p1544
(dp1545
g32
(lp1546
(S'at_x0'
p1547
tp1548
a(S'at_y0'
p1549
tp1550
asg38
(lp1551
(S'at_y1'
p1552
tp1553
asg42
(tsg43
(lp1554
(S'at_y0'
p1555
tp1556
asg47
I0
sg48
(lp1557
sg50
S'move_0_0_0_1'
p1558
sbtp1559
(g73
g2
g6
g12
g18
g109
g20
g67
g24
g69
g26
tp1560
tp1561
a((g2
g6
g10
g12
g18
g75
g20
g67
g24
g69
g26
tp1562
(g1276
g1291
(istructures.domain
Action
p1563
(dp1564
g32
(lp1565
(S'at_x2'
p1566
tp1567
a(S'at_y2'
p1568
tp1569
asg38
(lp1570
(S'at_y1'
p1571
tp1572
asg42
(tsg43
(lp1573
(S'at_y2'
p1574
tp1575
asg47
I0
sg48
(lp1576
sg50
S'move_2_2_2_1'
p1577
sbtp1578
(g12
g75
g109
g69
g26
tp1579
tp1580
a((g73
g4
g6
g113
g12
g14
g75
g109
g20
g22
g24
g69
g28
tp1581
(g271
tp1582
(g73
g113
g109
g22
g67
g24
g69
tp1583
tp1584
a((g73
g2
g4
g8
g10
g12
g16
g18
g75
g109
g22
g67
g69
g26
g28
tp1585
(g913
g860
tp1586
(g73
g2
g113
g10
g18
g20
g22
tp1587
tp1588
a((g73
g4
g6
g113
g14
g16
g18
g75
g20
g22
g67
g24
g69
tp1589
(g791
(istructures.domain
Action
p1590
(dp1591
g32
(lp1592
(S'at_x3'
p1593
tp1594
a(S'at_y0'
p1595
tp1596
asg38
(lp1597
(S'have_item5'
p1598
tp1599
asg42
(tsg43
(lp1600
sg47
I0
sg48
(lp1601
sg50
S'easymark_item5_3_0'
p1602
sbtp1603
(g73
g113
g10
g14
g16
g18
g22
g28
tp1604
tp1605
a((g73
g2
g4
g8
g113
g12
g14
g16
g75
g109
g20
g22
g67
g24
g69
g26
g28
tp1606
(g717
tp1607
(g73
g4
g8
g12
g14
g18
g109
g22
g69
tp1608
tp1609
a((g2
g4
g6
g8
g10
g12
g14
g16
g18
g22
g69
g28
tp1610
(g52
tp1611
(g4
g8
g14
g16
g18
g67
tp1612
tp1613
a((g73
g113
g10
g12
g18
g75
g109
g20
g22
g67
g69
g28
tp1614
(g134
g379
tp1615
(g73
g8
g10
g12
g16
g67
g69
tp1616
tp1617
a((g73
g6
g8
g113
g10
g16
g18
g75
g109
g20
g69
g26
g28
tp1618
(g271
tp1619
(g73
g6
g10
g16
g18
g75
g109
g67
tp1620
tp1621
a((g73
g2
g4
g8
g113
g14
g18
g75
g109
g22
g67
g28
tp1622
(g438
g303
tp1623
(g73
g2
g4
g10
g18
g109
g67
g26
tp1624
tp1625
a((g73
g2
g113
g14
g16
g75
g22
g26
g28
tp1626
(g1115
(istructures.domain
Action
p1627
(dp1628
g32
(lp1629
(S'at_x0'
p1630
tp1631
a(S'at_y5'
p1632
tp1633
asg38
(lp1634
(S'have_item0'
p1635
tp1636
asg42
(tsg43
(lp1637
sg47
I0
sg48
(lp1638
sg50
S'easymark_item0_0_5'
p1639
sbtp1640
(g2
g113
g14
g18
g69
g26
tp1641
tp1642
a((g73
g2
g4
g6
g113
g14
g16
g18
g75
g109
g20
g22
g24
g69
g28
tp1643
(g438
g271
tp1644
(g6
g10
g16
g109
g20
g67
g24
g28
tp1645
tp1646
a((g73
g6
g10
g12
g16
g75
g109
g20
g22
g24
g69
g26
g28
tp1647
((istructures.domain
Action
p1648
(dp1649
g32
(lp1650
(S'at_x3'
p1651
tp1652
a(S'at_y2'
p1653
tp1654
asg38
(lp1655
(S'have_item0'
p1656
tp1657
asg42
(tsg43
(lp1658
sg47
I0
sg48
(lp1659
sg50
S'easymark_item0_3_2'
p1660
sbg271
tp1661
(g18
g20
g67
g69
g28
tp1662
tp1663
a((g73
g2
g113
g10
g12
g14
g16
g18
g75
g67
tp1664
(g1544
g303
tp1665
(g2
g113
g109
g26
tp1666
tp1667
a((g73
g2
g4
g6
g113
g12
g14
g18
g20
g22
g67
g24
g69
g28
tp1668
(g698
g993
tp1669
(g6
g8
g20
g22
g26
g28
tp1670
tp1671
a((g73
g2
g8
g10
g12
g16
g18
g75
g109
g20
g67
g24
g69
g26
g28
tp1672
(g345
g591
tp1673
(g73
g2
g4
g8
g14
g75
g69
g26
g28
tp1674
tp1675
a((g73
g2
g113
g10
g14
g16
g109
g20
g22
g67
g24
g69
tp1676
(g303
g1048
tp1677
(g73
g6
g113
g14
g16
g109
g22
g67
g24
g69
g26
tp1678
tp1679
a((g2
g6
g12
g14
g16
g75
g109
g22
g28
tp1680
(g698
tp1681
(g6
g8
g75
g109
g22
tp1682
tp1683
a((g73
g2
g4
g6
g75
g109
g20
g22
g67
g24
g69
g26
g28
tp1684
(g290
g717
tp1685
(g73
g6
g12
g18
g109
g20
g67
g69
g26
tp1686
tp1687
a((g73
g2
g8
g113
g10
g14
g18
g75
g22
g67
g28
tp1688
(g400
g379
tp1689
(g73
g113
g14
g16
g18
g67
g24
g28
tp1690
tp1691
a((g73
g2
g4
g10
g12
g16
g18
g75
g109
g20
g67
g69
g26
g28
tp1692
(g1048
tp1693
(g73
g2
g4
g6
g10
g18
g75
g109
g20
g69
g26
tp1694
tp1695
a((g2
g6
g113
g12
g14
g16
g75
g20
g67
g24
g69
tp1696
(g226
tp1697
(g2
g6
g10
g12
g14
g16
g75
g20
g67
g24
tp1698
tp1699
a((g73
g2
g4
g6
g8
g113
g14
g18
g75
g109
g28
tp1700
(g736
g303
tp1701
(g2
g6
g8
g113
g16
g18
g109
g26
tp1702
tp1703
a((g73
g2
g4
g113
g10
g16
g18
g109
g67
g24
g69
tp1704
(g572
(istructures.domain
Action
p1705
(dp1706
g32
(lp1707
(S'at_x1'
p1708
tp1709
a(S'at_y1'
p1710
tp1711
asg38
(lp1712
(S'at_y2'
p1713
tp1714
asg42
(tsg43
(lp1715
(S'at_y1'
p1716
tp1717
asg47
I0
sg48
(lp1718
sg50
S'move_1_1_1_2'
p1719
sbtp1720
(g73
g2
g4
g8
g10
g16
g22
g67
g69
tp1721
tp1722
a((g2
g4
g6
g8
g10
g16
g75
g109
g20
g22
g67
g24
g69
tp1723
((istructures.domain
Action
p1724
(dp1725
g32
(lp1726
(S'at_x1'
p1727
tp1728
a(S'at_y3'
p1729
tp1730
asg38
(lp1731
(S'have_item7'
p1732
tp1733
asg42
(tsg43
(lp1734
sg47
I0
sg48
(lp1735
sg50
S'easymark_item7_1_3'
p1736
sbtp1737
(g4
g8
g10
g14
g75
g109
g67
tp1738
tp1739
a((g6
g113
g10
g16
g75
g20
g22
g69
g26
g28
tp1740
(g290
g591
g164
tp1741
(g6
g113
g10
g12
g16
g69
g28
tp1742
tp1743
a((g73
g8
g113
g10
g12
g14
g75
g20
g22
g67
g24
g28
tp1744
(g591
g1648
tp1745
(g73
g4
g113
g10
g18
g22
g24
tp1746
tp1747
a((g73
g2
g6
g113
g10
g75
g109
g20
g22
g67
g69
g26
g28
tp1748
(g379
tp1749
(g73
g2
g6
g10
g16
g109
g20
g69
g26
g28
tp1750
tp1751
a((g2
g4
g10
g75
g109
g20
g67
g24
g69
g26
tp1752
((istructures.domain
Action
p1753
(dp1754
g32
(lp1755
(S'at_x4'
p1756
tp1757
a(S'at_y3'
p1758
tp1759
asg38
(lp1760
(S'at_y2'
p1761
tp1762
asg42
(tsg43
(lp1763
(S'at_y3'
p1764
tp1765
asg47
I0
sg48
(lp1766
sg50
S'move_4_3_4_2'
p1767
sbg1310
tp1768
(g2
g16
g75
g109
g22
g67
g24
tp1769
tp1770
a((g73
g4
g6
g8
g113
g10
g12
g16
g18
g75
g109
g22
g24
g69
g28
tp1771
(g360
tp1772
(g2
g113
g75
g28
tp1773
tp1774
a((g73
g2
g4
g8
g113
g10
g12
g75
g20
g22
g67
g69
g26
g28
tp1775
(g1048
tp1776
(g73
g6
g113
g75
g20
g69
g26
g28
tp1777
tp1778
a((g4
g6
g8
g12
g14
g16
g18
g22
g67
g24
g69
tp1779
(g198
g1276
g1346
tp1780
(g4
g6
g10
g12
g14
g109
g22
tp1781
tp1782
a((g4
g6
g8
g113
g12
g14
g16
g109
g22
g67
g24
g69
g26
g28
tp1783
(g211
tp1784
(g73
g6
g113
g16
g109
g22
g24
g28
tp1785
tp1786
a((g4
g113
g14
g16
g18
g75
g20
g22
g69
g26
tp1787
(g134
g1346
tp1788
(g8
g10
g14
g18
g22
tp1789
tp1790
a((g73
g4
g113
g12
g16
g18
g75
g20
g22
g67
g24
g69
g26
g28
tp1791
(g664
tp1792
(g73
g8
g113
g16
g22
g69
tp1793
tp1794
a((g4
g113
g10
g12
g16
g18
g22
g67
g24
g69
g26
g28
tp1795
(g198
g211
tp1796
(g73
g10
g18
g109
g24
tp1797
tp1798
a((g73
g2
g6
g8
g10
g12
g14
g16
g18
g75
g109
g22
g24
g28
tp1799
(g1115
tp1800
(g2
g12
g14
g16
g18
g109
g24
g69
g28
tp1801
tp1802
a((g6
g10
g12
g14
g16
g18
g75
g109
g22
g67
g24
g69
tp1803
(g211
tp1804
(g73
g6
g10
g14
g18
g67
g69
tp1805
tp1806
a((g2
g10
g12
g18
g75
g109
g20
g24
g69
g28
tp1807
(g698
g913
tp1808
(g113
g10
g18
g109
g28
tp1809
tp1810
a((g2
g6
g10
g12
g18
g109
g67
g69
tp1811
((istructures.domain
Action
p1812
(dp1813
g32
(lp1814
(S'at_x2'
p1815
tp1816
a(S'at_y1'
p1817
tp1818
asg38
(lp1819
(S'have_item1'
p1820
tp1821
asg42
(tsg43
(lp1822
sg47
I0
sg48
(lp1823
sg50
S'easymark_item1_2_1'
p1824
sb(istructures.domain
Action
p1825
(dp1826
g32
(lp1827
(S'at_x2'
p1828
tp1829
a(S'at_y1'
p1830
tp1831
asg38
(lp1832
(S'at_y0'
p1833
tp1834
asg42
(tsg43
(lp1835
(S'at_y1'
p1836
tp1837
asg47
I0
sg48
(lp1838
sg50
S'move_2_1_2_0'
p1839
sbtp1840
(g2
g6
g10
g12
g75
g69
g26
tp1841
tp1842
a((g73
g2
g4
g113
g10
g14
g16
g109
g67
g69
tp1843
(g303
g860
tp1844
(g2
g14
g16
g109
g20
g67
g69
g26
tp1845
tp1846
a((g73
g6
g8
g113
g10
g12
g18
g75
g109
g20
g22
g67
g69
g26
tp1847
(g326
tp1848
(g8
g113
g10
g18
g75
g109
g22
g24
g26
tp1849
tp1850
a((g2
g4
g6
g8
g18
g75
g20
g28
tp1851
(g679
tp1852
(g2
g4
g6
g113
g18
g75
g28
tp1853
tp1854
a((g4
g6
g8
g113
g12
g14
g16
g75
g109
g67
g24
g26
tp1855
(g1323
g211
tp1856
(g73
g4
g12
g22
g67
g26
tp1857
tp1858
a((g2
g6
g10
g12
g14
g18
g75
g109
g20
g67
g69
g26
g28
tp1859
(g1276
g521
tp1860
(g10
g12
g75
g20
g22
g67
g24
tp1861
tp1862
a((g4
g6
g10
g12
g14
g16
g18
g75
g109
g22
g67
g24
g26
g28
tp1863
(g468
tp1864
(g10
g12
g18
g75
g109
g20
g22
g26
g28
tp1865
tp1866
a((g113
g12
g14
g18
g109
g20
g22
g67
g24
g69
g26
g28
tp1867
(g438
g487
tp1868
(g113
g10
g12
g14
g75
g20
g22
g24
g26
g28
tp1869
tp1870
a((g73
g2
g4
g6
g8
g113
g10
g12
g16
g18
g109
g20
g22
g24
g69
g26
g28
tp1871
(g778
tp1872
(g73
g2
g4
g6
g8
g12
g109
g22
g67
tp1873
tp1874
a((g73
g2
g6
g8
g113
g14
g16
g18
g75
g109
g20
g22
g24
g69
g26
tp1875
(g271
tp1876
(g73
g6
g113
g14
g16
g109
g22
g67
g24
g69
tp1877
tp1878
a((g2
g6
g10
g12
g14
g18
g109
g67
g24
g26
g28
tp1879
(g1359
(istructures.domain
Action
p1880
(dp1881
g32
(lp1882
(S'at_x3'
p1883
tp1884
a(S'at_y1'
p1885
tp1886
asg38
(lp1887
(S'at_y2'
p1888
tp1889
asg42
(tsg43
(lp1890
(S'at_y1'
p1891
tp1892
asg47
I0
sg48
(lp1893
sg50
S'move_3_1_3_2'
p1894
sbtp1895
(g2
g6
g10
g12
g16
g18
g22
g24
g26
g28
tp1896
tp1897
a((g4
g6
g8
g113
g12
g16
g18
g75
g20
g22
g67
g24
g26
tp1898
(g1544
tp1899
(g4
g8
g113
g12
g18
g109
g22
g67
tp1900
tp1901
a((g73
g2
g4
g6
g8
g113
g10
g12
g14
g16
g18
g75
g109
g22
g67
g28
tp1902
(g303
tp1903
(g8
g113
g18
g75
g22
g67
g26
tp1904
tp1905
a((g73
g4
g6
g8
g113
g14
g16
g75
g22
g24
g26
g28
tp1906
(g468
(istructures.domain
Action
p1907
(dp1908
g32
(lp1909
(S'at_x3'
p1910
tp1911
a(S'at_y0'
p1912
tp1913
asg38
(lp1914
(S'at_x4'
p1915
tp1916
asg42
(tsg43
(lp1917
(S'at_x3'
p1918
tp1919
asg47
I0
sg48
(lp1920
sg50
S'move_3_0_4_0'
p1921
sbtp1922
(g73
g4
g8
g113
g14
g75
g20
g22
g24
g26
tp1923
tp1924
a((g73
g4
g6
g8
g12
g16
g109
g20
g22
g24
g28
tp1925
(g618
g778
tp1926
(g8
g12
g14
g16
g67
g28
tp1927
tp1928
a((g73
g2
g12
g16
g75
g109
g20
g22
g67
g24
g69
g26
tp1929
(g698
g1724
tp1930
(g73
g8
g14
g16
g20
g24
tp1931
tp1932
a((g73
g6
g8
g113
g10
g12
g14
g16
g18
g75
g109
g24
g69
g26
g28
tp1933
(g1400
tp1934
(g4
g6
g14
g16
g75
g24
g69
tp1935
tp1936
a((g73
g2
g4
g8
g10
g12
g16
g75
g22
g67
g24
g69
tp1937
(g198
g913
tp1938
(g2
g113
g12
g75
g109
g69
tp1939
tp1940
a((g4
g6
g8
g113
g12
g14
g16
g109
g67
g69
tp1941
(g438
g326
tp1942
(g8
g113
g10
g67
g24
tp1943
tp1944
a((g73
g2
g4
g8
g113
g10
g14
g16
g18
g109
g67
g24
tp1945
(g837
tp1946
(g73
g2
g6
g113
g10
g14
g16
g18
g109
tp1947
tp1948
a((g73
g2
g8
g75
g109
g20
g67
g24
g26
g28
tp1949
(g591
tp1950
(g73
g4
g8
g75
g67
g26
g28
tp1951
tp1952
a((g73
g2
g4
g6
g8
g113
g12
g14
g16
g75
g20
g26
g28
tp1953
(g400
tp1954
(g73
g6
g8
g12
g75
g20
g24
tp1955
tp1956
a((g73
g2
g4
g6
g8
g113
g14
g16
g18
g75
g109
g67
g26
g28
tp1957
(g400
g30
tp1958
(g73
g6
g16
g67
g69
g26
g28
tp1959
tp1960
a((g4
g6
g10
g14
g16
g109
g22
g67
g69
tp1961
(g164
g290
(istructures.domain
Action
p1962
(dp1963
g32
(lp1964
(S'at_x2'
p1965
tp1966
a(S'at_y1'
p1967
tp1968
asg38
(lp1969
(S'at_x1'
p1970
tp1971
asg42
(tsg43
(lp1972
(S'at_x2'
p1973
tp1974
asg47
I0
sg48
(lp1975
sg50
S'move_2_1_1_1'
p1976
sbtp1977
(g6
g8
g16
g22
tp1978
tp1979
a((g73
g6
g8
g16
g18
g75
g20
g22
g67
g24
g69
g26
tp1980
(g1724
tp1981
(g8
g14
g75
g67
g24
tp1982
tp1983
a((g2
g4
g6
g8
g10
g12
g16
g18
g75
g109
g20
g67
g24
g69
g26
tp1984
(g1724
tp1985
(g4
g8
g10
g14
g16
g18
g109
g20
g67
g69
tp1986
tp1987
a((g6
g8
g113
g16
g109
g20
g22
g67
g24
g26
tp1988
(g487
tp1989
(g6
g75
g20
g22
g67
g26
tp1990
tp1991
a((g73
g2
g4
g6
g113
g10
g14
g16
g18
g75
g109
g20
g67
g69
g26
g28
tp1992
(g290
g400
tp1993
(g113
g10
g12
g14
g24
g69
g26
tp1994
tp1995
a((g73
g2
g4
g6
g113
g12
g14
g16
g109
g22
g67
g69
g26
g28
tp1996
(g326
tp1997
(g73
g6
g113
g14
g109
g22
g24
g26
tp1998
tp1999
a((g2
g8
g10
g16
g18
g75
g20
g67
g24
g69
tp2000
(g92
g1419
tp2001
(g2
g8
g10
g18
g20
g22
g69
tp2002
tp2003
a((g73
g4
g8
g113
g10
g14
g16
g22
g67
tp2004
((istructures.domain
Action
p2005
(dp2006
g32
(lp2007
(S'at_x4'
p2008
tp2009
a(S'at_y2'
p2010
tp2011
asg38
(lp2012
(S'at_x5'
p2013
tp2014
asg42
(tsg43
(lp2015
(S'at_x4'
p2016
tp2017
asg47
I0
sg48
(lp2018
sg50
S'move_4_2_5_2'
p2019
sb(istructures.domain
Action
p2020
(dp2021
g32
(lp2022
(S'at_x1'
p2023
tp2024
a(S'at_y2'
p2025
tp2026
asg38
(lp2027
(S'at_x2'
p2028
tp2029
asg42
(tsg43
(lp2030
(S'at_x1'
p2031
tp2032
asg47
I0
sg48
(lp2033
sg50
S'move_1_2_2_2'
p2034
sbtp2035
(g10
g12
g14
g20
g22
g67
tp2036
tp2037
a((g2
g6
g113
g10
g12
g109
g20
g22
g69
g28
tp2038
(g345
g1490
tp2039
(g4
g10
g14
g109
g22
g28
tp2040
tp2041
a((g4
g8
g113
g10
g14
g16
g18
g75
g20
g22
g67
g24
g69
g26
g28
tp2042
(g198
g147
tp2043
(g73
g8
g113
g14
g16
g18
g75
g109
g20
g24
g69
g28
tp2044
tp2045
a((g73
g2
g4
g6
g10
g12
g20
g24
g69
tp2046
(g717
g1276
tp2047
(g73
g10
g18
g22
tp2048
tp2049
a((g4
g6
g8
g113
g12
g16
g18
g109
g20
g22
g24
g69
g26
g28
tp2050
(g360
g451
tp2051
(g73
g2
g4
g12
g16
g20
g22
g69
g28
tp2052
tp2053
a((g73
g4
g113
g10
g14
g16
g109
g20
g22
g67
g24
g69
g26
g28
tp2054
(g290
g572
tp2055
(g8
g10
g12
g20
g24
tp2056
tp2057
a((g73
g2
g4
g12
g16
g22
g24
g26
g28
tp2058
((istructures.domain
Action
p2059
(dp2060
g32
(lp2061
(S'at_x3'
p2062
tp2063
a(S'at_y5'
p2064
tp2065
asg38
(lp2066
(S'have_item5'
p2067
tp2068
asg42
(tsg43
(lp2069
sg47
I0
sg48
(lp2070
sg50
S'easymark_item5_3_5'
p2071
sbtp2072
(g10
g12
g22
g24
g26
g28
tp2073
tp2074
a((g73
g2
g4
g8
g113
g12
g14
g16
g18
g75
g20
g24
g69
g26
g28
tp2075
(g837
tp2076
(g2
g6
g8
g14
g16
g69
tp2077
tp2078
a((g73
g2
g4
g6
g8
g113
g12
g18
g109
g22
g24
g69
g26
g28
tp2079
(g438
g345
tp2080
(g2
g4
g6
g8
g10
g14
g24
g28
tp2081
tp2082
a((g73
g2
g4
g113
g10
g12
g14
g16
g18
g75
g67
g69
g28
tp2083
(g1544
g860
tp2084
(g2
g113
g10
g16
g18
g109
g20
g67
tp2085
tp2086
a((g73
g2
g4
g6
g113
g10
g12
g18
g75
g20
g22
g24
g69
g26
g28
tp2087
(g379
tp2088
(g4
g10
g12
g16
g18
g20
g22
g24
g26
tp2089
tp2090
a((g6
g113
g12
g16
g18
g109
g20
g22
g24
g69
g26
g28
tp2091
(g345
g211
tp2092
(g73
g6
g113
g12
g14
g18
g109
g20
g24
tp2093
tp2094
a((g73
g8
g10
g12
g14
g16
g18
g75
g109
g22
g67
g24
g69
g26
g28
tp2095
(g913
tp2096
(g113
g12
g14
g75
g109
g22
g67
g24
g69
g28
tp2097
tp2098
a((g2
g6
g12
g14
g18
g24
g69
g26
g28
tp2099
(g1276
g256
tp2100
(g2
g6
g18
g109
tp2101
tp2102
a((g73
g2
g113
g18
g75
g109
g20
g22
g67
g24
g26
g28
tp2103
(g618
g591
tp2104
(g2
g4
g14
g109
g22
g67
g26
tp2105
tp2106
a((g73
g113
g10
g12
g18
g109
g20
g67
g69
g26
tp2107
(g572
tp2108
(g73
g8
g10
g18
g109
g20
tp2109
tp2110
a((g73
g2
g4
g6
g113
g10
g12
g14
g16
g75
g109
g20
g22
g26
tp2111
((istructures.domain
Action
p2112
(dp2113
g32
(lp2114
(S'at_x4'
p2115
tp2116
a(S'at_y0'
p2117
tp2118
asg38
(lp2119
(S'at_x3'
p2120
tp2121
asg42
(tsg43
(lp2122
(S'at_x4'
p2123
tp2124
asg47
I0
sg48
(lp2125
sg50
S'move_4_0_3_0'
p2126
sbg1648
tp2127
(g73
g2
g6
g14
g18
g109
g28
tp2128
tp2129
a((g73
g6
g8
g10
g12
g16
g18
g109
g20
g22
g24
g69
g28
tp2130
(g345
g52
tp2131
(g12
g14
g20
g67
g69
tp2132
tp2133
a((g73
g2
g4
g6
g8
g113
g12
g14
g18
g109
g67
g28
tp2134
(g1138
g419
tp2135
(g6
g14
g18
g75
g20
g67
g28
tp2136
tp2137
a((g73
g2
g4
g6
g113
g75
g109
g22
g24
g69
tp2138
(g438
tp2139
(g2
g4
g6
g113
g10
g75
g109
g22
g24
tp2140
tp2141
a((g73
g2
g8
g113
g12
g18
g75
g109
g20
g67
g24
g69
tp2142
(g438
g1724
tp2143
(g73
g2
g10
g14
g18
g75
g20
g67
g24
g69
tp2144
tp2145
a((g73
g6
g8
g12
g14
g16
g18
g75
g109
g20
g22
g67
g69
g26
g28
tp2146
(g1400
g1346
tp2147
(g73
g4
g8
g10
g12
g14
g16
g75
g109
g20
g22
g67
g69
tp2148
tp2149
a((g73
g2
g4
g6
g8
g10
g12
g14
g16
g18
g75
g20
g22
g69
g26
tp2150
(g92
g778
tp2151
(g14
g109
g22
g67
g69
tp2152
tp2153
a((g73
g2
g113
g10
g18
g75
g22
g69
g26
g28
tp2154
(g290
g698
g736
tp2155
(g73
g2
g8
g113
g10
g16
g22
g69
g26
tp2156
tp2157
a((g73
g2
g12
g14
g16
g18
g75
g109
g20
g22
g67
g69
g26
g28
tp2158
(g698
tp2159
(g73
g2
g8
g75
g22
g69
g26
tp2160
tp2161
a((g4
g6
g8
g113
g12
g14
g16
g75
g109
g67
g24
g26
g28
tp2162
(g438
g360
tp2163
(g2
g6
g10
g14
g109
g67
g28
tp2164
tp2165
a((g73
g4
g10
g14
g16
g18
g75
g109
g22
tp2166
(g778
g2112
tp2167
(g75
g67
g28
tp2168
tp2169
a((g73
g2
g4
g6
g113
g10
g12
g14
g16
g18
g75
g20
g67
g24
g69
g26
g28
tp2170
(g1276
g198
tp2171
(g73
g4
g6
g10
g12
g14
g18
g75
g109
g24
g28
tp2172
tp2173
a((g2
g6
g8
g113
g10
g16
g75
g20
g22
g24
g69
g26
g28
tp2174
(g1025
g134
tp2175
(g6
g8
g10
g12
g16
g20
g22
g24
g69
g28
tp2176
tp2177
a((g73
g2
g4
g6
g113
g12
g14
g16
g75
g109
g22
g24
g26
tp2178
(g438
g1627
tp2179
(g73
g2
g4
g113
g10
g12
g14
g18
tp2180
tp2181
a((g73
g2
g6
g8
g113
g10
g14
g16
g75
g109
g22
g26
g28
tp2182
(g400
g1648
tp2183
(g6
g8
g10
g14
g18
g109
g24
g28
tp2184
tp2185
a((g73
g2
g4
g6
g8
g113
g12
g14
g16
g18
g75
g20
g22
g67
g24
g69
g26
tp2186
(g198
tp2187
(g4
g113
g14
g18
g75
g109
g20
g24
g69
tp2188
tp2189
a((g73
g8
g12
g16
g18
g75
g20
g22
g67
g26
tp2190
((istructures.domain
Action
p2191
(dp2192
g32
(lp2193
(S'at_x1'
p2194
tp2195
a(S'at_y2'
p2196
tp2197
asg38
(lp2198
(S'at_y3'
p2199
tp2200
asg42
(tsg43
(lp2201
(S'at_y2'
p2202
tp2203
asg47
I0
sg48
(lp2204
sg50
S'move_1_2_1_3'
p2205
sbg326
tp2206
(g12
g18
g75
g20
g67
g24
g26
tp2207
tp2208
a((g73
g8
g113
g10
g12
g16
g18
g75
g22
g67
g24
g69
g28
tp2209
(g837
tp2210
(g6
g8
g113
g10
g16
g75
g22
g24
tp2211
tp2212
a((g113
g10
g16
g18
g109
g20
g28
tp2213
(g1419
tp2214
(g113
g16
g18
g22
tp2215
tp2216
a((g73
g6
g8
g12
g14
g18
g20
g24
g69
g28
tp2217
(g913
g1359
tp2218
(g6
g113
g12
g14
g16
g18
g20
g69
g28
tp2219
tp2220
a((g73
g4
g8
g14
g18
g75
g109
g22
g67
g69
g26
tp2221
(g1257
g759
tp2222
(g2
g8
g18
g109
g22
tp2223
tp2224
a((g2
g4
g6
g8
g10
g16
g18
g75
g109
g22
g67
g24
g26
tp2225
(g791
g635
tp2226
(g73
g2
g6
g18
g22
g24
g28
tp2227
tp2228
a((g2
g8
g113
g10
g12
g16
g18
g75
g20
g24
g28
tp2229
(g1544
g1291
tp2230
(g2
g113
g10
g12
g16
g109
g20
g69
tp2231
tp2232
a((g8
g10
g14
g16
g20
g22
g67
g69
g26
g28
tp2233
(g1010
g451
tp2234
(g73
g8
g109
g20
g26
tp2235
tp2236
a((g73
g4
g6
g8
g113
g10
g12
g14
g16
g67
g24
g69
g28
tp2237
(g1276
tp2238
(g73
g4
g6
g8
g113
g22
g67
g24
g28
tp2239
tp2240
a((g73
g4
g6
g8
g113
g12
g14
g16
g18
g75
g20
g67
g24
g26
tp2241
(g791
g1544
tp2242
(g73
g8
g12
g16
g18
g109
g24
g26
g28
tp2243
tp2244
a((g73
g2
g4
g6
g8
g113
g10
g12
g14
g16
g75
g109
g20
g22
g67
g24
g69
tp2245
(g791
tp2246
(g2
g6
g10
g12
g20
g22
g67
g24
g69
g28
tp2247
tp2248
a((g6
g8
g113
g10
g18
g75
g109
g20
g22
g69
g26
tp2249
(g1025
tp2250
(g6
g113
g12
g109
g69
g26
tp2251
tp2252
a((g2
g4
g6
g8
g10
g12
g16
g75
g109
g20
g22
g67
g28
tp2253
(g618
g77
tp2254
(g2
g4
g10
g14
g16
g20
g69
g28
tp2255
tp2256
a((g2
g8
g14
g18
g109
g20
g67
g24
g69
g26
g28
tp2257
(g147
tp2258
(g73
g2
g109
g20
g24
g69
tp2259
tp2260
a((g2
g8
g10
g12
g14
g75
g20
g22
g69
tp2261
(g913
(istructures.domain
Action
p2262
(dp2263
g32
(lp2264
(S'at_x0'
p2265
tp2266
a(S'at_y2'
p2267
tp2268
asg38
(lp2269
(S'at_y1'
p2270
tp2271
asg42
(tsg43
(lp2272
(S'at_y2'
p2273
tp2274
asg47
I0
sg48
(lp2275
sg50
S'move_0_2_0_1'
p2276
sbtp2277
(g113
g10
g14
g75
g109
g20
tp2278
tp2279
a((g73
g6
g113
g10
g12
g14
g16
g18
g109
g20
g22
g24
g69
g26
tp2280
(g487
g502
tp2281
(g6
g113
g10
g14
g18
g75
g20
g22
g24
g26
g28
tp2282
tp2283
a((g73
g4
g113
g10
g12
g16
g18
g75
g109
g69
g26
g28
tp2284
(g860
g1048
tp2285
(g73
g6
g12
g16
g18
g26
tp2286
tp2287
a((g73
g2
g10
g16
g18
g75
g20
g69
g26
tp2288
(g1048
tp2289
(g6
g10
g16
g18
g75
g69
g26
tp2290
tp2291
a((g2
g8
g12
g16
g75
g20
g22
g67
g24
g69
g26
g28
tp2292
(g1400
g211
tp2293
(g73
g4
g16
g20
g22
g67
g69
g26
tp2294
tp2295
a((g2
g4
g113
g12
g14
g16
g18
g75
g109
g20
g69
g26
tp2296
(g134
g164
tp2297
(g2
g8
g18
g109
g26
g28
tp2298
tp2299
a((g2
g6
g8
g113
g10
g12
g14
g18
g75
g20
g22
g24
tp2300
(g211
tp2301
(g73
g6
g10
g18
g75
g20
tp2302
tp2303
a((g73
g4
g6
g8
g10
g109
g24
g69
g26
g28
tp2304
(g345
g1310
tp2305
(g4
g8
g14
g16
g109
g24
tp2306
tp2307
a((g73
g4
g6
g10
g18
g75
g67
g24
g69
tp2308
(g791
(istructures.domain
Action
p2309
(dp2310
g32
(lp2311
(S'at_x3'
p2312
tp2313
a(S'at_y3'
p2314
tp2315
asg38
(lp2316
(S'at_y2'
p2317
tp2318
asg42
(tsg43
(lp2319
(S'at_y3'
p2320
tp2321
asg47
I0
sg48
(lp2322
sg50
S'move_3_3_3_2'
p2323
sbg256
tp2324
(g10
g18
g75
g109
g24
g28
tp2325
tp2326
a((g73
g2
g6
g10
g12
g16
g18
g75
g109
g20
g67
g28
tp2327
(g698
g1419
g618
tp2328
(g73
g8
g10
g14
g18
g22
g67
g28
tp2329
tp2330
a((g73
g2
g4
g8
g113
g10
g14
g18
g22
g67
g24
g69
tp2331
(g198
tp2332
(g73
g2
g4
g8
g113
g109
g67
g24
g69
tp2333
tp2334
a((g73
g2
g4
g6
g113
g10
g14
g18
g75
g109
g20
g22
g67
g24
g26
tp2335
(g134
g77
tp2336
(g6
g8
g14
g18
g75
g109
g20
g67
g69
g26
tp2337
tp2338
a((g73
g4
g6
g8
g113
g10
g12
g14
g16
g75
g20
g67
g24
g69
g26
g28
tp2339
(g1276
g1648
tp2340
(g73
g4
g12
g14
g18
g75
g22
g24
tp2341
tp2342
a((g4
g8
g113
g10
g12
g14
g16
g18
g75
g109
g20
g24
g69
g26
tp2343
(g837
tp2344
(g6
g8
g113
g12
g16
g18
g75
g20
g69
g26
tp2345
tp2346
a((g73
g2
g4
g6
g113
g12
g14
g16
g18
g22
g24
g69
g26
tp2347
(g198
g438
g778
tp2348
(g4
g10
g12
g16
g109
g67
tp2349
tp2350
a((g73
g6
g8
g113
g12
g18
g75
g109
g20
g22
g67
g24
g26
g28
tp2351
(g438
g360
tp2352
(g2
g8
g113
g10
g75
g109
g22
g26
tp2353
tp2354
a((g2
g6
g113
g12
g14
g75
g109
g20
g22
g67
g24
g69
g26
g28
tp2355
(g438
g134
tp2356
(g2
g8
g10
g12
g14
g75
g109
g67
g24
g69
g26
g28
tp2357
tp2358
a((g4
g6
g8
g10
g18
g75
g22
g24
g69
g26
g28
tp2359
(g468
g379
tp2360
(g6
g8
g16
g75
g20
g22
g26
tp2361
tp2362
a((g113
g12
g109
g22
g24
g28
tp2363
(g438
(istructures.domain
Action
p2364
(dp2365
g32
(lp2366
(S'at_x3'
p2367
tp2368
a(S'at_y4'
p2369
tp2370
asg38
(lp2371
(S'at_y3'
p2372
tp2373
asg42
(tsg43
(lp2374
(S'at_y4'
p2375
tp2376
asg47
I0
sg48
(lp2377
sg50
S'move_3_4_3_3'
p2378
sbtp2379
(g113
g10
g109
g22
g69
g28
tp2380
tp2381
a((g73
g4
g6
g8
g10
g12
g14
g16
g18
g109
g22
g24
g28
tp2382
(g77
g778
tp2383
(g4
g6
g8
g18
g109
g67
g24
g69
g28
tp2384
tp2385
a((g2
g6
g10
g14
g16
g18
g109
g20
g24
g69
g26
g28
tp2386
(g290
tp2387
(g12
g14
g18
g109
g69
g26
tp2388
tp2389
a((g73
g6
g8
g113
g12
g14
g16
g75
g109
g22
g24
g69
g28
tp2390
(g438
tp2391
(g6
g8
g113
g10
g12
g14
g75
g109
g22
g24
g69
g28
tp2392
tp2393
a((g4
g6
g8
g113
g10
g12
g18
g75
g109
g67
g69
tp2394
(g326
g360
tp2395
(g2
g4
g8
g10
g12
g109
g67
tp2396
tp2397
a((g73
g2
g4
g6
g8
g113
g10
g12
g14
g18
g75
g20
g22
g67
g24
g69
tp2398
(g791
g591
tp2399
(g2
g4
g8
g10
g12
g67
g69
g28
tp2400
tp2401
a((g73
g2
g4
g6
g10
g109
g22
g67
g24
g69
g26
g28
tp2402
(g290
g1310
tp2403
(g2
g4
g12
g16
g109
g24
g69
g26
tp2404
tp2405
a((g2
g4
g8
g113
g14
g16
g18
g75
g20
g22
g67
g69
g26
g28
tp2406
(g226
g1544
tp2407
(g113
g10
g14
g109
g22
g67
g69
g26
g28
tp2408
tp2409
a((g73
g6
g8
g113
g16
g18
g20
g22
g67
g24
g69
g26
g28
tp2410
(g290
g1724
tp2411
(g73
g113
g12
g14
g26
tp2412
tp2413
a((g2
g4
g113
g12
g14
g16
g18
g75
g20
g22
g24
g69
g26
g28
tp2414
(g226
tp2415
(g4
g113
g10
g14
g22
g24
g28
tp2416
tp2417
a((g4
g6
g8
g113
g10
g75
g109
g22
g67
g24
g69
g28
tp2418
(g345
g379
tp2419
(g4
g6
g113
g14
g16
g109
g22
g67
g24
g28
tp2420
tp2421
a((g73
g6
g8
g113
g10
g12
g109
g20
g22
g67
g69
tp2422
(g303
(istructures.domain
Action
p2423
(dp2424
g32
(lp2425
(S'at_x2'
p2426
tp2427
a(S'at_y1'
p2428
tp2429
asg38
(lp2430
(S'at_x3'
p2431
tp2432
asg42
(tsg43
(lp2433
(S'at_x2'
p2434
tp2435
asg47
I0
sg48
(lp2436
sg50
S'move_2_1_3_1'
p2437
sbtp2438
(g73
g6
g113
g10
g109
g20
g67
g69
g26
g28
tp2439
tp2440
a((g4
g8
g113
g12
g14
g18
g75
g109
g22
g67
g28
tp2441
(g77
g451
tp2442
(g73
g8
g113
g12
g14
g18
g75
g109
tp2443
tp2444
a((g8
g113
g12
g16
g75
g109
g20
g67
g24
g69
g26
tp2445
(g360
g947
tp2446
(g2
g8
g16
g75
g28
tp2447
tp2448
a((g4
g6
g12
g20
g22
g24
g26
g28
tp2449
(g198
g778
tp2450
(g12
g67
g24
tp2451
tp2452
a((g6
g8
g113
g10
g12
g14
g16
g22
g67
g24
g69
g26
tp2453
(g211
tp2454
(g73
g6
g8
g113
g10
g14
g22
g24
g26
tp2455
tp2456
a((g73
g4
g6
g8
g113
g14
g16
g18
g75
g109
g20
g22
g67
g26
g28
tp2457
(g438
tp2458
(g4
g6
g10
g14
g75
g109
g20
g67
g26
g28
tp2459
tp2460
a((g73
g6
g8
g10
g12
g14
g16
g75
g109
g67
g24
g26
g28
tp2461
(g679
g1323
g1544
tp2462
(g113
g12
g16
g109
g22
g24
tp2463
tp2464
a((g73
g6
g8
g10
g12
g14
g18
g109
g20
g67
g24
g69
g28
tp2465
((istructures.domain
Action
p2466
(dp2467
g32
(lp2468
(S'at_x5'
p2469
tp2470
a(S'at_y1'
p2471
tp2472
asg38
(lp2473
(S'have_item1'
p2474
tp2475
asg42
(tsg43
(lp2476
sg47
I0
sg48
(lp2477
sg50
S'easymark_item1_5_1'
p2478
sbtp2479
(g73
g12
g20
g24
g26
tp2480
tp2481
a((g4
g8
g113
g10
g12
g14
g18
g109
g20
g24
g69
g26
tp2482
(g791
g487
tp2483
(g8
g113
g12
g75
g26
g28
tp2484
tp2485
a((g2
g6
g8
g12
g14
g75
g109
g22
g69
tp2486
(g913
g1627
tp2487
(g2
g113
g12
g14
g18
g22
tp2488
tp2489
a((g73
g4
g8
g113
g10
g12
g14
g18
g75
g20
g22
g24
g69
g28
tp2490
(g198
tp2491
(g113
g10
g12
g14
g18
g75
g109
g20
g69
tp2492
tp2493
a((g2
g8
g113
g10
g12
g14
g16
g75
g20
g22
g24
g69
g28
tp2494
(g993
tp2495
(g2
g75
g24
g69
g26
tp2496
tp2497
a((g2
g6
g8
g10
g18
g20
g22
g24
g69
g28
tp2498
(g974
g635
tp2499
(g73
g4
g6
g22
tp2500
tp2501
a((g2
g6
g113
g10
g18
g109
g67
g24
g28
tp2502
(g635
tp2503
(g73
g6
g113
g10
g18
tp2504
tp2505
a((g73
g2
g4
g6
g8
g113
g14
g16
g75
g109
g20
g22
g67
g24
g26
g28
tp2506
(g438
g239
tp2507
(g73
g2
g4
g10
g16
g18
g109
g67
tp2508
tp2509
a((g73
g6
g8
g113
g12
g14
g16
g109
g22
g67
g24
g26
tp2510
((istructures.domain
Action
p2511
(dp2512
g32
(lp2513
(S'at_x2'
p2514
tp2515
a(S'at_y4'
p2516
tp2517
asg38
(lp2518
(S'at_x3'
p2519
tp2520
asg42
(tsg43
(lp2521
(S'at_x2'
p2522
tp2523
asg47
I0
sg48
(lp2524
sg50
S'move_2_4_3_4'
p2525
sb(istructures.domain
Action
p2526
(dp2527
g32
(lp2528
(S'at_x3'
p2529
tp2530
a(S'at_y4'
p2531
tp2532
asg38
(lp2533
(S'at_x4'
p2534
tp2535
asg42
(tsg43
(lp2536
(S'at_x3'
p2537
tp2538
asg47
I0
sg48
(lp2539
sg50
S'move_3_4_4_4'
p2540
sbtp2541
(g4
g8
g14
g109
g22
g26
tp2542
tp2543
a((g73
g2
g4
g6
g8
g113
g10
g12
g16
g75
g20
g22
g67
g24
g26
tp2544
(g791
g1544
tp2545
(g73
g2
g6
g12
g109
g22
g67
g28
tp2546
tp2547
a((g73
g2
g4
g10
g12
g75
g109
g67
g24
g26
tp2548
(g791
g698
g736
tp2549
(g73
g2
g8
g10
g16
g75
g24
g28
tp2550
tp2551
a((g2
g6
g113
g10
g14
g18
g22
g24
g69
g28
tp2552
(g553
g736
tp2553
(g2
g6
g8
g10
g16
tp2554
tp2555
a((g73
g2
g6
g8
g113
g10
g14
g16
g18
g75
g109
g20
g22
g67
g26
g28
tp2556
(g1025
g134
tp2557
(g2
g8
g12
g14
g16
g75
g109
g28
tp2558
tp2559
a((g73
g4
g6
g10
g16
g75
g109
g20
g22
g67
g24
tp2560
(g77
g717
tp2561
(g73
g18
g75
g109
g20
g69
tp2562
tp2563
a((g73
g2
g4
g6
g8
g113
g14
g75
g20
g22
g67
g69
g26
g28
tp2564
(g198
g290
tp2565
(g73
g6
g113
g12
g109
g20
g67
tp2566
tp2567
a((g4
g6
g113
g12
g14
g16
g109
g20
g67
g24
g69
g28
tp2568
(g1276
g1962
tp2569
(g6
g8
g113
g14
g20
g22
g67
g28
tp2570
tp2571
a((g4
g6
g10
g12
g14
g18
g109
g22
g67
g24
g26
tp2572
(g211
tp2573
(g73
g4
g6
g10
g18
g109
g24
g26
tp2574
tp2575
a((g2
g4
g6
g8
g10
g12
g16
g18
g75
g109
g67
g24
g26
tp2576
(g791
g211
tp2577
(g73
g6
g10
g12
g16
g28
tp2578
tp2579
a((g4
g6
g8
g113
g10
g12
g14
g16
g18
g75
g22
g24
g69
g28
tp2580
(g1544
g778
tp2581
(g14
g18
g109
g22
g67
g69
g28
tp2582
tp2583
a((g73
g2
g6
g113
g16
g75
g109
g20
g22
g67
g26
tp2584
(g438
g591
g1073
tp2585
(g73
g2
g4
g6
g10
g14
g16
g22
g26
tp2586
tp2587
a((g73
g4
g6
g8
g113
g12
g14
g75
g109
g20
g22
g67
g24
tp2588
(g77
g717
tp2589
(g73
g4
g8
g14
g18
g75
g20
g67
g69
tp2590
tp2591
a((g2
g4
g6
g10
g12
g16
g75
g109
g20
g67
g24
g26
g28
tp2592
(g698
g30
tp2593
(g2
g4
g8
g10
g75
g20
g69
g28
tp2594
tp2595
a((g2
g4
g6
g10
g12
g16
g75
g109
g20
g22
g67
g24
g69
g28
tp2596
(g717
tp2597
(g12
g16
g18
g109
g22
g28
tp2598
tp2599
a((g73
g2
g8
g12
g18
g75
g69
g26
g28
tp2600
(g521
g837
tp2601
(g6
g12
g75
g69
g26
g28
tp2602
tp2603
a((g73
g2
g4
g6
g8
g113
g14
g18
g22
g67
g69
g26
g28
tp2604
(g198
g290
tp2605
(g2
g8
g113
g12
g14
g109
g26
tp2606
tp2607
a((g2
g4
g8
g12
g14
g16
g18
g75
g109
g22
g26
g28
tp2608
(g1346
tp2609
(g2
g4
g8
g10
g12
g14
g28
tp2610
tp2611
a((g6
g113
g10
g12
g18
g109
g22
g67
g24
g69
g28
tp2612
(g1400
tp2613
(g4
g6
g113
g10
g12
g18
g67
g69
tp2614
tp2615
a((g73
g2
g4
g8
g12
g18
g109
g22
g24
g69
g26
g28
tp2616
(g1346
tp2617
(g4
g8
g10
g12
g18
g24
g28
tp2618
tp2619
a((g73
g2
g6
g113
g10
g12
g18
g75
g20
g67
g24
g69
g28
tp2620
(g698
g736
tp2621
(g73
g2
g6
g8
g113
g16
g75
g67
tp2622
tp2623
a((g6
g10
g12
g14
g16
g18
g109
g24
g26
g28
tp2624
(g2364
g1276
tp2625
(g6
g12
g14
g16
g109
g22
g28
tp2626
tp2627
a((g73
g2
g4
g6
g8
g10
g12
g14
g18
g75
g20
g22
g67
g24
g69
g26
tp2628
(g913
g1359
tp2629
(g2
g113
g10
g16
g18
g20
g22
g24
g69
g26
tp2630
tp2631
a((g2
g6
g8
g10
g12
g18
g75
g109
g67
g24
g26
g28
tp2632
(g679
tp2633
(g6
g113
g12
g109
g67
g24
g28
tp2634
tp2635
a((g73
g6
g8
g113
g14
g18
g75
g109
g20
g22
g67
g24
g69
g28
tp2636
(g591
g379
tp2637
(g73
g4
g8
g14
g16
g109
g24
tp2638
tp2639
a((g4
g6
g113
g12
g14
g16
g18
g75
g20
g67
g69
g26
g28
tp2640
(g1276
g664
tp2641
(g4
g8
g113
g14
g18
g20
g22
g67
g28
tp2642
tp2643
a((g73
g2
g4
g6
g8
g113
g10
g12
g16
g20
g22
g69
g26
tp2644
(g52
tp2645
(g73
g2
g4
g6
g8
g12
g16
g67
g69
g26
tp2646
tp2647
a((g73
g2
g4
g6
g10
g12
g16
g18
g75
g109
g20
g67
g26
tp2648
(g521
g30
tp2649
(g73
g6
g10
g109
g20
g69
tp2650
tp2651
a((g2
g4
g6
g8
g10
g12
g14
g16
g18
g75
g20
g24
g69
g28
tp2652
(g913
tp2653
(g2
g4
g6
g113
g12
g69
tp2654
tp2655
a((g73
g2
g4
g8
g18
g75
g109
g20
g22
g24
g69
g28
tp2656
(g345
g837
tp2657
(g6
g8
g14
g24
g28
tp2658
tp2659
a((g73
g2
g6
g8
g10
g12
g18
g75
g109
g20
g22
g67
g69
g26
tp2660
(g913
g326
tp2661
(g113
g12
g75
g109
g20
g22
g24
tp2662
tp2663
a((g73
g2
g4
g8
g10
g16
g18
g75
g20
g22
g67
g28
tp2664
(g618
tp2665
(g73
g4
g8
g14
g16
g75
g67
tp2666
tp2667
a((g73
g2
g4
g6
g113
g16
g75
g109
g20
g67
g69
tp2668
(g438
tp2669
(g2
g4
g6
g113
g10
g16
g75
g69
tp2670
tp2671
a((g73
g2
g4
g6
g8
g10
g12
g109
g20
g67
g24
g69
g28
tp2672
(g913
g345
tp2673
(g73
g2
g4
g113
g12
g14
g20
g28
tp2674
tp2675
a((g73
g2
g6
g18
g109
g22
g26
g28
tp2676
(g618
(istructures.domain
Action
p2677
(dp2678
g32
(lp2679
(S'at_x3'
p2680
tp2681
a(S'at_y2'
p2682
tp2683
asg38
(lp2684
(S'at_x2'
p2685
tp2686
asg42
(tsg43
(lp2687
(S'at_x3'
p2688
tp2689
asg47
I0
sg48
(lp2690
sg50
S'move_3_2_2_2'
p2691
sb(istructures.domain
Action
p2692
(dp2693
g32
(lp2694
(S'at_x2'
p2695
tp2696
a(S'at_y1'
p2697
tp2698
asg38
(lp2699
(S'have_item6'
p2700
tp2701
asg42
(tsg43
(lp2702
sg47
I0
sg48
(lp2703
sg50
S'easymark_item6_2_1'
p2704
sbtp2705
(g73
g12
g14
g16
g109
g22
tp2706
tp2707
a((g73
g2
g6
g8
g113
g10
g12
g14
g18
g75
g67
g69
g28
tp2708
(g326
g1544
tp2709
(g73
g10
g12
g109
g24
g28
tp2710
tp2711
a((g2
g4
g8
g113
g16
g18
g75
g67
g69
g26
tp2712
(g1724
g451
tp2713
(g73
g2
g4
g113
g14
g18
g69
tp2714
tp2715
a((g73
g2
g6
g113
g12
g14
g16
g18
g75
g109
g20
g22
g67
g24
g26
g28
tp2716
(g591
tp2717
(g2
g4
g12
g14
g16
g18
g67
g24
g26
tp2718
tp2719
a((g73
g2
g4
g113
g10
g16
g75
g109
g20
g22
g67
g24
g69
tp2720
(g717
tp2721
(g73
g18
g22
g67
g24
tp2722
tp2723
a((g2
g4
g6
g113
g10
g12
g14
g16
g75
g20
g22
g67
g69
g26
tp2724
(g698
g717
tp2725
(g2
g4
g8
g113
g10
g16
g18
g22
g67
tp2726
tp2727
a((g73
g4
g6
g8
g113
g12
g18
g75
g109
g20
g22
g24
g69
tp2728
(g360
g947
tp2729
(g2
g4
g6
g113
g75
g109
g22
g28
tp2730
tp2731
a((g73
g2
g4
g6
g12
g14
g16
g18
g75
g109
g20
g22
g67
g24
g69
g26
tp2732
(g698
g913
tp2733
(g73
g2
g4
g113
g14
g16
g18
g75
g109
g67
g24
g69
g26
tp2734
tp2735
a((g2
g8
g10
g12
g18
g109
g67
g26
tp2736
(g1157
g1323
tp2737
(g113
g10
g12
g18
g22
g26
tp2738
tp2739
a((g73
g2
g6
g8
g113
g14
g16
g75
g109
g67
g24
g69
g26
g28
tp2740
(g1400
g468
tp2741
(g73
g8
g113
g109
g20
g67
g69
tp2742
tp2743
a((g2
g4
g6
g8
g14
g16
g18
g75
g22
g67
g26
tp2744
(g679
g419
tp2745
(g2
g6
g113
g16
g18
g75
g20
g26
tp2746
tp2747
a((g73
g4
g6
g12
g14
g16
g75
g109
g20
g22
g67
g24
g69
g26
g28
tp2748
(g360
g717
tp2749
(g2
g6
g14
g16
g18
g75
g69
g28
tp2750
tp2751
a((g2
g4
g8
g10
g12
g14
g75
g109
g20
g22
g67
g69
g28
tp2752
(g717
tp2753
(g2
g8
g12
g18
g75
g109
g20
g69
g28
tp2754
tp2755
a((g2
g6
g8
g10
g12
g14
g18
g20
g22
g67
g24
g28
tp2756
(g974
g211
tp2757
(g73
g4
g6
g10
g12
g14
g18
g24
g28
tp2758
tp2759
a((g4
g6
g12
g18
g75
g109
g20
g22
g67
g24
g26
g28
tp2760
(g379
tp2761
(g12
g16
g109
g20
g26
tp2762
tp2763
a((g73
g2
g12
g14
g16
g18
g75
g109
g20
g67
g69
g26
tp2764
(g326
(istructures.domain
Action
p2765
(dp2766
g32
(lp2767
(S'at_x5'
p2768
tp2769
a(S'at_y4'
p2770
tp2771
asg38
(lp2772
(S'have_item5'
p2773
tp2774
asg42
(tsg43
(lp2775
sg47
I0
sg48
(lp2776
sg50
S'easymark_item5_5_4'
p2777
sbtp2778
(g2
g10
g12
g75
tp2779
tp2780
a((g2
g6
g10
g12
g14
g22
g67
g24
g69
g26
g28
tp2781
(g256
(istructures.domain
Action
p2782
(dp2783
g32
(lp2784
(S'at_x3'
p2785
tp2786
a(S'at_y1'
p2787
tp2788
asg38
(lp2789
(S'at_y0'
p2790
tp2791
asg42
(tsg43
(lp2792
(S'at_y1'
p2793
tp2794
asg47
I0
sg48
(lp2795
sg50
S'move_3_1_3_0'
p2796
sbtp2797
(g2
g6
g12
g14
g75
g67
g24
g69
g28
tp2798
tp2799
a((g73
g2
g4
g6
g8
g10
g12
g109
g20
g22
g69
g26
tp2800
(g1138
g1724
tp2801
(g73
g4
g6
g8
g10
g12
g14
g75
g69
tp2802
tp2803
a((g73
g4
g8
g10
g12
g16
g18
g75
g109
g24
g26
g28
tp2804
(g778
g1073
tp2805
(g73
g4
g12
g14
g75
g109
g67
g24
tp2806
tp2807
a((g73
g6
g113
g10
g18
g75
g22
g24
g28
tp2808
(g134
g52
tp2809
(g73
g8
g10
g75
g67
g24
g28
tp2810
tp2811
a((g4
g113
g10
g12
g14
g18
g75
g109
g22
g24
g28
tp2812
(g134
g837
tp2813
(g4
g6
g8
g10
g12
g75
g22
g24
g28
tp2814
tp2815
a((g4
g6
g113
g10
g12
g14
g18
g109
g20
g67
g24
g69
tp2816
(g572
tp2817
(g6
g8
g12
g18
g109
g67
g24
tp2818
tp2819
a((g73
g4
g6
g8
g113
g12
g14
g16
g18
g75
g109
g20
g22
g67
g24
tp2820
(g438
tp2821
(g8
g113
g10
g16
g24
tp2822
tp2823
a((g2
g4
g6
g8
g113
g12
g14
g75
g22
g67
g24
g28
tp2824
(g468
g239
tp2825
(g113
g12
g14
g18
g75
g20
g22
tp2826
tp2827
a((g73
g2
g4
g6
g8
g10
g14
g18
g75
g20
g22
g24
g69
g26
tp2828
(g198
g271
tp2829
(g73
g2
g6
g8
g10
g18
g75
g109
g20
g67
g69
tp2830
tp2831
a((g73
g2
g4
g8
g12
g14
g16
g18
g67
g24
g69
g28
tp2832
(g1276
g837
tp2833
(g73
g4
g6
g8
g12
g16
g22
tp2834
tp2835
a((g73
g4
g6
g8
g10
g12
g16
g75
g22
g67
g26
tp2836
(g198
g679
g1073
tp2837
(g113
g10
g14
g75
g109
tp2838
tp2839
a((g2
g4
g6
g113
g10
g14
g16
g75
g109
g20
g22
g67
g24
g26
g28
tp2840
(g77
tp2841
(g2
g113
g16
g75
g109
g20
g24
g69
g28
tp2842
tp2843
a((g2
g4
g8
g10
g16
g18
g109
g20
tp2844
(g1157
g400
tp2845
(g4
g113
g16
g18
g20
g24
tp2846
tp2847
a((g4
g6
g12
g14
g109
g20
g22
g24
g26
g28
tp2848
(g77
g2765
tp2849
(g10
g14
g20
g69
g26
g28
tp2850
tp2851
a((g73
g4
g6
g8
g12
g18
g75
g22
g24
g26
g28
tp2852
(g468
g679
tp2853
(g6
g113
g18
g75
g20
g22
g28
tp2854
tp2855
a((g73
g2
g4
g6
g113
g10
g12
g16
g18
g75
g20
g22
g67
g69
g28
tp2856
(g993
tp2857
(g4
g6
g10
g16
g18
g67
g69
g26
tp2858
tp2859
a((g2
g4
g8
g113
g10
g12
g14
g16
g75
g109
g67
g69
g28
tp2860
(g303
tp2861
(g8
g75
g109
g67
g69
g26
tp2862
tp2863
a((g73
g4
g8
g113
g10
g12
g16
g18
g75
g109
g22
g67
g24
g28
tp2864
(g303
tp2865
(g73
g113
g10
g12
g16
g18
g109
g24
g26
g28
tp2866
tp2867
a((g2
g8
g113
g12
g14
g16
g18
g22
g67
g24
g69
g26
g28
tp2868
(g211
g837
tp2869
(g73
g6
g113
g12
g18
g69
g26
g28
tp2870
tp2871
a((g73
g4
g6
g8
g113
g10
g14
g18
g22
g24
g26
tp2872
(g198
g1310
g778
tp2873
(g73
g4
g6
g8
g113
g16
g67
g26
tp2874
tp2875
a((g73
g2
g4
g6
g113
g12
g18
g75
g109
g67
g24
g69
g26
tp2876
(g1276
tp2877
(g2
g12
g22
g67
g26
tp2878
tp2879
a((g4
g6
g8
g113
g10
g12
g14
g18
g109
g22
g67
g24
g69
g26
tp2880
(g1138
tp2881
(g8
g14
g18
g75
g22
g67
g24
tp2882
tp2883
a((g2
g6
g113
g14
g16
g75
g109
g20
g67
g24
tp2884
(g1627
g147
tp2885
(g73
g113
g14
g16
g18
g20
g67
tp2886
tp2887
a((g73
g2
g6
g113
g12
g14
g18
g22
g28
tp2888
(g226
g256
g303
tp2889
(g113
g10
g18
g26
g28
tp2890
tp2891
a((g73
g4
g6
g113
g10
g12
g14
g18
g109
g22
g26
g28
tp2892
(g1138
g379
tp2893
(g4
g14
g16
g75
g22
g26
g28
tp2894
tp2895
a((g2
g4
g6
g8
g113
g12
g16
g18
g75
g22
g67
g24
g69
g26
g28
tp2896
(g226
g345
tp2897
(g6
g8
g10
g12
g14
g16
g22
g67
g24
g26
tp2898
tp2899
a((g2
g4
g8
g18
g75
g22
g24
g69
tp2900
(g791
g837
tp2901
(g2
g6
g8
g75
g22
g24
g69
g28
tp2902
tp2903
a((g73
g4
g8
g113
g75
g109
g20
g67
g69
g26
g28
tp2904
(g438
(istructures.domain
Action
p2905
(dp2906
g32
(lp2907
(S'at_x0'
p2908
tp2909
a(S'at_y3'
p2910
tp2911
asg38
(lp2912
(S'at_y2'
p2913
tp2914
asg42
(tsg43
(lp2915
(S'at_y3'
p2916
tp2917
asg47
I0
sg48
(lp2918
sg50
S'move_0_3_0_2'
p2919
sbtp2920
(g73
g8
g113
g10
g75
g22
g28
tp2921
tp2922
a((g73
g2
g4
g6
g8
g113
g12
g16
g18
g20
g22
g24
g26
g28
tp2923
(g618
g52
tp2924
(g73
g4
g8
g12
g14
g16
g22
g67
g24
g26
g28
tp2925
tp2926
a((g73
g2
g6
g113
g12
g14
g16
g18
g75
g109
g22
g67
g24
g69
g28
tp2927
(g438
g134
tp2928
(g2
g8
g10
g14
g75
g109
g22
g69
tp2929
tp2930
a((g73
g2
g4
g6
g10
g12
g18
g109
g20
g22
g24
g69
g26
g28
tp2931
(g345
g778
tp2932
(g14
g18
g20
g22
g67
g24
tp2933
tp2934
a((g73
g4
g6
g8
g113
g10
g12
g14
g18
g75
g109
g22
g67
g69
tp2935
(g860
tp2936
(g113
g12
g18
g75
g20
g22
tp2937
tp2938
a((g2
g4
g6
g10
g14
g16
g18
g109
g67
g24
g69
g26
tp2939
(g791
g2309
tp2940
(g10
g16
g18
g109
g22
g67
g26
g28
tp2941
tp2942
a((g2
g4
g6
g8
g113
g10
g14
g16
g18
g75
g22
g67
g69
g26
g28
tp2943
(g290
g326
tp2944
(g4
g6
g8
g12
g14
g16
g75
g22
g24
g26
tp2945
tp2946
a((g73
g2
g4
g6
g10
g16
g18
g20
g22
g67
g24
g26
tp2947
(g198
g791
tp2948
(g73
g2
g10
g18
g109
g20
g67
g26
g28
tp2949
tp2950
a((g4
g8
g14
g16
g18
g109
g22
g24
g69
g26
tp2951
(g759
g778
tp2952
(g2
g18
g22
g67
g69
tp2953
tp2954
a((g73
g2
g4
g6
g8
g113
g10
g14
g109
g67
g24
g69
g26
g28
tp2955
(g290
g1276
tp2956
(g73
g2
g4
g6
g8
g12
g14
g22
g67
g24
g26
tp2957
tp2958
a((g2
g6
g8
g113
g12
g14
g18
g109
g20
g67
g24
g69
g26
tp2959
(g947
g1400
tp2960
(g2
g4
g8
g113
g20
g67
g26
tp2961
tp2962
a((g73
g2
g113
g10
g12
g14
g16
g75
g109
g20
g22
g67
g26
tp2963
(g134
tp2964
(g73
g2
g8
g10
g75
g109
g20
g22
tp2965
tp2966
a((g2
g4
g8
g14
g16
g75
g109
g20
g22
g67
g69
g26
g28
tp2967
(g1025
g2059
tp2968
(g4
g10
g12
g14
g20
g26
g28
tp2969
tp2970
a((g2
g8
g113
g10
g14
g16
g18
g75
g109
g69
g26
g28
tp2971
(g1400
tp2972
(g2
g4
g10
g16
g18
g75
g69
g26
tp2973
tp2974
a((g2
g4
g6
g8
g113
g10
g12
g18
g109
g22
g67
g69
g28
tp2975
(g345
g736
tp2976
(g4
g6
g8
g113
g14
g16
g109
g22
g67
g69
g28
tp2977
tp2978
a((g73
g2
g4
g8
g113
g10
g14
g16
g75
g109
g20
g22
g69
g26
tp2979
(g1025
tp2980
(g2
g4
g113
g10
g12
g14
g16
tp2981
tp2982
a((g73
g2
g10
g12
g16
g18
g109
g20
g67
g24
g69
tp2983
(g698
g2466
tp2984
(g73
g2
g8
g18
g109
g67
g24
g26
tp2985
tp2986
a((g4
g6
g113
g12
g67
g24
g28
tp2987
(g30
g345
tp2988
(g14
g67
tp2989
tp2990
a((g73
g4
g6
g8
g113
g10
g12
g75
g20
g22
g67
g69
g26
g28
tp2991
(g326
tp2992
(g4
g113
g10
g75
g22
g24
g26
tp2993
tp2994
a((g73
g2
g8
g113
g12
g16
g20
g24
g69
g28
tp2995
(g345
g837
tp2996
(g73
g6
g12
g14
g20
g24
g69
g28
tp2997
tp2998
a((g73
g2
g4
g10
g75
g20
g69
g28
tp2999
(g290
g698
g736
tp3000
(g4
g8
g16
tp3001
tp3002
a((g2
g8
g113
g10
g14
g16
g18
g75
g109
g22
g67
g24
g69
g28
tp3003
(g303
tp3004
(g113
g16
g75
g24
g69
g26
tp3005
tp3006
a((g73
g2
g8
g113
g14
g16
g18
g75
g22
g67
g69
g26
g28
tp3007
(g400
tp3008
(g8
g113
g14
g75
g22
g24
g26
g28
tp3009
tp3010
a((g73
g8
g113
g10
g12
g14
g16
g18
g75
g20
g26
tp3011
(g271
g1544
tp3012
(g73
g8
g113
g10
g16
g109
g67
g26
tp3013
tp3014
a((g2
g4
g6
g10
g12
g16
g109
g20
g22
g24
g69
tp3015
(g791
g1648
tp3016
(g10
g12
g18
g24
g69
g28
tp3017
tp3018
a((g73
g2
g4
g8
g14
g16
g18
g75
g20
g22
g67
g24
g69
g26
g28
tp3019
(g198
g1098
tp3020
(g2
g10
g14
g18
g109
g67
tp3021
tp3022
a((g73
g2
g4
g6
g8
g113
g10
g14
g16
g18
g75
g109
g20
g22
g67
g24
g69
g26
tp3023
(g1025
tp3024
(g73
g2
g6
g10
g12
g18
g75
g109
g20
g22
g67
g24
g26
tp3025
tp3026
a((g73
g113
g10
g14
g75
g67
g24
g26
g28
tp3027
((istructures.domain
Action
p3028
(dp3029
g32
(lp3030
(S'at_x3'
p3031
tp3032
a(S'at_y4'
p3033
tp3034
asg38
(lp3035
(S'at_y5'
p3036
tp3037
asg42
(tsg43
(lp3038
(S'at_y4'
p3039
tp3040
asg47
I0
sg48
(lp3041
sg50
S'move_3_4_3_5'
p3042
sbg1627
tp3043
(g14
g18
g75
g67
tp3044
tp3045
a((g73
g2
g4
g8
g113
g10
g14
g75
g22
g67
g24
g69
g26
g28
tp3046
(g717
tp3047
(g73
g2
g113
g14
g18
g24
g26
tp3048
tp3049
a((g8
g113
g10
g12
g16
g18
g75
g109
g20
g22
g67
g69
tp3050
(g591
g303
tp3051
(g4
g8
g113
g18
g22
g26
tp3052
tp3053
a((g73
g2
g6
g8
g10
g12
g14
g18
g75
g22
g67
g26
g28
tp3054
(g1010
g736
tp3055
(g2
g8
g10
g14
g16
g18
g75
g109
tp3056
tp3057
a((g4
g6
g113
g14
g16
g18
g75
g109
g20
g22
g67
g69
g26
g28
tp3058
(g438
tp3059
(g4
g6
g113
g10
g18
g75
g109
g22
g69
tp3060
tp3061
a((g73
g4
g10
g14
g18
g75
g109
g24
g69
tp3062
(g1310
tp3063
(g4
g16
g18
g75
tp3064
tp3065
a((g73
g2
g4
g8
g113
g10
g12
g16
g18
g75
g20
g67
g24
g69
g26
g28
tp3066
(g345
tp3067
(g73
g2
g4
g113
g12
g14
g18
g75
g67
g69
tp3068
tp3069
a((g73
g2
g4
g6
g8
g113
g10
g14
g109
g20
g22
g67
g26
tp3070
(g1138
g239
tp3071
(g2
g4
g8
g113
g18
g75
g20
g22
g26
tp3072
tp3073
a((g2
g4
g8
g10
g12
g16
g18
g20
g22
g24
g69
g26
g28
tp3074
(g345
tp3075
(g4
g10
g12
g14
g18
g20
g22
g69
tp3076
tp3077
a((g4
g6
g8
g113
g10
g12
g16
g18
g75
g109
g20
g22
g24
g69
tp3078
(g1724
tp3079
(g4
g6
g113
g12
g14
g16
g18
g75
g109
tp3080
tp3081
a((g73
g2
g4
g8
g113
g10
g12
g16
g18
g75
g109
g20
g22
g67
g24
g69
g26
g28
tp3082
(g345
tp3083
(g73
g12
g14
g16
g75
g109
g20
g22
g67
g26
g28
tp3084
tp3085
a((g2
g4
g10
g16
g18
g109
g20
g22
g67
g24
g69
g26
g28
tp3086
(g147
g1048
tp3087
(g73
g4
g6
g10
g16
g109
g24
g69
g26
g28
tp3088
tp3089
a((g73
g2
g6
g8
g10
g75
g109
g20
g22
g67
tp3090
(g679
g591
g1073
tp3091
(g2
g4
g6
g113
g14
g75
tp3092
tp3093
a((g73
g2
g4
g6
g8
g10
g18
g75
g24
g69
g28
tp3094
(g468
g913
g379
tp3095
(g73
g113
g10
g16
g75
g20
g28
tp3096
tp3097
a((g73
g2
g4
g6
g8
g113
g10
g12
g16
g18
g75
g22
g24
g69
g28
tp3098
(g198
g778
tp3099
(g73
g2
g4
g10
g12
g75
g109
g67
g24
tp3100
tp3101
a((g2
g6
g113
g14
g18
g75
g109
g22
g67
g69
g26
g28
tp3102
(g379
tp3103
(g2
g6
g113
g16
g18
g75
g69
g26
g28
tp3104
tp3105
a((g73
g2
g4
g6
g113
g10
g12
g14
g16
g18
g75
g109
g20
g22
g67
g24
g69
tp3106
(g791
tp3107
(g73
g2
g14
g18
g75
g109
g22
g67
g24
g28
tp3108
tp3109
a((g6
g8
g113
g14
g16
g75
g109
g20
g22
g69
g26
g28
tp3110
(g928
tp3111
(g8
g113
g14
g16
g24
g26
tp3112
tp3113
a((g2
g4
g8
g10
g14
g16
g109
g67
g24
g69
g28
tp3114
(g1138
tp3115
(g4
g8
g10
g14
g16
g75
g67
g69
tp3116
tp3117
a((g73
g2
g4
g6
g8
g113
g10
g14
g16
g18
g75
g22
g67
g24
g69
g28
tp3118
(g198
g303
tp3119
(g2
g8
g14
g18
g109
g67
g69
g26
g28
tp3120
tp3121
a((g2
g8
g113
g10
g12
g14
g16
g18
g75
g109
g20
g22
g24
g26
g28
tp3122
(g1291
tp3123
(g2
g8
g16
g109
g20
g69
g26
tp3124
tp3125
a((g2
g6
g8
g113
g12
g14
g18
g75
g109
g22
g67
g28
tp3126
(g400
g211
tp3127
(g73
g6
g8
g113
g12
g18
g75
g109
g22
tp3128
tp3129
a((g2
g4
g8
g113
g10
g12
g14
g16
g18
g75
g109
g67
g69
g26
g28
tp3130
(g400
g211
tp3131
(g73
g8
g10
g75
g109
g67
g24
g69
g26
g28
tp3132
tp3133
a((g2
g6
g8
g113
g10
g12
g16
g18
g109
g20
g22
g67
g24
g69
g26
g28
tp3134
(g345
g974
tp3135
(g4
g113
g10
g12
g14
g109
g22
g24
g26
g28
tp3136
tp3137
a((g73
g2
g4
g6
g8
g10
g12
g14
g16
g75
g109
g20
g22
g24
g69
g26
tp3138
(g271
tp3139
(g4
g12
g14
g20
g22
g67
g26
tp3140
tp3141
a((g73
g2
g4
g6
g113
g12
g14
g109
g22
g24
g69
g26
g28
tp3142
(g698
g1138
tp3143
(g73
g4
g8
g113
g14
g75
g69
g26
g28
tp3144
tp3145
a((g2
g8
g10
g14
g16
g18
g20
g22
g69
g26
tp3146
((istructures.domain
Action
p3147
(dp3148
g32
(lp3149
(S'at_x1'
p3150
tp3151
a(S'at_y5'
p3152
tp3153
asg38
(lp3154
(S'at_y4'
p3155
tp3156
asg42
(tsg43
(lp3157
(S'at_y5'
p3158
tp3159
asg47
I0
sg48
(lp3160
sg50
S'move_1_5_1_4'
p3161
sbtp3162
(g8
g14
g16
g18
g20
g22
g24
g69
tp3163
tp3164
a((g2
g4
g6
g8
g10
g12
g14
g18
g75
g109
g20
g22
g24
g69
g26
tp3165
(g791
g211
tp3166
(g73
g6
g8
g10
g75
g24
g69
g26
g28
tp3167
tp3168
a((g73
g2
g4
g8
g113
g10
g12
g18
g75
g109
g24
g69
g26
tp3169
(g1323
tp3170
(g2
g12
g18
g22
g69
g26
tp3171
tp3172
a((g73
g2
g6
g8
g14
g16
g75
g109
g20
g22
g67
g24
g26
tp3173
(g679
tp3174
(g2
g6
g113
g16
g109
g67
g26
tp3175
tp3176
a((g73
g4
g8
g113
g10
g12
g16
g18
g75
g109
g22
g24
g69
g26
g28
tp3177
(g360
tp3178
(g73
g2
g8
g113
g12
g16
g109
g26
g28
tp3179
tp3180
a((g2
g4
g113
g10
g12
g16
g18
g109
g20
g22
g24
g69
g26
tp3181
(g778
tp3182
(g2
g18
g109
g20
g67
g24
g26
tp3183
tp3184
a((g73
g2
g6
g8
g113
g10
g14
g16
g22
g24
g26
g28
tp3185
((istructures.domain
Action
p3186
(dp3187
g32
(lp3188
(S'at_x3'
p3189
tp3190
a(S'at_y5'
p3191
tp3192
asg38
(lp3193
(S'at_x4'
p3194
tp3195
asg42
(tsg43
(lp3196
(S'at_x3'
p3197
tp3198
asg47
I0
sg48
(lp3199
sg50
S'move_3_5_4_5'
p3200
sbg52
tp3201
(g2
g4
g8
g14
g16
g22
g67
g26
tp3202
tp3203
a((g73
g4
g6
g8
g113
g10
g12
g16
g75
g109
g67
g24
g69
g26
g28
tp3204
(g468
tp3205
(g73
g8
g10
g16
g20
g67
g24
g69
g28
tp3206
tp3207
a((g73
g2
g4
g8
g10
g12
g18
g20
g22
g26
g28
tp3208
(g618
g198
tp3209
(g73
g8
g10
g14
g18
g109
g26
g28
tp3210
tp3211
a((g73
g12
g14
g75
g109
g20
g24
g26
tp3212
(g1359
g271
tp3213
(g16
g75
g109
g20
g67
g26
tp3214
tp3215
a((g2
g4
g6
g113
g10
g12
g18
g109
g20
g22
g67
g24
g69
g26
tp3216
(g211
tp3217
(g73
g4
g6
g113
g10
g20
g22
g24
tp3218
tp3219
a((g2
g4
g6
g113
g10
g12
g14
g16
g18
g20
g22
g24
g69
g28
tp3220
(g198
g211
tp3221
(g73
g2
g4
g113
g14
g16
g109
g20
tp3222
tp3223
a((g2
g113
g12
g14
g16
g18
g75
g109
g20
g67
g69
tp3224
(g400
g303
tp3225
(g113
g14
g75
g20
g24
g69
g26
tp3226
tp3227
a((g2
g6
g8
g113
g10
g12
g16
g109
g20
g67
g24
g69
g28
tp3228
(g974
tp3229
(g2
g4
g6
g8
g113
g10
g12
g109
g67
g24
g28
tp3230
tp3231
a((g73
g2
g4
g8
g10
g12
g18
g109
g20
g22
g67
g24
g26
g28
tp3232
(g618
g77
tp3233
(g73
g2
g8
g10
g12
g14
g18
g69
tp3234
tp3235
a((g73
g6
g113
g14
g18
g109
g24
g69
g28
tp3236
(g438
g2905
g3028
tp3237
(g73
g2
g6
g10
g22
tp3238
tp3239
a((g73
g2
g4
g8
g14
g16
g109
g20
g22
g67
g24
g28
tp3240
(g1346
g536
tp3241
(g10
g14
g16
g109
g20
g67
g26
g28
tp3242
tp3243
a((g2
g8
g12
g14
g16
g109
g20
g22
g67
g24
g69
g26
g28
tp3244
(g239
tp3245
(g2
g8
g12
g14
g16
g18
g24
g69
g26
tp3246
tp3247
a((g73
g2
g6
g8
g113
g10
g12
g14
g20
g22
g67
g24
g26
g28
tp3248
(g974
g736
tp3249
(g2
g4
g6
g8
g10
g12
g16
g22
g67
g24
tp3250
tp3251
a((g73
g4
g113
g10
g12
g14
g75
g20
g22
g24
g69
g26
tp3252
(g717
tp3253
(g73
g4
g113
g14
g18
g75
g20
g69
tp3254
tp3255
a((g2
g8
g113
g10
g12
g18
g20
g22
g24
g69
g26
tp3256
(g837
g52
tp3257
(g2
g6
g8
g113
g10
g20
g22
g67
tp3258
tp3259
a((g2
g4
g12
g14
g16
g18
g109
g20
g22
g24
g69
tp3260
(g536
g1048
tp3261
(g4
g6
g16
g18
g109
g22
g26
tp3262
tp3263
a((g4
g6
g8
g10
g14
g16
g18
g75
g109
g20
g22
g26
tp3264
(g2112
g1115
tp3265
(g6
g8
g14
g16
g20
g69
g28
tp3266
tp3267
a((g113
g10
g12
g16
g18
g20
g22
g67
g24
g69
g26
tp3268
(g211
g1048
tp3269
(g73
g6
g113
g10
g12
g16
g20
g67
g24
g69
tp3270
tp3271
a((g73
g2
g4
g6
g8
g10
g12
g16
g18
g109
g20
g22
g69
g26
g28
tp3272
(g778
tp3273
(g73
g109
g20
g22
g67
g69
tp3274
tp3275
a((g73
g4
g113
g10
g14
g16
g18
g75
g67
g24
g69
g26
tp3276
(g791
g290
tp3277
(g113
g10
g12
g16
g18
g75
g67
g24
g26
tp3278
tp3279
a((g73
g2
g4
g8
g10
g18
g75
g109
g20
g67
g24
g69
g26
tp3280
(g1025
(istructures.domain
Action
p3281
(dp3282
g32
(lp3283
(S'at_x2'
p3284
tp3285
a(S'at_y3'
p3286
tp3287
asg38
(lp3288
(S'have_item7'
p3289
tp3290
asg42
(tsg43
(lp3291
sg47
I0
sg48
(lp3292
sg50
S'easymark_item7_2_3'
p3293
sbtp3294
(g4
g10
g12
g14
g26
tp3295
tp3296
a((g73
g4
g6
g8
g10
g14
g18
g109
g22
g26
tp3297
(g1310
g1138
tp3298
(g73
g4
g6
g8
g16
g75
g26
tp3299
tp3300
a((g4
g8
g16
g18
g75
g109
g20
g67
g24
g69
g26
tp3301
(g791
g147
tp3302
(g73
g16
g75
g20
g24
g28
tp3303
tp3304
a((g2
g4
g6
g8
g113
g10
g12
g18
g22
g67
g26
g28
tp3305
(g400
g77
tp3306
(g113
g10
g12
g18
g24
g69
g28
tp3307
tp3308
a((g73
g4
g8
g113
g14
g16
g18
g75
g109
g24
g69
tp3309
(g303
g778
tp3310
(g4
g8
g67
g24
g26
tp3311
tp3312
a((g2
g4
g6
g8
g113
g12
g14
g16
g18
g75
g109
g24
g69
g26
tp3313
(g211
tp3314
(g73
g2
g4
g113
g14
g24
g69
tp3315
tp3316
a((g73
g2
g4
g6
g8
g113
g14
g16
g18
g20
g67
g24
g69
g28
tp3317
(g290
tp3318
(g73
g12
g14
g18
g69
tp3319
tp3320
a((g73
g2
g4
g6
g8
g10
g14
g18
g75
g109
g20
g22
g69
g26
g28
tp3321
(g290
tp3322
(g2
g4
g6
g8
g12
g14
g18
g75
g69
g26
tp3323
tp3324
a((g2
g8
g10
g12
g14
g16
g75
g20
g22
g24
g28
tp3325
(g211
tp3326
(g73
g8
g10
g14
g16
g24
g28
tp3327
tp3328
a((g2
g6
g14
g18
g75
g109
g20
g22
g24
g69
g26
g28
tp3329
(g379
tp3330
(g6
g16
g18
g75
g69
g26
g28
tp3331
tp3332
a((g73
g4
g6
g14
g18
g75
g20
g69
g28
tp3333
(g1753
g379
tp3334
(g73
g4
g14
g16
g18
g22
g28
tp3335
tp3336
a((g4
g8
g113
g18
g75
g67
g24
g26
tp3337
(g468
g1098
g147
tp3338
(g73
g8
g10
g75
g20
g67
g24
g26
tp3339
tp3340
a((g73
g6
g8
g113
g10
g12
g18
g75
g20
g22
g67
g24
g69
g26
g28
tp3341
(g360
g1544
tp3342
(g2
g113
g18
g109
g20
g22
g28
tp3343
tp3344
a((g2
g6
g10
g12
g14
g18
g75
g22
g67
g24
g26
tp3345
(g947
g635
tp3346
(g73
g2
g6
g10
g14
g28
tp3347
tp3348
a((g73
g4
g8
g10
g12
g14
g16
g109
g20
g22
g67
g24
g69
g26
tp3349
(g360
g326
tp3350
(g73
g2
g8
g12
g14
g16
g109
g67
g24
g26
tp3351
tp3352
a((g73
g2
g4
g6
g113
g10
g12
g14
g16
g18
g75
g109
g20
g67
g24
g26
g28
tp3353
(g134
tp3354
(g73
g2
g4
g6
g8
g18
g75
g20
g67
g24
g28
tp3355
tp3356
a((g73
g2
g6
g113
g14
g16
g18
g75
g109
g20
g24
g26
tp3357
(g438
g134
g591
tp3358
(g73
g4
g6
g8
g10
g14
g16
g75
g109
g24
g26
tp3359
tp3360
a((g73
g6
g8
g113
g12
g14
g16
g18
g109
g20
g22
g28
tp3361
(g1490
g778
tp3362
(g4
g12
g67
tp3363
tp3364
a((g73
g2
g8
g12
g14
g16
g18
g109
g20
g22
g24
g69
g26
g28
tp3365
(g974
g778
tp3366
(g73
g4
g8
g16
g18
g22
g67
g69
g26
g28
tp3367
tp3368
a((g73
g2
g4
g6
g8
g113
g10
g12
g14
g18
g22
g24
g69
g26
tp3369
(g736
tp3370
(g73
g14
g16
g24
g26
tp3371
tp3372
a((g73
g2
g4
g6
g10
g14
g18
g109
g20
g69
g26
g28
tp3373
(g1257
g778
tp3374
(g73
g2
g4
g6
g10
g20
g67
g24
g26
g28
tp3375
tp3376
a((g73
g2
g113
g10
g14
g18
g109
g20
g22
g67
g24
g26
g28
tp3377
(g1172
tp3378
(g73
g2
g113
g10
g12
g14
g18
g109
g22
g67
g24
tp3379
tp3380
a((g2
g12
g16
g75
g20
g22
g24
g69
g28
tp3381
(g2059
g1648
tp3382
(g2
g10
g18
g75
g20
g22
g24
g69
g28
tp3383
tp3384
a((g2
g6
g8
g10
g12
g16
g18
g75
g109
g20
g67
g24
g69
g28
tp3385
(g345
g1419
tp3386
(g2
g8
g10
g12
g14
g16
g75
g20
g22
g67
g24
g69
g28
tp3387
tp3388
a((g73
g2
g6
g8
g113
g10
g12
g14
g109
g20
g22
g67
g24
g26
tp3389
(g947
g1291
tp3390
(g2
g6
g113
g109
g67
g69
g26
g28
tp3391
tp3392
a((g73
g2
g6
g8
g10
g12
g16
g18
g75
g109
g22
g67
g69
g26
tp3393
(g521
g1724
tp3394
(g73
g12
g14
g18
g22
g67
g24
g26
tp3395
tp3396
a((g73
g4
g6
g8
g113
g10
g12
g16
g18
g75
g20
g69
g26
g28
tp3397
(g1544
tp3398
(g73
g4
g8
g113
g12
g109
g69
tp3399
tp3400
a((g2
g4
g8
g113
g14
g16
g20
g22
g67
g24
g26
g28
tp3401
(g226
g147
tp3402
(g73
g2
g4
g8
g113
g10
g20
g22
g67
g26
tp3403
tp3404
a((g73
g8
g113
g10
g16
g18
g20
g67
g24
g69
g26
g28
tp3405
(g345
tp3406
(g73
g8
g14
g16
g18
g20
g67
g24
g26
tp3407
tp3408
a((g73
g2
g4
g6
g8
g10
g12
g109
g20
g22
g67
g24
g69
g26
tp3409
(g791
g345
tp3410
(g6
g8
g14
g20
g22
g67
g24
g69
g28
tp3411
tp3412
a((g73
g2
g8
g10
g12
g75
g109
g20
g67
g24
g69
g26
g28
tp3413
(g239
tp3414
(g73
g8
g18
g75
g24
tp3415
tp3416
a((g73
g4
g6
g113
g12
g14
g22
g24
g69
g26
tp3417
(g198
g438
g1310
tp3418
(g73
g4
g10
g16
g109
g26
tp3419
tp3420
a((g4
g113
g10
g12
g14
g18
g109
g20
g67
g24
tp3421
(g30
g2423
tp3422
(g4
g113
g10
g18
g20
g69
g28
tp3423
tp3424
a((g2
g4
g8
g12
g14
g18
g75
g20
g22
g67
g69
g26
g28
tp3425
(g913
g379
tp3426
(g4
g113
g16
g75
g20
g22
g67
g69
g26
tp3427
tp3428
a((g2
g4
g8
g113
g10
g14
g18
g75
g109
g24
g26
g28
tp3429
(g30
g290
tp3430
(g2
g8
g113
g12
g14
g75
g109
g69
g26
tp3431
tp3432
a((g6
g10
g75
g22
g67
g24
g69
g26
g28
tp3433
(g345
g379
g1648
tp3434
(g10
g14
g16
g18
g22
g67
g24
g26
tp3435
tp3436
a((g73
g2
g6
g12
g14
g75
g109
g20
g22
g24
g26
g28
tp3437
(g379
g1291
tp3438
(g12
g14
g16
g20
g69
g26
tp3439
tp3440
a((g4
g8
g113
g12
g16
g18
g75
g20
g22
g67
g69
tp3441
(g164
g1048
tp3442
(g6
g12
g16
g22
g67
g28
tp3443
tp3444
a((g73
g2
g4
g6
g113
g12
g14
g16
g18
g75
g109
g22
g24
g26
g28
tp3445
(g438
g468
tp3446
(g73
g2
g10
g16
g18
g109
g20
g24
g26
tp3447
tp3448
a((g2
g4
g8
g113
g12
g14
g16
g75
g109
g20
g22
g67
g69
g26
g28
tp3449
(g438
g1048
tp3450
(g4
g6
g8
g10
g14
g75
g26
tp3451
tp3452
a((g73
g113
g10
g12
g14
g18
g109
g20
g22
g24
g69
g28
tp3453
(g572
g1400
tp3454
(g73
g4
g8
g10
g12
g18
g109
g20
g22
tp3455
tp3456
a((g73
g2
g4
g6
g8
g113
g12
g16
g109
g20
g28
tp3457
(g400
g30
tp3458
(g6
g8
g69
tp3459
tp3460
a((g2
g4
g6
g113
g10
g75
g109
g67
g24
g69
g26
tp3461
(g468
g1419
g1544
tp3462
(g2
g6
g10
g109
g20
g22
g67
g24
g69
tp3463
tp3464
a((g2
g6
g8
g10
g12
g16
g18
g109
g67
g24
g26
g28
tp3465
(g3186
g947
tp3466
(g4
g6
g16
g24
g26
g28
tp3467
tp3468
a((g73
g2
g4
g6
g8
g113
g12
g14
g20
g22
g24
g69
g28
tp3469
(g993
tp3470
(g73
g4
g6
g12
g14
g26
tp3471
tp3472
a((g73
g2
g4
g6
g113
g12
g16
g75
g109
g20
g69
g26
g28
tp3473
(g345
tp3474
(g73
g4
g6
g113
g14
g75
g109
g20
g28
tp3475
tp3476
a((g2
g4
g6
g8
g10
g12
g14
g18
g75
g109
g22
g67
g24
g69
g26
g28
tp3477
(g468
tp3478
(g2
g6
g8
g12
g14
g20
g22
g67
g24
g26
tp3479
tp3480
a((g73
g2
g4
g8
g113
g10
g16
g75
g22
g24
g69
g26
g28
tp3481
(g290
g52
tp3482
(g113
g12
g75
g67
tp3483
tp3484
a((g73
g2
g4
g8
g113
g12
g18
g75
g109
g67
g26
g28
tp3485
(g1073
tp3486
(g8
g14
g26
g28
tp3487
tp3488
a((g73
g8
g113
g18
g75
g109
g20
g67
g24
tp3489
(g438
g1025
tp3490
(g73
g113
g10
g12
g109
g67
g24
tp3491
tp3492
a((g73
g2
g4
g6
g8
g12
g14
g16
g75
g20
g67
g24
g69
g26
tp3493
(g1276
tp3494
(g16
g75
g20
g22
g67
tp3495
tp3496
a((g73
g4
g6
g113
g10
g12
g14
g18
g75
g67
g26
g28
tp3497
(g1544
g1323
g77
tp3498
(g73
g4
g6
g12
g69
g26
tp3499
tp3500
a((g2
g8
g113
g16
g75
g109
g20
g22
g24
g26
g28
tp3501
(g618
g1115
tp3502
(g2
g113
g14
g16
g24
g69
tp3503
tp3504
a((g73
g2
g4
g8
g113
g12
g14
g16
g18
g109
g20
g22
g24
g26
tp3505
(g1138
g271
tp3506
(g73
g4
g14
g75
g20
g22
g67
g26
tp3507
tp3508
a((g2
g4
g6
g113
g10
g12
g109
g24
g69
g26
tp3509
(g468
g1359
tp3510
(g113
g10
g12
g16
g109
g20
tp3511
tp3512
a((g6
g8
g113
g14
g18
g75
g109
g20
g22
g67
g69
g26
g28
tp3513
(g438
g591
tp3514
(g4
g10
g14
g109
g22
g67
g69
g26
tp3515
tp3516
a((g2
g4
g6
g8
g14
g18
g20
g22
g67
g24
g69
tp3517
(g736
tp3518
(g4
g6
g8
g16
g22
g24
tp3519
tp3520
a((g73
g4
g8
g113
g10
g12
g14
g16
g75
g109
g20
g22
g67
g28
tp3521
(g77
g1048
tp3522
(g4
g6
g8
g113
g10
g12
g14
g16
g75
g67
g69
g28
tp3523
tp3524
a((g73
g2
g4
g8
g113
g10
g12
g16
g18
g75
g109
g24
g69
g26
tp3525
(g468
g947
tp3526
(g73
g2
g113
g10
g16
g18
g109
g20
g26
g28
tp3527
tp3528
a((g2
g4
g6
g8
g10
g18
g75
g109
g20
g22
g67
g24
g26
g28
tp3529
(g618
g147
tp3530
(g73
g2
g6
g8
g14
g22
g67
tp3531
tp3532
a((g73
g2
g4
g8
g10
g14
g18
g75
g20
g22
g67
g26
g28
tp3533
(g198
g736
tp3534
(g73
g2
g8
g16
g18
g109
g20
g28
tp3535
tp3536
a((g2
g4
g6
g8
g113
g12
g16
g18
g75
g109
g20
g22
g67
g24
tp3537
(g438
g1073
tp3538
(g6
g8
g10
g14
g22
g67
g24
tp3539
tp3540
a((g73
g2
g8
g12
g16
g75
g109
g20
g22
g24
g69
g26
g28
tp3541
(g239
tp3542
(g8
g12
g18
g75
g20
g22
g24
g69
g26
tp3543
tp3544
a((g73
g4
g8
g113
g10
g14
g16
g18
g22
g67
g24
g69
g26
tp3545
(g468
g879
tp3546
(g73
g2
g10
g14
g16
g20
g26
tp3547
tp3548
a((g73
g2
g6
g113
g10
g12
g14
g18
g109
g22
g67
g69
g26
tp3549
(g947
(istructures.domain
Action
p3550
(dp3551
g32
(lp3552
(S'at_x0'
p3553
tp3554
a(S'at_y1'
p3555
tp3556
asg38
(lp3557
(S'at_y0'
p3558
tp3559
asg42
(tsg43
(lp3560
(S'at_y1'
p3561
tp3562
asg47
I0
sg48
(lp3563
sg50
S'move_0_1_0_0'
p3564
sbtp3565
(g6
g113
g10
g14
g18
g75
g22
g67
g26
g28
tp3566
tp3567
a((g73
g2
g4
g6
g113
g10
g12
g16
g109
g22
g67
g24
g69
g26
g28
tp3568
(g698
g345
tp3569
(g73
g4
g6
g8
g113
g14
g24
g28
tp3570
tp3571
a((g2
g4
g6
g8
g113
g12
g16
g20
tp3572
(g400
g30
g1724
tp3573
(g4
g6
g113
g12
g14
g69
tp3574
tp3575
a((g73
g2
g4
g6
g10
g12
g14
g18
g20
g22
g67
g24
g69
g26
g28
tp3576
(g198
g1138
tp3577
(g73
g2
g12
g75
g67
g26
g28
tp3578
tp3579
a((g73
g2
g6
g113
g10
g12
g14
g16
g18
g75
g109
g22
g67
g24
g69
tp3580
(g947
tp3581
(g73
g2
g6
g10
g75
g109
g67
g28
tp3582
tp3583
a((g4
g8
g10
g12
g16
g18
g75
g20
g67
g69
g28
tp3584
(g345
g451
tp3585
(g73
g4
g14
g69
g28
tp3586
tp3587
a((g4
g113
g10
g12
g16
g75
g109
g22
g24
g26
g28
tp3588
(g1648
tp3589
(g113
g12
g18
g75
g109
g24
g26
tp3590
tp3591
a((g2
g6
g8
g113
g10
g12
g14
g18
g75
g20
g67
g24
g28
tp3592
(g1544
tp3593
(g2
g113
g12
g14
g109
g20
g28
tp3594
tp3595
a((g2
g4
g6
g8
g113
g10
g12
g18
g75
g109
g20
g67
g69
g26
g28
tp3596
(g736
tp3597
(g2
g4
g113
g16
g20
g69
g26
g28
tp3598
tp3599
a((g73
g4
g8
g12
g14
g18
g75
g109
g20
g22
g24
g69
g26
g28
tp3600
(g913
tp3601
(g73
g4
g113
g12
g20
g22
g69
g28
tp3602
tp3603
a((g73
g2
g6
g113
g12
g14
g16
g109
g20
g22
g67
g69
g28
tp3604
(g438
tp3605
(g113
g10
g12
g14
g20
g22
g69
tp3606
tp3607
a((g73
g4
g10
g16
g18
g75
g109
g20
g22
g67
g24
g69
g28
tp3608
(g345
g1048
tp3609
(g73
g4
g6
g14
g75
g109
g67
g24
tp3610
tp3611
a((g73
g4
g6
g8
g113
g10
g12
g14
g75
g109
g22
g67
g24
g69
g26
tp3612
(g468
g1359
tp3613
(g6
g113
g10
g16
g75
g109
g20
g22
g24
g69
g26
tp3614
tp3615
a((g73
g6
g113
g12
g18
g109
g20
g22
g67
g24
g69
g26
tp3616
(g974
g791
tp3617
(g73
g113
g12
g109
g22
g67
g69
g26
g28
tp3618
tp3619
a((g6
g113
g12
g14
g16
g75
g109
g20
g22
g67
g24
g28
tp3620
(g438
g303
tp3621
(g6
g113
g10
g12
g14
g20
g67
g26
g28
tp3622
tp3623
a((g73
g8
g113
g10
g12
g14
g18
g67
g24
g69
g26
g28
tp3624
(g837
g360
tp3625
(g2
g6
g8
g12
g67
g26
g28
tp3626
tp3627
a((g4
g6
g113
g10
g12
g14
g16
g75
g20
g22
g67
g69
g26
tp3628
(g134
g502
tp3629
(g4
g6
g8
g22
g67
g69
g28
tp3630
tp3631
a((g4
g8
g113
g14
g18
g75
g22
g67
g69
g26
tp3632
(g1346
g1025
tp3633
(g4
g10
g12
g69
g26
tp3634
tp3635
a((g73
g4
g6
g8
g12
g14
g16
g18
g75
g109
g22
g24
g26
tp3636
(g791
g52
tp3637
(g8
g14
g16
g18
g75
g109
g22
g67
g26
g28
tp3638
tp3639
a((g73
g2
g8
g113
g10
g109
g20
g22
g24
g26
tp3640
(g239
g52
tp3641
(g2
g113
g18
g109
g67
g24
tp3642
tp3643
a((g2
g4
g10
g12
g16
g18
g75
g109
g22
g67
g69
g26
g28
tp3644
(g345
g521
tp3645
(g12
g14
g18
g22
g24
g69
g26
tp3646
tp3647
a((g73
g2
g6
g8
g10
g12
g14
g16
g18
g20
g22
g24
g69
tp3648
(g993
g974
tp3649
(g73
g4
g8
g10
g12
g14
g16
g22
g69
g26
tp3650
tp3651
a((g73
g2
g4
g8
g113
g10
g12
g14
g16
g18
g109
g22
g69
g28
tp3652
(g326
g468
tp3653
(g73
g8
g14
g16
g18
g20
g24
tp3654
tp3655
a((g73
g2
g4
g8
g10
g14
g16
g18
g75
g109
g20
g24
g69
g28
tp3656
(g913
g271
tp3657
(g4
g113
g18
g75
g67
g69
tp3658
tp3659
a((g2
g4
g6
g113
g10
g18
g109
g22
g24
g69
tp3660
(g1310
g778
tp3661
(g2
g16
g18
g67
tp3662
tp3663
a((g73
g6
g8
g113
g10
g12
g14
g18
g109
g22
g67
g26
g28
tp3664
(g3550
g379
tp3665
(g6
g113
g16
g18
g75
g67
g26
g28
tp3666
tp3667
a((g8
g10
g12
g14
g16
g18
g75
g109
g22
g24
tp3668
(g360
g1812
tp3669
(g2
g8
g10
g16
g18
g75
g109
g22
g26
tp3670
tp3671
a((g73
g4
g6
g8
g113
g12
g14
g75
g109
g20
g22
g24
g69
g28
tp3672
(g438
g303
tp3673
(g4
g6
g8
g10
g12
g14
g75
g20
g22
g24
g26
g28
tp3674
tp3675
a((g2
g4
g6
g8
g113
g12
g14
g16
g18
g75
g109
g22
g67
g24
g28
tp3676
(g438
g211
tp3677
(g73
g6
g8
g113
g10
g12
g14
g16
g18
g75
g28
tp3678
tp3679
a((g2
g6
g113
g12
g14
g16
g75
g20
g22
g69
g26
tp3680
(g947
g1648
tp3681
(g6
g113
g16
g18
g20
g28
tp3682
tp3683
a((g6
g8
g10
g12
g14
g16
g75
g20
g22
g67
g69
g26
tp3684
(g92
tp3685
(g6
g8
g12
g109
g22
g67
tp3686
tp3687
a((g73
g2
g8
g113
g12
g18
g109
g20
g22
g69
g26
g28
tp3688
(g438
g1048
tp3689
(g2
g6
g10
g12
g109
g28
tp3690
tp3691
a((g73
g4
g8
g113
g14
g16
g18
g20
g22
g24
g69
g28
tp3692
(g52
tp3693
(g113
g14
g16
g18
g20
g22
g67
g69
g28
tp3694
tp3695
a((g2
g4
g6
g113
g10
g12
g18
g75
g109
g20
g22
g69
g28
tp3696
(g379
tp3697
(g2
g4
g113
g10
g12
g16
g18
g109
g20
g28
tp3698
tp3699
a((g73
g2
g4
g6
g8
g113
g12
g16
g18
g75
g109
g20
g22
tp3700
(g1073
tp3701
(g6
g113
g12
g14
g75
g109
g20
g22
tp3702
tp3703
a((g73
g2
g6
g113
g10
g12
g14
g18
g109
g20
g22
g24
g28
tp3704
(g698
g52
tp3705
(g73
g6
g67
g24
tp3706
tp3707
a((g2
g4
g6
g8
g113
g12
g109
g20
g22
g67
g28
tp3708
(g618
g239
tp3709
(g2
g6
g12
g14
g18
g20
g22
g67
tp3710
tp3711
a((g73
g2
g4
g8
g113
g10
g14
g18
g109
g20
g22
g24
g69
g26
g28
tp3712
(g290
g778
tp3713
(g73
g2
g4
g12
g18
g20
g67
g69
g26
tp3714
tp3715
a((g2
g6
g8
g18
g20
g22
g67
g24
g69
g26
tp3716
(g913
g226
tp3717
(g113
g10
g18
g20
g67
g69
g26
tp3718
tp3719
a((g73
g4
g6
g113
g12
g18
g75
g20
g22
g67
g69
g26
tp3720
(g198
g664
tp3721
(g73
g4
g6
g8
g113
g75
g109
g67
g69
tp3722
tp3723
a((g73
g2
g6
g8
g10
g14
g75
g20
g67
g24
g69
g28
tp3724
(g92
g2466
tp3725
(g14
g67
g69
g26
tp3726
tp3727
a((g73
g2
g4
g6
g8
g10
g14
g18
g75
g109
g20
g24
g69
g26
tp3728
(g791
g1025
tp3729
(g12
g75
g69
g26
g28
tp3730
tp3731
a((g2
g4
g113
g14
g16
g18
g75
g20
g22
g67
g24
g26
g28
tp3732
(g198
g134
tp3733
(g8
g14
g18
g75
g109
g20
g67
g24
tp3734
tp3735
a((g73
g2
g8
g12
g14
g75
g109
g22
g26
g28
tp3736
(g679
g438
g1115
tp3737
(g73
g113
g10
g12
g14
g109
g69
g26
tp3738
tp3739
a((g73
g4
g6
g8
g113
g10
g14
g16
g18
g75
g109
g20
g22
g24
g26
g28
tp3740
(g1025
g271
tp3741
(g6
g10
g12
g14
g18
g75
g109
g67
g28
tp3742
tp3743
a((g2
g4
g6
g8
g113
g10
g12
g14
g18
g75
g109
g26
tp3744
(g400
g778
tp3745
(g4
g6
g18
g75
g67
g24
tp3746
tp3747
a((g73
g2
g4
g8
g113
g12
g14
g18
g75
g109
g24
g69
g26
g28
tp3748
(g1276
g778
tp3749
(g2
g8
g14
g18
g75
g109
g22
g67
tp3750
tp3751
a((g73
g2
g4
g6
g10
g12
g14
g16
g18
g109
g20
g22
g67
g24
g69
tp3752
(g791
tp3753
(g10
g20
g67
g24
g69
g28
tp3754
tp3755
a((g73
g2
g4
g8
g113
g12
g16
g75
g20
g22
g67
g24
g69
g26
g28
tp3756
(g226
g837
tp3757
(g73
g4
g6
g10
g16
g75
g67
g69
g26
g28
tp3758
tp3759
a((g2
g6
g8
g16
g18
g109
g20
g22
g67
g24
g69
g26
g28
tp3760
(g913
g438
tp3761
(g113
g10
g16
g67
tp3762
tp3763
a((g73
g4
g6
g8
g113
g12
g16
g18
g75
g109
g22
g67
g24
tp3764
(g360
g77
tp3765
(g2
g4
g6
g113
g16
g18
g75
g67
g69
tp3766
tp3767
a((g2
g4
g6
g8
g113
g14
g18
g75
g109
g20
g22
g67
g26
g28
tp3768
(g438
g1238
tp3769
(g2
g4
g8
g10
g12
g14
g109
g22
g67
g26
tp3770
tp3771
a((g73
g4
g6
g8
g14
g18
g75
g20
g22
g24
g26
g28
tp3772
(g198
g30
tp3773
(g73
g4
g6
g14
g75
g109
g69
g26
g28
tp3774
tp3775
a((g73
g2
g4
g8
g113
g10
g14
g16
g18
g109
g22
g67
g24
g69
g28
tp3776
(g837
tp3777
(g6
g10
g14
g16
g18
g109
g22
g69
g28
tp3778
tp3779
a((g73
g6
g8
g12
g14
g16
g20
g67
g24
g26
g28
tp3780
(g360
(istructures.domain
Action
p3781
(dp3782
g32
(lp3783
(S'at_x1'
p3784
tp3785
a(S'at_y5'
p3786
tp3787
asg38
(lp3788
(S'at_x0'
p3789
tp3790
asg42
(tsg43
(lp3791
(S'at_x1'
p3792
tp3793
asg47
I0
sg48
(lp3794
sg50
S'move_1_5_0_5'
p3795
sbg1627
tp3796
(g73
g6
g113
g14
g16
g18
g67
g28
tp3797
tp3798
a((g2
g6
g8
g14
g16
g18
g75
g109
g24
g26
tp3799
(g679
tp3800
(g6
g113
g14
g16
g24
g26
tp3801
tp3802
a((g73
g2
g4
g113
g10
g14
g18
g109
g20
g22
g67
g24
g69
g26
tp3803
(g1310
tp3804
(g73
g14
g16
g22
g26
tp3805
tp3806
a((g2
g6
g8
g113
g10
g12
g16
g75
g109
g20
g22
g67
g24
g69
tp3807
(g591
g303
tp3808
(g2
g4
g113
g12
g16
g22
g67
g26
tp3809
tp3810
a((g73
g2
g4
g113
g109
g20
g22
g69
tp3811
(g164
g928
tp3812
(g2
g113
g22
g24
g28
tp3813
tp3814
a((g73
g2
g4
g6
g8
g12
g14
g16
g18
g75
g109
g20
g22
g24
tp3815
(g947
g536
tp3816
(g4
g6
g18
g109
g24
g26
g28
tp3817
tp3818
a((g73
g4
g6
g8
g113
g12
g20
g22
g67
g69
g26
g28
tp3819
(g717
g1346
tp3820
(g6
g8
g10
g18
g22
g69
g28
tp3821
tp3822
a((g73
g2
g8
g113
g10
g12
g14
g18
g20
g22
g69
g28
tp3823
(g1048
tp3824
(g73
g6
g12
g22
tp3825
tp3826
a((g73
g2
g8
g113
g10
g14
g16
g18
g75
g109
g22
g67
g26
g28
tp3827
(g400
g837
tp3828
(g6
g8
g10
g14
g16
g28
tp3829
tp3830
a((g73
g2
g6
g8
g113
g10
g14
g16
g18
g109
g22
g24
g28
tp3831
(g303
(istructures.domain
Action
p3832
(dp3833
g32
(lp3834
(S'at_x1'
p3835
tp3836
a(S'at_y1'
p3837
tp3838
asg38
(lp3839
(S'at_x2'
p3840
tp3841
asg42
(tsg43
(lp3842
(S'at_x1'
p3843
tp3844
asg47
I0
sg48
(lp3845
sg50
S'move_1_1_2_1'
p3846
sbtp3847
(g12
g26
tp3848
tp3849
a((g4
g8
g10
g14
g16
g18
g22
g67
g24
g28
tp3850
(g198
g468
g837
tp3851
(g6
g8
g10
g14
g109
g20
g67
tp3852
tp3853
a((g2
g4
g6
g113
g10
g16
g75
g109
g20
g22
g67
g24
g69
tp3854
(g791
g147
tp3855
(g73
g2
g113
g10
g16
g109
g22
g67
g24
g28
tp3856
tp3857
a((g73
g2
g6
g8
g10
g12
g16
g20
g67
g69
tp3858
(g913
g1276
g1490
tp3859
(g73
g2
g4
g6
g113
g10
g16
g22
g67
tp3860
tp3861
a((g73
g4
g6
g8
g113
g10
g16
g18
g109
g67
g24
g69
g26
tp3862
(g468
g2905
g879
tp3863
(g2
g6
g113
g10
g18
g109
g20
g22
g67
g26
tp3864
tp3865
a((g73
g2
g6
g8
g113
g10
g75
g109
g20
g22
g67
g26
g28
tp3866
(g618
g239
tp3867
(g73
g2
g6
g10
g14
g18
g75
g20
g22
g67
g26
tp3868
tp3869
a((g73
g2
g4
g113
g14
g75
g22
g67
g69
tp3870
(g226
g419
tp3871
(g73
g2
g113
g10
g75
g20
g67
tp3872
tp3873
a((g6
g8
g113
g10
g14
g16
g109
g20
g22
g26
g28
tp3874
(g3832
tp3875
(g6
g12
g16
g26
tp3876
tp3877
a((g4
g6
g8
g16
g18
g75
g109
g20
g24
g69
g26
tp3878
(g1025
g211
tp3879
(g73
g6
g12
g16
g24
g69
g26
tp3880
tp3881
a((g73
g2
g4
g6
g8
g14
g16
g18
g75
g20
g69
g28
tp3882
(g290
g326
tp3883
(g73
g4
g6
g8
g12
g14
g75
g24
tp3884
tp3885
a((g2
g4
g6
g8
g113
g12
g14
g16
g18
g20
g22
g24
g26
tp3886
(g198
g778
tp3887
(g2
g113
g16
g109
g20
g67
tp3888
tp3889
a((g73
g2
g4
g6
g10
g14
g16
g18
g75
g109
g20
g22
g24
g26
g28
tp3890
(g77
g271
tp3891
(g14
g16
g18
g75
g109
g67
g69
g26
g28
tp3892
tp3893
a((g73
g2
g8
g10
g109
g20
g22
tp3894
(g1490
g77
tp3895
(g73
g4
g8
g69
tp3896
tp3897
a((g73
g2
g4
g6
g8
g113
g10
g12
g14
g18
g75
g109
g24
g69
g26
g28
tp3898
(g1276
g736
tp3899
(g4
g6
g113
g10
g12
g14
g16
g22
g24
g26
tp3900
tp3901
a((g73
g2
g113
g12
g14
g16
g18
g109
g20
g22
g67
g24
g69
g26
tp3902
(g698
g837
tp3903
(g6
g8
g113
g14
g20
g26
tp3904
tp3905
a((g4
g113
g10
g12
g18
g75
g109
g20
g67
g24
g69
g26
g28
tp3906
(g134
g211
tp3907
(g73
g8
g12
g109
g24
g69
tp3908
tp3909
a((g6
g10
g12
g16
g75
g109
g22
g67
g24
g69
tp3910
(g211
tp3911
(g73
g6
g12
g75
g109
g22
tp3912
tp3913
a((g73
g8
g113
g18
g75
g109
g20
g22
g67
g24
g69
tp3914
(g438
g303
tp3915
(g113
g10
g18
g20
g24
g26
tp3916
tp3917
a((g73
g4
g6
g10
g22
g67
g24
g69
g26
g28
tp3918
(g717
tp3919
(g73
g4
g18
g22
g67
g26
g28
tp3920
tp3921
a((g2
g113
g12
g14
g16
g75
g109
g20
g22
g67
g24
g69
g26
g28
tp3922
(g438
g211
tp3923
(g73
g2
g113
g10
g14
g16
g75
g22
g67
g69
tp3924
tp3925
a((g73
g4
g6
g10
g12
g16
g75
g22
g67
g24
g69
g26
g28
tp3926
(g468
g1648
tp3927
(g73
g6
g10
g12
g18
g20
g22
g69
tp3928
tp3929
a((g73
g4
g8
g113
g10
g12
g16
g18
g75
g20
g67
g69
g26
g28
tp3930
(g326
g837
tp3931
(g73
g4
g6
g12
g18
g20
g67
g24
g28
tp3932
tp3933
a((g2
g8
g12
g75
g20
g22
g26
g28
tp3934
(g679
g400
tp3935
(g113
g22
g24
g26
g28
tp3936
tp3937
a((g4
g6
g8
g113
g16
g18
g75
g109
g20
g22
g24
g26
tp3938
(g438
tp3939
(g6
g10
g18
g75
g20
g24
g26
tp3940
tp3941
a((g73
g2
g8
g113
g10
g18
g75
g109
g20
g22
g24
g69
g26
tp3942
(g591
g837
tp3943
(g2
g4
g6
g8
g113
g75
g109
g69
tp3944
tp3945
a((g73
g2
g4
g6
g10
g16
g75
g109
g20
g22
g24
g69
g26
tp3946
(g1073
tp3947
(g73
g10
g14
g22
g24
g26
tp3948
tp3949
a((g2
g4
g8
g113
g16
g18
g75
g20
g22
g26
tp3950
(g226
g1073
tp3951
(g2
g8
g10
g14
g75
g22
g26
tp3952
tp3953
a((g73
g2
g4
g6
g8
g113
g10
g12
g18
g75
g109
g22
g26
g28
tp3954
(g77
g736
tp3955
(g73
g2
g4
g16
g75
g69
g26
g28
tp3956
tp3957
a((g2
g6
g8
g113
g10
g18
g109
g67
g24
g69
g26
tp3958
(g2905
g736
tp3959
(g2
g6
g10
g16
g22
g67
g24
g26
tp3960
tp3961
a((g2
g4
g6
g8
g10
g12
g14
g16
g109
g20
g22
g67
g24
g69
g26
tp3962
(g791
g239
tp3963
(g2
g6
g8
g10
g12
g18
g22
g67
g24
g28
tp3964
tp3965
a((g73
g2
g4
g6
g8
g113
g10
g12
g14
g18
g109
g22
g67
g28
tp3966
(g77
g736
tp3967
(g73
g6
g113
g14
g16
g18
g69
tp3968
tp3969
a((g2
g4
g6
g8
g113
g10
g12
g16
g18
g109
g22
g67
g24
g69
g26
tp3970
(g791
g3550
tp3971
(g6
g8
g12
g75
g22
g67
g69
g28
tp3972
tp3973
a((g73
g2
g8
g14
g16
g18
g75
g109
g22
g67
g28
tp3974
(g679
g400
g303
tp3975
(g113
g14
g16
g109
g67
g24
g26
tp3976
tp3977
a((g73
g6
g113
g10
g12
g16
g18
g75
g20
g22
g67
g69
g26
tp3978
(g134
g1724
tp3979
(g73
g8
g12
g14
g18
g20
g69
g26
tp3980
tp3981
a((g2
g4
g6
g113
g10
g14
g18
g75
g22
g28
tp3982
(g379
g1238
tp3983
(g4
g6
g12
g14
g16
g75
tp3984
tp3985
a((g2
g4
g6
g10
g12
g18
g109
g22
g67
g24
tp3986
(g791
g1359
tp3987
(g6
g12
g16
g109
g22
g67
g28
tp3988
tp3989
a((g2
g4
g6
g8
g10
g12
g14
g75
g26
tp3990
(g679
g419
g271
tp3991
(g113
g10
g75
g67
tp3992
tp3993
a((g73
g2
g4
g8
g113
g12
g14
g18
g109
g67
g24
g69
g26
tp3994
(g438
g791
tp3995
(g73
g2
g113
g10
g18
g24
g26
g28
tp3996
tp3997
a((g73
g2
g4
g12
g14
g16
g109
g24
g69
g28
tp3998
(g1138
g2059
tp3999
(g73
g10
g12
g75
g28
tp4000
tp4001
a((g2
g4
g6
g8
g113
g12
g14
g75
g109
g24
g69
tp4002
(g438
tp4003
(g6
g10
g14
tp4004
tp4005
a((g73
g2
g4
g6
g8
g10
g12
g14
g16
g75
g20
g67
g24
g26
g28
tp4006
(g239
tp4007
(g73
g8
g14
g16
g18
g28
tp4008
tp4009
a((g2
g8
g113
g10
g14
g18
g75
g109
g20
g67
g24
g28
tp4010
(g591
g635
tp4011
(g73
g4
g8
g14
g18
g75
g67
tp4012
tp4013
a((g73
g4
g6
g8
g113
g10
g14
g75
g109
g20
g22
g24
g28
tp4014
(g1025
g379
tp4015
(g73
g4
g113
g12
g14
g16
g75
g20
tp4016
tp4017
a((g2
g6
g8
g113
g10
g16
g18
g75
g109
g67
g69
tp4018
(g1025
tp4019
(g6
g12
g75
g109
g67
tp4020
tp4021
a((g2
g4
g113
g12
g14
g16
g75
g20
g22
g24
g26
tp4022
(g134
g30
tp4023
(g8
g12
g14
g75
g22
g69
tp4024
tp4025
a((g73
g4
g6
g8
g12
g14
g16
g75
g109
g20
g22
g67
g24
g69
g26
tp4026
(g717
tp4027
(g73
g4
g16
g18
g75
g22
g67
g69
tp4028
tp4029
a((g2
g6
g113
g10
g12
g16
g75
g109
g20
g22
g26
tp4030
(g698
g271
tp4031
(g6
g8
g113
g16
g75
g20
g67
g26
tp4032
tp4033
a((g2
g4
g6
g10
g12
g14
g16
g18
g67
g24
g26
tp4034
(g947
g30
tp4035
(g4
g6
g10
g14
g16
g18
g67
g69
g28
tp4036
tp4037
a((g73
g2
g4
g12
g14
g16
g75
g20
g69
tp4038
(g698
tp4039
(g73
g2
g4
g8
g14
g69
tp4040
tp4041
a((g73
g2
g4
g8
g113
g10
g12
g14
g18
g75
g22
g24
tp4042
(g52
tp4043
(g4
g10
g12
g14
g18
g75
g22
g67
tp4044
tp4045
a((g73
g2
g6
g8
g113
g10
g75
g109
g20
g67
g24
g69
g26
g28
tp4046
(g239
tp4047
(g73
g8
g113
g10
g18
g75
g109
g20
g69
tp4048
tp4049
a((g4
g6
g8
g113
g10
g12
g14
g16
g109
g22
g67
g69
g26
g28
tp4050
(g717
g860
tp4051
(g10
g16
g18
g109
g20
g67
g69
g26
tp4052
tp4053
a((g73
g6
g8
g10
g18
g75
g20
g67
g24
g69
g26
g28
tp4054
(g345
tp4055
(g10
g14
g18
g75
g20
g24
g69
tp4056
tp4057
a((g73
g2
g4
g6
g8
g113
g10
g14
g16
g18
g75
g20
g22
g67
g24
g69
g26
tp4058
(g791
g1025
tp4059
(g2
g12
g16
g20
g22
g24
g26
g28
tp4060
tp4061
a((g2
g8
g113
g12
g75
g109
g67
g24
g26
g28
tp4062
(g438
g239
tp4063
(g8
g10
g18
g75
g109
g28
tp4064
tp4065
a((g73
g2
g4
g6
g10
g12
g16
g75
g109
g20
g22
g24
g26
g28
tp4066
(g1648
tp4067
(g73
g2
g4
g12
g18
g22
g26
tp4068
tp4069
a((g73
g4
g8
g10
g12
g14
g18
g109
g20
g22
g28
tp4070
(g1310
g778
tp4071
(g73
g8
g12
g14
g16
g20
g22
g67
g28
tp4072
tp4073
a((g4
g6
g8
g14
g75
g20
g22
g67
g69
g26
g28
tp4074
(g717
g1346
tp4075
(g8
g10
g14
g18
g75
g20
g22
g26
g28
tp4076
tp4077
a((g2
g4
g6
g8
g113
g10
g14
g20
g69
g26
g28
tp4078
(g736
tp4079
(g4
g113
g10
g16
g20
g69
g26
tp4080
tp4081
a((g8
g113
g10
g14
g109
g22
g67
g24
g26
g28
tp4082
(g2364
g290
tp4083
(g8
g12
g67
g69
g26
tp4084
tp4085
a((g2
g6
g8
g113
g10
g16
g75
g109
g20
g22
g67
g24
g69
g26
g28
tp4086
(g290
g591
tp4087
(g4
g8
g113
g12
g16
g75
g24
tp4088
tp4089
a((g73
g6
g113
g16
g18
g20
g24
g69
g28
tp4090
(g2765
tp4091
(g113
g10
g18
g20
g69
tp4092
tp4093
a((g6
g8
g10
g12
g14
g16
g109
g20
g22
g67
tp4094
(g2466
g2423
tp4095
(g6
g8
g10
g14
g16
g109
g22
g26
g28
tp4096
tp4097
a((g73
g12
g14
g16
g18
g75
g109
g20
g22
g69
tp4098
(g326
g360
tp4099
(g73
g2
g14
g16
g18
g75
g20
tp4100
tp4101
a((g4
g6
g8
g113
g14
g16
g75
g109
g20
g67
g24
g69
g26
g28
tp4102
(g438
g147
tp4103
(g73
g113
g10
g75
g26
tp4104
tp4105
a((g4
g113
g10
g12
g14
g18
g75
g109
g22
g24
g69
g26
tp4106
(g791
g211
tp4107
(g73
g113
g12
g75
g22
g69
g28
tp4108
tp4109
a((g73
g10
g14
g16
g75
g109
g20
g22
g67
g24
g69
g26
tp4110
(g591
g791
g290
tp4111
(g73
g12
g16
g109
g67
g69
g26
tp4112
tp4113
a((g2
g10
g12
g14
g18
g75
g20
g24
g69
g26
g28
tp4114
(g271
tp4115
(g10
g18
g67
g69
g26
g28
tp4116
tp4117
a((g73
g8
g10
g12
g14
g109
g20
g22
g67
g24
g69
g26
g28
tp4118
(g360
g239
tp4119
(g73
g2
g10
g18
g22
g26
g28
tp4120
tp4121
a((g2
g4
g6
g113
g10
g12
g75
g109
g20
g24
g69
g26
tp4122
(g134
g1419
tp4123
(g4
g8
g10
g75
g22
g69
g26
tp4124
tp4125
a((g73
g2
g4
g6
g113
g12
g14
g16
g18
g22
g67
g24
g69
g26
g28
tp4126
(g698
tp4127
(g73
g2
g8
g113
g14
g16
g67
tp4128
tp4129
a((g73
g4
g6
g8
g10
g14
g16
g75
g109
g20
g24
g69
g26
g28
tp4130
(g913
g1419
tp4131
(g73
g4
g113
g10
g14
g16
g75
g20
g22
g24
g69
tp4132
tp4133
a((g2
g8
g113
g10
g12
g14
g16
g109
g20
g24
g69
g26
g28
tp4134
(g1276
g239
tp4135
(g14
g18
g109
g20
g22
g26
g28
tp4136
tp4137
a((g2
g4
g6
g113
g12
g14
g16
g18
g20
g22
g67
g24
g69
tp4138
(g226
g211
tp4139
(g73
g113
g10
g14
g16
g18
g20
tp4140
tp4141
a((g2
g6
g8
g12
g14
g16
g18
g75
g20
g67
g24
g69
tp4142
(g913
g591
tp4143
(g4
g6
g113
g14
g16
g75
tp4144
tp4145
a((g2
g6
g8
g113
g10
g12
g16
g109
g22
g67
g24
g69
g28
tp4146
(g345
g211
tp4147
(g73
g8
g14
g67
tp4148
tp4149
a((g73
g2
g4
g6
g8
g113
g16
g18
g75
g20
g22
g67
g69
g26
g28
tp4150
(g198
g345
tp4151
(g73
g6
g8
g113
g14
g18
g75
g109
g67
g69
tp4152
tp4153
a((g4
g6
g8
g12
g14
g18
g75
g109
g22
g67
g24
g69
tp4154
(g791
g1346
tp4155
(g8
g10
g12
g14
g18
g67
g24
g69
g28
tp4156
tp4157
a((g73
g2
g4
g6
g113
g10
g16
g18
g20
g22
g67
g69
g28
tp4158
(g198
g928
tp4159
(g73
g2
g4
g113
g16
g109
g20
g67
g24
tp4160
tp4161
a((g73
g2
g6
g8
g10
g14
g18
g75
g109
g22
g67
g69
g26
tp4162
((istructures.domain
Action
p4163
(dp4164
g32
(lp4165
(S'at_x1'
p4166
tp4167
a(S'at_y3'
p4168
tp4169
asg38
(lp4170
(S'at_y4'
p4171
tp4172
asg42
(tsg43
(lp4173
(S'at_y3'
p4174
tp4175
asg47
I0
sg48
(lp4176
sg50
S'move_1_3_1_4'
p4177
sbg2191
tp4178
(g73
g2
g10
g14
g67
g24
g69
g26
tp4179
tp4180
a((g4
g6
g8
g16
g18
g75
g20
g24
g26
g28
tp4181
(g1073
tp4182
(g6
g8
g14
g16
g20
g28
tp4183
tp4184
a((g73
g2
g6
g113
g10
g14
g75
g20
g22
g24
g69
g26
g28
tp4185
(g1544
g1648
tp4186
(g73
g2
g14
g18
g109
g20
g22
g69
g26
tp4187
tp4188
a((g2
g6
g12
g14
g16
g18
g109
g20
g22
g69
g26
g28
tp4189
(g698
g52
tp4190
(g6
g20
g67
g26
g28
tp4191
tp4192
a((g73
g2
g113
g12
g14
g16
g20
g22
g24
g26
g28
tp4193
(g1648
g553
tp4194
(g73
g8
g12
g16
g18
g26
tp4195
tp4196
a((g73
g4
g8
g10
g16
g18
g24
g69
tp4197
(g468
(istructures.domain
Action
p4198
(dp4199
g32
(lp4200
(S'at_x1'
p4201
tp4202
a(S'at_y3'
p4203
tp4204
asg38
(lp4205
(S'at_y2'
p4206
tp4207
asg42
(tsg43
(lp4208
(S'at_y3'
p4209
tp4210
asg47
I0
sg48
(lp4211
sg50
S'move_1_3_1_2'
p4212
sbg1010
tp4213
(g73
g16
g18
g109
g20
g24
tp4214
tp4215
a((g4
g6
g8
g113
g10
g12
g16
g109
g20
g67
g24
g69
g26
g28
tp4216
(g360
g326
tp4217
(g2
g8
g113
g12
g109
g20
g24
g28
tp4218
tp4219
a((g73
g6
g8
g16
g18
g109
g20
g22
g69
g26
g28
tp4220
(g913
g1400
tp4221
(g4
g6
g113
g16
g20
g22
g26
tp4222
tp4223
a((g73
g2
g4
g8
g10
g18
g75
g109
g20
g22
g24
g26
tp4224
(g679
g1073
tp4225
(g2
g4
g113
g14
g18
g109
g22
g24
g26
tp4226
tp4227
a((g2
g4
g6
g8
g113
g10
g12
g14
g16
g18
g75
g22
g24
g69
g26
g28
tp4228
(g198
g468
tp4229
(g113
g14
g16
g75
g109
g20
tp4230
tp4231
a((g73
g2
g6
g8
g16
g22
g69
g26
g28
tp4232
(g345
tp4233
(g6
g14
g16
g26
g28
tp4234
tp4235
a((g73
g2
g4
g6
g8
g113
g10
g12
g14
g75
g109
g20
g22
g67
g69
tp4236
(g164
g239
tp4237
(g73
g2
g6
g8
g12
g14
g18
g22
g28
tp4238
tp4239
a((g2
g4
g113
g10
g12
g16
g18
g24
g28
tp4240
(g468
g1291
g1276
tp4241
(g113
g10
g12
g16
g18
g20
g22
tp4242
tp4243
a((g73
g2
g113
g10
g12
g14
g16
g75
g109
g22
g24
g69
g26
g28
tp4244
(g134
g239
tp4245
(g73
g8
g18
g75
g22
g24
g26
g28
tp4246
tp4247
a((g2
g4
g6
g8
g12
g16
g18
g109
g20
g22
g67
g69
g26
g28
tp4248
(g1346
tp4249
(g4
g6
g8
g10
g12
g16
g20
g67
g69
tp4250
tp4251
a((g73
g2
g4
g6
g8
g113
g12
g14
g18
g109
g20
g22
g24
g69
g26
g28
tp4252
(g438
tp4253
(g73
g2
g4
g6
g10
g12
g20
g26
g28
tp4254
tp4255
a((g73
g2
g4
g6
g10
g12
g18
g109
g20
g22
g24
g69
g26
g28
tp4256
(g1310
tp4257
(g73
g2
g6
g10
g16
g69
tp4258
tp4259
a((g2
g4
g8
g113
g10
g12
g14
g16
g18
g75
g109
g22
g67
g24
g69
g26
g28
tp4260
(g837
tp4261
(g2
g6
g8
g12
g14
g18
g75
g26
tp4262
tp4263
a((g73
g4
g6
g8
g113
g10
g12
g16
g109
g20
g22
g67
g24
g69
g26
tp4264
(g791
tp4265
(g73
g6
g8
g16
g22
g67
g24
g69
g28
tp4266
tp4267
a((g2
g6
g8
g10
g12
g14
g16
g18
g20
g22
g67
g69
g26
g28
tp4268
(g913
g256
tp4269
(g2
g6
g113
g10
g16
g109
g20
g67
g69
g26
tp4270
tp4271
a((g73
g4
g6
g8
g113
g10
g14
g16
g109
g20
g67
g26
tp4272
(g3832
(istructures.domain
Action
p4273
(dp4274
g32
(lp4275
(S'at_x4'
p4276
tp4277
a(S'at_y1'
p4278
tp4279
asg38
(lp4280
(S'at_x3'
p4281
tp4282
asg42
(tsg43
(lp4283
(S'at_x4'
p4284
tp4285
asg47
I0
sg48
(lp4286
sg50
S'move_4_1_3_1'
p4287
sbtp4288
(g12
g14
g16
g28
tp4289
tp4290
a((g73
g2
g4
g6
g113
g12
g14
g16
g22
g67
g24
g28
tp4291
(g198
g438
g303
tp4292
(g2
g4
g6
g10
g12
g14
g16
g24
g26
tp4293
tp4294
a((g6
g8
g113
g14
g18
g22
g67
g24
g69
g28
tp4295
(g1346
g635
tp4296
(g73
g10
g67
tp4297
tp4298
a((g73
g4
g8
g113
g12
g16
g18
g75
g109
g20
g67
g24
g69
tp4299
(g791
g303
tp4300
(g8
g113
g75
g109
g20
g26
g28
tp4301
tp4302
a((g4
g113
g10
g18
g75
g109
g22
g67
g24
g69
g26
g28
tp4303
(g290
g1310
tp4304
(g10
g12
g16
g18
g75
g24
g26
tp4305
tp4306
a((g2
g6
g113
g10
g16
g75
g109
g20
g22
g67
g24
g69
g26
tp4307
(g134
g147
tp4308
(g73
g2
g6
g8
g75
g109
g20
g22
g24
g26
tp4309
tp4310
a((g4
g6
g113
g10
g12
g16
g75
g20
g22
g67
g24
tp4311
(g211
g30
tp4312
(g73
g6
g16
g75
g22
g69
tp4313
tp4314
a((g73
g4
g6
g113
g10
g14
g18
g75
g22
g67
g24
g28
tp4315
(g134
g759
tp4316
(g2
g6
g8
g10
g14
g18
g22
g67
tp4317
tp4318
a((g2
g4
g8
g113
g10
g12
g16
g18
g75
g20
g22
g67
g69
g28
tp4319
(g198
g1048
tp4320
(g2
g4
g6
g8
g113
g10
g12
g18
g75
g109
g67
g69
g28
tp4321
tp4322
a((g73
g2
g4
g113
g12
g14
g16
g75
g20
g22
g67
g24
g69
g26
tp4323
(g198
g1276
tp4324
(g4
g16
g75
g109
g20
g22
g67
tp4325
tp4326
a((g73
g2
g8
g113
g10
g12
g14
g16
g18
g75
g20
g22
g67
g24
g69
g26
g28
tp4327
(g591
tp4328
(g2
g4
g113
g16
g18
tp4329
tp4330
a((g73
g4
g6
g8
g113
g12
g18
g75
g109
g20
g67
g24
g28
tp4331
(g438
g303
tp4332
(g113
g10
g18
g109
g67
g24
g26
g28
tp4333
tp4334
a((g2
g4
g10
g12
g16
g75
g22
g67
g24
g69
g26
tp4335
(g198
g468
g3281
tp4336
(g2
g12
g14
g75
g109
g20
g67
g69
g26
tp4337
tp4338
a((g73
g2
g4
g8
g14
g16
g20
g22
g67
g26
g28
tp4339
(g198
g1138
g2059
tp4340
(g2
g4
g8
g10
g16
g75
g67
g28
tp4341
tp4342
a((g73
g4
g8
g113
g18
g109
g67
g24
g69
g28
tp4343
(g303
g837
tp4344
(g73
g6
g8
g109
g24
g26
g28
tp4345
tp4346
a((g73
g2
g4
g6
g10
g14
g18
g75
g109
tp4347
(g778
tp4348
(g73
g2
g75
g109
g67
tp4349
tp4350
a((g73
g2
g4
g6
g8
g10
g12
g16
g75
g20
g67
g28
tp4351
(g521
g30
tp4352
(g73
g4
g8
g10
g12
g67
g69
g28
tp4353
tp4354
a((g73
g4
g8
g113
g14
g18
g20
g22
g26
g28
tp4355
(g198
g438
g1138
tp4356
(g10
g14
g18
g75
g20
g26
tp4357
tp4358
a((g2
g4
g8
g10
g12
g14
g16
g18
g109
g20
g24
tp4359
(g211
g837
tp4360
(g73
g2
g4
g6
g12
g14
g109
g20
tp4361
tp4362
a((g73
g2
g4
g6
g10
g12
g14
g18
g75
g67
g24
g69
tp4363
(g1276
g1359
tp4364
(g4
g6
g12
g14
g16
g22
g67
tp4365
tp4366
a((g73
g2
g4
g12
g14
g16
g18
g109
g22
g67
g24
g26
g28
tp4367
(g698
g77
tp4368
(g4
g8
g16
g18
g69
g26
tp4369
tp4370
a((g73
g2
g4
g6
g113
g12
g16
g18
g109
g22
g24
g26
tp4371
(g77
g3281
tp4372
(g6
g14
g16
g18
g109
g24
g69
tp4373
tp4374
a((g73
g2
g4
g6
g8
g113
g12
g16
g18
g109
g20
g22
g24
g69
g26
tp4375
(g1138
tp4376
(g73
g2
g4
g8
g12
g75
g22
tp4377
tp4378
a((g73
g2
g113
g10
g14
g18
g109
g20
g22
g24
g28
tp4379
(g974
g1138
tp4380
(g73
g4
g10
g14
g75
g24
tp4381
tp4382
a((g8
g10
g16
g18
g75
g109
g20
g67
g24
tp4383
(g679
g147
g115
tp4384
(g73
g2
g113
g18
tp4385
tp4386
a((g2
g4
g8
g16
g22
g24
g28
tp4387
(g198
g468
g837
tp4388
(g6
g109
g20
tp4389
tp4390
a((g73
g2
g4
g113
g12
g14
g75
g20
g67
g24
g26
tp4391
(g698
g736
tp4392
(g4
g8
g113
g16
g26
tp4393
tp4394
a((g2
g4
g6
g8
g113
g14
g16
g75
g22
g67
g69
tp4395
(g198
g717
tp4396
(g2
g4
g8
g14
g16
g18
g75
g109
g67
g69
tp4397
tp4398
a((g2
g4
g6
g8
g10
g14
g18
g75
g109
g20
g67
g24
g69
g28
tp4399
(g913
g303
tp4400
(g4
g6
g113
g14
g18
g75
g24
g69
g26
tp4401
tp4402
a((g73
g2
g4
g113
g10
g14
g16
g109
g20
g22
g24
g69
g26
g28
tp4403
(g1138
tp4404
(g4
g113
g10
g14
g16
g75
g20
g22
g28
tp4405
tp4406
a((g73
g4
g6
g8
g10
g14
g16
g75
g109
g20
g22
g67
g26
tp4407
(g77
g1419
tp4408
(g73
g4
g8
g10
g14
g75
g20
g22
g69
g26
tp4409
tp4410
a((g73
g2
g4
g6
g8
g113
g10
g12
g14
g16
g18
g20
g26
g28
tp4411
(g400
g30
g1276
tp4412
(g73
g8
g12
g14
g20
g22
g26
tp4413
tp4414
a((g73
g2
g4
g113
g10
g14
g75
g109
g67
g24
g69
g26
tp4415
(g1310
tp4416
(g4
g113
g10
g14
g16
g109
g69
g26
tp4417
tp4418
a((g73
g2
g4
g10
g12
g14
g16
g18
g75
g109
g20
g67
g69
g26
tp4419
(g947
tp4420
(g73
g2
g4
g14
g75
g109
g69
g26
g28
tp4421
tp4422
a((g73
g2
g4
g6
g8
g113
g12
g14
g16
g18
g109
g22
g24
g26
g28
tp4423
(g438
tp4424
(g73
g2
g4
g10
g12
g16
g18
g109
g24
g26
tp4425
tp4426
a((g2
g113
g10
g14
g16
g18
g75
g20
g67
g24
g69
g26
g28
tp4427
(g2905
g1544
tp4428
(g2
g10
g18
g109
g22
g67
g24
tp4429
tp4430
a((g73
g2
g4
g8
g113
g10
g18
g109
g20
g67
g24
g26
g28
tp4431
(g1138
g30
tp4432
(g2
g4
g10
g18
g75
g69
g26
g28
tp4433
tp4434
a((g73
g2
g4
g113
g14
g18
g75
g109
g20
g67
g69
tp4435
(g1048
tp4436
(g73
g4
g6
g75
g109
g20
g67
g69
tp4437
tp4438
a((g73
g2
g4
g8
g113
g10
g12
g16
g20
g22
g24
g69
g26
tp4439
(g198
g791
tp4440
(g2
g8
g113
g10
g12
g16
g109
g20
g26
g28
tp4441
tp4442
a((g73
g2
g10
g12
g14
g75
g20
g24
g26
g28
tp4443
(g1291
g1048
tp4444
(g73
g2
g6
g12
g75
tp4445
tp4446
a((g73
g2
g4
g6
g8
g10
g14
g16
g75
g109
g20
g24
g26
g28
tp4447
(g1025
g30
tp4448
(g73
g4
g6
g12
g75
g20
g69
g26
tp4449
tp4450
a((g4
g113
g12
g18
g75
g109
g20
g24
g26
tp4451
(g791
g591
tp4452
(g4
g113
g12
g28
tp4453
tp4454
a((g4
g8
g113
g10
g12
g14
g16
g18
g75
g20
g22
g24
g69
tp4455
(g360
g993
tp4456
(g2
g4
g8
g113
g10
g12
g16
g20
g69
g26
tp4457
tp4458
a((g73
g4
g6
g8
g113
g10
g14
g75
g109
g20
g22
g67
g24
g69
g26
tp4459
(g791
g290
tp4460
(g8
g113
g10
g12
g75
g20
g24
tp4461
tp4462
a((g73
g6
g14
g109
g20
g22
g67
g24
g26
g28
tp4463
(g1172
g1962
tp4464
(g73
g8
g109
g67
g24
tp4465
tp4466
a((g73
g2
g4
g6
g8
g113
g12
g14
g16
g18
g75
g20
g22
g67
g69
g26
g28
tp4467
(g226
tp4468
(g73
g2
g8
g113
g10
g12
g18
g75
g69
tp4469
tp4470
a((g73
g2
g4
g6
g8
g10
g14
g109
g22
g67
g24
g26
g28
tp4471
(g736
tp4472
(g73
g6
g10
g16
g24
g28
tp4473
tp4474
a((g73
g2
g8
g12
g14
g16
g18
g75
g109
g22
tp4475
(g1812
tp4476
(g73
g2
g14
g18
g75
g22
g26
tp4477
tp4478
a((g73
g2
g8
g16
g75
g109
g20
g24
g26
tp4479
(g591
g239
tp4480
(g4
g18
g109
tp4481
tp4482
a((g2
g4
g6
g12
g14
g16
g18
g69
tp4483
(g164
g698
g451
tp4484
(g73
g8
g14
g16
g18
g69
g28
tp4485
tp4486
a((g2
g8
g113
g12
g16
g18
g109
g20
g67
g69
g28
tp4487
(g438
tp4488
(g2
g8
g10
g109
g20
g28
tp4489
tp4490
a((g113
g12
g14
g16
g18
g75
g109
g22
g24
g69
g26
g28
tp4491
(g438
g211
tp4492
(g73
g113
g10
g12
g14
g16
g18
g75
g22
g24
g69
tp4493
tp4494
a((g2
g6
g8
g113
g12
g14
g16
g18
g75
g109
g20
g24
g28
tp4495
(g271
tp4496
(g2
g6
g12
g16
g109
g20
g67
g24
g28
tp4497
tp4498
a((g73
g8
g113
g12
g14
g16
g18
g75
g109
g20
g24
g26
g28
tp4499
(g1291
g1048
tp4500
(g73
g6
g16
g18
g69
g26
g28
tp4501
tp4502
a((g2
g4
g6
g8
g12
g16
g75
g109
g20
g22
g67
g28
tp4503
(g536
tp4504
(g6
g12
g22
g67
g26
g28
tp4505
tp4506
a((g73
g2
g4
g10
g12
g16
g75
g109
g20
g22
g69
tp4507
(g1048
tp4508
(g2
g4
g6
g10
g12
g16
g20
g69
tp4509
tp4510
a((g4
g6
g8
g113
g10
g12
g16
g18
g75
g20
g69
tp4511
(g1544
g451
tp4512
(g73
g16
g109
g20
tp4513
tp4514
a((g2
g6
g8
g12
g14
g16
g75
g109
g20
g22
g67
g69
tp4515
(g947
g2466
tp4516
(g6
g75
g109
g26
g28
tp4517
tp4518
a((g2
g8
g113
g14
g16
g20
g22
g67
g69
g26
tp4519
(g894
g1048
tp4520
(g2
g6
g12
g16
g20
g67
g69
tp4521
tp4522
a((g2
g4
g10
g12
g14
g16
g18
g75
g109
g20
g67
g24
g69
tp4523
(g1419
tp4524
(g2
g4
g10
g12
g75
g20
g22
g67
g69
tp4525
tp4526
a((g6
g8
g113
g10
g16
g18
g75
g109
g22
g24
g69
g26
g28
tp4527
(g1400
g468
tp4528
(g18
g75
g109
g20
g26
tp4529
tp4530
a((g8
g113
g22
g67
g24
g26
tp4531
(g879
g736
g400
tp4532
(g8
g16
g22
g24
g26
tp4533
tp4534
a((g73
g2
g4
g6
g8
g10
g14
g16
g75
g109
g20
g22
g24
g69
g28
tp4535
(g717
tp4536
(g73
g2
g4
g6
g10
g16
g18
g109
g20
g69
tp4537
tp4538
a((g73
g2
g4
g6
g8
g12
g14
g16
g18
g75
g109
g22
g24
g26
g28
tp4539
(g468
g1115
tp4540
(g2
g6
g14
g16
g75
g109
g20
g24
g69
g28
tp4541
tp4542
a((g73
g2
g4
g8
g113
g10
g14
g109
g20
g22
g24
g69
g26
tp4543
(g791
g736
tp4544
(g2
g8
g113
g10
g16
g109
g20
g24
g28
tp4545
tp4546
a((g73
g2
g4
g8
g113
g10
g14
g16
g22
g67
g24
g69
g28
tp4547
(g717
g837
tp4548
(g73
g4
g6
g18
g67
tp4549
tp4550
a((g2
g4
g6
g8
g14
g18
g75
g20
g22
g67
g24
g26
g28
tp4551
(g77
g1098
tp4552
(g6
g10
g14
g75
g20
g67
g24
g69
g28
tp4553
tp4554
a((g73
g113
g14
g16
g18
g75
g109
g22
g67
g26
tp4555
(g134
tp4556
(g8
g16
g18
g75
g109
g22
g67
g26
tp4557
tp4558
a((g73
g2
g4
g6
g8
g113
g10
g75
g109
g20
g67
g69
g26
g28
tp4559
(g290
g717
tp4560
(g73
g4
g8
g10
g12
g18
g75
g20
g67
g69
g26
tp4561
tp4562
a((g2
g4
g6
g8
g10
g12
g14
g18
g109
g22
g24
g69
g26
g28
tp4563
(g211
tp4564
(g73
g2
g10
g14
g18
g109
g22
g26
tp4565
tp4566
a((g6
g8
g10
g16
g109
g67
g69
g26
g28
tp4567
(g290
g451
g913
tp4568
(g73
g113
g12
g16
g109
g67
g26
tp4569
tp4570
a((g73
g2
g4
g6
g8
g113
g12
g14
g16
g18
g22
g24
g69
g26
g28
tp4571
(g226
g52
tp4572
(g73
g6
g8
g10
g12
g22
g67
g69
g28
tp4573
tp4574
a((g2
g4
g6
g8
g113
g10
g12
g14
g18
g75
g109
g67
g24
g26
g28
tp4575
(g468
g1907
tp4576
(g4
g113
g10
g12
g18
g20
g67
g26
tp4577
tp4578
a((g73
g2
g6
g113
g10
g18
g75
g109
g20
g22
g24
g26
g28
tp4579
(g618
g591
tp4580
(g4
g6
g113
g14
g18
g75
g26
g28
tp4581
tp4582
a((g2
g6
g113
g10
g14
g16
g18
g20
g22
g69
g26
g28
tp4583
(g290
g326
g974
tp4584
(g2
g4
g113
g10
g12
g16
g18
g24
tp4585
tp4586
a((g73
g2
g4
g8
g113
g10
g12
g16
g18
g109
g22
g69
g28
tp4587
(g345
tp4588
(g4
g113
g14
g16
g69
g28
tp4589
tp4590
a((g73
g4
g8
g10
g12
g18
g75
g109
g20
g22
g24
g28
tp4591
(g30
g1048
tp4592
(g4
g6
g8
g75
g22
g69
tp4593
tp4594
a((g2
g6
g8
g18
g75
g109
g24
g69
g26
g28
tp4595
(g736
g1705
tp4596
(g16
g75
g22
g24
g69
g26
g28
tp4597
tp4598
a((g2
g4
g8
g113
g10
g12
g14
g18
g75
g109
g20
g67
g24
g69
g26
g28
tp4599
(g837
tp4600
(g2
g4
g6
g8
g75
g109
g69
g26
g28
tp4601
tp4602
a((g6
g8
g113
g12
g14
g16
g75
g109
g22
g67
g24
g28
tp4603
(g1648
tp4604
(g6
g14
g16
g18
g24
tp4605
tp4606
a((g73
g4
g6
g113
g14
g18
g75
g20
g22
g24
tp4607
(g198
g303
tp4608
(g4
g109
g20
g26
tp4609
tp4610
a((g2
g4
g6
g8
g14
g16
g75
g109
g20
g22
g24
g69
tp4611
(g1025
g536
tp4612
(g2
g4
g6
g12
g16
g20
g22
g24
g69
g26
tp4613
tp4614
a((g73
g2
g6
g8
g10
g12
g14
g18
g75
g109
g20
g67
g24
g26
g28
tp4615
(g1907
tp4616
(g2
g4
g8
g14
g18
g20
g24
tp4617
tp4618
a((g2
g4
g6
g8
g113
g10
g16
g18
g75
g20
g22
g24
g28
tp4619
(g618
g271
tp4620
(g4
g113
g10
g14
g18
g75
g67
g28
tp4621
tp4622
a((g73
g2
g6
g8
g10
g12
g14
g16
g109
g20
g22
g67
g24
g69
g26
g28
tp4623
(g913
tp4624
(g2
g6
g113
g10
g12
g22
g26
tp4625
tp4626
a((g73
g2
g4
g6
g113
g10
g12
g16
g18
g75
g109
g22
g69
g26
tp4627
(g860
g3281
tp4628
(g2
g113
g12
g14
g18
g20
g26
tp4629
tp4630
a((g2
g4
g6
g8
g12
g14
g16
g75
g109
g20
g67
g69
tp4631
(g164
g2059
tp4632
(g6
g10
g12
g75
g109
g67
g69
tp4633
tp4634
a((g73
g2
g4
g6
g113
g12
g16
g18
g75
g20
g22
g24
g69
g28
tp4635
(g993
tp4636
(g73
g2
g6
g113
g12
g75
g20
g22
g69
g26
g28
tp4637
tp4638
a((g73
g2
g4
g6
g8
g10
g14
g18
g109
g20
g22
g67
g24
g69
tp4639
(g1138
g736
tp4640
(g2
g6
g10
g16
g75
g20
tp4641
tp4642
a((g73
g2
g4
g6
g8
g113
g18
g75
g109
g20
g22
g67
g24
g28
tp4643
(g618
g303
tp4644
(g73
g6
g113
g14
g18
g67
g24
g26
tp4645
tp4646
a((g73
g2
g4
g6
g8
g113
g10
g12
g16
g75
g109
g22
g69
g26
tp4647
(g326
g1073
tp4648
(g4
g6
g12
g14
g75
g109
g24
tp4649
tp4650
a((g73
g4
g8
g113
g10
g14
g16
g18
g75
g24
g69
tp4651
(g837
tp4652
(g73
g6
g14
g18
g75
g24
tp4653
tp4654
a((g6
g8
g113
g10
g14
g18
g24
g69
g26
g28
tp4655
(g635
tp4656
(g73
g8
g113
g10
g14
g18
g24
g28
tp4657
tp4658
a((g73
g4
g6
g8
g113
g14
g16
g75
g109
g22
g67
g24
g69
g26
tp4659
(g468
tp4660
(g73
g6
g75
g109
g20
g67
g24
g69
tp4661
tp4662
a((g2
g6
g113
g12
g14
g16
g109
g20
g22
g67
g24
g69
g28
tp4663
(g487
tp4664
(g2
g12
g16
g75
g67
tp4665
tp4666
a((g73
g4
g6
g113
g14
g18
g75
g109
g20
g22
g24
g69
g26
g28
tp4667
(g438
g379
tp4668
(g4
g6
g113
g10
g16
g18
g75
g109
g24
g69
g28
tp4669
tp4670
a((g4
g8
g12
g18
g75
g109
g22
g69
g26
g28
tp4671
(g1346
g860
tp4672
(g8
g10
g20
g22
g69
tp4673
tp4674
a((g73
g6
g113
g12
g16
g18
g75
g20
g22
g26
tp4675
(g664
g1346
tp4676
(g8
g113
g10
g16
g75
g22
tp4677
tp4678
a((g2
g6
g8
g113
g10
g12
g75
g109
g20
g67
g24
g69
g28
tp4679
(g591
tp4680
(g2
g4
g8
g113
g10
g109
g67
g69
g28
tp4681
tp4682
a((g73
g2
g4
g113
g10
g18
g109
g20
g67
g69
g26
g28
tp4683
(g345
tp4684
(g4
g10
g14
g18
g20
g67
g26
g28
tp4685
tp4686
a((g2
g6
g113
g10
g12
g16
g75
g109
g22
g67
g24
g69
g26
g28
tp4687
(g345
g1648
tp4688
(g2
g113
g14
g16
g18
g109
g67
g24
g28
tp4689
tp4690
a((g73
g4
g8
g10
g12
g14
g16
g18
g109
g20
g22
g26
g28
tp4691
(g77
g1419
tp4692
(g8
g10
g12
g14
g18
g20
g22
g69
g26
g28
tp4693
tp4694
a((g73
g4
g12
g14
g16
g18
g75
g109
g22
g67
g24
g26
tp4695
(g791
g360
tp4696
(g2
g12
g14
g16
g18
g75
g22
g28
tp4697
tp4698
a((g6
g113
g10
g14
g75
g109
g20
g67
g24
g69
tp4699
(g2905
g115
tp4700
(g2
g10
g75
g20
g22
g67
tp4701
tp4702
a((g2
g6
g113
g14
g75
g20
g22
g67
g24
g69
g28
tp4703
(g290
g1544
tp4704
(g2
g12
g14
g109
g67
g24
tp4705
tp4706
a((g73
g4
g6
g10
g16
g18
g109
g22
g67
g69
g26
g28
tp4707
(g1138
g345
tp4708
(g10
g14
g75
g22
g26
tp4709
tp4710
a((g73
g4
g6
g8
g10
g12
g14
g16
g18
g75
g24
g69
g26
tp4711
(g92
tp4712
(g73
g6
g10
g16
g109
g24
g69
tp4713
tp4714
a((g73
g2
g4
g6
g8
g12
g14
g18
g75
g20
g22
g24
tp4715
(g679
g1359
tp4716
(g73
g113
g16
g75
g22
g24
tp4717
tp4718
a((g73
g2
g6
g8
g14
g16
g18
g75
g109
g20
g22
g67
g69
tp4719
((istructures.domain
Action
p4720
(dp4721
g32
(lp4722
(S'at_x5'
p4723
tp4724
a(S'at_y3'
p4725
tp4726
asg38
(lp4727
(S'at_y4'
p4728
tp4729
asg42
(tsg43
(lp4730
(S'at_y3'
p4731
tp4732
asg47
I0
sg48
(lp4733
sg50
S'move_5_3_5_4'
p4734
sbg2191
tp4735
(g2
g8
g14
g75
g67
g24
g69
tp4736
tp4737
a((g2
g6
g8
g10
g12
g14
g16
g22
g67
g69
tp4738
(g326
tp4739
(g2
g6
g8
g12
g14
g16
g22
g67
g24
tp4740
tp4741
a((g73
g6
g8
g10
g12
g16
g18
g109
g20
g22
g67
g24
g69
g26
tp4742
(g974
tp4743
(g73
g4
g6
g12
g67
g24
g69
g26
tp4744
tp4745
a((g2
g4
g113
g14
g16
g109
g22
g67
g24
g69
g26
g28
tp4746
(g438
g635
tp4747
(g73
g2
g4
g113
g10
g14
g109
g69
tp4748
tp4749
a((g2
g4
g6
g113
g10
g12
g16
g75
g67
g69
g26
tp4750
(g134
g326
tp4751
(g6
g8
g67
g24
g26
tp4752
tp4753
a((g73
g2
g4
g6
g8
g113
g12
g14
g16
g75
g20
g67
g69
g28
tp4754
(g326
g239
tp4755
(g4
g6
g8
g14
g18
g75
g24
tp4756
tp4757
a((g73
g2
g6
g113
g12
g16
g75
g22
g69
g28
tp4758
(g134
g239
tp4759
(g2
g6
g8
g16
g18
g22
g69
g28
tp4760
tp4761
a((g2
g4
g6
g113
g10
g16
g18
g67
g69
g28
tp4762
(g290
g326
g211
tp4763
(g73
g2
g12
g16
g18
g67
tp4764
tp4765
a((g2
g4
g6
g113
g10
g14
g16
g18
g75
g109
g20
g67
g24
g69
g28
tp4766
(g147
tp4767
(g73
g4
g113
g14
g16
g18
g75
g109
g67
g28
tp4768
tp4769
a((g2
g4
g6
g8
g113
g10
g12
g14
g16
g75
g20
g22
g67
g24
g69
g26
g28
tp4770
(g211
tp4771
(g73
g2
g4
g8
g10
g20
g24
g26
tp4772
tp4773
a((g4
g8
g10
g12
g14
g16
g18
g75
g109
g22
g67
g24
g69
g28
tp4774
(g536
tp4775
(g4
g8
g10
g18
g75
g22
g69
g26
tp4776
tp4777
a((g2
g6
g113
g10
g12
g14
g18
g75
g109
g22
g67
tp4778
(g947
g303
tp4779
(g2
g113
g10
g14
g109
g22
g67
g26
g28
tp4780
tp4781
a((g73
g4
g8
g113
g10
g12
g14
g16
g109
g20
g22
g24
tp4782
(g1138
g502
tp4783
(g73
g4
g14
g16
g75
g20
g22
g24
g28
tp4784
tp4785
a((g73
g6
g8
g10
g12
g109
g20
g69
g28
tp4786
(g1276
tp4787
(g73
g8
g10
g109
g20
g22
tp4788
tp4789
a((g2
g4
g6
g8
g113
g10
g14
g18
g67
g69
g28
tp4790
((istructures.domain
Action
p4791
(dp4792
g32
(lp4793
(S'at_x4'
p4794
tp4795
a(S'at_y5'
p4796
tp4797
asg38
(lp4798
(S'at_x5'
p4799
tp4800
asg42
(tsg43
(lp4801
(S'at_x4'
p4802
tp4803
asg47
I0
sg48
(lp4804
sg50
S'move_4_5_5_5'
p4805
sbtp4806
(g113
g20
g67
g69
tp4807
tp4808
a((g73
g2
g4
g113
g10
g16
g18
g75
g109
g20
g22
g67
g24
g69
g28
tp4809
(g290
g1048
tp4810
(g73
g6
g12
g18
g20
g22
g24
tp4811
tp4812
a((g6
g113
g10
g12
g16
g18
g20
g67
g24
g69
g26
tp4813
(g211
g3281
tp4814
(g73
g6
g10
g14
g67
g24
g26
tp4815
tp4816
a((g73
g4
g6
g113
g10
g18
g75
g22
g24
g26
g28
tp4817
(g134
g1025
tp4818
(g4
g6
g12
g18
g75
g22
g26
g28
tp4819
tp4820
a((g73
g2
g4
g8
g10
g12
g16
g18
g75
g109
g67
g24
g69
g26
g28
tp4821
(g468
g1419
tp4822
(g73
g8
g12
g16
g75
g20
g22
g67
g24
g69
tp4823
tp4824
a((g73
g2
g4
g6
g12
g14
g16
g75
g20
g22
g24
g69
tp4825
(g698
g993
tp4826
(g2
g8
g75
g24
g69
g26
tp4827
tp4828
a((g73
g2
g4
g6
g113
g14
g24
g69
g26
tp4829
(g226
g717
tp4830
(g4
g10
g14
g18
g24
tp4831
tp4832
a((g73
g2
g4
g6
g8
g113
g10
g14
g16
g75
g109
g67
g24
g26
g28
tp4833
(g1025
g134
tp4834
(g2
g8
g10
g12
g16
g75
g109
g28
tp4835
tp4836
a((g4
g8
g113
g10
g12
g14
g16
g20
g22
g67
g24
g69
g28
tp4837
(g198
g1138
tp4838
(g4
g113
g10
g12
g14
g16
g75
tp4839
tp4840
a((g73
g2
g4
g6
g8
g10
g12
g14
g16
g75
g109
g20
g22
g69
g28
tp4841
(g913
g326
tp4842
(g73
g2
g4
g6
g113
g12
g14
g16
g109
g24
g28
tp4843
tp4844
a((g2
g4
g6
g8
g113
g12
g14
g16
g18
g109
g20
g67
g24
g28
tp4845
(g438
g303
tp4846
(g8
g113
g10
g18
g26
g28
tp4847
tp4848
a((g73
g4
g8
g113
g12
g14
g16
g109
g22
g67
g24
g69
g26
tp4849
(g717
g837
tp4850
(g4
g6
g113
g14
g18
g24
g69
tp4851
tp4852
a((g73
g8
g18
g109
g22
g67
g24
g69
g26
g28
tp4853
(g913
g1400
tp4854
(g4
g113
g22
g24
g69
g26
tp4855
tp4856
a((g73
g4
g6
g113
g16
g109
g67
g24
g69
g26
g28
tp4857
(g438
g290
g1962
tp4858
(g73
g6
g8
g113
g10
g16
g109
g24
g26
tp4859
tp4860
a((g73
g2
g4
g8
g113
g10
g12
g14
g16
g18
g20
g22
g67
g24
g69
g26
g28
tp4861
(g198
g837
tp4862
(g2
g4
g6
g10
g12
g14
g18
g109
g20
g69
g26
tp4863
tp4864
a((g73
g2
g4
g113
g10
g14
g16
g75
g109
g20
g22
g67
g69
g26
tp4865
(g400
g717
tp4866
(g4
g113
g10
g16
g18
g75
g109
g67
g24
g69
tp4867
tp4868
a((g4
g113
g16
g18
g75
g20
g22
g24
g69
g28
tp4869
(g1590
tp4870
(g113
g10
g18
g75
g22
g24
g69
g28
tp4871
tp4872
a((g4
g6
g8
g10
g12
g14
g18
g109
g20
g22
g24
g69
g26
g28
tp4873
(g360
g778
tp4874
(g2
g10
g109
g67
g26
tp4875
tp4876
a((g73
g2
g4
g6
g113
g10
g12
g16
g18
g75
g109
g20
g67
g26
g28
tp4877
(g698
tp4878
(g73
g4
g8
g113
g10
g75
g109
g28
tp4879
tp4880
a((g2
g4
g6
g8
g113
g16
g75
g22
g69
g26
g28
tp4881
(g400
g635
tp4882
(g73
g6
g8
g16
g22
g24
g69
g28
tp4883
tp4884
a((g73
g4
g6
g113
g10
g14
g16
g75
g20
g22
g24
g26
g28
tp4885
(g134
g271
tp4886
(g8
g14
g16
g67
g28
tp4887
tp4888
a((g73
g2
g4
g8
g113
g10
g12
g14
g16
g18
g75
g109
g22
g67
g24
g69
g26
g28
tp4889
(g837
tp4890
(g73
g2
g6
g10
g14
g18
g75
g22
g67
g69
g26
tp4891
tp4892
a((g73
g2
g4
g6
g8
g113
g10
g12
g14
g18
g22
g24
tp4893
(g468
tp4894
(g73
g8
g113
g14
g18
g20
g24
tp4895
tp4896
a((g73
g2
g8
g10
g14
g18
g75
g109
g22
g67
g24
g69
tp4897
(g837
tp4898
(g6
g10
g14
g18
g109
g22
g67
tp4899
tp4900
a((g73
g4
g8
g113
g10
g16
g18
g75
g109
g20
g67
g24
g69
g28
tp4901
(g2905
g759
tp4902
(g2
g10
g16
g20
g22
tp4903
tp4904
a((g73
g6
g8
g113
g10
g14
g109
g20
g67
g24
g69
tp4905
(g2905
tp4906
(g73
g8
g113
g22
tp4907
tp4908
a((g4
g6
g113
g10
g12
g14
g18
g109
g67
g24
g69
g26
g28
tp4909
(g1276
g360
tp4910
(g2
g10
g18
g22
g26
g28
tp4911
tp4912
a((g73
g2
g8
g10
g14
g16
g75
g22
g67
g24
g26
g28
tp4913
(g679
g1238
g1627
tp4914
(g2
g113
g12
g16
g18
g22
g67
g26
tp4915
tp4916
a((g73
g2
g4
g8
g113
g12
g14
g16
g67
g69
tp4917
(g226
tp4918
(g2
g113
g10
g14
tp4919
tp4920
a((g2
g4
g6
g113
g16
g18
g75
g109
g67
g24
g28
tp4921
(g438
g134
tp4922
(g4
g6
g8
g10
g16
g18
g75
g109
g67
g24
tp4923
tp4924
a((g73
g6
g8
g10
g12
g16
g18
g75
g20
g24
g69
g26
g28
tp4925
(g360
g92
tp4926
(g2
g10
g12
g109
g20
g69
g28
tp4927
tp4928
a((g73
g2
g4
g6
g8
g10
g16
g75
g109
g67
g26
tp4929
(g679
g1627
g860
tp4930
(g2
g6
g113
g10
g18
g20
g26
tp4931
tp4932
a((g73
g2
g6
g113
g10
g14
g16
g75
g109
g20
g22
g67
g26
g28
tp4933
(g591
g1238
tp4934
(g73
g2
g4
g6
g113
g12
g14
g16
g67
tp4935
tp4936
a((g73
g4
g6
g8
g10
g12
g18
g75
g109
g22
g67
g24
g69
g26
tp4937
(g913
tp4938
(g4
g113
g12
g18
g67
g24
g69
tp4939
tp4940
a((g73
g2
g4
g6
g8
g113
g12
g14
g16
g75
g109
g20
g22
g67
g26
g28
tp4941
(g438
tp4942
(g4
g6
g8
g10
g12
g16
g75
g109
g20
g22
g67
tp4943
tp4944
a((g2
g4
g8
g10
g12
g14
g18
g75
g109
g69
g26
tp4945
(g164
g1276
tp4946
(g2
g8
g14
g75
g22
g26
g28
tp4947
tp4948
a((g2
g6
g10
g12
g75
g20
g22
g67
g24
g69
g28
tp4949
(g698
g913
tp4950
(g113
g75
g20
g67
g24
g69
tp4951
tp4952
a((g73
g2
g4
g6
g8
g113
g10
g18
g75
g20
g22
g67
g24
g69
g28
tp4953
(g345
tp4954
(g2
g4
g14
g18
g20
g22
g67
g69
tp4955
tp4956
a((g4
g8
g10
g12
g16
g18
g75
g22
g67
g24
g69
tp4957
(g198
g360
tp4958
(g2
g8
g109
g67
tp4959
tp4960
a((g73
g2
g4
g8
g113
g12
g14
g16
g75
g109
g20
g22
g67
g24
g69
g26
g28
tp4961
(g717
tp4962
(g2
g113
g14
g18
g109
g69
tp4963
tp4964
a((g73
g2
g6
g8
g113
g14
g75
g20
g22
g69
tp4965
(g1010
g303
tp4966
(g73
g6
g8
g113
g75
g109
g20
g26
tp4967
tp4968
a((g73
g2
g8
g113
g14
g16
g18
g75
g109
g20
g22
g67
g24
g26
tp4969
(g591
g791
tp4970
(g8
g14
g16
g75
g109
g22
g67
g26
g28
tp4971
tp4972
a((g73
g2
g8
g113
g10
g12
g14
g75
g109
g20
g22
g24
g26
g28
tp4973
(g736
g271
tp4974
(g8
g113
g10
g14
g16
g75
g20
g22
g67
tp4975
tp4976
a((g2
g4
g8
g113
g10
g12
g14
g18
g75
g109
g22
g24
g69
g26
g28
tp4977
(g468
g837
tp4978
(g2
g6
g12
g20
g22
g24
g26
tp4979
tp4980
a((g73
g2
g6
g8
g113
g10
g12
g16
g18
g75
g109
g20
g67
g26
g28
tp4981
(g1419
g1544
tp4982
(g2
g113
g12
g16
g18
g109
g20
g22
g67
g28
tp4983
tp4984
a((g73
g2
g4
g6
g8
g113
g14
g16
g75
g20
g69
g26
g28
tp4985
(g928
g271
tp4986
(g73
g2
g4
g6
g8
g113
g14
g16
g67
g24
g26
g28
tp4987
tp4988
a((g2
g4
g6
g14
g75
g109
g20
g67
g24
g69
g28
tp4989
(g379
g147
tp4990
(g73
g2
g4
g16
g75
g20
g69
g28
tp4991
tp4992
a((g73
g2
g4
g6
g8
g10
g12
g14
g18
g109
g20
g22
g67
g24
g26
g28
tp4993
(g30
tp4994
(g73
g2
g4
g8
g109
g22
g67
g69
g26
tp4995
tp4996
a((g73
g2
g8
g113
g75
g109
g20
g69
g28
tp4997
(g345
g303
tp4998
(g73
g14
g75
g109
g69
g26
tp4999
tp5000
a((g4
g6
g8
g113
g12
g14
g16
g18
g109
g20
g22
g24
g69
g28
tp5001
(g360
tp5002
(g2
g8
g113
g12
g18
g109
g22
tp5003
tp5004
a((g73
g2
g4
g113
g10
g12
g14
g16
g18
g20
g22
g67
g24
tp5005
(g993
tp5006
(g73
g2
g12
g20
g67
g24
g26
tp5007
tp5008
a((g73
g2
g4
g6
g113
g10
g18
g20
g22
g24
g26
tp5009
(g198
g1310
tp5010
(g2
g6
g113
g16
g18
g109
g20
tp5011
tp5012
a((g2
g113
g10
g14
g16
g18
g75
g109
g20
g24
g69
g26
g28
tp5013
(g134
tp5014
(g2
g8
g10
g14
g18
g75
g109
g69
g26
g28
tp5015
tp5016
a((g73
g2
g4
g12
g109
g20
g22
g67
g69
g26
g28
tp5017
(g326
g1310
tp5018
(g73
g16
g109
g22
g67
g24
tp5019
tp5020
a((g73
g2
g4
g6
g8
g113
g12
g14
g16
g18
g75
g20
g69
g26
tp5021
(g1276
g271
tp5022
(g2
g6
g113
g12
g14
g75
g20
g22
g67
tp5023
tp5024
a((g73
g4
g8
g14
g16
g18
g75
g109
g67
g24
g69
g26
tp5025
(g791
tp5026
(g73
g16
g26
g28
tp5027
tp5028
a((g73
g2
g4
g6
g8
g113
g10
g14
g16
g18
g75
g109
g22
g67
g24
g26
tp5029
(g1025
tp5030
(g2
g113
g10
g12
g16
g75
g22
tp5031
tp5032
a((g73
g2
g113
g10
g14
g16
g18
g75
g20
tp5033
(g134
g591
g1025
tp5034
(g73
g4
g12
g16
tp5035
tp5036
a((g2
g4
g6
g8
g109
g20
g22
g24
tp5037
(g77
g717
tp5038
(g6
g8
g18
g109
g69
tp5039
tp5040
a((g6
g8
g10
g14
g16
g75
g109
g20
g22
g67
g24
g69
g26
tp5041
(g147
tp5042
(g73
g6
g16
g67
g24
tp5043
tp5044
a((g8
g113
g12
g14
g16
g18
g109
g20
g67
g24
g26
g28
tp5045
(g1419
g211
tp5046
(g73
g8
g12
g22
g67
g26
tp5047
tp5048
a((g4
g6
g113
g10
g14
g16
g18
g75
g109
g20
g67
g24
g69
g26
g28
tp5049
(g290
g211
tp5050
(g73
g113
g10
g12
g18
g75
g20
g67
g24
g69
g26
tp5051
tp5052
a((g2
g8
g113
g10
g12
g16
g75
g109
g20
g22
g24
g26
tp5053
(g239
tp5054
(g2
g113
g10
g12
g18
g75
g24
tp5055
tp5056
a((g73
g4
g18
g75
g109
g22
g67
g24
g69
g28
tp5057
(g536
tp5058
(g4
g109
g67
g24
g69
g26
g28
tp5059
tp5060
a((g73
g2
g4
g113
g10
g12
g14
g109
g20
g22
g67
g24
g69
g26
g28
tp5061
(g1310
tp5062
(g2
g4
g113
g14
g16
g20
g22
g69
tp5063
tp5064
a((g2
g4
g6
g8
g10
g12
g14
g16
g75
g20
g24
g28
tp5065
(g92
g536
tp5066
(g2
g4
g6
g8
g12
g16
g20
g26
g28
tp5067
tp5068
a((g73
g2
g4
g113
g10
g12
g14
g18
g75
g109
g22
g67
g24
g69
g26
g28
tp5069
(g134
g837
tp5070
(g2
g4
g6
g10
g12
g18
g109
g22
g24
g69
g26
g28
tp5071
tp5072
a((g73
g2
g4
g6
g113
g10
g14
g16
g18
g20
g22
g67
g24
tp5073
(g198
g303
g1138
tp5074
(g73
g14
g16
g75
g67
g26
tp5075
tp5076
a((g8
g113
g10
g12
g75
g22
g67
g24
g69
g26
g28
tp5077
(g360
g451
tp5078
(g73
g2
g12
tp5079
tp5080
a((g6
g8
g113
g10
g14
g16
g18
g75
g109
g20
g22
g24
g69
g26
g28
tp5081
(g1025
g211
tp5082
(g73
g6
g12
g18
g75
g109
g20
g69
g28
tp5083
tp5084
a((g2
g4
g6
g113
g12
g14
g16
g18
g75
g20
g22
g24
g69
g26
g28
tp5085
(g198
g271
tp5086
(g2
g4
g113
g75
g109
g67
g26
tp5087
tp5088
a((g2
g4
g6
g8
g113
g12
g14
g75
g20
g22
g67
g24
g26
tp5089
(g77
tp5090
(g6
g8
g113
g12
g69
g26
tp5091
tp5092
a((g4
g6
g8
g113
g10
g16
g18
g75
g109
g20
g67
g24
g69
g28
tp5093
(g345
tp5094
(g113
g14
g18
g109
g20
g67
g69
g28
tp5095
tp5096
a((g73
g2
g113
g10
g12
g16
g18
g75
g109
g20
g22
g24
g26
g28
tp5097
(g271
tp5098
(g73
g113
g16
g75
g109
g20
g22
g67
g26
g28
tp5099
tp5100
a((g2
g6
g8
g10
g12
g14
g16
g18
g20
g67
g24
g69
tp5101
(g947
g147
tp5102
(g73
g6
g8
g10
g14
g18
g20
g67
g69
g28
tp5103
tp5104
a((g73
g2
g4
g6
g8
g113
g14
g16
g75
g67
g24
g69
tp5105
(g226
g717
tp5106
(g2
g4
g8
g113
g10
g14
g16
g18
g75
g24
tp5107
tp5108
a((g8
g113
g12
g16
g75
g109
g20
g67
g24
g69
g26
g28
tp5109
(g360
g345
tp5110
(g2
g8
g113
g12
g14
g109
g20
g67
g69
g26
g28
tp5111
tp5112
a((g73
g2
g6
g8
g113
g14
g16
g109
g20
g67
g24
g69
g26
g28
tp5113
(g438
g239
tp5114
(g73
g113
g10
g16
g18
g24
g69
tp5115
tp5116
a((g73
g2
g4
g6
g8
g113
g16
g18
g20
g22
g69
g28
tp5117
(g928
tp5118
(g73
g2
g4
g113
g18
g22
g24
tp5119
tp5120
a((g73
g2
g4
g6
g10
g12
g16
g75
g109
g22
g67
g24
g26
g28
tp5121
(g698
g679
tp5122
(g4
g6
g113
g24
g26
g28
tp5123
tp5124
a((g2
g4
g6
g8
g10
g12
g14
g16
g18
g109
g22
g24
g26
g28
tp5125
(g1138
g211
tp5126
(g73
g2
g4
g6
g16
g75
g22
g26
g28
tp5127
tp5128
a((g73
g2
g6
g8
g10
g12
g14
g16
g18
g75
g109
g22
g67
g69
tp5129
(g913
g326
tp5130
(g73
g2
g6
g113
g14
g75
g109
g24
tp5131
tp5132
a((g73
g2
g4
g8
g113
g12
g16
g75
g109
g69
g28
tp5133
(g778
tp5134
(g4
g113
g12
g75
g109
g67
g28
tp5135
tp5136
a((g73
g2
g6
g8
g113
g12
g16
g109
g20
g24
g26
g28
tp5137
(g487
g1291
tp5138
(g8
g12
g16
g75
g20
g69
g26
tp5139
tp5140
a((g73
g2
g4
g6
g113
g14
g16
g22
g24
tp5141
(g198
g438
tp5142
(g2
g4
g6
g113
g10
g16
g109
tp5143
tp5144
a((g6
g8
g10
g12
g14
g20
g22
g24
g26
tp5145
(g1010
g487
g1359
tp5146
(g6
g14
g16
g75
g20
g26
tp5147
tp5148
a((g73
g2
g113
g10
g12
g14
g20
g22
g67
g24
g69
g26
tp5149
(g2262
tp5150
(g113
g12
g14
g109
g24
g26
tp5151
tp5152
a((g2
g4
g8
g113
g18
g75
g109
g28
tp5153
(g400
g30
tp5154
(g75
g69
g28
tp5155
tp5156
a((g2
g6
g113
g12
g18
g20
g22
g67
g28
tp5157
(g993
(istructures.domain
Action
p5158
(dp5159
g32
(lp5160
(S'at_x0'
p5161
tp5162
a(S'at_y2'
p5163
tp5164
asg38
(lp5165
(S'at_x1'
p5166
tp5167
asg42
(tsg43
(lp5168
(S'at_x0'
p5169
tp5170
asg47
I0
sg48
(lp5171
sg50
S'move_0_2_1_2'
p5172
sbtp5173
(g6
g8
g12
g18
g20
g22
g26
tp5174
tp5175
a((g8
g10
g12
g14
g18
g20
g69
g26
tp5176
(g326
g360
tp5177
(g2
g8
g10
g14
g18
g20
g26
tp5178
tp5179
a((g2
g6
g8
g113
g10
g12
g14
g16
g18
g109
g67
g24
g69
g28
tp5180
(g1323
tp5181
(g2
g6
g8
g10
g12
g16
g22
g67
g24
g69
g28
tp5182
tp5183
a((g73
g113
g12
g14
g16
g18
g20
g22
g67
g24
g26
g28
tp5184
(g1115
g1048
tp5185
(g73
g6
g12
g18
g67
g24
g69
g28
tp5186
tp5187
a((g73
g2
g8
g10
g12
g75
g109
g20
g67
g24
g69
g26
tp5188
(g736
g1724
tp5189
(g10
g14
g16
g75
g109
g20
g67
g24
g26
tp5190
tp5191
a((g73
g2
g4
g6
g8
g113
g75
g109
g22
g67
g26
g28
tp5192
(g438
g400
tp5193
(g4
g8
g10
g75
g109
g22
g67
g24
tp5194
tp5195
a((g73
g2
g4
g6
g8
g113
g12
g14
g75
g20
g22
g67
g24
g69
g26
g28
tp5196
(g226
g717
tp5197
(g73
g2
g6
g113
g10
g12
g14
g18
g20
g22
g67
tp5198
tp5199
a((g73
g6
g113
g10
g14
g16
g109
g20
g67
g24
g69
g28
tp5200
(g974
g759
tp5201
(g73
g2
g4
g113
g14
g16
g109
g67
tp5202
tp5203
a((g73
g2
g4
g6
g8
g113
g10
g12
g14
g18
g22
g26
g28
tp5204
(g198
g400
g1310
tp5205
(g73
g4
g8
g113
g12
g16
g109
g24
g28
tp5206
tp5207
a((g73
g2
g4
g6
g8
g14
g16
g18
g22
g67
g24
g26
g28
tp5208
(g77
g1098
tp5209
(g73
g4
g8
g10
g14
g16
g24
g69
g28
tp5210
tp5211
a((g73
g2
g8
g113
g10
g12
g14
g16
g18
g75
g109
g20
g24
g28
tp5212
(g591
g837
tp5213
(g2
g4
g6
g8
g10
g12
g14
g16
g18
g75
tp5214
tp5215
a((g8
g113
g10
g14
g16
g18
g75
g109
g28
tp5216
(g1907
g860
tp5217
(g8
g113
g18
g75
g109
g20
tp5218
tp5219
a((g2
g8
g10
g12
g14
g16
g18
g75
g22
g67
g24
g69
g26
g28
tp5220
(g913
tp5221
(g113
g14
g18
g67
g26
g28
tp5222
tp5223
a((g73
g4
g113
g12
g16
g18
g75
g109
g20
g22
g67
g69
g28
tp5224
(g326
g618
tp5225
(g113
g14
g16
g75
g20
g67
g24
g28
tp5226
tp5227
a((g73
g2
g4
g113
g14
g16
g18
g75
g20
g22
g24
g69
g26
tp5228
(g1544
g1048
tp5229
(g73
g6
g14
g16
g109
g22
g24
g26
tp5230
tp5231
a((g73
g4
g6
g8
g113
g10
g12
g75
g20
g22
g26
tp5232
(g1544
g2423
tp5233
(g73
g4
g6
g8
g113
g10
g109
g22
g28
tp5234
tp5235
a((g8
g113
g10
g12
g16
g18
g75
g109
g67
g24
g26
tp5236
(g502
g1025
tp5237
(g113
g12
g16
g18
g75
g109
g28
tp5238
tp5239
a((g73
g2
g4
g6
g12
g14
g22
g67
g69
g28
tp5240
(g198
g698
tp5241
(g2
g6
g8
g14
g109
g69
g28
tp5242
tp5243
a((g73
g2
g4
g12
g75
g109
g20
g22
g67
g69
g28
tp5244
(g345
g536
tp5245
(g73
g2
g14
g109
g22
g26
tp5246
tp5247
a((g2
g4
g113
g10
g12
g16
g18
g75
g109
g20
g67
g24
g69
g26
g28
tp5248
(g211
tp5249
(g73
g113
g10
g75
g109
g20
g69
tp5250
tp5251
a((g73
g2
g4
g6
g113
g10
g12
g16
g18
g75
g109
g20
g22
g24
g26
g28
tp5252
(g77
tp5253
(g2
g6
g113
g12
g75
g109
g69
g26
g28
tp5254
tp5255
a((g2
g6
g113
g10
g12
g14
g16
g18
g20
g22
g67
g69
tp5256
(g400
tp5257
(g6
g113
g12
g16
g18
g24
g69
tp5258
tp5259
a((g2
g4
g6
g8
g10
g12
g16
g18
g20
g22
g67
g24
g69
g26
tp5260
(g947
g345
tp5261
(g2
g4
g6
g10
g14
g16
g18
g67
g26
g28
tp5262
tp5263
a((g73
g2
g4
g6
g113
g10
g12
g14
g16
g75
g109
g20
g22
g67
g24
g69
tp5264
(g791
g134
tp5265
(g8
g10
g12
g75
g109
g20
g22
g67
g24
g69
g28
tp5266
tp5267
a((g2
g4
g6
g14
g16
g20
g67
g24
g28
tp5268
(g1172
tp5269
(g12
g16
g20
g24
tp5270
tp5271
a((g2
g4
g8
g113
g12
g14
g16
g18
g75
g109
g22
g67
g26
g28
tp5272
(g438
g860
tp5273
(g113
g10
g12
g14
g16
g18
g20
g22
g28
tp5274
tp5275
a((g73
g2
g4
g10
g12
g14
g16
g18
g109
g22
g24
g69
g26
g28
tp5276
(g778
g1138
tp5277
(g73
g10
g16
g75
g67
g24
g69
tp5278
tp5279
a((g73
g6
g16
g75
g20
g22
g67
g24
g26
g28
tp5280
(g618
g1648
g1115
tp5281
(g14
g18
g24
g69
tp5282
tp5283
a((g4
g6
g8
g113
g12
g14
g75
g109
g67
g69
g26
tp5284
(g717
tp5285
(g6
g113
g12
g14
g18
g75
g109
g67
g26
tp5286
tp5287
a((g2
g6
g113
g10
g12
g14
g16
g18
g109
g20
g22
g67
g24
g26
tp5288
(g698
tp5289
(g2
g6
g8
g113
g109
g20
g67
g24
g26
tp5290
tp5291
a((g73
g2
g4
g113
g10
g14
g18
g75
g20
g22
g67
g24
g69
g28
tp5292
(g290
tp5293
(g73
g113
g12
g75
g20
g22
tp5294
tp5295
a((g73
g2
g4
g6
g10
g12
g14
g16
g109
g67
g24
g69
g26
tp5296
(g1276
tp5297
(g73
g4
g10
g14
g22
g24
tp5298
tp5299
a((g73
g2
g4
g8
g10
g12
g16
g20
g22
g69
g26
g28
tp5300
(g326
g52
tp5301
(g2
g4
g10
g12
g22
g67
g24
g26
tp5302
tp5303
a((g73
g4
g6
g8
g113
g10
g12
g14
g16
g18
g75
g109
g20
g22
g24
g69
g26
tp5304
(g502
tp5305
(g4
g14
g18
g75
g20
g22
g69
g28
tp5306
tp5307
a((g2
g6
g8
g113
g12
g16
tp5308
(g226
g400
g211
tp5309
(g73
g6
g113
g10
tp5310
tp5311
a((g73
g2
g4
g6
g113
g10
g14
g18
g75
g109
g22
g67
g24
g69
g28
tp5312
(g134
g536
tp5313
(g2
g4
g6
g8
g14
g75
g24
g26
g28
tp5314
tp5315
a((g73
g2
g4
g8
g113
g10
g12
g16
g18
g109
g22
g67
g69
g26
tp5316
(g164
tp5317
(g2
g8
g10
g16
g109
g67
g26
g28
tp5318
tp5319
a((g2
g4
g8
g12
g14
g16
g18
g75
g109
g22
g24
g69
g26
g28
tp5320
(g468
g1346
tp5321
(g10
g12
g18
g20
g22
g24
g28
tp5322
tp5323
a((g73
g2
g4
g10
g14
g16
g18
g109
g20
g22
g24
g26
g28
tp5324
(g77
g1048
tp5325
(g73
g4
g6
g10
g14
g16
g18
g20
g24
g69
tp5326
tp5327
a((g2
g4
g6
g10
g18
g75
g109
g20
g69
g26
g28
tp5328
(g379
(istructures.domain
Action
p5329
(dp5330
g32
(lp5331
(S'at_x3'
p5332
tp5333
a(S'at_y5'
p5334
tp5335
asg38
(lp5336
(S'at_y4'
p5337
tp5338
asg42
(tsg43
(lp5339
(S'at_y5'
p5340
tp5341
asg47
I0
sg48
(lp5342
sg50
S'move_3_5_3_4'
p5343
sbtp5344
(g4
g16
g109
g20
g24
g69
tp5345
tp5346
a((g2
g6
g113
g10
g14
g16
g75
g20
g67
g26
g28
tp5347
(g1238
g1627
tp5348
(g6
g113
g10
g12
g16
g18
g75
g20
g67
tp5349
tp5350
a((g73
g4
g6
g16
g18
g75
g24
g26
tp5351
(g791
g2364
g2309
tp5352
(g16
g18
g75
g22
g26
g28
tp5353
tp5354
a((g73
g2
g4
g6
g113
g10
g14
g16
g18
g20
g67
g24
g69
g28
tp5355
(g2905
g198
tp5356
(g73
g2
g4
g6
g16
g18
g109
g20
g28
tp5357
tp5358
a((g73
g2
g4
g6
g113
g10
g12
g14
g16
g18
g20
g69
g26
tp5359
(g164
tp5360
(g6
g113
g10
g16
g20
g28
tp5361
tp5362
a((g73
g2
g4
g6
g113
g10
g14
g75
g109
g20
g22
g24
g69
g28
tp5363
(g717
tp5364
(g2
g6
g10
g18
g75
g20
g69
tp5365
tp5366
a((g2
g6
g113
g10
g16
g109
g20
g22
g24
g69
g26
g28
tp5367
(g974
g717
tp5368
(g4
g18
g109
g24
g69
g26
g28
tp5369
tp5370
a((g2
g4
g8
g12
g14
g18
g75
g20
g67
g69
g26
tp5371
(g736
g1048
tp5372
(g2
g4
g6
g14
g16
g69
g26
tp5373
tp5374
a((g73
g2
g6
g8
g113
g10
g12
g14
g16
g18
g75
g20
g22
g67
g24
g26
g28
tp5375
(g1010
tp5376
(g73
g6
g10
g12
g18
g75
g109
g26
tp5377
tp5378
a((g4
g6
g8
g113
g10
g12
g16
g20
g22
g24
g69
g28
tp5379
(g717
g993
tp5380
(g113
g10
g18
g20
g22
g24
g26
tp5381
tp5382
a((g73
g2
g4
g6
g113
g12
g16
g75
g20
g24
g28
tp5383
(g1073
tp5384
(g2
g6
g14
g16
g75
g20
g28
tp5385
tp5386
a((g2
g4
g14
g16
g109
g20
g22
g67
g69
g26
g28
tp5387
(g1138
g2059
tp5388
(g2
g10
g75
g69
g26
g28
tp5389
tp5390
a((g73
g2
g4
g8
g113
g14
g16
g75
g20
g69
g26
g28
tp5391
(g226
tp5392
(g2
g4
g10
g14
g16
g75
g28
tp5393
tp5394
a((g73
g2
g4
g113
g12
g14
g16
g18
g75
g20
g22
g67
tp5395
(g226
g134
tp5396
(g73
g8
g10
g12
g14
g16
g18
tp5397
tp5398
a((g73
g2
g113
g14
g109
g20
g22
g67
g24
g69
tp5399
(g438
g487
tp5400
(g2
g113
g10
g14
g75
g67
g69
tp5401
tp5402
a((g2
g4
g6
g8
g113
g10
g12
g14
g16
g75
g22
g67
g24
g26
g28
tp5403
(g198
g30
tp5404
(g4
g6
g8
g10
g12
g109
g69
tp5405
tp5406
a((g73
g113
g10
g18
g75
g109
g22
g67
g24
g26
g28
tp5407
(g379
tp5408
(g73
g113
g10
g16
g18
g75
g109
g24
g26
tp5409
tp5410
a((g73
g2
g6
g8
g113
g10
g14
g16
g18
g109
g20
g22
g67
g24
g69
tp5411
(g487
g1010
tp5412
(g73
g2
g8
g113
g10
g16
g75
g109
g24
g69
tp5413
tp5414
a((g73
g2
g4
g6
g113
g10
g12
g14
g16
g18
g109
g20
g22
g67
g24
g26
g28
tp5415
(g698
tp5416
(g4
g6
g8
g113
g10
g14
g18
g22
g67
g24
g26
tp5417
tp5418
a((g8
g113
g10
g12
g14
g18
g75
g109
g20
g22
g67
g24
g26
g28
tp5419
(g360
g1115
tp5420
(g2
g10
g12
g75
g69
tp5421
tp5422
a((g6
g113
g12
g16
g18
g75
g109
g20
g22
g24
tp5423
(g438
g134
g591
tp5424
(g4
g8
g10
g12
g16
g18
g75
g24
tp5425
tp5426
a((g73
g6
g8
g113
g12
g18
g109
g22
g67
g24
g69
g26
tp5427
(g360
g736
tp5428
(g73
g2
g8
g113
g12
g16
g67
g69
g26
tp5429
tp5430
a((g73
g2
g8
g10
g14
g16
g18
g109
g22
g26
g28
tp5431
((istructures.domain
Action
p5432
(dp5433
g32
(lp5434
(S'at_x1'
p5435
tp5436
a(S'at_y1'
p5437
tp5438
asg38
(lp5439
(S'at_y0'
p5440
tp5441
asg42
(tsg43
(lp5442
(S'at_y1'
p5443
tp5444
asg47
I0
sg48
(lp5445
sg50
S'move_1_1_1_0'
p5446
sbg52
tp5447
(g10
g75
g67
g26
tp5448
tp5449
a((g73
g2
g4
g6
g8
g16
g18
g75
g109
g20
g22
g67
g24
g28
tp5450
(g77
g536
tp5451
(g73
g4
g6
g8
g109
g20
g24
g69
g26
g28
tp5452
tp5453
a((g4
g6
g8
g113
g14
g16
g75
g20
g22
g24
tp5454
(g791
tp5455
(g6
g8
g113
g16
g20
g22
g28
tp5456
tp5457
a((g2
g4
g113
g10
g18
g22
g24
g26
tp5458
(g791
g618
tp5459
(g2
g14
g18
g22
g24
g28
tp5460
tp5461
a((g2
g4
g6
g113
g12
g14
g75
g109
g20
g22
g24
g69
tp5462
(g134
g271
tp5463
(g8
g14
g75
g109
g22
g67
g24
tp5464
tp5465
a((g73
g4
g6
g8
g113
g10
g12
g14
g16
g18
g75
g20
g67
g69
g28
tp5466
(g1544
tp5467
(g8
g113
g12
g14
g109
g69
tp5468
tp5469
a((g73
g4
g6
g8
g10
g14
g75
g109
g22
g67
g24
g69
g26
g28
tp5470
(g759
g717
tp5471
(g2
g4
g10
g14
g18
g75
g22
g26
tp5472
tp5473
a((g73
g4
g6
g8
g113
g10
g14
g109
g20
g67
g24
g69
g26
g28
tp5474
(g1138
g379
tp5475
(g8
g10
g14
g16
g75
g20
g67
g24
g26
g28
tp5476
tp5477
a((g73
g6
g8
g12
g14
g16
g18
g75
g22
g67
g24
g69
g26
g28
tp5478
(g1010
g1098
tp5479
(g73
g8
g10
g14
g16
g109
g67
g24
g69
tp5480
tp5481
a((g73
g2
g4
g6
g8
g12
g14
g16
g18
g75
g24
g26
g28
tp5482
(g30
tp5483
(g4
g8
g12
g18
g75
g69
g26
g28
tp5484
tp5485
a((g4
g6
g8
g10
g12
g16
g75
g20
g22
g67
g24
g69
g28
tp5486
(g993
tp5487
(g4
g6
g75
g24
g26
tp5488
tp5489
a((g4
g6
g10
g12
g16
g18
g75
g109
g67
g26
g28
tp5490
((istructures.domain
Action
p5491
(dp5492
g32
(lp5493
(S'at_x4'
p5494
tp5495
a(S'at_y1'
p5496
tp5497
asg38
(lp5498
(S'at_y2'
p5499
tp5500
asg42
(tsg43
(lp5501
(S'at_y1'
p5502
tp5503
asg47
I0
sg48
(lp5504
sg50
S'move_4_1_4_2'
p5505
sbg77
tp5506
(g4
g6
g10
g12
g75
g69
g26
tp5507
tp5508
a((g73
g4
g6
g8
g113
g10
g14
g16
g75
g20
g24
g69
g26
g28
tp5509
(g759
tp5510
(g2
g6
g8
g113
g10
g14
g16
g75
g20
g69
g28
tp5511
tp5512
a((g73
g4
g6
g8
g10
g12
g18
g75
g109
g24
g28
tp5513
(g679
g30
tp5514
(g73
g6
g113
g18
g75
g109
g69
g28
tp5515
tp5516
a((g73
g6
g8
g113
g10
g12
g14
g16
g109
g20
g22
g69
g28
tp5517
(g303
g52
tp5518
(g8
g113
g12
g14
g16
g67
g26
tp5519
tp5520
a((g73
g2
g4
g6
g8
g113
g10
g14
g18
g109
g22
g67
g26
g28
tp5521
(g860
g3186
tp5522
(g2
g4
g6
g14
g18
g20
g22
tp5523
tp5524
a((g113
g14
g16
g18
g75
g109
g22
g67
g24
g69
g28
tp5525
(g438
g134
g837
tp5526
(g6
g8
g10
g14
g109
g22
g67
g69
tp5527
tp5528
a((g73
g2
g4
g8
g113
g12
g14
g16
g75
g109
g20
g24
g69
g26
tp5529
(g791
g239
tp5530
(g2
g8
g113
g14
g18
g109
g24
g26
g28
tp5531
tp5532
a((g2
g6
g8
g113
g10
g16
g75
g20
g24
g69
g28
tp5533
(g290
g591
tp5534
(g2
g4
g6
g8
g10
g12
g24
tp5535
tp5536
a((g73
g4
g10
g14
g16
g18
g109
g20
g67
g24
g69
g28
tp5537
(g536
tp5538
(g10
g14
g109
g67
g24
g69
g26
g28
tp5539
tp5540
a((g73
g2
g4
g6
g8
g10
g14
g16
g18
g75
g109
g20
g69
g26
g28
tp5541
(g290
tp5542
(g2
g6
g8
g12
g75
g109
g69
tp5543
tp5544
a((g73
g6
g12
g16
g109
g20
g67
g24
g69
g28
tp5545
(g1276
g1648
tp5546
(g73
g18
g20
g22
g24
tp5547
tp5548
a((g73
g2
g4
g8
g10
g16
g75
g109
g20
g67
g24
g69
g26
g28
tp5549
(g1419
g717
tp5550
(g2
g8
g18
g20
g22
g67
g24
g26
g28
tp5551
tp5552
a((g4
g14
g18
g75
g109
g20
g22
g67
g24
g26
tp5553
(g2765
g30
tp5554
(g4
g10
g18
g75
g109
g20
g22
g67
g69
g26
tp5555
tp5556
a((g73
g2
g4
g6
g8
g113
g12
g14
g16
g18
g75
g109
g20
g22
g69
g28
tp5557
(g303
tp5558
(g73
g2
g4
g8
g113
g14
g22
g26
tp5559
tp5560
a((g73
g6
g10
g12
g14
g16
g109
g20
g67
g24
g69
g28
tp5561
(g1276
g2526
tp5562
(g4
g6
g10
g16
g109
g20
g22
tp5563
tp5564
a((g4
g6
g8
g113
g10
g16
g18
g75
g109
g20
g22
g67
g69
g28
tp5565
(g451
tp5566
(g73
g6
g113
g10
g22
tp5567
tp5568
a((g73
g2
g4
g6
g8
g10
g18
g75
g109
g20
g67
g24
g26
g28
tp5569
(g679
g1073
tp5570
(g73
g2
g6
g113
g14
g75
g109
g67
g28
tp5571
tp5572
a((g2
g4
g10
g12
g20
g69
tp5573
(g164
g1048
tp5574
(g2
g6
g10
g12
g28
tp5575
tp5576
a((g73
g8
g113
g10
g12
g16
g18
g75
g20
g24
g69
tp5577
(g591
tp5578
(g73
g4
g113
g18
g69
tp5579
tp5580
a((g73
g2
g6
g113
g10
g14
g16
g18
g75
g109
g20
g22
g67
g24
tp5581
(g134
g1025
g2466
tp5582
(g73
g2
g6
g12
g14
g18
g75
g20
g22
g67
g24
g26
tp5583
tp5584
a((g2
g4
g113
g12
g14
g16
g18
g75
g109
g22
g69
g28
tp5585
(g400
g778
tp5586
(g4
g113
g12
g14
g16
g18
g22
g67
g24
g69
g28
tp5587
tp5588
a((g73
g2
g4
g6
g113
g14
g16
g18
g22
g24
g69
g28
tp5589
(g198
g303
tp5590
(g73
g2
g6
g113
g16
g109
g26
g28
tp5591
tp5592
a((g73
g2
g4
g113
g10
g12
g14
g16
g75
g109
g20
g67
g24
g69
g26
tp5593
(g791
g591
tp5594
(g73
g4
g10
g12
g69
g26
g28
tp5595
tp5596
a((g2
g10
g12
g16
g75
g109
g22
g24
g69
g26
tp5597
(g698
g837
tp5598
(g2
g6
g109
g69
g26
tp5599
tp5600
a((g73
g4
g8
g113
g12
g14
g16
g18
g75
g109
g22
g67
g69
g26
g28
tp5601
(g326
g837
tp5602
(g73
g4
g6
g113
g16
g18
g22
g67
g28
tp5603
tp5604
a((g2
g8
g113
g14
g18
g75
g109
g20
g22
g67
g24
g69
g28
tp5605
(g1025
g211
tp5606
(g73
g12
g28
tp5607
tp5608
a((g4
g6
g14
g18
g75
g20
g22
g67
g24
g26
g28
tp5609
(g198
g379
g147
tp5610
(g73
g4
g6
g16
g75
g109
g20
g24
g28
tp5611
tp5612
a((g6
g8
g10
g12
g16
g18
g75
g22
tp5613
(g502
g52
tp5614
(g6
g10
g16
g67
g28
tp5615
tp5616
a((g73
g2
g4
g6
g8
g10
g75
g20
g22
g24
g69
tp5617
(g736
tp5618
(g73
g2
g4
g10
g16
g24
g69
tp5619
tp5620
a((g73
g4
g8
g12
g14
g16
g18
g75
g109
g20
g22
g67
g28
tp5621
(g77
g326
tp5622
(g73
g8
g16
g75
g20
g67
g24
tp5623
tp5624
a((g73
g113
g10
g14
g16
g18
g75
g109
g20
g67
g24
g69
g26
g28
tp5625
(g134
g1400
tp5626
(g73
g4
g8
g18
g75
g20
g67
g24
g69
g26
tp5627
tp5628
a((g2
g4
g6
g113
g12
g14
g16
g75
g20
g22
g67
g24
g69
tp5629
(g198
tp5630
(g4
g113
g12
g14
g16
g75
g109
g67
g24
tp5631
tp5632
a((g73
g4
g6
g8
g113
g10
g14
g16
g75
g109
g20
g22
g67
g24
g28
tp5633
(g759
g239
tp5634
(g73
g2
g4
g6
g8
g18
g75
g109
g22
g67
tp5635
tp5636
a((g2
g4
g6
g8
g14
g16
g18
g109
g20
g22
g26
g28
tp5637
(g1346
tp5638
(g2
g4
g6
g8
g10
g20
g28
tp5639
tp5640
a((g2
g4
g6
g8
g12
g16
g18
g75
g22
g67
g24
g28
tp5641
(g618
g77
tp5642
(g2
g14
g75
g69
g28
tp5643
tp5644
a((g4
g6
g8
g113
g10
g12
g14
g20
g22
g67
g24
g69
g26
g28
tp5645
(g211
tp5646
(g73
g12
g14
g20
g26
tp5647
tp5648
a((g73
g4
g6
g8
g113
g10
g12
g16
g75
g109
g20
g22
g28
tp5649
(g303
tp5650
(g6
g8
g10
g12
g109
g20
g26
tp5651
tp5652
a((g2
g4
g8
g113
g16
g75
g20
g67
g69
g28
tp5653
(g928
g1544
tp5654
(g2
g8
g113
g109
g20
g24
g28
tp5655
tp5656
a((g73
g2
g4
g6
g12
g14
g18
g75
g109
g20
g69
g26
tp5657
(g164
tp5658
(g73
g14
g75
g20
g69
g26
g28
tp5659
tp5660
a((g73
g2
g6
g113
g10
g12
g14
g18
g75
g20
g22
g67
g24
g26
tp5661
(g1291
tp5662
(g12
g14
g18
g22
g69
tp5663
tp5664
a((g4
g6
g8
g113
g10
g12
g14
g18
g75
g109
g22
g67
g24
g69
g26
g28
tp5665
(g468
tp5666
(g113
g18
g75
g20
g69
g26
tp5667
tp5668
a((g2
g4
g6
g12
g14
g16
g75
g22
g67
g24
g69
g26
tp5669
(g717
tp5670
(g2
g4
g14
g16
g18
g67
g24
g69
g26
tp5671
tp5672
a((g2
g14
g16
g109
g20
g22
g67
g26
g28
tp5673
(g487
g256
tp5674
(g14
g75
g109
g67
g26
tp5675
tp5676
a((g2
g6
g113
g10
g12
g14
g75
g20
g24
g69
g28
tp5677
(g1276
g271
tp5678
(g6
g113
g12
g14
g22
g67
g28
tp5679
tp5680
a((g73
g2
g4
g6
g10
g12
g16
g18
g75
g22
g67
g24
g69
g28
tp5681
(g698
g913
tp5682
(g4
g6
g113
g16
g18
g75
tp5683
tp5684
a((g73
g2
g6
g8
g113
g10
g12
g14
g16
g18
g109
g20
g22
g24
g69
g26
g28
tp5685
(g1400
tp5686
(g73
g4
g6
g8
g12
g14
g18
g109
g20
g26
tp5687
tp5688
a((g73
g4
g10
g12
g14
g18
g75
g20
g69
tp5689
(g326
tp5690
(g73
g14
g18
g75
g24
tp5691
tp5692
a((g73
g2
g4
g6
g8
g113
g10
g12
g18
g75
g109
g20
g22
g28
tp5693
(g303
tp5694
(g73
g4
g6
g113
g10
g109
g20
g22
g26
g28
tp5695
tp5696
a((g73
g2
g4
g8
g10
g12
g16
g75
g20
g67
g24
tp5697
(g837
g679
tp5698
(g73
g2
g6
g113
g10
g12
g75
g24
tp5699
tp5700
a((g73
g2
g4
g8
g113
g10
g14
g16
g18
g67
g24
g69
tp5701
(g2905
g1505
tp5702
(g2
g4
g12
g16
g18
g22
g67
g24
tp5703
tp5704
a((g73
g2
g6
g113
g10
g75
g109
g22
g67
g69
g26
g28
tp5705
(g379
g1648
tp5706
(g73
g2
g6
g10
g16
g18
g75
g109
g67
g69
tp5707
tp5708
a((g73
g2
g4
g6
g113
g10
g12
g14
g18
g109
g20
g67
g28
tp5709
(g303
g1138
tp5710
(g73
g2
g4
g18
g75
g20
g67
g26
g28
tp5711
tp5712
a((g73
g2
g4
g6
g8
g113
g14
g16
g18
g75
g109
g20
g22
g24
g69
g26
g28
tp5713
(g290
tp5714
(g2
g6
g8
g12
g16
g75
g20
g26
tp5715
tp5716
a((g2
g6
g113
g10
g12
g16
g109
g20
g22
g67
g24
g26
tp5717
(g487
tp5718
(g2
g6
g10
g16
g75
g20
tp5719
tp5720
a((g73
g2
g8
g10
g14
g16
g18
g109
g20
g22
g69
tp5721
(g2466
tp5722
(g73
g14
g16
g18
g20
g22
g26
tp5723
tp5724
a((g4
g8
g113
g12
g16
g75
g109
g20
g22
g67
g24
g69
g26
g28
tp5725
(g438
g345
tp5726
(g113
g10
g14
g16
g75
g22
g69
g26
tp5727
tp5728
a((g2
g4
g6
g8
g14
g18
g109
g20
g22
g24
g69
tp5729
(g791
g147
tp5730
(g73
g2
g6
g14
g18
g24
g69
g28
tp5731
tp5732
a((g73
g2
g4
g8
g113
g10
g12
g14
g16
g18
g109
g20
g22
g24
g69
g28
tp5733
(g1138
tp5734
(g2
g4
g10
g16
g75
g28
tp5735
tp5736
a((g2
g4
g6
g113
g12
g16
g18
g75
g109
g20
g24
g69
g26
g28
tp5737
(g438
g345
tp5738
(g2
g6
g10
g14
g16
g109
g24
g26
tp5739
tp5740
a((g73
g2
g6
g8
g10
g12
g14
g16
g75
g109
g20
g22
g69
g26
tp5741
(g947
tp5742
(g73
g2
g6
g8
g16
g69
g28
tp5743
tp5744
a((g4
g6
g8
g10
g16
g75
g109
g20
g22
g67
g26
tp5745
(g679
g2112
g1115
tp5746
(g113
g10
g16
g75
g109
g20
g69
g28
tp5747
tp5748
a((g73
g4
g6
g8
g113
g10
g12
g14
g16
g18
g75
g109
g24
g69
tp5749
(g791
g303
tp5750
(g113
g10
g12
g14
g16
g75
g24
g69
g26
g28
tp5751
tp5752
a((g73
g2
g6
g8
g113
g10
g12
g14
g16
g75
g20
g69
g26
g28
tp5753
(g271
tp5754
(g73
g113
g10
g12
g14
g67
g28
tp5755
tp5756
a((g2
g4
g113
g10
g14
g109
g20
g67
g24
g69
g26
g28
tp5757
(g1138
tp5758
(g113
g10
g75
g69
g28
tp5759
tp5760
a((g2
g4
g8
g10
g12
g16
g18
g109
g20
g22
g67
g24
g26
g28
tp5761
(g837
tp5762
(g6
g10
g12
g22
g67
g24
g26
tp5763
tp5764
a((g73
g2
g8
g113
g16
g20
g67
g24
g26
tp5765
(g239
g837
tp5766
(g2
g6
g113
g16
g18
g67
tp5767
tp5768
a.