(lp0
(istructures.sensor
Sensor
p1
(dp2
S'rhs'
p3
(istructures.sensor
Sensor
p4
(dp5
g3
NsS'lhs'
p6
(S'at_x0'
p7
tp8
sS'op'
p9
Nsbsg6
(istructures.sensor
Sensor
p10
(dp11
g3
Nsg6
(istructures.sensor
Sensor
p12
(dp13
g3
Nsg6
(istructures.sensor
Sensor
p14
(dp15
g3
Nsg6
S'holding_treasure_1'
p16
sg9
Nsbsg9
S'-'
p17
sbsg9
g17
sbsg9
I2
sba(istructures.sensor
Sensor
p18
(dp19
g3
(istructures.sensor
Sensor
p20
(dp21
g3
Nsg6
(istructures.sensor
Sensor
p22
(dp23
g3
(istructures.sensor
Sensor
p24
(dp25
g3
Nsg6
g7
sg9
Nsbsg6
(istructures.sensor
Sensor
p26
(dp27
g3
Nsg6
S'at_x4'
p28
sg9
Nsbsg9
S'v'
p29
sbsg9
g17
sbsg6
(istructures.sensor
Sensor
p30
(dp31
g3
Nsg6
(S'at_x5'
p32
tp33
sg9
Nsbsg9
S'^'
p34
sba(istructures.sensor
Sensor
p35
(dp36
g3
Nsg6
(S'at_x1'
p37
tp38
sg9
Nsba(istructures.sensor
Sensor
p39
(dp40
g3
(istructures.sensor
Sensor
p41
(dp42
g3
Nsg6
(istructures.sensor
Sensor
p43
(dp44
g3
(istructures.sensor
Sensor
p45
(dp46
g3
Nsg6
S'at_y2'
p47
sg9
Nsbsg6
(istructures.sensor
Sensor
p48
(dp49
g3
Nsg6
g32
sg9
Nsbsg9
g34
sbsg9
g17
sbsg6
(istructures.sensor
Sensor
p50
(dp51
g3
(istructures.sensor
Sensor
p52
(dp53
g3
(istructures.sensor
Sensor
p54
(dp55
g3
Nsg6
g47
sg9
Nsbsg6
(istructures.sensor
Sensor
p56
(dp57
g3
Nsg6
g32
sg9
Nsbsg9
I4
sbsg6
(istructures.sensor
Sensor
p58
(dp59
g3
(istructures.sensor
Sensor
p60
(dp61
g3
Nsg6
g32
sg9
Nsbsg6
(istructures.sensor
Sensor
p62
(dp63
g3
Nsg6
S'at_y0'
p64
sg9
Nsbsg9
g29
sbsg9
g34
sbsg9
g29
sba(istructures.sensor
Sensor
p65
(dp66
g3
Nsg6
(istructures.sensor
Sensor
p67
(dp68
g3
(istructures.sensor
Sensor
p69
(dp70
g3
(istructures.sensor
Sensor
p71
(dp72
g3
Nsg6
S'at_x2'
p73
sg9
Nsbsg6
(istructures.sensor
Sensor
p74
(dp75
g3
Nsg6
S'at_y1'
p76
sg9
Nsbsg9
g34
sbsg6
(istructures.sensor
Sensor
p77
(dp78
g3
Nsg6
(S'at_x3'
p79
tp80
sg9
Nsbsg9
g34
sbsg9
g17
sba(istructures.sensor
Sensor
p81
(dp82
g3
(istructures.sensor
Sensor
p83
(dp84
g3
Nsg6
(g28
tp85
sg9
Nsbsg6
(istructures.sensor
Sensor
p86
(dp87
g3
Nsg6
(g32
tp88
sg9
Nsbsg9
g29
sba(istructures.sensor
Sensor
p89
(dp90
g3
(istructures.sensor
Sensor
p91
(dp92
g3
(istructures.sensor
Sensor
p93
(dp94
g3
Nsg6
(S'at_y5'
p95
tp96
sg9
Nsbsg6
(istructures.sensor
Sensor
p97
(dp98
g3
(istructures.sensor
Sensor
p99
(dp100
g3
Nsg6
g16
sg9
Nsbsg6
(istructures.sensor
Sensor
p101
(dp102
g3
Nsg6
S'at_x6'
p103
sg9
Nsbsg9
g34
sbsg9
g29
sbsg6
(istructures.sensor
Sensor
p104
(dp105
g3
(istructures.sensor
Sensor
p106
(dp107
g3
(istructures.sensor
Sensor
p108
(dp109
g3
Nsg6
g64
sg9
Nsbsg6
(istructures.sensor
Sensor
p110
(dp111
g3
Nsg6
g16
sg9
Nsbsg9
g29
sbsg6
(istructures.sensor
Sensor
p112
(dp113
g3
Nsg6
(istructures.sensor
Sensor
p114
(dp115
g3
Nsg6
g37
sg9
Nsbsg9
g17
sbsg9
g29
sbsg9
I9
sba(istructures.sensor
Sensor
p116
(dp117
g3
Nsg6
(istructures.sensor
Sensor
p118
(dp119
g3
Nsg6
(istructures.sensor
Sensor
p120
(dp121
g3
(istructures.sensor
Sensor
p122
(dp123
g3
Nsg6
S'at_y7'
p124
sg9
Nsbsg6
(istructures.sensor
Sensor
p125
(dp126
g3
Nsg6
S'at_y3'
p127
sg9
Nsbsg9
g34
sbsg9
g17
sbsg9
g17
sba(istructures.sensor
Sensor
p128
(dp129
g3
(istructures.sensor
Sensor
p130
(dp131
g3
(istructures.sensor
Sensor
p132
(dp133
g3
Nsg6
(g79
tp134
sg9
Nsbsg6
(istructures.sensor
Sensor
p135
(dp136
g3
(istructures.sensor
Sensor
p137
(dp138
g3
Nsg6
g7
sg9
Nsbsg6
(istructures.sensor
Sensor
p139
(dp140
g3
Nsg6
S'at_y6'
p141
sg9
Nsbsg9
g29
sbsg9
g29
sbsg6
(istructures.sensor
Sensor
p142
(dp143
g3
(istructures.sensor
Sensor
p144
(dp145
g3
(istructures.sensor
Sensor
p146
(dp147
g3
Nsg6
g47
sg9
Nsbsg6
(istructures.sensor
Sensor
p148
(dp149
g3
Nsg6
S'holding_treasure_2'
p150
sg9
Nsbsg9
g34
sbsg6
(istructures.sensor
Sensor
p151
(dp152
g3
(istructures.sensor
Sensor
p153
(dp154
g3
Nsg6
g7
sg9
Nsbsg6
(istructures.sensor
Sensor
p155
(dp156
g3
Nsg6
g37
sg9
Nsbsg9
g34
sbsg9
I3
sbsg9
g34
sba(istructures.sensor
Sensor
p157
(dp158
g3
Nsg6
(istructures.sensor
Sensor
p159
(dp160
g3
(istructures.sensor
Sensor
p161
(dp162
g3
(istructures.sensor
Sensor
p163
(dp164
g3
Nsg6
g73
sg9
Nsbsg6
(istructures.sensor
Sensor
p165
(dp166
g3
Nsg6
g16
sg9
Nsbsg9
g29
sbsg6
(istructures.sensor
Sensor
p167
(dp168
g3
Nsg6
(g37
tp169
sg9
Nsbsg9
I7
sbsg9
g17
sba(istructures.sensor
Sensor
p170
(dp171
g3
Nsg6
(istructures.sensor
Sensor
p172
(dp173
g3
(istructures.sensor
Sensor
p174
(dp175
g3
(istructures.sensor
Sensor
p176
(dp177
g3
Nsg6
g73
sg9
Nsbsg6
(istructures.sensor
Sensor
p178
(dp179
g3
Nsg6
S'at_y4'
p180
sg9
Nsbsg9
I3
sbsg6
(istructures.sensor
Sensor
p181
(dp182
g3
Nsg6
(g180
tp183
sg9
Nsbsg9
g29
sbsg9
g17
sba(istructures.sensor
Sensor
p184
(dp185
g3
(istructures.sensor
Sensor
p186
(dp187
g3
Nsg6
(g180
tp188
sg9
Nsbsg6
(istructures.sensor
Sensor
p189
(dp190
g3
Nsg6
(istructures.sensor
Sensor
p191
(dp192
g3
Nsg6
(istructures.sensor
Sensor
p193
(dp194
g3
Nsg6
g73
sg9
Nsbsg9
g17
sbsg9
g17
sbsg9
g34
sba(istructures.sensor
Sensor
p195
(dp196
g3
Nsg6
(istructures.sensor
Sensor
p197
(dp198
g3
Nsg6
(istructures.sensor
Sensor
p199
(dp200
g3
(istructures.sensor
Sensor
p201
(dp202
g3
Nsg6
g95
sg9
Nsbsg6
(istructures.sensor
Sensor
p203
(dp204
g3
Nsg6
S'holding_treasure_3'
p205
sg9
Nsbsg9
g34
sbsg9
g17
sbsg9
g17
sba(istructures.sensor
Sensor
p206
(dp207
g3
(istructures.sensor
Sensor
p208
(dp209
g3
(istructures.sensor
Sensor
p210
(dp211
g3
(istructures.sensor
Sensor
p212
(dp213
g3
Nsg6
g124
sg9
Nsbsg6
(istructures.sensor
Sensor
p214
(dp215
g3
Nsg6
g150
sg9
Nsbsg9
I5
sbsg6
(istructures.sensor
Sensor
p216
(dp217
g3
(istructures.sensor
Sensor
p218
(dp219
g3
Nsg6
g73
sg9
Nsbsg6
(istructures.sensor
Sensor
p220
(dp221
g3
Nsg6
g150
sg9
Nsbsg9
g29
sbsg9
I8
sbsg6
(istructures.sensor
Sensor
p222
(dp223
g3
Nsg6
(g28
tp224
sg9
Nsbsg9
g29
sba(istructures.sensor
Sensor
p225
(dp226
g3
(istructures.sensor
Sensor
p227
(dp228
g3
(istructures.sensor
Sensor
p229
(dp230
g3
(istructures.sensor
Sensor
p231
(dp232
g3
Nsg6
g205
sg9
Nsbsg6
(istructures.sensor
Sensor
p233
(dp234
g3
Nsg6
S'at_x7'
p235
sg9
Nsbsg9
g34
sbsg6
(istructures.sensor
Sensor
p236
(dp237
g3
(istructures.sensor
Sensor
p238
(dp239
g3
Nsg6
g103
sg9
Nsbsg6
(istructures.sensor
Sensor
p240
(dp241
g3
Nsg6
g47
sg9
Nsbsg9
I5
sbsg9
I8
sbsg6
(istructures.sensor
Sensor
p242
(dp243
g3
Nsg6
(istructures.sensor
Sensor
p244
(dp245
g3
Nsg6
(g73
tp246
sg9
Nsbsg9
g17
sbsg9
g34
sba.