(lp0
(((S'at_x7'
p1
tp2
(S'at_x0'
p3
tp4
(S'at_x4'
p5
tp6
(S'holding_treasure_1'
p7
tp8
(S'at_y0'
p9
tp10
(S'at_y1'
p11
tp12
(S'at_y6'
p13
tp14
tp15
((istructures.domain
Action
p16
(dp17
S'positive_preconditions'
p18
(lp19
(S'at_x0'
p20
tp21
a(S'at_y0'
p22
tp23
asS'add_effects'
p24
(lp25
(S'at_x1'
p26
tp27
asS'parameters'
p28
(tsS'del_effects'
p29
(lp30
(S'at_x0'
p31
tp32
asS'cost'
p33
I0
sS'negative_preconditions'
p34
(lp35
sS'name'
p36
S'move_0_0_1_0'
p37
sb(istructures.domain
Action
p38
(dp39
g18
(lp40
(S'at_x7'
p41
tp42
a(S'at_y6'
p43
tp44
asg24
(lp45
(S'at_y7'
p46
tp47
asg28
(tsg29
(lp48
(S'at_y6'
p49
tp50
asg33
I0
sg34
(lp51
sg36
S'move_7_6_7_7'
p52
sb(istructures.domain
Action
p53
(dp54
g18
(lp55
(S'at_x7'
p56
tp57
a(S'at_y7'
p58
tp59
asg24
(lp60
(S'holding_treasure_2'
p61
tp62
asg28
(tsg29
(lp63
sg33
I0
sg34
(lp64
sg36
S'pickup_treasure2'
p65
sbtp66
((S'at_y7'
p67
tp68
(S'at_x1'
p69
tp70
g8
g62
g10
g12
tp71
tp72
a((g2
g70
g6
(S'at_x6'
p73
tp74
g8
g62
(S'holding_treasure_3'
p75
tp76
(S'at_x5'
p77
tp78
(S'at_y2'
p79
tp80
(S'at_x3'
p81
tp82
(S'at_y3'
p83
tp84
g14
tp85
((istructures.domain
Action
p86
(dp87
g18
(lp88
(S'at_x5'
p89
tp90
a(S'at_y6'
p91
tp92
asg24
(lp93
(S'at_y5'
p94
tp95
asg28
(tsg29
(lp96
(S'at_y6'
p97
tp98
asg33
I0
sg34
(lp99
sg36
S'move_5_6_5_5'
p100
sb(istructures.domain
Action
p101
(dp102
g18
(lp103
(S'at_x1'
p104
tp105
a(S'at_y3'
p106
tp107
asg24
(lp108
(S'at_x2'
p109
tp110
asg28
(tsg29
(lp111
(S'at_x1'
p112
tp113
asg33
I0
sg34
(lp114
sg36
S'move_1_3_2_3'
p115
sbtp116
(g2
(S'at_y5'
p117
tp118
g6
(S'at_x2'
p119
tp120
g62
g78
g80
g82
tp121
tp122
a((g2
g68
g70
g4
g6
g74
g120
(S'at_y4'
p123
tp124
g62
g10
g12
g82
g84
g14
tp125
((istructures.domain
Action
p126
(dp127
g18
(lp128
g70
ag12
asg24
(lp129
g80
asg28
(tsg29
(lp130
(S'at_y1'
p131
tp132
asg33
I0
sg34
(lp133
sg36
S'move_1_1_1_2'
p134
sb(istructures.domain
Action
p135
(dp136
g18
(lp137
(S'at_x0'
p138
tp139
a(S'at_y7'
p140
tp141
asg24
(lp142
g76
asg28
(tsg29
(lp143
sg33
I0
sg34
(lp144
sg36
S'pickup_treasure3'
p145
sbtp146
(g2
g4
g62
g10
g76
g80
g84
tp147
tp148
a((g2
g118
g68
g70
g6
g74
g124
g10
g12
g80
g82
tp149
((istructures.domain
Action
p150
(dp151
g18
(lp152
(S'at_x1'
p153
tp154
ag124
asg24
(lp155
(S'at_x2'
p156
tp157
asg28
(tsg29
(lp158
(S'at_x1'
p159
tp160
asg33
I0
sg34
(lp161
sg36
S'move_1_4_2_4'
p162
sb(istructures.domain
Action
p163
(dp164
g18
(lp165
(S'at_x4'
p166
tp167
a(S'at_y4'
p168
tp169
asg24
(lp170
(S'at_y3'
p171
tp172
asg28
(tsg29
(lp173
(S'at_y4'
p174
tp175
asg33
I0
sg34
(lp176
sg36
S'move_4_4_4_3'
p177
sbtp178
(g6
g120
g12
g80
g82
g84
tp179
tp180
a((g118
g4
g6
g120
g12
g78
g80
g82
tp181
((istructures.domain
Action
p182
(dp183
g18
(lp184
(S'at_x2'
p185
tp186
a(S'at_y5'
p187
tp188
asg24
(lp189
(S'at_y6'
p190
tp191
asg28
(tsg29
(lp192
(S'at_y5'
p193
tp194
asg33
I0
sg34
(lp195
sg36
S'move_2_5_2_6'
p196
sbtp197
(g4
g120
g82
g14
tp198
tp199
a((g2
g118
g68
g70
g4
g74
g124
g62
g10
g12
g78
g80
g82
g84
tp200
((istructures.domain
Action
p201
(dp202
g18
(lp203
(S'at_x1'
p204
tp205
ag118
asg24
(lp206
g14
asg28
(tsg29
(lp207
(S'at_y5'
p208
tp209
asg33
I0
sg34
(lp210
sg36
S'move_1_5_1_6'
p211
sb(istructures.domain
Action
p212
(dp213
g18
(lp214
(S'at_x7'
p215
tp216
a(S'at_y0'
p217
tp218
asg24
(lp219
g8
asg28
(tsg29
(lp220
sg33
I0
sg34
(lp221
sg36
S'pickup_treasure1'
p222
sbtp223
(g2
g70
g4
g74
g8
g124
g84
g14
tp224
tp225
a((g118
g68
g70
g4
g6
g74
g120
g124
g10
g12
g78
tp226
((istructures.domain
Action
p227
(dp228
g18
(lp229
(S'at_x2'
p230
tp231
a(S'at_y1'
p232
tp233
asg24
(lp234
(S'at_x3'
p235
tp236
asg28
(tsg29
(lp237
(S'at_x2'
p238
tp239
asg33
I0
sg34
(lp240
sg36
S'move_2_1_3_1'
p241
sbtp242
(g118
g68
g70
g6
g74
g124
g10
g82
tp243
tp244
a((g2
g118
g70
g4
g6
g74
g120
g8
g10
g76
g12
g78
g80
tp245
((istructures.domain
Action
p246
(dp247
g18
(lp248
(S'at_x4'
p249
tp250
a(S'at_y0'
p251
tp252
asg24
(lp253
(S'at_x3'
p254
tp255
asg28
(tsg29
(lp256
(S'at_x4'
p257
tp258
asg33
I0
sg34
(lp259
sg36
S'move_4_0_3_0'
p260
sbtp261
(g2
g4
g74
g120
g8
g10
g76
g80
g82
tp262
tp263
a((g118
g68
g70
g4
g6
g74
g120
g8
g124
g62
g10
g76
g78
g80
g14
tp264
((istructures.domain
Action
p265
(dp266
g18
(lp267
(S'at_x6'
p268
tp269
a(S'at_y7'
p270
tp271
asg24
(lp272
(S'at_x7'
p273
tp274
asg28
(tsg29
(lp275
(S'at_x6'
p276
tp277
asg33
I0
sg34
(lp278
sg36
S'move_6_7_7_7'
p279
sbtp280
(g2
g118
g68
g70
g4
g6
g120
g8
g78
g80
tp281
tp282
a((g2
g68
g4
g6
g74
g120
g8
g124
g62
g10
g76
g78
g80
g84
g14
tp283
((istructures.domain
Action
p284
(dp285
g18
(lp286
(S'at_x4'
p287
tp288
a(S'at_y4'
p289
tp290
asg24
(lp291
(S'at_x3'
p292
tp293
asg28
(tsg29
(lp294
(S'at_x4'
p295
tp296
asg33
I0
sg34
(lp297
sg36
S'move_4_4_3_4'
p298
sbg16
tp299
(g2
g68
g70
g120
g124
g62
g10
g76
g78
g82
g84
g14
tp300
tp301
a((g2
g118
g68
g70
g120
g8
g124
g10
g12
g80
g84
g14
tp302
((istructures.domain
Action
p303
(dp304
g18
(lp305
(S'at_x7'
p306
tp307
a(S'at_y4'
p308
tp309
asg24
(lp310
(S'at_x6'
p311
tp312
asg28
(tsg29
(lp313
(S'at_x7'
p314
tp315
asg33
I0
sg34
(lp316
sg36
S'move_7_4_6_4'
p317
sb(istructures.domain
Action
p318
(dp319
g18
(lp320
(S'at_x6'
p321
tp322
a(S'at_y0'
p323
tp324
asg24
(lp325
(S'at_x5'
p326
tp327
asg28
(tsg29
(lp328
(S'at_x6'
p329
tp330
asg33
I0
sg34
(lp331
sg36
S'move_6_0_5_0'
p332
sbtp333
(g8
g10
g78
g80
g84
tp334
tp335
a((g118
g68
g70
g6
g120
g8
g124
g62
g10
g14
tp336
((istructures.domain
Action
p337
(dp338
g18
(lp339
(S'at_x4'
p340
tp341
a(S'at_y4'
p342
tp343
asg24
(lp344
(S'at_x5'
p345
tp346
asg28
(tsg29
(lp347
(S'at_x4'
p348
tp349
asg33
I0
sg34
(lp350
sg36
S'move_4_4_5_4'
p351
sb(istructures.domain
Action
p352
(dp353
g18
(lp354
(S'at_x2'
p355
tp356
a(S'at_y6'
p357
tp358
asg24
(lp359
(S'at_x3'
p360
tp361
asg28
(tsg29
(lp362
(S'at_x2'
p363
tp364
asg33
I0
sg34
(lp365
sg36
S'move_2_6_3_6'
p366
sbtp367
(g8
g124
g62
g10
g78
g82
g14
tp368
tp369
a((g68
g70
g4
g6
g74
g124
g62
g12
g78
g80
tp370
(g284
tp371
(g74
g12
g82
tp372
tp373
a((g2
g118
g68
g4
g6
g74
g120
g8
g124
g76
g12
g80
g82
g84
g14
tp374
(g53
tp375
(g118
g74
g120
g8
g124
g62
g80
g82
g84
tp376
tp377
a((g2
g118
g68
g70
g4
g6
g74
g124
g62
g10
g76
g12
g82
tp378
((istructures.domain
Action
p379
(dp380
g18
(lp381
g82
a(S'at_y1'
p382
tp383
asg24
(lp384
(S'at_x2'
p385
tp386
asg28
(tsg29
(lp387
(S'at_x3'
p388
tp389
asg33
I0
sg34
(lp390
sg36
S'move_3_1_2_1'
p391
sbg337
tp392
(g2
g120
g62
g76
g78
tp393
tp394
a((g2
g68
g4
g6
g120
g124
g62
g10
g12
g78
g80
g82
g84
g14
tp395
(g212
tp396
(g68
g120
g8
g62
g10
tp397
tp398
a((g118
g68
g4
g120
g8
g124
g62
g10
g76
g78
g84
tp399
((istructures.domain
Action
p400
(dp401
g18
(lp402
(S'at_x5'
p403
tp404
a(S'at_y5'
p405
tp406
asg24
(lp407
(S'at_x4'
p408
tp409
asg28
(tsg29
(lp410
(S'at_x5'
p411
tp412
asg33
I0
sg34
(lp413
sg36
S'move_5_5_4_5'
p414
sbtp415
(g68
g6
g8
g10
g76
tp416
tp417
a((g2
g118
g68
g70
g4
g6
g74
g120
g8
g62
g12
g78
g14
tp418
(g126
g135
tp419
(g2
g70
g4
g120
g8
g76
g80
tp420
tp421
a((g118
g70
g74
g120
g8
g124
g62
g10
g76
g78
g14
tp422
((istructures.domain
Action
p423
(dp424
g18
(lp425
(S'at_x1'
p426
tp427
ag10
asg24
(lp428
(S'at_y1'
p429
tp430
asg28
(tsg29
(lp431
(S'at_y0'
p432
tp433
asg33
I0
sg34
(lp434
sg36
S'move_1_0_1_1'
p435
sbtp436
(g74
g120
g124
g62
g76
g12
g78
tp437
tp438
a((g2
g118
g68
g70
g4
g8
g124
g62
g12
g78
g80
g82
tp439
((istructures.domain
Action
p440
(dp441
g18
(lp442
(S'at_x1'
p443
tp444
a(S'at_y1'
p445
tp446
asg24
(lp447
(S'at_y0'
p448
tp449
asg28
(tsg29
(lp450
(S'at_y1'
p451
tp452
asg33
I0
sg34
(lp453
sg36
S'move_1_1_1_0'
p454
sbg135
tp455
(g68
g10
g76
g82
tp456
tp457
a((g2
g118
g68
g4
g6
g120
g124
g62
g10
g76
g78
g80
g82
g84
g14
tp458
((istructures.domain
Action
p459
(dp460
g18
(lp461
g120
a(S'at_y2'
p462
tp463
asg24
(lp464
(S'at_y1'
p465
tp466
asg28
(tsg29
(lp467
(S'at_y2'
p468
tp469
asg33
I0
sg34
(lp470
sg36
S'move_2_2_2_1'
p471
sb(istructures.domain
Action
p472
(dp473
g18
(lp474
(S'at_x2'
p475
tp476
a(S'at_y1'
p477
tp478
asg24
(lp479
(S'at_x1'
p480
tp481
asg28
(tsg29
(lp482
(S'at_x2'
p483
tp484
asg33
I0
sg34
(lp485
sg36
S'move_2_1_1_1'
p486
sbtp487
(g70
g4
g124
g10
g12
g78
g82
g84
tp488
tp489
a((g2
g118
g68
g70
g4
g6
g120
g124
g62
g10
g76
g12
g78
g84
g14
tp490
(g212
tp491
(g118
g120
g8
g62
g12
g78
g14
tp492
tp493
a((g118
g70
g4
g6
g74
g10
g84
g14
tp494
((istructures.domain
Action
p495
(dp496
g18
(lp497
(S'at_x6'
p498
tp499
a(S'at_y3'
p500
tp501
asg24
(lp502
(S'at_x7'
p503
tp504
asg28
(tsg29
(lp505
(S'at_x6'
p506
tp507
asg33
I0
sg34
(lp508
sg36
S'move_6_3_7_3'
p509
sbg212
tp510
(g2
g70
g4
g6
g8
g10
tp511
tp512
a((g2
g118
g70
g6
g120
g8
g62
g76
g80
g82
g84
tp513
(g459
(istructures.domain
Action
p514
(dp515
g18
(lp516
(S'at_x1'
p517
tp518
a(S'at_y3'
p519
tp520
asg24
(lp521
(S'at_x0'
p522
tp523
asg28
(tsg29
(lp524
(S'at_x1'
p525
tp526
asg33
I0
sg34
(lp527
sg36
S'move_1_3_0_3'
p528
sbtp529
(g4
g76
g12
g82
tp530
tp531
a((g118
g68
g70
g4
g120
g8
g124
g10
g76
g12
g78
g80
g82
tp532
(g201
(istructures.domain
Action
p533
(dp534
g18
(lp535
(S'at_x5'
p536
tp537
a(S'at_y0'
p538
tp539
asg24
(lp540
g74
asg28
(tsg29
(lp541
(S'at_x5'
p542
tp543
asg33
I0
sg34
(lp544
sg36
S'move_5_0_6_0'
p545
sbtp546
(g68
g4
g74
g120
g10
g14
tp547
tp548
a((g2
g118
g70
g6
g74
g120
g124
g10
g12
g78
g80
g84
g14
tp549
((istructures.domain
Action
p550
(dp551
g18
(lp552
(S'at_x5'
p553
tp554
a(S'at_y6'
p555
tp556
asg24
(lp557
(S'at_y7'
p558
tp559
asg28
(tsg29
(lp560
(S'at_y6'
p561
tp562
asg33
I0
sg34
(lp563
sg36
S'move_5_6_5_7'
p564
sbtp565
(g68
g70
g6
g74
g120
g124
g12
g80
tp566
tp567
a((g68
g70
g74
g120
g124
g10
g76
g12
g82
g84
g14
tp568
(g126
g318
tp569
(g68
g120
g124
g76
g78
g80
g84
tp570
tp571
a((g2
g118
g68
g70
g4
g6
g120
g8
g62
g10
g78
g80
g82
g84
g14
tp572
(g533
g135
tp573
(g118
g4
g6
g74
g120
g8
g62
g10
g76
g84
tp574
tp575
a((g2
g118
g4
g6
g120
g124
g62
g78
g80
g82
g84
tp576
(g459
g182
tp577
(g124
g62
g12
g78
g14
tp578
tp579
a((g118
g70
g74
g120
g8
g62
g10
g76
g78
g84
tp580
(g201
(istructures.domain
Action
p581
(dp582
g18
(lp583
g78
ag84
asg24
(lp584
(S'at_y2'
p585
tp586
asg28
(tsg29
(lp587
(S'at_y3'
p588
tp589
asg33
I0
sg34
(lp590
sg36
S'move_5_3_5_2'
p591
sbg550
tp592
(g68
g70
g8
g10
g76
g80
tp593
tp594
a((g2
g118
g6
g74
g8
g76
g12
g80
g14
tp595
((istructures.domain
Action
p596
(dp597
g18
(lp598
(S'at_x7'
p599
tp600
a(S'at_y2'
p601
tp602
asg24
(lp603
(S'at_y3'
p604
tp605
asg28
(tsg29
(lp606
(S'at_y2'
p607
tp608
asg33
I0
sg34
(lp609
sg36
S'move_7_2_7_3'
p610
sbtp611
(g2
g118
g6
g8
g12
g84
g14
tp612
tp613
a((g2
g118
g68
g70
g6
g74
g120
g8
g124
g62
g10
g76
g12
g78
g82
g84
tp614
(g201
tp615
(g2
g6
g8
g62
g76
g78
g14
tp616
tp617
a((g2
g118
g68
g6
g74
g62
g10
g76
g12
g78
g80
g82
tp618
((istructures.domain
Action
p619
(dp620
g18
(lp621
(S'at_x5'
p622
tp623
a(S'at_y2'
p624
tp625
asg24
(lp626
(S'at_y3'
p627
tp628
asg28
(tsg29
(lp629
(S'at_y2'
p630
tp631
asg33
I0
sg34
(lp632
sg36
S'move_5_2_5_3'
p633
sb(istructures.domain
Action
p634
(dp635
g18
(lp636
(S'at_x7'
p637
tp638
a(S'at_y5'
p639
tp640
asg24
(lp641
(S'at_y6'
p642
tp643
asg28
(tsg29
(lp644
(S'at_y5'
p645
tp646
asg33
I0
sg34
(lp647
sg36
S'move_7_5_7_6'
p648
sbtp649
(g2
g68
g6
g74
g62
g12
g78
g84
g14
tp650
tp651
a((g2
g118
g4
g6
g74
g120
g8
g62
g10
g76
g78
g80
g82
g14
tp652
((istructures.domain
Action
p653
(dp654
g18
(lp655
(S'at_x3'
p656
tp657
a(S'at_y0'
p658
tp659
asg24
(lp660
(S'at_y1'
p661
tp662
asg28
(tsg29
(lp663
(S'at_y0'
p664
tp665
asg33
I0
sg34
(lp666
sg36
S'move_3_0_3_1'
p667
sbg472
tp668
(g70
g4
g8
g62
g76
g12
g78
g80
tp669
tp670
a((g2
g118
g70
g6
g8
g10
g76
g12
g80
g82
g84
g14
tp671
((istructures.domain
Action
p672
(dp673
g18
(lp674
(S'at_x3'
p675
tp676
a(S'at_y3'
p677
tp678
asg24
(lp679
(S'at_y4'
p680
tp681
asg28
(tsg29
(lp682
(S'at_y3'
p683
tp684
asg33
I0
sg34
(lp685
sg36
S'move_3_3_3_4'
p686
sbtp687
(g2
g118
g6
g124
g10
g12
g14
tp688
tp689
a((g118
g68
g120
g124
g62
g76
g78
g80
g84
tp690
((istructures.domain
Action
p691
(dp692
g18
(lp693
(S'at_x2'
p694
tp695
a(S'at_y3'
p696
tp697
asg24
(lp698
(S'at_x1'
p699
tp700
asg28
(tsg29
(lp701
(S'at_x2'
p702
tp703
asg33
I0
sg34
(lp704
sg36
S'move_2_3_1_3'
p705
sbtp706
(g70
g62
g84
tp707
tp708
a((g118
g68
g70
g4
g8
g124
g10
g80
g82
g84
g14
tp709
(g135
tp710
(g118
g68
g4
g124
g76
g82
g84
g14
tp711
tp712
a((g118
g4
g6
g120
g62
g10
g76
g12
g78
g80
g82
g84
tp713
(g533
(istructures.domain
Action
p714
(dp715
g18
(lp716
(S'at_x2'
p717
tp718
a(S'at_y3'
p719
tp720
asg24
(lp721
(S'at_y4'
p722
tp723
asg28
(tsg29
(lp724
(S'at_y3'
p725
tp726
asg33
I0
sg34
(lp727
sg36
S'move_2_3_2_4'
p728
sbtp729
(g118
g4
g6
g74
g124
g62
g12
g82
tp730
tp731
a((g68
g70
g4
g6
g8
g124
g62
g80
tp732
((istructures.domain
Action
p733
(dp734
g18
(lp735
(S'at_x4'
p736
tp737
a(S'at_y2'
p738
tp739
asg24
(lp740
(S'at_y1'
p741
tp742
asg28
(tsg29
(lp743
(S'at_y2'
p744
tp745
asg33
I0
sg34
(lp746
sg36
S'move_4_2_4_1'
p747
sbg284
(istructures.domain
Action
p748
(dp749
g18
(lp750
(S'at_x3'
p751
tp752
a(S'at_y4'
p753
tp754
asg24
(lp755
(S'at_y3'
p756
tp757
asg28
(tsg29
(lp758
(S'at_y4'
p759
tp760
asg33
I0
sg34
(lp761
sg36
S'move_3_4_3_3'
p762
sbtp763
(g4
g12
g82
g84
tp764
tp765
a((g118
g68
g4
g6
g74
g120
g62
g10
g78
g80
g82
tp766
((istructures.domain
Action
p767
(dp768
g18
(lp769
(S'at_x2'
p770
tp771
a(S'at_y5'
p772
tp773
asg24
(lp774
(S'at_y4'
p775
tp776
asg28
(tsg29
(lp777
(S'at_y5'
p778
tp779
asg33
I0
sg34
(lp780
sg36
S'move_2_5_2_4'
p781
sbg653
tp782
(g74
g120
g124
g12
g78
g80
tp783
tp784
a((g118
g68
g70
g4
g6
g74
g124
g62
g10
g76
g12
g78
g80
g82
g84
g14
tp785
(g150
tp786
(g118
g4
g6
g74
g120
g124
g62
g10
g76
g82
g84
g14
tp787
tp788
a((g118
g70
g6
g74
g120
g8
g124
g10
g78
g80
g82
g84
g14
tp789
(g459
tp790
(g70
g6
g120
g8
g10
g12
g82
g14
tp791
tp792
a((g2
g118
g70
g4
g6
g74
g120
g10
g76
g12
g78
g80
g84
tp793
(g201
(istructures.domain
Action
p794
(dp795
g18
(lp796
(S'at_x4'
p797
tp798
a(S'at_y6'
p799
tp800
asg24
(lp801
(S'at_x3'
p802
tp803
asg28
(tsg29
(lp804
(S'at_x4'
p805
tp806
asg33
I0
sg34
(lp807
sg36
S'move_4_6_3_6'
p808
sbtp809
(g2
g70
g4
g120
g10
g76
g80
g82
g84
g14
tp810
tp811
a((g2
g70
g4
g6
g74
g120
g124
g62
g10
g82
g84
g14
tp812
(g423
g126
tp813
(g2
g70
g4
g80
g84
tp814
tp815
a((g118
g68
g70
g4
g6
g120
g8
g62
g10
g76
g78
g80
g82
g14
tp816
((istructures.domain
Action
p817
(dp818
g18
(lp819
(S'at_x2'
p820
tp821
a(S'at_y2'
p822
tp823
asg24
(lp824
(S'at_y3'
p825
tp826
asg28
(tsg29
(lp827
(S'at_y2'
p828
tp829
asg33
I0
sg34
(lp830
sg36
S'move_2_2_2_3'
p831
sbg533
tp832
(g118
g68
g6
g74
g8
g62
g84
g14
tp833
tp834
a((g2
g118
g68
g70
g4
g6
g120
g124
g62
g12
g84
g14
tp835
(g135
tp836
(g2
g68
g120
g62
g76
g12
g14
tp837
tp838
a((g118
g68
g70
g4
g6
g74
g120
g8
g62
g78
g80
g14
tp839
(g459
g794
tp840
(g4
g74
g62
g12
g82
g14
tp841
tp842
a((g118
g70
g8
g124
g62
g76
g80
tp843
(g201
(istructures.domain
Action
p844
(dp845
g18
(lp846
(S'at_x1'
p847
tp848
a(S'at_y4'
p849
tp850
asg24
(lp851
(S'at_y5'
p852
tp853
asg28
(tsg29
(lp854
(S'at_y4'
p855
tp856
asg33
I0
sg34
(lp857
sg36
S'move_1_4_1_5'
p858
sb(istructures.domain
Action
p859
(dp860
g18
(lp861
(S'at_x1'
p862
tp863
a(S'at_y6'
p864
tp865
asg24
(lp866
(S'at_y7'
p867
tp868
asg28
(tsg29
(lp869
(S'at_y6'
p870
tp871
asg33
I0
sg34
(lp872
sg36
S'move_1_6_1_7'
p873
sbtp874
(g118
g68
g8
g76
g80
tp875
tp876
a((g118
g70
g4
g74
g8
g124
g62
g10
g76
g80
g82
g84
g14
tp877
(g423
(istructures.domain
Action
p878
(dp879
g18
(lp880
(S'at_x0'
p881
tp882
a(S'at_y6'
p883
tp884
asg24
(lp885
(S'at_y7'
p886
tp887
asg28
(tsg29
(lp888
(S'at_y6'
p889
tp890
asg33
I0
sg34
(lp891
sg36
S'move_0_6_0_7'
p892
sbtp893
(g118
g68
g74
g124
g12
g80
tp894
tp895
a((g2
g118
g68
g70
g6
g120
g8
g124
g10
g12
g78
g80
g82
g84
g14
tp896
((istructures.domain
Action
p897
(dp898
g18
(lp899
(S'at_x1'
p900
tp901
a(S'at_y4'
p902
tp903
asg24
(lp904
g4
asg28
(tsg29
(lp905
(S'at_x1'
p906
tp907
asg33
I0
sg34
(lp908
sg36
S'move_1_4_0_4'
p909
sbtp910
(g2
g68
g4
g6
g120
g8
g12
g78
g80
g82
g84
tp911
tp912
a((g2
g118
g68
g70
g4
g6
g8
g124
g62
g10
g76
g80
g82
g84
tp913
((istructures.domain
Action
p914
(dp915
g18
(lp916
(S'at_x7'
p917
tp918
a(S'at_y2'
p919
tp920
asg24
(lp921
(S'at_y1'
p922
tp923
asg28
(tsg29
(lp924
(S'at_y2'
p925
tp926
asg33
I0
sg34
(lp927
sg36
S'move_7_2_7_1'
p928
sbg303
tp929
(g68
g4
g6
g74
g8
g124
g62
g10
g12
g82
g84
tp930
tp931
a((g118
g4
g74
g8
g124
g10
g76
g82
g14
tp932
(g318
tp933
(g118
g4
g124
g76
g78
g14
tp934
tp935
a((g2
g118
g70
g6
g124
g62
g10
g78
g80
g82
g14
tp936
(g897
tp937
(g118
g4
g6
g62
g10
g78
g82
g14
tp938
tp939
a((g2
g118
g68
g6
g74
g8
g62
g10
g76
g12
g78
g14
tp940
((istructures.domain
Action
p941
(dp942
g18
(lp943
(S'at_x4'
p944
tp945
a(S'at_y5'
p946
tp947
asg24
(lp948
(S'at_y4'
p949
tp950
asg28
(tsg29
(lp951
(S'at_y5'
p952
tp953
asg33
I0
sg34
(lp954
sg36
S'move_4_5_4_4'
p955
sbtp956
(g68
g74
g8
g124
g62
g10
g76
g12
g78
g14
tp957
tp958
a((g68
g70
g6
g74
g8
g10
g12
g78
g80
g84
g14
tp959
(g86
(istructures.domain
Action
p960
(dp961
g18
(lp962
(S'at_x4'
p963
tp964
a(S'at_y3'
p965
tp966
asg24
(lp967
(S'at_x3'
p968
tp969
asg28
(tsg29
(lp970
(S'at_x4'
p971
tp972
asg33
I0
sg34
(lp973
sg36
S'move_4_3_3_3'
p974
sbtp975
(g118
g68
g70
g10
g12
g82
g84
tp976
tp977
a((g68
g70
g120
g8
g124
g78
g80
g82
g84
tp978
((istructures.domain
Action
p979
(dp980
g18
(lp981
(S'at_x1'
p982
tp983
a(S'at_y7'
p984
tp985
asg24
(lp986
(S'at_y6'
p987
tp988
asg28
(tsg29
(lp989
(S'at_y7'
p990
tp991
asg33
I0
sg34
(lp992
sg36
S'move_1_7_1_6'
p993
sbtp994
(g120
g124
g78
g82
g14
tp995
tp996
a((g2
g70
g6
g120
g8
g62
g76
g12
g78
g80
g82
g84
g14
tp997
(g440
(istructures.domain
Action
p998
(dp999
g18
(lp1000
(S'at_x7'
p1001
tp1002
a(S'at_y3'
p1003
tp1004
asg24
(lp1005
(S'at_x6'
p1006
tp1007
asg28
(tsg29
(lp1008
(S'at_x7'
p1009
tp1010
asg33
I0
sg34
(lp1011
sg36
S'move_7_3_6_3'
p1012
sbtp1013
(g6
g74
g120
g8
g10
g78
g80
g84
g14
tp1014
tp1015
a((g2
g118
g68
g6
g74
g120
g12
g78
g80
g84
g14
tp1016
(g352
tp1017
(g2
g68
g6
g78
g82
tp1018
tp1019
a((g118
g68
g4
g6
g74
g8
g10
g82
g84
tp1020
(g653
(istructures.domain
Action
p1021
(dp1022
g18
(lp1023
(S'at_x0'
p1024
tp1025
a(S'at_y5'
p1026
tp1027
asg24
(lp1028
(S'at_x1'
p1029
tp1030
asg28
(tsg29
(lp1031
(S'at_x0'
p1032
tp1033
asg33
I0
sg34
(lp1034
sg36
S'move_0_5_1_5'
p1035
sbtp1036
(g118
g70
g74
g12
tp1037
tp1038
a((g2
g68
g6
g120
g8
g62
g10
g78
g84
g14
tp1039
(g352
tp1040
(g68
g6
g8
g78
g82
tp1041
tp1042
a((g2
g68
g4
g6
g74
g8
g76
g82
g84
g14
tp1043
((istructures.domain
Action
p1044
(dp1045
g18
(lp1046
(S'at_x4'
p1047
tp1048
a(S'at_y6'
p1049
tp1050
asg24
(lp1051
(S'at_x5'
p1052
tp1053
asg28
(tsg29
(lp1054
(S'at_x4'
p1055
tp1056
asg33
I0
sg34
(lp1057
sg36
S'move_4_6_5_6'
p1058
sbg581
g53
tp1059
(g8
g62
g76
g78
g80
g14
tp1060
tp1061
a((g2
g118
g68
g70
g6
g120
g8
g124
g62
g10
g76
g12
g78
g80
g84
tp1062
(g201
g533
tp1063
(g2
g68
g70
g6
g74
g10
g12
g14
tp1064
tp1065
a((g68
g4
g120
g8
g62
g10
g76
g78
g82
g84
g14
tp1066
(g581
g533
tp1067
(g68
g4
g74
g120
g8
g62
g76
g80
g82
tp1068
tp1069
a((g68
g74
g120
g124
g10
g12
g80
g84
tp1070
(g472
g897
g135
tp1071
(g74
g124
g10
g76
g80
g84
tp1072
tp1073
a((g2
g118
g68
g4
g120
g8
g62
g76
g12
g78
g80
g14
tp1074
((istructures.domain
Action
p1075
(dp1076
g18
(lp1077
(S'at_x7'
p1078
tp1079
a(S'at_y1'
p1080
tp1081
asg24
(lp1082
(S'at_y0'
p1083
tp1084
asg28
(tsg29
(lp1085
(S'at_y1'
p1086
tp1087
asg33
I0
sg34
(lp1088
sg36
S'move_7_1_7_0'
p1089
sb(istructures.domain
Action
p1090
(dp1091
g18
(lp1092
(S'at_x7'
p1093
tp1094
a(S'at_y5'
p1095
tp1096
asg24
(lp1097
(S'at_x6'
p1098
tp1099
asg28
(tsg29
(lp1100
(S'at_x7'
p1101
tp1102
asg33
I0
sg34
(lp1103
sg36
S'move_7_5_6_5'
p1104
sbtp1105
(g118
g4
g74
g120
g8
g62
g10
g76
g78
tp1106
tp1107
a((g118
g68
g70
g4
g74
g8
g124
g10
g76
g78
g84
g14
tp1108
(g150
g265
tp1109
(g2
g118
g120
tp1110
tp1111
a((g2
g118
g70
g6
g74
g120
g8
g10
g78
g80
g84
g14
tp1112
(g550
g53
tp1113
(g118
g68
g6
g74
g8
g62
g10
g78
g80
tp1114
tp1115
a((g118
g68
g70
g6
g74
g120
g8
g12
g80
g82
tp1116
((istructures.domain
Action
p1117
(dp1118
g18
(lp1119
(S'at_x4'
p1120
tp1121
a(S'at_y2'
p1122
tp1123
asg24
(lp1124
(S'at_x5'
p1125
tp1126
asg28
(tsg29
(lp1127
(S'at_x4'
p1128
tp1129
asg33
I0
sg34
(lp1130
sg36
S'move_4_2_5_2'
p1131
sb(istructures.domain
Action
p1132
(dp1133
g18
(lp1134
(S'at_x1'
p1135
tp1136
a(S'at_y7'
p1137
tp1138
asg24
(lp1139
(S'at_x0'
p1140
tp1141
asg28
(tsg29
(lp1142
(S'at_x1'
p1143
tp1144
asg33
I0
sg34
(lp1145
sg36
S'move_1_7_0_7'
p1146
sbtp1147
(g4
g120
g12
g78
tp1148
tp1149
a((g118
g4
g6
g120
g124
g62
g76
g12
g78
g80
g82
g84
tp1150
((istructures.domain
Action
p1151
(dp1152
g18
(lp1153
(S'at_x5'
p1154
tp1155
a(S'at_y5'
p1156
tp1157
asg24
(lp1158
(S'at_x6'
p1159
tp1160
asg28
(tsg29
(lp1161
(S'at_x5'
p1162
tp1163
asg33
I0
sg34
(lp1164
sg36
S'move_5_5_6_5'
p1165
sbg495
tp1166
(g2
g118
g4
g120
g124
g76
g82
g84
tp1167
tp1168
a((g68
g4
g6
g120
g8
g124
g62
g76
g12
g78
tp1169
((istructures.domain
Action
p1170
(dp1171
g18
(lp1172
g6
a(S'at_y1'
p1173
tp1174
asg24
(lp1175
(S'at_y2'
p1176
tp1177
asg28
(tsg29
(lp1178
(S'at_y1'
p1179
tp1180
asg33
I0
sg34
(lp1181
sg36
S'move_4_1_4_2'
p1182
sbtp1183
(g68
g4
g6
g120
g8
g62
g78
g80
tp1184
tp1185
a((g68
g70
g4
g6
g124
g78
g84
g14
tp1186
(g150
g284
tp1187
(g68
g4
g120
g78
g82
g84
tp1188
tp1189
a((g2
g118
g4
g74
g120
g62
g10
g78
g80
g82
g84
g14
tp1190
(g878
g135
tp1191
(g120
g76
g80
g84
tp1192
tp1193
a((g2
g118
g4
g8
g124
g62
g10
g76
g78
g84
tp1194
((istructures.domain
Action
p1195
(dp1196
g18
(lp1197
(S'at_x7'
p1198
tp1199
a(S'at_y0'
p1200
tp1201
asg24
(lp1202
(S'at_y1'
p1203
tp1204
asg28
(tsg29
(lp1205
(S'at_y0'
p1206
tp1207
asg33
I0
sg34
(lp1208
sg36
S'move_7_0_7_1'
p1209
sbtp1210
(g118
g4
g76
g12
g78
g84
tp1211
tp1212
a((g2
g118
g70
g6
g120
g8
g124
g62
g10
g76
g12
g78
g82
g14
tp1213
(g126
g423
g897
tp1214
(g2
g118
g4
g120
g62
g76
g12
g80
g14
tp1215
tp1216
a((g68
g4
g120
g124
g62
g76
g78
g84
g14
tp1217
(g581
(istructures.domain
Action
p1218
(dp1219
g18
(lp1220
(S'at_x5'
p1221
tp1222
ag68
asg24
(lp1223
(S'at_x6'
p1224
tp1225
asg28
(tsg29
(lp1226
(S'at_x5'
p1227
tp1228
asg33
I0
sg34
(lp1229
sg36
S'move_5_7_6_7'
p1230
sb(istructures.domain
Action
p1231
(dp1232
g18
(lp1233
(S'at_x0'
p1234
tp1235
a(S'at_y6'
p1236
tp1237
asg24
(lp1238
(S'at_x1'
p1239
tp1240
asg28
(tsg29
(lp1241
(S'at_x0'
p1242
tp1243
asg33
I0
sg34
(lp1244
sg36
S'move_0_6_1_6'
p1245
sbtp1246
(g68
g70
g74
g120
g124
g76
g80
tp1247
tp1248
a((g2
g118
g68
g70
g4
g74
g120
g8
g62
g80
g82
g14
tp1249
(g767
g135
tp1250
(g68
g70
g4
g120
g124
g62
g76
g82
g14
tp1251
tp1252
a((g2
g68
g4
g74
g10
g76
g12
g78
g84
g14
tp1253
((istructures.domain
Action
p1254
(dp1255
g18
(lp1256
g2
a(S'at_y1'
p1257
tp1258
asg24
(lp1259
(S'at_y2'
p1260
tp1261
asg28
(tsg29
(lp1262
(S'at_y1'
p1263
tp1264
asg33
I0
sg34
(lp1265
sg36
S'move_7_1_7_2'
p1266
sbg16
g53
tp1267
(g2
g70
g62
g78
g80
g84
tp1268
tp1269
a((g2
g118
g68
g70
g74
g120
g12
g78
g80
g82
g84
g14
tp1270
(g767
g897
tp1271
(g2
g4
g74
g124
g82
g14
tp1272
tp1273
a((g2
g118
g4
g6
g74
g120
g8
g124
g10
g78
g82
g14
tp1274
(g653
g472
tp1275
(g118
g70
g74
g12
g78
g82
g14
tp1276
tp1277
a((g68
g4
g6
g120
g8
g124
g62
g10
g76
g12
g78
g80
g82
g84
g14
tp1278
(g533
g265
tp1279
(g2
g68
g4
g8
g62
g76
g12
g80
g14
tp1280
tp1281
a((g70
g4
g74
g120
g8
g124
g62
g10
g76
g12
g78
g80
g82
g84
g14
tp1282
(g495
tp1283
(g2
g8
g10
g76
tp1284
tp1285
a((g118
g68
g4
g6
g74
g120
g124
g62
g78
g82
tp1286
(g265
tp1287
(g2
g118
g6
g124
g78
tp1288
tp1289
a((g2
g68
g124
g62
g10
g76
g12
g82
tp1290
((istructures.domain
Action
p1291
(dp1292
g18
(lp1293
(S'at_x3'
p1294
tp1295
a(S'at_y0'
p1296
tp1297
asg24
(lp1298
(S'at_x4'
p1299
tp1300
asg28
(tsg29
(lp1301
(S'at_x3'
p1302
tp1303
asg33
I0
sg34
(lp1304
sg36
S'move_3_0_4_0'
p1305
sbg212
g303
tp1306
(g6
g74
g8
g10
g76
g12
tp1307
tp1308
a((g2
g118
g70
g6
g8
g124
g62
g10
g76
g12
g78
g80
g82
g84
g14
tp1309
(g533
g150
tp1310
(g2
g6
g74
g120
g8
g76
g80
g82
g84
tp1311
tp1312
a((g2
g118
g70
g6
g120
g8
g124
g62
g76
g12
g78
g14
tp1313
(g1151
tp1314
(g118
g70
g6
g74
g120
tp1315
tp1316
a((g2
g118
g68
g4
g6
g74
g8
g62
g76
g12
g78
g82
g14
tp1317
(g379
g1021
tp1318
(g118
g70
g74
g120
g8
g76
g78
g14
tp1319
tp1320
a((g2
g118
g68
g4
g74
g120
g8
g124
g10
g80
g82
g84
g14
tp1321
(g1291
g1117
tp1322
(g2
g74
g120
g10
g78
g80
g14
tp1323
tp1324
a((g118
g68
g70
g4
g6
g74
g120
g8
g124
g62
g76
g12
g78
g84
tp1325
(g440
(istructures.domain
Action
p1326
(dp1327
g18
(lp1328
(S'at_x2'
p1329
tp1330
a(S'at_y5'
p1331
tp1332
asg24
(lp1333
(S'at_x3'
p1334
tp1335
asg28
(tsg29
(lp1336
(S'at_x2'
p1337
tp1338
asg33
I0
sg34
(lp1339
sg36
S'move_2_5_3_5'
p1340
sbtp1341
(g70
g4
g6
g74
g8
g62
g10
g76
g78
g82
tp1342
tp1343
a((g68
g70
g6
g120
g8
g124
g10
g12
g78
g80
g14
tp1344
(g86
tp1345
(g118
g68
g6
g120
g10
g12
tp1346
tp1347
a((g118
g4
g8
g124
g62
g10
g76
g12
g78
g82
g84
tp1348
(g533
g1291
g16
tp1349
(g118
g70
g6
g74
g8
g124
g76
g12
g84
tp1350
tp1351
a((g2
g118
g70
g4
g74
g120
g62
g10
g12
g82
g84
g14
tp1352
(g212
tp1353
(g2
g74
g120
g8
g62
g10
g12
g84
g14
tp1354
tp1355
a((g2
g118
g68
g70
g120
g8
g62
g10
g76
g78
g84
tp1356
(g533
g1326
tp1357
(g118
g68
g74
g8
g62
g82
tp1358
tp1359
a((g2
g118
g70
g4
g8
g62
g10
g76
g12
g78
g82
g84
tp1360
(g126
tp1361
(g118
g70
g4
g76
g80
g82
tp1362
tp1363
a((g2
g70
g6
g74
g8
g124
g62
g10
g76
g80
g82
tp1364
(g423
g379
tp1365
(g2
g74
g120
g8
g62
g12
g80
tp1366
tp1367
a((g118
g68
g4
g74
g120
g8
g62
g78
g80
g82
g14
tp1368
(g135
tp1369
(g118
g120
g8
g76
g82
tp1370
tp1371
a((g118
g68
g120
g8
g124
g62
g78
g84
g14
tp1372
(g581
g352
(istructures.domain
Action
p1373
(dp1374
g18
(lp1375
(S'at_x3'
p1376
tp1377
a(S'at_y2'
p1378
tp1379
asg24
(lp1380
(S'at_x4'
p1381
tp1382
asg28
(tsg29
(lp1383
(S'at_x3'
p1384
tp1385
asg33
I0
sg34
(lp1386
sg36
S'move_3_2_4_2'
p1387
sbtp1388
(g6
g124
g62
g78
g80
tp1389
tp1390
a((g68
g4
g6
g74
g120
g10
g12
g84
tp1391
(g1170
g135
(istructures.domain
Action
p1392
(dp1393
g18
(lp1394
(S'at_x0'
p1395
tp1396
a(S'at_y7'
p1397
tp1398
asg24
(lp1399
(S'at_y6'
p1400
tp1401
asg28
(tsg29
(lp1402
(S'at_y7'
p1403
tp1404
asg33
I0
sg34
(lp1405
sg36
S'move_0_7_0_6'
p1406
sbtp1407
(g4
g74
g10
g76
g80
g14
tp1408
tp1409
a((g118
g70
g4
g6
g74
g120
g8
g124
g62
g76
g80
g82
g84
g14
tp1410
(g459
tp1411
(g6
g120
g8
g124
g62
g76
g12
g82
g84
g14
tp1412
tp1413
a((g2
g118
g68
g70
g4
g74
g120
g8
g124
g62
g10
g76
g12
g80
g82
g84
tp1414
(g1291
g979
tp1415
(g118
g70
g6
g74
g120
g124
g76
g84
g14
tp1416
tp1417
a((g68
g70
g4
g6
g124
g62
g10
g12
g84
g14
tp1418
(g150
g16
tp1419
(g68
g70
g120
g62
g10
g12
tp1420
tp1421
a((g2
g118
g6
g74
g124
g62
g10
g76
g78
g80
g84
tp1422
(g284
(istructures.domain
Action
p1423
(dp1424
g18
(lp1425
(S'at_x3'
p1426
tp1427
a(S'at_y2'
p1428
tp1429
asg24
(lp1430
(S'at_x2'
p1431
tp1432
asg28
(tsg29
(lp1433
(S'at_x3'
p1434
tp1435
asg33
I0
sg34
(lp1436
sg36
S'move_3_2_2_2'
p1437
sbtp1438
(g2
g118
g120
g78
g84
tp1439
tp1440
a((g2
g70
g4
g6
g124
g10
g76
g78
g80
g82
g84
g14
tp1441
(g878
g53
tp1442
(g68
g70
g4
g124
g62
g80
g82
tp1443
tp1444
a((g2
g68
g6
g120
g124
g62
g10
g76
g12
g78
g80
g82
g84
g14
tp1445
(g86
g212
tp1446
(g2
g118
g68
g6
g120
g8
g62
g76
g12
g78
g80
g82
tp1447
tp1448
a((g2
g68
g70
g4
g120
g8
g62
g10
g82
g84
g14
tp1449
(g714
(istructures.domain
Action
p1450
(dp1451
g18
(lp1452
(S'at_x2'
p1453
tp1454
a(S'at_y6'
p1455
tp1456
asg24
(lp1457
(S'at_y5'
p1458
tp1459
asg28
(tsg29
(lp1460
(S'at_y6'
p1461
tp1462
asg33
I0
sg34
(lp1463
sg36
S'move_2_6_2_5'
p1464
sbtp1465
(g2
g118
g70
g120
g124
g62
tp1466
tp1467
a((g118
g70
g6
g74
g8
g62
g10
g76
g78
g80
g84
g14
tp1468
((istructures.domain
Action
p1469
(dp1470
g18
(lp1471
(S'at_x5'
p1472
tp1473
a(S'at_y3'
p1474
tp1475
asg24
(lp1476
(S'at_y4'
p1477
tp1478
asg28
(tsg29
(lp1479
(S'at_y3'
p1480
tp1481
asg33
I0
sg34
(lp1482
sg36
S'move_5_3_5_4'
p1483
sb(istructures.domain
Action
p1484
(dp1485
g18
(lp1486
(S'at_x6'
p1487
tp1488
a(S'at_y2'
p1489
tp1490
asg24
(lp1491
(S'at_x7'
p1492
tp1493
asg28
(tsg29
(lp1494
(S'at_x6'
p1495
tp1496
asg33
I0
sg34
(lp1497
sg36
S'move_6_2_7_2'
p1498
sbtp1499
(g2
g118
g6
g124
g62
g10
g76
tp1500
tp1501
a((g2
g68
g70
g4
g6
g8
g124
g62
g76
g12
g80
g14
tp1502
(g440
g914
(istructures.domain
Action
p1503
(dp1504
g18
(lp1505
(S'at_x0'
p1506
tp1507
a(S'at_y6'
p1508
tp1509
asg24
(lp1510
(S'at_y5'
p1511
tp1512
asg28
(tsg29
(lp1513
(S'at_y6'
p1514
tp1515
asg33
I0
sg34
(lp1516
sg36
S'move_0_6_0_5'
p1517
sbtp1518
(g118
g70
g6
g124
g62
g10
g76
g12
tp1519
tp1520
a((g118
g68
g4
g6
g8
g62
g10
g76
g12
g78
g82
g14
tp1521
(g16
tp1522
(g70
g6
g8
g62
g78
g14
tp1523
tp1524
a((g2
g118
g70
g4
g74
g124
g76
g78
g82
g84
g14
tp1525
(g150
tp1526
(g118
g120
g76
g84
tp1527
tp1528
a((g2
g118
g68
g4
g74
g120
g82
g84
tp1529
((istructures.domain
Action
p1530
(dp1531
g18
(lp1532
(S'at_x2'
p1533
tp1534
a(S'at_y3'
p1535
tp1536
asg24
(lp1537
(S'at_y2'
p1538
tp1539
asg28
(tsg29
(lp1540
(S'at_y3'
p1541
tp1542
asg33
I0
sg34
(lp1543
sg36
S'move_2_3_2_2'
p1544
sbg459
g472
tp1545
(g118
g70
g74
g12
g82
tp1546
tp1547
a((g2
g118
g4
g120
g124
g62
g10
g76
g12
g78
g80
g82
g84
g14
tp1548
((istructures.domain
Action
p1549
(dp1550
g18
(lp1551
(S'at_x5'
p1552
tp1553
a(S'at_y2'
p1554
tp1555
asg24
(lp1556
(S'at_x4'
p1557
tp1558
asg28
(tsg29
(lp1559
(S'at_x5'
p1560
tp1561
asg33
I0
sg34
(lp1562
sg36
S'move_5_2_4_2'
p1563
sbtp1564
(g2
g4
g6
g120
g76
g12
g80
g82
tp1565
tp1566
a((g2
g68
g70
g4
g74
g120
g124
g76
g12
g80
g82
g84
g14
tp1567
(g440
g212
tp1568
(g2
g68
g4
g8
g10
g80
g84
tp1569
tp1570
a((g74
g8
g124
g12
g78
g80
g82
tp1571
(g619
(istructures.domain
Action
p1572
(dp1573
g18
(lp1574
(S'at_x6'
p1575
tp1576
a(S'at_y1'
p1577
tp1578
asg24
(lp1579
(S'at_y2'
p1580
tp1581
asg28
(tsg29
(lp1582
(S'at_y1'
p1583
tp1584
asg33
I0
sg34
(lp1585
sg36
S'move_6_1_6_2'
p1586
sbg1549
tp1587
(g6
g74
g8
g124
g80
g82
g84
tp1588
tp1589
a((g118
g70
g4
g6
g74
g120
g8
g62
g10
g78
g80
g82
g84
tp1590
(g201
g459
g1469
tp1591
(g4
g74
g124
g62
g10
g12
g78
g14
tp1592
tp1593
a((g2
g118
g68
g4
g6
g74
g8
g124
g62
g10
g76
g82
g84
g14
tp1594
(g653
g1254
tp1595
(g68
g124
g62
g80
g82
g84
g14
tp1596
tp1597
a((g2
g118
g68
g4
g6
g120
g8
g10
g76
g12
g80
g14
tp1598
(g767
g1117
tp1599
(g120
g8
g124
g78
g80
tp1600
tp1601
a((g2
g118
g68
g4
g6
g74
g124
g76
g12
g82
tp1602
((istructures.domain
Action
p1603
(dp1604
g18
(lp1605
(S'at_x0'
p1606
tp1607
a(S'at_y5'
p1608
tp1609
asg24
(lp1610
(S'at_y6'
p1611
tp1612
asg28
(tsg29
(lp1613
(S'at_y5'
p1614
tp1615
asg33
I0
sg34
(lp1616
sg36
S'move_0_5_0_6'
p1617
sbtp1618
(g68
g6
g74
g76
g82
g14
tp1619
tp1620
a((g2
g118
g68
g70
g4
g120
g124
g76
g78
g80
g84
g14
tp1621
(g352
g53
tp1622
(g2
g118
g70
g4
g62
g76
g82
g14
tp1623
tp1624
a((g2
g118
g70
g4
g6
g124
g62
g10
g76
g12
g78
g80
g82
g84
tp1625
(g303
tp1626
(g70
g4
g74
g10
g78
g80
g82
tp1627
tp1628
a((g118
g70
g4
g6
g74
g8
g124
g62
g10
g12
g78
g14
tp1629
(g126
(istructures.domain
Action
p1630
(dp1631
g18
(lp1632
(S'at_x5'
p1633
tp1634
a(S'at_y4'
p1635
tp1636
asg24
(lp1637
(S'at_y3'
p1638
tp1639
asg28
(tsg29
(lp1640
(S'at_y4'
p1641
tp1642
asg33
I0
sg34
(lp1643
sg36
S'move_5_4_5_3'
p1644
sbg495
tp1645
(g2
g118
g4
g6
g62
g78
g80
g84
tp1646
tp1647
a((g68
g70
g6
g74
g120
g8
g78
g80
g82
g84
tp1648
(g514
g691
tp1649
(g70
g4
g6
g80
g82
g84
tp1650
tp1651
a((g2
g68
g70
g4
g6
g74
g124
g62
g76
g12
g80
g82
tp1652
(g979
(istructures.domain
Action
p1653
(dp1654
g18
(lp1655
(S'at_x4'
p1656
tp1657
a(S'at_y4'
p1658
tp1659
asg24
(lp1660
(S'at_y5'
p1661
tp1662
asg28
(tsg29
(lp1663
(S'at_y4'
p1664
tp1665
asg33
I0
sg34
(lp1666
sg36
S'move_4_4_4_5'
p1667
sbtp1668
(g2
g118
g6
g62
g76
g80
g82
g14
tp1669
tp1670
a((g2
g118
g68
g70
g4
g6
g74
g8
g62
g10
g12
g78
g82
tp1671
(g126
g423
g379
tp1672
(g68
g70
g74
g120
g12
g80
tp1673
tp1674
a((g118
g68
g6
g74
g120
g124
g62
g10
g76
g12
g78
g80
g82
g84
tp1675
(g472
tp1676
(g68
g70
g74
g124
g62
g76
g12
g78
g80
g84
tp1677
tp1678
a((g2
g118
g68
g70
g4
g74
g120
g124
g10
g14
tp1679
(g318
g53
tp1680
(g2
g70
g4
g62
g78
tp1681
tp1682
a((g2
g68
g4
g6
g74
g120
g8
g124
g10
g76
g12
g80
g82
g14
tp1683
(g1450
tp1684
(g2
g118
g68
g8
g10
g76
g12
g80
tp1685
tp1686
a((g2
g118
g68
g70
g4
g74
g120
g8
g124
g62
g76
g12
g82
tp1687
(g201
g440
tp1688
(g2
g70
g4
g74
g8
g62
g10
g76
g14
tp1689
tp1690
a((g2
g118
g68
g70
g74
g120
g8
g62
g10
g76
g12
g78
g80
g14
tp1691
((istructures.domain
Action
p1692
(dp1693
g18
(lp1694
(S'at_x1'
p1695
tp1696
a(S'at_y6'
p1697
tp1698
asg24
(lp1699
(S'at_x0'
p1700
tp1701
asg28
(tsg29
(lp1702
(S'at_x1'
p1703
tp1704
asg33
I0
sg34
(lp1705
sg36
S'move_1_6_0_6'
p1706
sbtp1707
(g4
g8
g10
g76
tp1708
tp1709
a((g2
g118
g70
g6
g74
g120
g124
g10
g78
g14
tp1710
(g897
tp1711
(g4
g6
tp1712
tp1713
a((g118
g70
g4
g6
g120
g62
g10
g76
g80
g82
tp1714
(g201
g423
g817
tp1715
(g70
g62
g76
g12
g84
g14
tp1716
tp1717
a((g2
g68
g70
g6
g74
g120
g62
g10
g78
g82
g84
g14
tp1718
(g423
g126
g514
tp1719
(g2
g68
g4
g6
g120
g62
g78
g80
g84
g14
tp1720
tp1721
a((g2
g118
g68
g4
g8
g124
g62
g76
g12
g82
g14
tp1722
(g379
g472
tp1723
(g2
g70
g4
g12
tp1724
tp1725
a((g2
g118
g68
g70
g4
g6
g120
g8
g124
g62
g10
g76
g12
g80
g82
tp1726
(g303
tp1727
(g118
g6
g74
g10
g76
g12
tp1728
tp1729
a((g2
g118
g68
g4
g6
g120
g8
g62
g76
g78
g82
g84
g14
tp1730
(g1021
tp1731
(g70
g120
g8
g78
g82
g84
tp1732
tp1733
a((g118
g68
g70
g4
g6
g8
g62
g10
g76
g12
g80
g84
tp1734
(g201
g1117
tp1735
(g70
g10
g12
g78
g84
g14
tp1736
tp1737
a((g2
g118
g68
g70
g4
g6
g74
g8
g124
g12
g78
g80
tp1738
(g619
g979
tp1739
(g118
g4
g6
g84
g14
tp1740
tp1741
a((g118
g68
g4
g6
g74
g8
g10
g78
g80
g82
g14
tp1742
(g619
g135
tp1743
(g118
g68
g6
g74
g10
g76
g84
g14
tp1744
tp1745
a((g2
g68
g70
g4
g6
g74
g120
g124
g10
g76
g80
g84
g14
tp1746
(g423
g284
tp1747
(g2
g68
g70
g124
g76
g12
g82
tp1748
tp1749
a((g118
g68
g70
g4
g74
g8
g124
g62
g10
g12
g82
g84
g14
tp1750
(g1291
g135
tp1751
(g4
g6
g8
g76
g14
tp1752
tp1753
a((g2
g68
g70
g4
g6
g74
g8
g62
g10
g12
g82
g84
g14
tp1754
(g1044
g1469
tp1755
(g70
g4
g74
g8
g124
g62
g78
g14
tp1756
tp1757
a((g2
g118
g4
g120
g62
g10
g76
g80
g82
g84
g14
tp1758
((istructures.domain
Action
p1759
(dp1760
g18
(lp1761
(S'at_x2'
p1762
tp1763
a(S'at_y6'
p1764
tp1765
asg24
(lp1766
(S'at_x1'
p1767
tp1768
asg28
(tsg29
(lp1769
(S'at_x2'
p1770
tp1771
asg33
I0
sg34
(lp1772
sg36
S'move_2_6_1_6'
p1773
sbg878
tp1774
(g68
g70
g4
g62
g10
g80
g82
tp1775
tp1776
a((g2
g118
g68
g70
g74
g120
g124
g62
g10
g76
g80
tp1777
(g817
g318
tp1778
(g118
g70
g120
g62
g78
g84
tp1779
tp1780
a((g2
g118
g68
g70
g4
g6
g120
g124
g62
g10
g76
g12
g80
g14
tp1781
(g1117
g212
tp1782
(g2
g120
g8
g124
g10
g76
g78
tp1783
tp1784
a((g118
g68
g4
g74
g120
g8
g62
g76
g12
g80
g82
g14
tp1785
(g817
(istructures.domain
Action
p1786
(dp1787
g18
(lp1788
(S'at_x3'
p1789
tp1790
a(S'at_y1'
p1791
tp1792
asg24
(lp1793
(S'at_x4'
p1794
tp1795
asg28
(tsg29
(lp1796
(S'at_x3'
p1797
tp1798
asg33
I0
sg34
(lp1799
sg36
S'move_3_1_4_1'
p1800
sbtp1801
(g118
g68
g4
g6
g74
g76
g84
tp1802
tp1803
a((g2
g118
g68
g70
g74
g62
g12
g80
g82
g84
tp1804
(g101
tp1805
(g118
g120
g62
g82
tp1806
tp1807
a((g2
g118
g68
g6
g120
g124
g62
g76
g12
g78
g82
g84
g14
tp1808
((istructures.domain
Action
p1809
(dp1810
g18
(lp1811
(S'at_x4'
p1812
tp1813
a(S'at_y1'
p1814
tp1815
asg24
(lp1816
(S'at_y0'
p1817
tp1818
asg28
(tsg29
(lp1819
(S'at_y1'
p1820
tp1821
asg33
I0
sg34
(lp1822
sg36
S'move_4_1_4_0'
p1823
sbg212
tp1824
(g2
g118
g68
g120
g8
g62
g76
g84
g14
tp1825
tp1826
a((g118
g70
g6
g74
g62
g10
g76
g78
g84
g14
tp1827
(g423
g514
tp1828
(g4
g74
g76
g12
g84
tp1829
tp1830
a((g68
g70
g4
g120
g62
g10
g76
g12
g78
g80
g14
tp1831
(g817
g533
tp1832
(g68
g74
g62
g10
g84
tp1833
tp1834
a((g2
g118
g4
g74
g10
g76
g80
g84
tp1835
(g1195
g1603
(istructures.domain
Action
p1836
(dp1837
g18
(lp1838
(S'at_x0'
p1839
tp1840
a(S'at_y3'
p1841
tp1842
asg24
(lp1843
(S'at_y4'
p1844
tp1845
asg28
(tsg29
(lp1846
(S'at_y3'
p1847
tp1848
asg33
I0
sg34
(lp1849
sg36
S'move_0_3_0_4'
p1850
sbtp1851
(g4
g124
g76
g12
g80
g14
tp1852
tp1853
a((g2
g118
g68
g6
g124
g62
g10
g76
g12
g80
g82
g14
tp1854
(g379
tp1855
(g2
g118
g68
g120
g124
g76
g80
tp1856
tp1857
a((g118
g68
g70
g4
g6
g74
g120
g62
g76
g12
g78
g80
g14
tp1858
(g767
g1630
tp1859
(g68
g6
g62
g12
g80
g84
g14
tp1860
tp1861
a((g2
g118
g68
g6
g74
g120
g8
g62
g10
g76
g12
g78
g80
g82
tp1862
(g817
g1254
tp1863
(g118
g6
g74
g120
g10
g76
g78
g80
g82
g84
tp1864
tp1865
a((g2
g68
g70
g4
g6
g74
g8
g124
g62
g12
g80
g14
tp1866
(g440
g150
tp1867
(g2
g4
g120
g8
g62
g10
g14
tp1868
tp1869
a((g2
g68
g70
g4
g6
g8
g10
g12
g78
g80
g84
g14
tp1870
(g101
g135
tp1871
(g2
g68
g120
g10
g76
g12
g78
g80
g14
tp1872
tp1873
a((g2
g68
g6
g74
g120
g124
g10
g80
g84
g14
tp1874
(g1195
tp1875
(g68
g6
g120
g12
g80
g14
tp1876
tp1877
a((g2
g70
g4
g6
g8
g62
g10
g12
g84
tp1878
((istructures.domain
Action
p1879
(dp1880
g18
(lp1881
(S'at_x4'
p1882
tp1883
a(S'at_y3'
p1884
tp1885
asg24
(lp1886
(S'at_x5'
p1887
tp1888
asg28
(tsg29
(lp1889
(S'at_x4'
p1890
tp1891
asg33
I0
sg34
(lp1892
sg36
S'move_4_3_5_3'
p1893
sbg533
tp1894
(g2
g4
g74
g8
g62
g10
g12
g84
tp1895
tp1896
a((g2
g68
g4
g6
g74
g120
g8
g124
g62
g10
g76
g78
g80
g84
tp1897
((istructures.domain
Action
p1898
(dp1899
g18
(lp1900
(S'at_x5'
p1901
tp1902
a(S'at_y4'
p1903
tp1904
asg24
(lp1905
(S'at_y5'
p1906
tp1907
asg28
(tsg29
(lp1908
(S'at_y4'
p1909
tp1910
asg33
I0
sg34
(lp1911
sg36
S'move_5_4_5_5'
p1912
sbg1469
tp1913
(g118
g4
g6
g74
g8
g124
g62
g10
g78
tp1914
tp1915
a((g118
g70
g6
g124
g62
g10
g76
g12
g78
g80
g82
g84
g14
tp1916
(g379
g284
tp1917
(g70
g120
g124
g62
g10
g82
g84
tp1918
tp1919
a((g68
g70
g6
g62
g10
g76
g12
g80
g84
tp1920
(g1117
g533
g265
tp1921
(g2
g70
g62
g10
g12
g80
g84
tp1922
tp1923
a((g6
g74
g124
g62
g76
g12
g80
g82
g84
g14
tp1924
(g1809
g733
tp1925
(g6
g124
g10
g12
g84
tp1926
tp1927
a((g2
g4
g74
g120
g8
g62
g12
g80
g82
g84
tp1928
(g714
g817
tp1929
(g2
g4
g74
g120
g8
g124
g12
g84
tp1930
tp1931
a((g68
g70
g4
g74
g8
g124
g62
g76
g12
g78
g80
g84
tp1932
(g979
tp1933
(g70
g4
g74
g124
g76
g12
g80
g84
g14
tp1934
tp1935
a((g118
g68
g6
g120
g62
g76
g12
g78
g84
tp1936
(g581
g472
g1132
tp1937
(g118
g4
g76
g12
g80
tp1938
tp1939
a((g2
g118
g68
g4
g6
g74
g8
g124
g10
g12
g78
g80
g82
g84
tp1940
(g16
tp1941
(g118
g68
g70
g6
g124
g12
g78
g80
g82
g84
tp1942
tp1943
a((g118
g68
g70
g4
g6
g120
g8
g62
g10
g76
g12
g78
g82
g84
tp1944
(g767
tp1945
(g68
g70
g124
g12
g78
g82
tp1946
tp1947
a((g68
g70
g6
g120
g124
g62
g76
g12
g78
g80
g82
g84
g14
tp1948
(g897
g1218
tp1949
(g68
g4
g74
g124
g76
g84
g14
tp1950
tp1951
a((g2
g118
g68
g70
g74
g120
g8
g124
g10
g76
g12
g78
g80
g14
tp1952
(g897
g53
tp1953
(g2
g118
g4
g74
g8
g124
g62
g76
g12
g78
tp1954
tp1955
a((g2
g118
g4
g6
g74
g62
g80
g82
tp1956
(g1603
g878
tp1957
(g2
g68
g4
g6
g80
tp1958
tp1959
a((g2
g118
g70
g6
g74
g120
g124
g10
g12
g84
tp1960
(g201
g1653
tp1961
(g2
g118
g70
g6
g12
g84
g14
tp1962
tp1963
a((g2
g70
g4
g120
g8
g62
g76
g78
g80
g84
g14
tp1964
(g352
(istructures.domain
Action
p1965
(dp1966
g18
(lp1967
(S'at_x5'
p1968
tp1969
a(S'at_y2'
p1970
tp1971
asg24
(lp1972
(S'at_x6'
p1973
tp1974
asg28
(tsg29
(lp1975
(S'at_x5'
p1976
tp1977
asg33
I0
sg34
(lp1978
sg36
S'move_5_2_6_2'
p1979
sbtp1980
(g2
g70
g4
g74
g8
g62
g76
g80
g82
tp1981
tp1982
a((g118
g68
g4
g6
g74
g10
g76
g12
g80
g82
g14
tp1983
(g379
g265
g212
tp1984
(g118
g6
g120
g8
g10
g76
g12
g14
tp1985
tp1986
a((g70
g74
g8
g124
g10
g12
g84
g14
tp1987
(g126
g150
g1450
tp1988
(g118
g74
g120
g8
g80
tp1989
tp1990
a((g2
g118
g70
g6
g120
g124
g62
g10
g76
g12
g80
g82
g14
tp1991
(g897
tp1992
(g118
g4
g6
g62
g80
g82
g14
tp1993
tp1994
a((g2
g118
g6
g124
g62
g76
g78
g80
g14
tp1995
(g303
tp1996
(g118
g74
g124
g76
g78
g14
tp1997
tp1998
a((g2
g4
g6
g120
g8
g62
g10
g12
g80
g84
g14
tp1999
(g1450
tp2000
(g2
g118
g6
g120
g62
g80
g84
tp2001
tp2002
a((g2
g118
g68
g70
g4
g120
g8
g124
g10
g76
g12
g78
g80
g84
g14
tp2003
(g352
tp2004
(g2
g68
g70
g4
g8
g12
g82
g84
tp2005
tp2006
a((g118
g70
g4
g6
g74
g120
g8
g124
g76
g12
g80
g82
g84
tp2007
(g201
g878
tp2008
(g68
g4
g12
g82
g84
tp2009
tp2010
a((g118
g70
g8
g62
g10
g76
g80
g82
g14
tp2011
((istructures.domain
Action
p2012
(dp2013
g18
(lp2014
(S'at_x1'
p2015
tp2016
a(S'at_y2'
p2017
tp2018
asg24
(lp2019
(S'at_y1'
p2020
tp2021
asg28
(tsg29
(lp2022
(S'at_y2'
p2023
tp2024
asg33
I0
sg34
(lp2025
sg36
S'move_1_2_1_1'
p2026
sbtp2027
(g118
g70
g8
g10
g12
g82
tp2028
tp2029
a((g2
g118
g68
g70
g74
g120
g124
g62
g10
g76
g12
g78
g80
g14
tp2030
(g897
g1630
tp2031
(g118
g68
g4
g74
g120
g62
g10
g76
g78
g80
g84
tp2032
tp2033
a((g118
g68
g4
g74
g120
g8
g124
g62
g10
g12
g80
g82
g84
g14
tp2034
(g135
tp2035
(g74
g8
g76
g82
g84
g14
tp2036
tp2037
a((g2
g70
g6
g74
g8
g62
g10
g12
g82
g14
tp2038
(g126
g596
tp2039
(g6
g62
g82
g84
tp2040
tp2041
a((g2
g118
g70
g4
g6
g74
g120
g124
g62
g10
g76
g12
g14
tp2042
(g284
g212
tp2043
(g70
g8
g10
g12
g82
g14
tp2044
tp2045
a((g2
g118
g70
g74
g120
g124
g62
g76
g78
g80
g82
g84
g14
tp2046
(g1549
tp2047
(g70
g6
g120
g62
g76
g80
tp2048
tp2049
a((g2
g118
g68
g70
g4
g6
g74
g120
g124
g62
g10
g76
g80
g82
g14
tp2050
(g212
tp2051
(g118
g70
g4
g74
g8
g124
g62
g76
g80
g82
tp2052
tp2053
a((g118
g68
g70
g4
g6
g74
g120
g8
g124
g62
g10
g76
g80
g82
tp2054
(g201
g423
tp2055
(g120
g124
g62
g76
g12
g80
g82
g14
tp2056
tp2057
a((g2
g118
g68
g70
g4
g6
g8
g124
g76
g12
g82
g14
tp2058
(g126
g1117
g303
tp2059
(g68
g70
g74
g78
g80
tp2060
tp2061
a((g2
g68
g70
g4
g6
g120
g8
g76
g12
g78
g84
tp2062
(g581
g1218
g53
tp2063
(g2
g4
g6
g74
g62
g76
g12
g80
tp2064
tp2065
a((g2
g68
g4
g74
g120
g8
g124
g62
g10
g76
g78
g80
g84
tp2066
((istructures.domain
Action
p2067
(dp2068
g18
(lp2069
(S'at_x2'
p2070
tp2071
a(S'at_y3'
p2072
tp2073
asg24
(lp2074
(S'at_x3'
p2075
tp2076
asg28
(tsg29
(lp2077
(S'at_x2'
p2078
tp2079
asg33
I0
sg34
(lp2080
sg36
S'move_2_3_3_3'
p2081
sbtp2082
(g68
g4
g74
g8
g62
g76
g78
g80
g82
tp2083
tp2084
a((g2
g68
g70
g4
g6
g74
g120
g62
g10
g76
g78
g80
g82
g14
tp2085
(g86
g212
tp2086
(g118
g68
g4
g6
g74
g8
g10
g76
g80
g82
tp2087
tp2088
a((g2
g68
g8
g124
g10
g76
g12
g78
g80
g82
tp2089
((istructures.domain
Action
p2090
(dp2091
g18
(lp2092
(S'at_x7'
p2093
tp2094
a(S'at_y7'
p2095
tp2096
asg24
(lp2097
(S'at_y6'
p2098
tp2099
asg28
(tsg29
(lp2100
(S'at_y7'
p2101
tp2102
asg33
I0
sg34
(lp2103
sg36
S'move_7_7_7_6'
p2104
sbtp2105
(g8
g10
g78
g82
g14
tp2106
tp2107
a((g2
g118
g68
g4
g6
g74
g8
g10
g76
g12
g80
tp2108
(g941
tp2109
(g68
g4
g6
g124
g10
g76
tp2110
tp2111
a((g118
g70
g4
g6
g74
g8
g62
g10
g12
g78
g80
g82
g84
g14
tp2112
(g379
g767
tp2113
(g74
g120
g8
g124
g62
g80
g14
tp2114
tp2115
a((g118
g68
g4
g74
g62
g76
g80
g84
g14
tp2116
(g265
g1836
tp2117
(g2
g118
g68
g124
g62
g76
g80
g14
tp2118
tp2119
a((g2
g118
g68
g70
g4
g6
g74
g10
g12
g80
g82
g84
g14
tp2120
(g379
g318
tp2121
(g118
g4
g6
g120
g10
g78
g80
tp2122
tp2123
a((g118
g68
g70
g6
g74
g120
g8
g62
g76
g12
g82
tp2124
(g126
g817
g767
tp2125
(g68
g8
g124
g76
g82
g84
tp2126
tp2127
a((g2
g68
g70
g4
g6
g120
g8
g124
g62
g10
g76
g12
g78
g80
g82
g14
tp2128
(g817
g126
tp2129
(g68
g8
g124
g10
g76
g78
g80
g84
g14
tp2130
tp2131
a((g2
g118
g70
g4
g74
g120
g124
g62
g10
g12
g78
g80
g82
g14
tp2132
(g878
g212
tp2133
(g118
g68
g70
g4
g74
g120
g8
g12
g78
tp2134
tp2135
a((g2
g68
g4
g120
g8
g10
g76
g12
g78
g82
tp2136
(g1254
g16
tp2137
(g68
g70
g8
g78
g80
g82
tp2138
tp2139
a((g118
g68
g70
g4
g6
g74
g8
g62
g10
g76
g78
g80
g82
g84
g14
tp2140
(g101
g1469
tp2141
(g118
g68
g4
g74
g120
g8
g124
g62
g76
g78
g82
g14
tp2142
tp2143
a((g4
g6
g120
g8
g10
g76
g78
g82
g84
g14
tp2144
(g581
g878
tp2145
(g68
g4
g8
g10
g76
g80
g82
tp2146
tp2147
a((g2
g118
g4
g6
g74
g120
g8
g76
g12
g78
g80
g82
g84
tp2148
(g182
g878
tp2149
(g68
g74
g120
g80
g82
tp2150
tp2151
a((g2
g68
g70
g4
g6
g120
g8
g124
g62
g10
g76
g12
g82
g14
tp2152
(g163
tp2153
(g68
g70
g120
g76
g82
g84
tp2154
tp2155
a((g2
g68
g70
g4
g6
g74
g120
g124
g62
g10
g12
g80
g14
tp2156
(g817
g212
tp2157
(g2
g68
g4
g74
g120
g8
g124
g10
g12
g84
tp2158
tp2159
a((g118
g68
g4
g74
g8
g124
g62
g12
g82
g14
tp2160
(g1786
g337
tp2161
(g4
g74
g8
g124
g78
g14
tp2162
tp2163
a((g68
g4
g74
g8
g10
g76
g12
g78
g84
g14
tp2164
(g1469
g265
tp2165
(g2
g68
g8
g124
g14
tp2166
tp2167
a((g2
g4
g6
g120
g124
g10
g76
g78
g80
g84
g14
tp2168
(g1759
g878
tp2169
(g2
g68
g70
g4
g6
g124
g10
tp2170
tp2171
a((g2
g70
g4
g6
g74
g124
g62
g10
g76
g12
g78
g84
g14
tp2172
(g86
tp2173
(g2
g118
g4
g6
g62
g78
g84
tp2174
tp2175
a((g70
g4
g6
g74
g124
g62
g10
g76
g12
g78
g80
g82
g14
tp2176
(g379
g878
tp2177
(g68
g70
g74
g120
g10
g78
g80
tp2178
tp2179
a((g2
g68
g4
g6
g74
g76
g78
g82
g84
tp2180
(g1469
g2090
tp2181
(g2
g4
g74
g124
g78
g14
tp2182
tp2183
a((g2
g118
g68
g70
g4
g6
g74
g8
g124
g62
g10
g80
g82
g84
g14
tp2184
(g150
g135
tp2185
(g118
g68
g6
g74
g120
g76
g80
g84
g14
tp2186
tp2187
a((g4
g6
g74
g120
g8
g124
g62
g76
g78
g82
g84
g14
tp2188
(g581
g1759
g1630
tp2189
(g70
g74
g8
g76
g80
g84
tp2190
tp2191
a((g68
g70
g4
g74
g124
g62
g10
g80
g82
g84
g14
tp2192
(g423
g1786
g135
tp2193
(g68
g70
g4
g6
g124
g62
g76
g12
g84
tp2194
tp2195
a((g118
g68
g4
g6
g8
g62
g76
g12
g78
g80
g82
g84
tp2196
(g1809
g733
tp2197
(g62
g10
g12
g82
g84
tp2198
tp2199
a((g2
g118
g70
g4
g8
g124
g84
g14
tp2200
(g878
g303
g135
tp2201
(g68
g70
g4
g74
g124
g76
g84
tp2202
tp2203
a((g118
g68
g70
g4
g6
g8
g62
g10
g76
g80
tp2204
(g201
g1117
g619
tp2205
(g68
g70
g4
g78
g84
g14
tp2206
tp2207
a((g4
g74
g120
g8
g10
g76
g78
g84
g14
tp2208
(g86
g1469
(istructures.domain
Action
p2209
(dp2210
g18
(lp2211
(S'at_x2'
p2212
tp2213
a(S'at_y5'
p2214
tp2215
asg24
(lp2216
(S'at_x1'
p2217
tp2218
asg28
(tsg29
(lp2219
(S'at_x2'
p2220
tp2221
asg33
I0
sg34
(lp2222
sg36
S'move_2_5_1_5'
p2223
sbtp2224
(g118
g70
g4
g124
g10
tp2225
tp2226
a((g2
g118
g70
g4
g120
g8
g124
g10
g76
g12
g80
g82
g14
tp2227
(g817
g303
tp2228
(g118
g70
g74
g120
g8
g124
g76
g82
g84
g14
tp2229
tp2230
a((g2
g70
g4
g6
g8
g124
g10
g76
g12
g78
g80
g84
g14
tp2231
(g878
g53
tp2232
(g2
g68
g4
g8
g124
g62
g76
g12
g80
tp2233
tp2234
a((g2
g68
g70
g74
g120
g8
g124
g10
g78
g84
g14
tp2235
(g423
g581
g1898
tp2236
(g2
g118
g68
g74
g12
g80
g14
tp2237
tp2238
a((g2
g118
g68
g70
g62
g76
g12
g78
g82
g14
tp2239
(g440
(istructures.domain
Action
p2240
(dp2241
g18
(lp2242
(S'at_x1'
p2243
tp2244
a(S'at_y7'
p2245
tp2246
asg24
(lp2247
(S'at_x2'
p2248
tp2249
asg28
(tsg29
(lp2250
(S'at_x1'
p2251
tp2252
asg33
I0
sg34
(lp2253
sg36
S'move_1_7_2_7'
p2254
sbtp2255
(g68
g120
g10
g82
tp2256
tp2257
a((g2
g118
g68
g70
g4
g74
g8
g62
g10
g76
g78
g80
g82
tp2258
(g914
g379
tp2259
(g2
g68
g4
g74
g120
g8
g62
g10
g12
g78
tp2260
tp2261
a((g118
g6
g74
g120
g8
g62
g76
g12
g80
g82
tp2262
(g1809
tp2263
(g118
g120
g62
g10
g80
g82
tp2264
tp2265
a((g118
g68
g4
g120
g8
g124
g62
g10
g78
g84
tp2266
(g1326
tp2267
(g118
g8
g124
g10
g78
g82
tp2268
tp2269
a((g2
g118
g4
g6
g74
g120
g8
g62
g12
g84
g14
tp2270
(g1809
g794
tp2271
(g2
g118
g4
g74
g120
g62
g10
g82
g84
g14
tp2272
tp2273
a((g118
g68
g70
g4
g6
g74
g8
g10
g76
g12
g78
g80
g82
tp2274
(g379
g246
tp2275
(g118
g70
g74
g120
g8
g10
g12
g80
g82
tp2276
tp2277
a((g2
g68
g70
g4
g6
g74
g124
g10
g12
g82
g14
tp2278
(g126
g423
g135
tp2279
(g68
g70
g4
g76
g12
g80
tp2280
tp2281
a((g118
g74
g8
g10
g76
g12
g78
g80
g84
g14
tp2282
(g1549
(istructures.domain
Action
p2283
(dp2284
g18
(lp2285
(S'at_x6'
p2286
tp2287
a(S'at_y6'
p2288
tp2289
asg24
(lp2290
(S'at_y7'
p2291
tp2292
asg28
(tsg29
(lp2293
(S'at_y6'
p2294
tp2295
asg33
I0
sg34
(lp2296
sg36
S'move_6_6_6_7'
p2297
sbtp2298
(g118
g68
g6
g8
g80
g84
tp2299
tp2300
a((g68
g4
g120
g124
g10
g80
g82
g84
g14
tp2301
(g1759
(istructures.domain
Action
p2302
(dp2303
g18
(lp2304
(S'at_x3'
p2305
tp2306
a(S'at_y4'
p2307
tp2308
asg24
(lp2309
(S'at_y5'
p2310
tp2311
asg28
(tsg29
(lp2312
(S'at_y4'
p2313
tp2314
asg33
I0
sg34
(lp2315
sg36
S'move_3_4_3_5'
p2316
sbtp2317
(g118
g70
g4
g80
g14
tp2318
tp2319
a((g2
g118
g70
g6
g74
g120
g8
g124
g10
g76
g12
g78
g14
tp2320
(g1630
tp2321
(g118
g70
g6
g120
g76
g78
g84
g14
tp2322
tp2323
a((g118
g4
g74
g120
g8
g124
g62
g10
g76
g80
g82
g14
tp2324
(g817
tp2325
(g4
g120
g8
g124
g10
g76
g82
g84
tp2326
tp2327
a((g2
g118
g68
g70
g4
g6
g74
g8
g84
g14
tp2328
(g941
g150
g53
tp2329
(g68
g120
g124
g62
tp2330
tp2331
a((g118
g4
g120
g62
g10
g76
g78
g80
g84
tp2332
(g533
g495
g212
tp2333
(g4
g8
g62
g80
g84
tp2334
tp2335
a((g68
g4
g74
g8
g124
g62
g10
g76
g78
g82
g84
g14
tp2336
((istructures.domain
Action
p2337
(dp2338
g18
(lp2339
(S'at_x5'
p2340
tp2341
a(S'at_y3'
p2342
tp2343
asg24
(lp2344
(S'at_x4'
p2345
tp2346
asg28
(tsg29
(lp2347
(S'at_x5'
p2348
tp2349
asg33
I0
sg34
(lp2350
sg36
S'move_5_3_4_3'
p2351
sbtp2352
(g6
g8
g76
g82
g84
tp2353
tp2354
a((g118
g68
g70
g4
g6
g74
g120
g62
g76
g12
g78
g84
g14
tp2355
(g126
tp2356
(g74
g62
g76
g78
g80
g84
tp2357
tp2358
a((g118
g68
g70
g6
g120
g8
g10
g80
g84
g14
tp2359
(g767
tp2360
(g68
g70
g6
g124
g80
g84
tp2361
tp2362
a((g68
g4
g74
g120
g124
g62
g10
g76
g12
g78
g80
g82
g84
tp2363
(g1392
g86
tp2364
(g118
g4
g120
g124
g62
g10
g76
g78
g82
g84
tp2365
tp2366
a((g2
g6
g8
g62
g10
g76
g12
g80
g82
g14
tp2367
(g596
g672
tp2368
(g2
g6
g124
g10
g76
g82
g14
tp2369
tp2370
a((g2
g68
g6
g120
g124
g76
g12
g80
g82
tp2371
(g2090
tp2372
(g6
g76
g14
tp2373
tp2374
a((g70
g4
g120
g8
g124
g62
g10
g12
g78
g80
g82
g14
tp2375
(g1291
g878
tp2376
(g68
g70
g4
g6
g124
g62
g10
g12
g78
g80
tp2377
tp2378
a((g2
g68
g70
g74
g120
g124
g62
g78
g82
g14
tp2379
(g86
g979
tp2380
(g2
g118
g70
g120
g124
g78
g14
tp2381
tp2382
a((g2
g118
g4
g120
g8
g62
g10
g76
g12
g78
g80
g82
g84
tp2383
(g16
g1469
tp2384
(g118
g70
g124
g10
g76
g78
g80
g82
tp2385
tp2386
a((g118
g68
g70
g4
g6
g120
g8
g62
g10
g12
g84
g14
tp2387
(g126
g423
g1117
tp2388
(g68
g4
g62
g12
g78
g80
g84
tp2389
tp2390
a((g2
g68
g70
g4
g120
g124
g62
g78
g84
tp2391
(g581
g459
g303
tp2392
(g68
g70
g4
g74
g120
g124
g12
g78
tp2393
tp2394
a((g2
g118
g68
g70
g4
g6
g8
g62
g76
g12
g82
g84
g14
tp2395
(g126
g101
tp2396
(g2
g118
g120
g8
g76
g80
g82
tp2397
tp2398
a((g2
g118
g70
g4
g6
g74
g120
g8
g124
g62
g76
g12
g84
g14
tp2399
(g284
g1530
tp2400
(g118
g70
g74
g120
g8
g12
g80
g82
g14
tp2401
tp2402
a((g2
g118
g70
g74
g120
g8
g124
g76
g12
g78
g82
tp2403
(g201
g1898
tp2404
(g2
g118
g120
g8
g76
g14
tp2405
tp2406
a((g2
g118
g68
g70
g74
g8
g124
g62
g82
g14
tp2407
((istructures.domain
Action
p2408
(dp2409
g18
(lp2410
(S'at_x3'
p2411
tp2412
a(S'at_y7'
p2413
tp2414
asg24
(lp2415
(S'at_x4'
p2416
tp2417
asg28
(tsg29
(lp2418
(S'at_x3'
p2419
tp2420
asg33
I0
sg34
(lp2421
sg36
S'move_3_7_4_7'
p2422
sbtp2423
(g6
g8
g124
g62
g14
tp2424
tp2425
a((g118
g68
g4
g74
g120
g8
g124
g62
g10
g76
g12
g80
g82
g84
g14
tp2426
(g1291
g265
tp2427
(g2
g118
g68
g6
g120
g124
g10
g76
g12
g80
g84
g14
tp2428
tp2429
a((g2
g68
g4
g74
g120
g124
g62
g10
g12
g78
g82
g84
g14
tp2430
(g581
g212
tp2431
(g68
g4
g8
g62
g10
g78
g80
g14
tp2432
tp2433
a((g6
g120
g8
g62
g10
g12
g78
g80
g84
g14
tp2434
(g533
g1117
tp2435
(g74
g120
g10
g78
g84
tp2436
tp2437
a((g2
g118
g68
g70
g4
g6
g74
g120
g8
g124
g10
g76
g12
g80
tp2438
(g318
tp2439
(g118
g68
g6
g120
g8
g124
g10
g76
g78
g80
tp2440
tp2441
a((g2
g68
g4
g6
g120
g8
g124
g62
g82
g84
g14
tp2442
(g1653
tp2443
(g118
g68
g4
g62
g14
tp2444
tp2445
a((g2
g68
g70
g4
g6
g120
g8
g124
g62
g10
g12
g78
g84
g14
tp2446
(g533
g284
tp2447
(g2
g74
g120
g8
g124
g62
g10
g12
g82
g84
tp2448
tp2449
a((g2
g118
g4
g6
g124
g62
g10
g76
g12
g82
g14
tp2450
(g1254
g1117
g533
tp2451
(g2
g118
g74
g124
g76
g80
g82
g14
tp2452
tp2453
a((g2
g118
g70
g124
g62
g76
g80
g82
g14
tp2454
(g596
g303
(istructures.domain
Action
p2455
(dp2456
g18
(lp2457
(S'at_x6'
p2458
tp2459
a(S'at_y5'
p2460
tp2461
asg24
(lp2462
(S'at_x5'
p2463
tp2464
asg28
(tsg29
(lp2465
(S'at_x6'
p2466
tp2467
asg33
I0
sg34
(lp2468
sg36
S'move_6_5_5_5'
p2469
sbtp2470
(g70
g124
g78
g82
g84
tp2471
tp2472
a((g70
g4
g74
g120
g62
g10
g78
g82
g84
g14
tp2473
(g86
g1291
tp2474
(g118
g70
g4
g6
g74
g120
g10
g78
g84
tp2475
tp2476
a((g2
g118
g68
g70
g4
g6
g74
g120
g8
g124
g62
g76
g12
g78
g80
tp2477
(g979
tp2478
(g2
g118
g70
g4
g120
g124
g12
g78
g80
g14
tp2479
tp2480
a((g2
g4
g6
g74
g124
g62
g10
g76
g12
g84
g14
tp2481
(g337
tp2482
(g2
g4
g74
g124
g10
g78
tp2483
tp2484
a((g2
g118
g70
g4
g74
g120
g8
g124
g62
g10
g12
g78
g80
g82
tp2485
(g201
g817
tp2486
(g2
g4
g124
g62
g10
g78
g82
g84
g14
tp2487
tp2488
a((g68
g4
g6
g74
g120
g8
g124
g76
g80
g82
g84
g14
tp2489
(g1231
g1450
tp2490
(g118
g70
g6
g120
g8
g84
tp2491
tp2492
a((g2
g118
g68
g70
g6
g74
g8
g124
g62
g76
g12
g80
g82
g14
tp2493
(g440
g318
tp2494
(g2
g68
g6
g10
g78
g80
g82
g14
tp2495
tp2496
a((g68
g4
g6
g8
g124
g10
g78
g80
g82
tp2497
(g733
g135
tp2498
(g68
g8
g10
g76
g12
g78
tp2499
tp2500
a((g2
g118
g68
g70
g6
g74
g12
g78
g82
g14
tp2501
(g440
g212
tp2502
(g118
g6
g8
g10
g82
tp2503
tp2504
a((g2
g118
g74
g8
g124
g62
g10
g76
g80
g84
tp2505
(g914
g634
tp2506
(g2
g8
g124
g12
g14
tp2507
tp2508
a((g2
g68
g70
g4
g6
g74
g120
g124
g10
g12
g78
g80
g14
tp2509
(g212
tp2510
(g70
g4
g120
g8
g12
g78
g80
g14
tp2511
tp2512
a((g118
g70
g4
g6
g120
g62
g78
g80
g84
g14
tp2513
(g878
tp2514
(g68
g70
g120
g84
tp2515
tp2516
a((g2
g118
g68
g70
g4
g62
g10
g78
g80
g82
g14
tp2517
(g619
g101
tp2518
(g4
g120
g78
g82
g84
g14
tp2519
tp2520
a((g118
g4
g120
g124
g10
g76
g12
g78
tp2521
(g182
g1630
tp2522
(g120
g10
g76
g12
g84
g14
tp2523
tp2524
a((g2
g118
g68
g70
g4
g74
g120
g8
g124
g10
g76
g84
g14
tp2525
(g352
tp2526
(g2
g118
g70
g4
g74
g8
g82
g84
tp2527
tp2528
a((g2
g118
g4
g6
g74
g120
g124
g62
g76
g12
g80
g82
g14
tp2529
(g878
tp2530
(g2
g118
g68
g6
g82
tp2531
tp2532
a((g74
g124
g10
g76
g78
g80
g84
g14
tp2533
(g495
g212
tp2534
(g8
g76
g80
g84
tp2535
tp2536
a((g4
g6
g74
g8
g124
g76
g12
g78
g82
g14
tp2537
(g86
g379
g284
tp2538
(g118
g4
g74
g120
g124
g76
g12
g82
tp2539
tp2540
a((g70
g4
g6
g8
g62
g78
g82
g84
g14
tp2541
(g581
(istructures.domain
Action
p2542
(dp2543
g18
(lp2544
(S'at_x1'
p2545
tp2546
a(S'at_y6'
p2547
tp2548
asg24
(lp2549
(S'at_x2'
p2550
tp2551
asg28
(tsg29
(lp2552
(S'at_x1'
p2553
tp2554
asg33
I0
sg34
(lp2555
sg36
S'move_1_6_2_6'
p2556
sbg1965
tp2557
(g4
g74
g120
g8
g80
g82
tp2558
tp2559
a((g68
g6
g74
g120
g124
g62
g10
g76
g12
g78
g80
tp2560
(g265
g2090
tp2561
(g2
g120
g62
g76
g12
g14
tp2562
tp2563
a((g2
g4
g124
g62
g76
g78
g80
g84
tp2564
(g1898
g1603
tp2565
(g2
g4
g62
g80
g84
g14
tp2566
tp2567
a((g2
g70
g4
g74
g120
g8
g124
g62
g10
g12
g80
g82
g84
tp2568
(g1291
g227
tp2569
(g2
g70
g6
g74
g8
g124
g62
g10
g80
g82
tp2570
tp2571
a((g2
g68
g4
g120
g124
g62
g10
g76
g78
g80
g82
g14
tp2572
(g212
tp2573
(g2
g68
g8
g124
g10
g80
g82
g14
tp2574
tp2575
a((g2
g118
g68
g70
g4
g6
g74
g120
g8
g62
g10
g76
g12
g80
g84
g14
tp2576
(g767
g284
tp2577
(g70
g4
g74
g120
g124
g76
g12
g80
g82
g84
tp2578
tp2579
a((g2
g68
g70
g4
g6
g74
g124
g62
g10
g76
g78
g82
g84
tp2580
(g581
tp2581
(g70
g74
g124
g10
g78
g80
g82
tp2582
tp2583
a((g2
g118
g68
g70
g4
g6
g74
g120
g8
g76
g12
g80
g84
tp2584
(g767
tp2585
(g68
g4
g74
g8
g124
tp2586
tp2587
a((g118
g70
g6
g124
g76
g12
g80
g82
tp2588
(g440
g897
tp2589
(g118
g4
g10
g80
tp2590
tp2591
a((g118
g68
g70
g74
g8
g62
g12
g78
g84
g14
tp2592
(g514
g400
tp2593
(g118
g68
g4
g6
g74
g62
tp2594
tp2595
a((g2
g118
g68
g74
g120
g8
g124
g76
g12
g78
g80
g84
tp2596
(g1075
g459
tp2597
(g2
g118
g8
g10
g76
g12
tp2598
tp2599
a((g2
g118
g68
g70
g74
g120
g8
g10
g12
g78
g82
g84
tp2600
(g53
tp2601
(g68
g70
g120
g8
g62
g12
g84
tp2602
tp2603
a((g2
g118
g68
g6
g120
g62
g10
g76
g80
g82
g84
g14
tp2604
(g1117
g1090
tp2605
(g68
g74
g120
g62
g76
g78
g80
g84
g14
tp2606
tp2607
a((g2
g118
g68
g4
g8
g124
g62
g10
g12
g78
g84
tp2608
(g581
g533
g2090
tp2609
(g118
g4
g74
g62
g10
g12
g80
g14
tp2610
tp2611
a((g2
g68
g4
g6
g74
g120
g124
g10
g76
g78
g80
g82
g14
tp2612
(g817
g212
tp2613
(g4
g6
g8
g124
g76
g82
g84
g14
tp2614
tp2615
a((g2
g118
g68
g4
g74
g120
g8
g62
g76
g12
g80
g14
tp2616
(g767
g472
tp2617
(g2
g70
g8
g124
g80
g14
tp2618
tp2619
a((g2
g118
g68
g70
g6
g74
g124
g62
g10
g80
g82
g84
g14
tp2620
(g1423
tp2621
(g68
g70
g120
g124
tp2622
tp2623
a((g2
g118
g68
g70
g4
g124
g62
g10
g76
g12
g78
g80
g82
tp2624
(g1291
g1630
tp2625
(g2
g6
g62
g76
g12
g80
g84
tp2626
tp2627
a((g118
g68
g70
g120
g62
g10
g76
g12
g78
g80
g82
g84
g14
tp2628
(g533
g514
tp2629
(g4
g74
g62
g10
g12
g80
g84
tp2630
tp2631
a((g118
g68
g4
g74
g120
g124
g62
g10
g12
g78
g80
g82
g14
tp2632
(g1630
tp2633
(g68
g74
g120
g62
g78
g80
g84
tp2634
tp2635
a((g118
g70
g74
g8
g76
g12
g78
g84
tp2636
((istructures.domain
Action
p2637
(dp2638
g18
(lp2639
(S'at_x6'
p2640
tp2641
a(S'at_y5'
p2642
tp2643
asg24
(lp2644
(S'at_y4'
p2645
tp2646
asg28
(tsg29
(lp2647
(S'at_y5'
p2648
tp2649
asg33
I0
sg34
(lp2650
sg36
S'move_6_5_6_4'
p2651
sbg495
tp2652
(g2
g8
g124
g78
g84
tp2653
tp2654
a((g2
g68
g4
g6
g120
g8
g124
g62
g76
g80
g82
g84
g14
tp2655
(g1450
tp2656
(g118
g68
g4
g6
g8
g124
g62
g76
g80
g84
tp2657
tp2658
a((g2
g68
g70
g4
g74
g120
g10
g76
g12
g78
g82
g84
g14
tp2659
(g126
g53
tp2660
(g68
g70
g62
g76
g78
g80
g82
g84
tp2661
tp2662
a((g70
g4
g74
g120
g8
g10
g76
g12
g82
tp2663
(g126
g423
tp2664
(g74
g76
g12
g80
g82
tp2665
tp2666
a((g2
g68
g4
g6
g74
g120
g62
g10
g76
g12
g78
g82
g84
g14
tp2667
(g212
tp2668
(g2
g6
g74
g120
g8
g62
g10
g76
g12
g84
g14
tp2669
tp2670
a((g2
g118
g68
g4
g74
g124
g62
g10
g76
g12
g78
g14
tp2671
(g212
g1630
tp2672
(g118
g4
g8
g62
g10
g12
g84
g14
tp2673
tp2674
a((g118
g68
g70
g6
g120
g124
g10
g76
g12
g80
g84
tp2675
(g979
tp2676
(g118
g124
g84
g14
tp2677
tp2678
a((g2
g118
g70
g74
g124
g62
g10
g76
g78
g84
g14
tp2679
(g212
tp2680
(g118
g70
g74
g8
g124
g62
g10
g76
g78
g84
tp2681
tp2682
a((g2
g118
g68
g70
g6
g74
g124
g62
g10
g78
g82
g84
g14
tp2683
(g581
g897
tp2684
(g118
g68
g4
g6
g124
g10
g80
g82
tp2685
tp2686
a((g2
g68
g70
g4
g74
g120
g8
g62
g76
g12
g78
g82
g84
tp2687
(g440
g979
tp2688
(g2
g70
g4
g8
g10
g76
g84
g14
tp2689
tp2690
a((g2
g118
g70
g4
g6
g74
g120
g8
g62
g10
g76
g78
g80
g84
tp2691
(g201
g878
tp2692
(g2
g68
g70
g4
g74
g8
g62
tp2693
tp2694
a((g2
g118
g68
g4
g6
g74
g124
g62
g12
g78
g14
tp2695
(g284
g1021
tp2696
(g2
g68
g70
g124
g12
g78
g82
tp2697
tp2698
a((g2
g70
g4
g6
g74
g120
g8
g62
g10
g76
g12
g80
g14
tp2699
(g794
tp2700
(g4
g8
g76
g12
g80
g82
g14
tp2701
tp2702
a((g2
g118
g68
g120
g10
g76
g80
g82
g84
g14
tp2703
(g459
(istructures.domain
Action
p2704
(dp2705
g18
(lp2706
(S'at_x7'
p2707
tp2708
a(S'at_y1'
p2709
tp2710
asg24
(lp2711
(S'at_x6'
p2712
tp2713
asg28
(tsg29
(lp2714
(S'at_x7'
p2715
tp2716
asg33
I0
sg34
(lp2717
sg36
S'move_7_1_6_1'
p2718
sbtp2719
(g118
g68
g74
g12
g82
g84
g14
tp2720
tp2721
a((g2
g118
g68
g70
g4
g6
g120
g8
g124
g10
g76
g12
g78
g80
g84
g14
tp2722
(g53
tp2723
(g118
g68
g4
g120
g8
g62
g10
g78
tp2724
tp2725
a((g68
g70
g4
g6
g74
g120
g124
g62
g10
g78
g80
g84
g14
tp2726
(g284
tp2727
(g4
g120
g62
g10
g78
g80
g82
g14
tp2728
tp2729
a((g2
g68
g4
g74
g8
g124
g62
g80
g82
tp2730
(g914
g135
g2302
tp2731
(g2
g118
g4
g8
g76
g12
g82
tp2732
tp2733
a((g70
g4
g6
g8
g124
g62
g10
g76
g80
g84
g14
tp2734
(g284
tp2735
(g70
g8
g62
g10
g76
g82
g84
tp2736
tp2737
a((g2
g118
g68
g70
g4
g6
g74
g120
g8
g124
g62
g10
g12
g82
g84
tp2738
(g135
tp2739
(g68
g70
g74
g124
g76
tp2740
tp2741
a((g2
g118
g68
g70
g4
g6
g74
g120
g8
g124
g62
g12
g78
g82
tp2742
(g126
g1630
tp2743
(g68
g70
g4
g6
g74
g62
g78
g80
g84
tp2744
tp2745
a((g2
g118
g68
g4
g6
g74
g76
g80
g82
g84
g14
tp2746
(g1117
g1469
tp2747
(g2
g118
g68
g4
g124
g78
g80
g82
g14
tp2748
tp2749
a((g118
g68
g70
g6
g120
g8
g124
g62
g10
g76
g12
g80
g82
g14
tp2750
(g817
tp2751
(g68
g76
g12
g82
g84
g14
tp2752
tp2753
a((g118
g70
g4
g120
g8
g124
g62
g10
g76
g12
g78
g80
g82
g14
tp2754
(g817
tp2755
(g118
g120
g8
g62
g78
g84
tp2756
tp2757
a((g118
g68
g70
g4
g6
g120
g8
g62
g76
g78
g84
g14
tp2758
(g1151
g265
tp2759
(g2
g68
g70
g14
tp2760
tp2761
a((g2
g68
g70
g12
g78
g82
g84
g14
tp2762
(g86
(istructures.domain
Action
p2763
(dp2764
g18
(lp2765
(S'at_x7'
p2766
tp2767
a(S'at_y5'
p2768
tp2769
asg24
(lp2770
(S'at_y4'
p2771
tp2772
asg28
(tsg29
(lp2773
(S'at_y5'
p2774
tp2775
asg33
I0
sg34
(lp2776
sg36
S'move_7_5_7_4'
p2777
sbtp2778
(g68
g124
g82
g84
tp2779
tp2780
a((g68
g6
g74
g120
g8
g124
g62
g12
g82
g84
g14
tp2781
(g472
g379
tp2782
(g68
g70
g6
g120
g62
g14
tp2783
tp2784
a((g2
g118
g4
g6
g120
g8
g124
g62
g76
g12
g82
g84
tp2785
(g472
g379
tp2786
(g118
g70
g4
g120
g8
g124
g62
g76
g12
tp2787
tp2788
a((g2
g118
g68
g70
g6
g120
g8
g10
g12
g78
g82
g84
g14
tp2789
(g126
g1090
tp2790
(g118
g68
g70
g74
g78
g80
g14
tp2791
tp2792
a((g2
g118
g4
g74
g120
g8
g76
g12
g82
g84
g14
tp2793
(g1075
tp2794
(g2
g8
g10
g82
g84
g14
tp2795
tp2796
a((g2
g6
g120
g62
g76
g12
g78
g80
g84
g14
tp2797
(g550
g2704
tp2798
(g68
g74
g12
g78
g80
tp2799
tp2800
a((g2
g68
g70
g4
g74
g120
g8
g62
g80
g82
g84
tp2801
(g459
g440
g714
tp2802
(g2
g70
g8
g124
g62
g10
tp2803
tp2804
a((g68
g6
g74
g120
g124
g62
g12
g78
g84
g14
tp2805
(g86
g284
tp2806
(g118
g68
g62
g12
g82
tp2807
tp2808
a((g118
g70
g74
g120
g8
g62
g10
g76
g12
g82
g14
tp2809
(g1291
g1044
tp2810
(g118
g70
g74
g120
g8
g12
g78
g14
tp2811
tp2812
a((g2
g118
g68
g70
g4
g6
g74
g8
g62
g10
g76
g78
g80
g82
g84
g14
tp2813
(g914
g581
tp2814
(g2
g118
g68
g70
g4
g6
g8
g62
g10
g12
g78
g80
tp2815
tp2816
a((g2
g68
g70
g4
g6
g120
g124
g62
g76
g12
g80
g82
g84
tp2817
(g440
tp2818
(g70
g6
g120
g124
g10
g80
g84
tp2819
tp2820
a((g2
g68
g6
g74
g8
g76
g12
g80
g84
g14
tp2821
((istructures.domain
Action
p2822
(dp2823
g18
(lp2824
(S'at_x6'
p2825
tp2826
a(S'at_y2'
p2827
tp2828
asg24
(lp2829
(S'at_x5'
p2830
tp2831
asg28
(tsg29
(lp2832
(S'at_x6'
p2833
tp2834
asg33
I0
sg34
(lp2835
sg36
S'move_6_2_5_2'
p2836
sbtp2837
(g2
g68
g6
g76
g12
g78
g84
g14
tp2838
tp2839
a((g2
g68
g70
g6
g74
g8
g62
g10
g80
g82
g84
g14
tp2840
(g1117
g514
tp2841
(g4
g74
g10
g78
g82
g14
tp2842
tp2843
a((g2
g4
g74
g8
g124
g62
g76
g78
g80
g82
g84
g14
tp2844
(g914
g1786
tp2845
(g6
g74
g124
g62
g76
g12
tp2846
tp2847
a((g118
g68
g70
g6
g74
g120
g8
g124
g62
g10
g12
g82
g84
g14
tp2848
(g337
tp2849
(g70
g8
g124
g62
g12
g78
g82
g84
g14
tp2850
tp2851
a((g2
g4
g6
g74
g120
g124
g62
g10
g12
g84
tp2852
(g1254
g1117
g16
tp2853
(g70
g120
g62
g10
g78
g80
tp2854
tp2855
a((g68
g70
g4
g74
g120
g8
g124
g62
g10
g12
g78
g82
g84
g14
tp2856
(g1291
tp2857
(g70
g4
g6
g120
g8
g124
g62
g12
g84
tp2858
tp2859
a((g2
g118
g70
g74
g8
g62
g10
g12
g78
g14
tp2860
(g550
tp2861
(g2
g118
g68
g62
g10
tp2862
tp2863
a((g118
g70
g4
g6
g8
g124
g62
g10
g76
g78
g80
g82
g84
g14
tp2864
(g150
g16
tp2865
(g118
g70
g6
g120
g8
g124
g10
g82
tp2866
tp2867
a((g2
g4
g74
g120
g124
g10
g12
g78
g84
g14
tp2868
(g16
g212
tp2869
(g2
g70
g74
g8
g124
g10
g12
g78
g84
g14
tp2870
tp2871
a((g2
g118
g68
g70
g4
g74
g124
g12
g78
g82
g84
g14
tp2872
(g53
tp2873
(g2
g118
g68
g74
g62
g14
tp2874
tp2875
a((g2
g70
g6
g120
g8
g124
g62
g10
g14
tp2876
(g337
g1630
tp2877
(g2
g70
g10
g78
g84
tp2878
tp2879
a((g118
g68
g4
g74
g120
g8
g62
g76
g82
g84
tp2880
(g714
g2455
g2408
tp2881
(g118
g68
g6
g120
g8
g124
g76
g78
tp2882
tp2883
a((g118
g4
g6
g120
g8
g62
g10
g12
g80
g14
tp2884
(g16
g352
tp2885
(g70
g6
g12
g82
g14
tp2886
tp2887
a((g2
g118
g68
g70
g4
g6
g74
g120
g8
g124
g62
g10
g80
g82
tp2888
(g163
tp2889
(g118
g70
g120
g10
g80
g82
g84
tp2890
tp2891
a((g68
g70
g4
g6
g74
g8
g62
g76
g78
g80
tp2892
(g619
tp2893
(g4
g78
g84
tp2894
tp2895
a((g2
g70
g4
g120
g124
g62
g10
g78
g82
g84
g14
tp2896
(g423
g2337
tp2897
(g70
g6
g12
g82
tp2898
tp2899
a((g4
g6
g74
g8
g124
g10
g76
g82
g14
tp2900
(g163
tp2901
(g6
g8
g10
g84
g14
tp2902
tp2903
a((g2
g118
g70
g4
g124
g62
g10
g12
g78
g14
tp2904
(g150
g1630
tp2905
(g118
g4
g120
g62
g10
g12
g84
tp2906
tp2907
a((g2
g68
g4
g74
g8
g10
g78
g80
g84
g14
tp2908
(g86
g914
g16
tp2909
(g2
g118
g68
g70
g8
g10
g12
tp2910
tp2911
a((g68
g70
g6
g74
g62
g76
g12
g78
g84
g14
tp2912
(g101
g1469
tp2913
(g6
g74
g120
g124
g62
g78
tp2914
tp2915
a((g2
g68
g70
g4
g74
g120
g8
g124
g62
g10
g76
g12
g78
g82
g84
tp2916
(g1898
tp2917
(g118
g8
g10
g76
g78
g82
tp2918
tp2919
a((g2
g68
g70
g6
g74
g124
g10
g12
g78
g14
tp2920
(g212
tp2921
(g68
g70
g6
g74
g8
g10
g12
g78
g14
tp2922
tp2923
a((g68
g70
g4
g6
g74
g120
g8
g62
g12
g78
g84
g14
tp2924
(g126
g86
g960
tp2925
(g118
g68
g4
g8
g62
g80
g82
tp2926
tp2927
a((g2
g68
g70
g4
g120
g10
g76
g78
g80
g82
g84
g14
tp2928
(g1549
(istructures.domain
Action
p2929
(dp2930
g18
(lp2931
(S'at_x7'
p2932
tp2933
a(S'at_y7'
p2934
tp2935
asg24
(lp2936
(S'at_x6'
p2937
tp2938
asg28
(tsg29
(lp2939
(S'at_x7'
p2940
tp2941
asg33
I0
sg34
(lp2942
sg36
S'move_7_7_6_7'
p2943
sbtp2944
(g6
g74
g120
g10
g76
g80
g82
g14
tp2945
tp2946
a((g2
g68
g70
g4
g6
g74
g120
g124
g62
g10
g76
g12
g78
g82
g84
g14
tp2947
(g1898
tp2948
(g2
g118
g70
g4
g6
g74
g76
g12
g78
g82
g14
tp2949
tp2950
a((g2
g118
g70
g4
g74
g120
g62
g76
g12
g82
g14
tp2951
(g126
g767
(istructures.domain
Action
p2952
(dp2953
g18
(lp2954
(S'at_x7'
p2955
tp2956
a(S'at_y4'
p2957
tp2958
asg24
(lp2959
(S'at_y3'
p2960
tp2961
asg28
(tsg29
(lp2962
(S'at_y4'
p2963
tp2964
asg33
I0
sg34
(lp2965
sg36
S'move_7_4_7_3'
p2966
sbtp2967
(g2
g4
g120
g62
g76
g80
g84
g14
tp2968
tp2969
a((g2
g68
g4
g6
g74
g124
g76
g12
g78
g80
g82
g84
g14
tp2970
(g379
g284
tp2971
(g2
g68
g4
g74
g120
g82
tp2972
tp2973
a((g118
g68
g70
g6
g74
g120
g8
g62
g76
g78
g80
g82
g84
g14
tp2974
(g514
g265
tp2975
(g2
g118
g4
g120
g62
g76
g78
g80
g84
g14
tp2976
tp2977
a((g2
g118
g68
g70
g4
g74
g120
g8
g124
g62
g10
g76
g12
g80
g82
g84
tp2978
(g318
g1549
tp2979
(g68
g70
g6
g120
g8
g124
g62
g10
g76
g82
g84
tp2980
tp2981
a((g2
g68
g70
g4
g120
g8
g10
g76
g82
g84
g14
tp2982
(g1530
g1450
tp2983
(g2
g118
g70
g10
g76
g80
g82
tp2984
tp2985
a((g2
g118
g68
g70
g6
g74
g120
g8
g10
g12
g78
g80
g82
g84
g14
tp2986
(g53
tp2987
(g8
g62
g10
g12
g78
g80
g84
tp2988
tp2989
a((g2
g118
g68
g70
g4
g6
g120
g8
g124
g62
g10
g76
g12
g78
g82
g84
g14
tp2990
(g126
tp2991
(g2
g118
g4
g120
g124
g10
g76
g78
g80
g84
g14
tp2992
tp2993
a((g6
g74
g120
g62
g10
g80
g84
g14
tp2994
(g1759
g514
tp2995
(g4
g6
g74
g62
g10
g80
g84
g14
tp2996
tp2997
a((g74
g8
g62
g10
g78
g80
g82
g84
g14
tp2998
(g1423
tp2999
(g74
g120
g10
g80
tp3000
tp3001
a((g4
g6
g74
g120
g8
g124
g62
g76
g12
g78
g84
tp3002
(g284
tp3003
(g74
g120
g12
g78
g82
tp3004
tp3005
a((g2
g118
g68
g70
g4
g74
g120
g8
g62
g10
g80
g82
g84
g14
tp3006
(g135
tp3007
(g4
g74
g10
g76
g14
tp3008
tp3009
a((g2
g118
g68
g70
g4
g120
g124
g62
g10
g76
g12
g82
tp3010
(g126
g979
tp3011
(g118
g4
g120
g124
g76
g80
g14
tp3012
tp3013
a((g118
g6
g74
g124
g10
g12
g78
g80
g82
g84
g14
tp3014
(g495
g212
tp3015
(g2
g118
g8
g124
g10
g78
g80
g82
tp3016
tp3017
a((g118
g68
g4
g6
g74
g120
g8
g124
g10
g76
g12
g82
g84
g14
tp3018
(g337
g581
tp3019
(g118
g68
g4
g120
g10
g12
g78
g80
g14
tp3020
tp3021
a((g2
g68
g70
g6
g74
g120
g8
g124
g76
g78
g80
g82
g84
g14
tp3022
(g459
g581
tp3023
(g70
g6
g8
g76
g12
g78
g80
g82
g14
tp3024
tp3025
a((g2
g118
g70
g6
g74
g120
g62
g10
g76
g78
g80
g82
g84
g14
tp3026
(g767
g550
tp3027
(g2
g68
g6
g74
g120
g124
g62
g10
g76
g78
g82
tp3028
tp3029
a((g2
g118
g68
g70
g4
g6
g120
g8
g62
g10
g12
g82
g84
g14
tp3030
(g126
g1090
tp3031
(g68
g70
g6
g74
g120
g10
g80
tp3032
tp3033
a((g118
g68
g70
g4
g74
g120
g124
g62
g12
g82
tp3034
(g135
tp3035
(g118
g124
g76
g12
g82
tp3036
tp3037
a((g118
g68
g70
g4
g6
g74
g124
g62
g10
g12
g84
g14
tp3038
(g265
g212
tp3039
(g118
g68
g6
g8
g124
g10
tp3040
tp3041
a((g68
g6
g74
g120
g8
g124
g62
g10
g76
g12
g78
g84
g14
tp3042
(g86
tp3043
(g118
g6
g74
g84
tp3044
tp3045
a((g2
g118
g68
g70
g4
g6
g74
g124
g10
g76
g12
g82
g14
tp3046
(g53
tp3047
(g70
g74
g62
g10
g76
g12
g82
tp3048
tp3049
a((g118
g4
g74
g124
g62
g10
g76
g12
g78
g82
g84
tp3050
(g581
g1549
tp3051
(g118
g6
g74
g124
g12
g80
g82
tp3052
tp3053
a((g118
g70
g4
g6
g74
g120
g62
g76
g78
g82
g14
tp3054
(g767
(istructures.domain
Action
p3055
(dp3056
g18
(lp3057
(S'at_x6'
p3058
tp3059
a(S'at_y6'
p3060
tp3061
asg24
(lp3062
(S'at_x7'
p3063
tp3064
asg28
(tsg29
(lp3065
(S'at_x6'
p3066
tp3067
asg33
I0
sg34
(lp3068
sg36
S'move_6_6_7_6'
p3069
sb(istructures.domain
Action
p3070
(dp3071
g18
(lp3072
(S'at_x5'
p3073
tp3074
a(S'at_y4'
p3075
tp3076
asg24
(lp3077
(S'at_x6'
p3078
tp3079
asg28
(tsg29
(lp3080
(S'at_x5'
p3081
tp3082
asg33
I0
sg34
(lp3083
sg36
S'move_5_4_6_4'
p3084
sbtp3085
(g2
g74
g124
tp3086
tp3087
a((g2
g68
g70
g74
g120
g8
g124
g62
g10
g76
g78
g84
g14
tp3088
(g581
g352
tp3089
(g68
g74
g124
g76
g78
g80
g82
tp3090
tp3091
a((g2
g70
g6
g120
g8
g124
g76
g78
g80
g82
g84
g14
tp3092
(g550
g53
tp3093
(g6
g120
g8
g62
g78
g82
g84
tp3094
tp3095
a((g118
g68
g70
g6
g74
g120
g8
g124
g10
g12
g78
g80
g14
tp3096
(g352
g265
tp3097
(g2
g118
g70
g6
g12
g80
g82
tp3098
tp3099
a((g70
g74
g8
g124
g62
g10
g76
g80
g82
g14
tp3100
(g897
g1484
tp3101
(g2
g4
g124
g62
g76
g80
g14
tp3102
tp3103
a((g2
g68
g70
g4
g6
g74
g62
g10
g76
g12
g78
g80
g84
g14
tp3104
(g86
g960
tp3105
(g2
g118
g70
g10
g76
g80
g82
tp3106
tp3107
a((g2
g118
g70
g8
g62
g10
g76
g12
g78
g80
g84
tp3108
(g201
g550
tp3109
(g2
g68
g70
g10
g80
tp3110
tp3111
a((g2
g118
g4
g120
g62
g10
g12
g78
tp3112
(g182
g2704
tp3113
(g4
g74
g10
g78
g14
tp3114
tp3115
a((g2
g118
g68
g70
g4
g6
g124
g62
g76
g12
g78
g82
g84
tp3116
(g379
g284
tp3117
(g68
g70
g4
g120
g62
g76
g78
g82
tp3118
tp3119
a((g68
g70
g74
g120
g8
g124
g12
g78
g14
tp3120
(g126
g265
tp3121
(g2
g68
g70
g120
g124
g78
g80
g14
tp3122
tp3123
a((g6
g8
g124
g62
g12
g78
g82
g84
tp3124
(g379
g3070
tp3125
(g6
g74
g120
g124
g62
g12
g84
tp3126
tp3127
a((g2
g118
g70
g6
g74
g120
g8
g124
g62
g76
g12
g78
g14
tp3128
(g550
g1630
tp3129
(g2
g118
g68
g74
g8
g62
g76
g84
tp3130
tp3131
a((g2
g68
g4
g6
g8
g124
g10
g12
g78
g80
g82
g84
g14
tp3132
(g533
tp3133
(g2
g4
g74
g10
g82
g84
tp3134
tp3135
a((g2
g118
g68
g70
g4
g74
g120
g124
g62
g10
g12
g78
g82
g84
tp3136
(g979
tp3137
(g2
g118
g70
g124
g62
g10
g78
g14
tp3138
tp3139
a((g2
g68
g70
g6
g120
g8
g80
g82
g84
g14
tp3140
(g459
g514
g135
tp3141
(g68
g120
g8
g76
g12
g82
g84
tp3142
tp3143
a((g2
g118
g68
g4
g6
g120
g8
g10
g76
g12
g78
g80
g82
g14
tp3144
(g16
g53
tp3145
(g2
g68
g70
g6
g120
g8
g62
g76
g80
tp3146
tp3147
a((g68
g70
g6
g74
g124
g62
g10
g76
g12
g82
g14
tp3148
(g897
g163
tp3149
(g68
g4
g74
g62
g10
g82
g84
g14
tp3150
tp3151
a((g2
g118
g70
g4
g6
g120
g8
g62
g10
g12
g78
g80
g82
g84
g14
tp3152
(g533
g767
tp3153
(g70
g4
g6
g74
g8
g124
g62
g80
g82
g14
tp3154
tp3155
a((g2
g118
g68
g70
g4
g6
g8
g124
g62
g80
g82
g14
tp3156
(g914
g440
g150
tp3157
(g2
g118
g6
g120
g8
g62
g10
tp3158
tp3159
a((g2
g70
g6
g74
g120
g8
g62
g12
g78
tp3160
(g440
(istructures.domain
Action
p3161
(dp3162
g18
(lp3163
(S'at_x2'
p3164
tp3165
a(S'at_y0'
p3166
tp3167
asg24
(lp3168
(S'at_x3'
p3169
tp3170
asg28
(tsg29
(lp3171
(S'at_x2'
p3172
tp3173
asg33
I0
sg34
(lp3174
sg36
S'move_2_0_3_0'
p3175
sbtp3176
(g70
g6
g74
g8
g62
g10
g78
g82
tp3177
tp3178
a((g2
g118
g70
g4
g6
g120
g8
g10
g76
g12
g80
g82
g84
g14
tp3179
(g878
g53
tp3180
(g2
g118
g70
g8
g62
g10
g76
g12
g80
g84
tp3181
tp3182
a((g118
g68
g70
g4
g6
g8
g124
g62
g10
g76
g12
g80
g14
tp3183
(g1117
tp3184
(g68
g8
g124
g62
g12
g78
g80
g14
tp3185
tp3186
a((g2
g68
g70
g4
g6
g120
g8
g124
g62
g10
g76
g12
g78
g80
g82
tp3187
(g533
tp3188
(g70
g74
g120
g124
g62
g82
tp3189
tp3190
a((g2
g4
g6
g74
g120
g124
g62
g76
g82
g14
tp3191
(g337
tp3192
(g4
g74
g120
g62
g76
g78
g82
g14
tp3193
tp3194
a((g4
g74
g120
g124
g62
g10
g78
g80
g82
g14
tp3195
(g817
g86
g495
tp3196
(g2
g118
g62
g10
g82
g84
tp3197
tp3198
a((g2
g118
g68
g6
g74
g120
g8
g62
g10
g76
g78
g80
g82
g14
tp3199
(g459
g472
tp3200
(g2
g70
g74
g76
g12
g78
g82
g14
tp3201
tp3202
a((g2
g118
g70
g4
g6
g74
g120
g8
g10
g12
g78
g80
g82
g14
tp3203
(g878
g135
tp3204
(g2
g118
g68
g70
g4
g74
g8
g76
g12
g80
g82
tp3205
tp3206
a((g2
g70
g4
g8
g62
g12
g80
g82
g84
g14
tp3207
(g379
g878
tp3208
(g68
g70
g120
g8
g62
g12
g80
g84
tp3209
tp3210
a((g118
g68
g70
g4
g6
g74
g120
g8
g62
g10
g12
g78
g80
g14
tp3211
(g817
g265
tp3212
(g2
g6
g10
g12
g84
tp3213
tp3214
a((g68
g70
g4
g10
g76
g80
g82
g14
tp3215
(g1291
g1503
tp3216
(g118
g4
g6
tp3217
tp3218
a((g2
g118
g68
g70
g4
g74
g120
g8
g124
g62
g10
g12
g78
g82
tp3219
(g201
g1291
tp3220
(g2
g68
g6
g74
g120
g62
g10
g12
g78
g14
tp3221
tp3222
a((g2
g118
g68
g4
g6
g76
g12
g14
tp3223
(g941
g1231
tp3224
(g2
g70
g124
g76
g12
tp3225
tp3226
a((g2
g118
g68
g4
g6
g120
g8
g124
g62
g76
g12
g80
g82
g84
g14
tp3227
(g1117
g472
tp3228
(g118
g68
g70
g4
g8
g12
g78
tp3229
tp3230
a((g2
g70
g4
g6
g120
g124
g62
g80
g82
g84
g14
tp3231
(g459
g440
tp3232
(g2
g4
g6
g62
g10
g82
g14
tp3233
tp3234
a((g2
g118
g68
g4
g6
g10
g12
g78
g82
g84
g14
tp3235
(g212
g53
tp3236
(g118
g68
g8
g62
g12
tp3237
tp3238
a((g2
g68
g70
g4
g6
g74
g10
g76
g12
g78
g82
g84
g14
tp3239
(g86
g212
tp3240
(g2
g118
g68
g70
g4
g74
g8
g10
g76
tp3241
tp3242
a((g2
g4
g74
g120
g124
g62
g10
g76
g12
g82
g84
g14
tp3243
(g1254
g2302
tp3244
(g2
g118
g74
g62
g10
g80
g84
g14
tp3245
tp3246
a((g2
g118
g68
g6
g124
g62
g10
g12
g82
g84
tp3247
(g303
tp3248
(g74
g124
g12
g82
g84
tp3249
tp3250
a((g120
g8
g124
g10
g80
g82
g84
g14
tp3251
(g1759
g1423
tp3252
(g70
g120
g8
g10
tp3253
tp3254
a((g2
g118
g68
g4
g8
g62
g78
g82
g14
tp3255
(g1151
g2408
tp3256
(g118
g6
g74
g8
g14
tp3257
tp3258
a((g2
g118
g4
g120
g8
g124
g10
g76
g12
g84
tp3259
(g1254
g691
tp3260
(g118
g70
g4
g76
g80
tp3261
tp3262
a((g68
g70
g4
g6
g10
g76
g12
g78
g80
g82
g84
tp3263
(g379
g1469
tp3264
(g68
g70
g6
g120
g124
g10
g12
tp3265
tp3266
a((g2
g68
g70
g6
g10
g76
g78
g80
g82
g84
tp3267
(g423
tp3268
(g2
g76
g12
tp3269
tp3270
a((g2
g118
g68
g70
g8
g124
g76
g78
g82
g14
tp3271
(g2408
g53
tp3272
(g2
g118
g70
g6
g124
g62
g78
g14
tp3273
tp3274
a((g118
g4
g6
g74
g120
g8
g124
g76
g12
g78
g80
g82
g14
tp3275
(g1630
g767
tp3276
(g4
g74
g120
g124
g12
g80
g84
tp3277
tp3278
a((g2
g118
g4
g6
g74
g120
g124
g62
g10
g12
g80
g82
g14
tp3279
(g878
tp3280
(g2
g118
g68
g6
g74
g124
g80
tp3281
tp3282
a((g118
g68
g70
g4
g62
g10
g76
g78
g80
g14
tp3283
(g423
g2240
g767
tp3284
(g120
g124
g62
g12
g78
g14
tp3285
tp3286
a((g70
g4
g62
g10
g78
g80
g84
tp3287
(g423
g1549
tp3288
(g70
g6
g62
g12
g84
tp3289
tp3290
a((g2
g68
g70
g4
g6
g74
g120
g8
g124
g62
g10
g76
g12
g84
tp3291
(g979
g1653
tp3292
(g2
g118
g120
g8
g62
g10
g76
g14
tp3293
tp3294
a((g2
g118
g68
g70
g74
g8
g10
g76
g78
g80
g82
g84
tp3295
(g2637
tp3296
(g2
g68
g74
g8
g124
g10
g78
g80
g82
g84
tp3297
tp3298
a((g70
g4
g74
g120
g8
g124
g62
g10
g76
g78
g82
tp3299
(g1898
tp3300
(g118
g4
g74
g120
g8
g62
g76
g78
g82
tp3301
tp3302
a((g118
g68
g74
g124
g12
g80
g14
tp3303
(g2822
g1549
tp3304
(g68
g6
g124
g12
tp3305
tp3306
a((g70
g74
g120
g8
g76
g78
g82
g84
g14
tp3307
(g581
g550
g265
tp3308
(g2
g68
g8
g78
g80
tp3309
tp3310
a((g118
g68
g6
g76
g12
g78
g82
g84
tp3311
(g379
g1170
g960
tp3312
(g68
g120
g78
g80
g82
g84
tp3313
tp3314
a((g2
g68
g70
g6
g74
g8
g76
g12
g78
g80
g82
g14
tp3315
(g53
tp3316
(g70
g74
g62
g76
g78
g80
g82
tp3317
tp3318
a((g2
g68
g70
g4
g6
g76
g12
g82
g14
tp3319
(g379
tp3320
(g2
g70
g6
g120
g12
tp3321
tp3322
a((g68
g4
g74
g120
g8
g124
g62
g10
g76
g80
tp3323
(g318
g1549
(istructures.domain
Action
p3324
(dp3325
g18
(lp3326
(S'at_x2'
p3327
tp3328
a(S'at_y2'
p3329
tp3330
asg24
(lp3331
(S'at_x1'
p3332
tp3333
asg28
(tsg29
(lp3334
(S'at_x2'
p3335
tp3336
asg33
I0
sg34
(lp3337
sg36
S'move_2_2_1_2'
p3338
sbtp3339
(g70
g4
g6
g8
g10
tp3340
tp3341
a((g2
g118
g68
g70
g4
g74
g8
g124
g62
g12
g78
g80
g82
tp3342
(g619
tp3343
(g2
g68
g70
g4
g74
g84
tp3344
tp3345
a((g2
g4
g6
g74
g120
g8
g124
g62
g10
g76
g12
g80
g14
tp3346
(g284
g16
tp3347
(g70
g74
g120
g8
g62
g76
g80
g82
g14
tp3348
tp3349
a((g2
g118
g4
g74
g62
g10
g12
g78
g80
g82
g84
tp3350
(g379
g212
tp3351
(g2
g120
g8
g62
g78
g80
tp3352
tp3353
a((g2
g118
g68
g4
g74
g120
g62
g10
g76
g78
g80
tp3354
(g459
g767
g227
tp3355
(g68
g124
g62
g12
g82
tp3356
tp3357
a((g2
g118
g68
g70
g4
g6
g120
g8
g124
g10
g76
g78
g80
g82
g84
g14
tp3358
(g303
tp3359
(g118
g70
g4
g6
g74
g120
g8
g124
g76
g78
g80
g82
g84
tp3360
tp3361
a((g4
g74
g120
g8
g62
g10
g76
g78
g82
g14
tp3362
(g878
tp3363
(g68
g4
g74
g8
g62
g78
g82
tp3364
tp3365
a((g68
g4
g6
g74
g120
g8
g124
g62
g12
g78
g80
g82
g84
g14
tp3366
(g472
g135
tp3367
(g70
g4
g124
g62
g76
g82
g14
tp3368
tp3369
a((g118
g70
g4
g6
g74
g124
g62
g10
g76
g78
g82
g84
tp3370
((istructures.domain
Action
p3371
(dp3372
g18
(lp3373
(S'at_x3'
p3374
tp3375
a(S'at_y4'
p3376
tp3377
asg24
(lp3378
(S'at_x2'
p3379
tp3380
asg28
(tsg29
(lp3381
(S'at_x3'
p3382
tp3383
asg33
I0
sg34
(lp3384
sg36
S'move_3_4_2_4'
p3385
sbtp3386
(g118
g70
g4
g6
g74
g120
g62
g76
g84
tp3387
tp3388
a((g2
g118
g68
g70
g6
g74
g120
g8
g124
g62
g10
g76
g78
g80
g82
g84
g14
tp3389
(g897
tp3390
(g2
g118
g68
g4
g120
g8
g62
g10
g76
g78
g84
g14
tp3391
tp3392
a((g68
g70
g6
g74
g120
g124
g62
g10
g76
g12
g78
g82
g84
tp3393
(g897
tp3394
(g4
g124
g76
g78
tp3395
tp3396
a((g118
g70
g4
g120
g124
g10
g76
g80
g82
g84
tp3397
(g201
tp3398
(g4
g120
g124
g10
g80
g82
g84
g14
tp3399
tp3400
a((g118
g68
g70
g4
g6
g74
g124
g10
g76
g12
g80
g82
g84
tp3401
(g201
g1117
tp3402
(g68
g4
g10
g76
g12
g78
g80
g82
g14
tp3403
tp3404
a((g2
g118
g68
g70
g4
g6
g74
g62
g10
g76
g12
tp3405
(g126
g596
tp3406
(g2
g118
g68
g70
g74
g62
g10
g84
tp3407
tp3408
a((g118
g68
g6
g74
g8
g76
g12
g78
g82
g84
g14
tp3409
(g379
g1809
tp3410
(g118
g68
g74
g120
g10
g76
g14
tp3411
tp3412
a((g68
g70
g4
g74
g8
g124
g62
g10
g76
g12
g78
g80
g82
g14
tp3413
(g619
g86
tp3414
(g118
g70
g124
g62
g76
g12
g84
tp3415
tp3416
a((g118
g68
g70
g4
g74
g8
g124
g10
g76
g12
g78
g80
g84
tp3417
(g150
tp3418
(g118
g4
g74
g120
g8
g10
g76
g12
g78
tp3419
tp3420
a((g118
g70
g4
g74
g120
g62
g10
g76
g12
g78
g80
g84
tp3421
(g767
g495
tp3422
(g2
g70
g120
g124
g78
g80
g84
tp3423
tp3424
a((g2
g68
g120
g8
g62
g76
g78
g80
g82
g84
tp3425
(g2090
g86
tp3426
(g2
g118
g120
g8
g62
g84
tp3427
tp3428
a((g74
g120
g8
g12
g80
g82
g84
g14
tp3429
(g472
g379
(istructures.domain
Action
p3430
(dp3431
g18
(lp3432
(S'at_x2'
p3433
tp3434
a(S'at_y6'
p3435
tp3436
asg24
(lp3437
(S'at_y7'
p3438
tp3439
asg28
(tsg29
(lp3440
(S'at_y6'
p3441
tp3442
asg33
I0
sg34
(lp3443
sg36
S'move_2_6_2_7'
p3444
sbtp3445
(g68
g70
g120
g12
g80
g84
tp3446
tp3447
a((g2
g68
g4
g6
g8
g124
g62
g10
g76
g80
tp3448
(g284
g16
tp3449
(g70
g8
g10
g82
tp3450
tp3451
a((g2
g68
g70
g4
g6
g8
g124
g62
g76
g78
g80
g82
tp3452
(g914
g440
g533
tp3453
(g2
g70
g4
g6
g74
g8
g62
g10
g76
tp3454
tp3455
a((g68
g70
g6
g8
g124
g82
g84
g14
tp3456
(g337
g581
g2012
tp3457
(g8
g124
g12
g78
g14
tp3458
tp3459
a((g4
g74
g120
g8
g124
g62
g10
g76
g80
g84
tp3460
((istructures.domain
Action
p3461
(dp3462
g18
(lp3463
(S'at_x6'
p3464
tp3465
a(S'at_y0'
p3466
tp3467
asg24
(lp3468
(S'at_y1'
p3469
tp3470
asg28
(tsg29
(lp3471
(S'at_y0'
p3472
tp3473
asg33
I0
sg34
(lp3474
sg36
S'move_6_0_6_1'
p3475
sbg227
g2302
tp3476
(g118
g12
g80
g82
tp3477
tp3478
a((g70
g74
g120
g124
g62
g12
g80
g84
tp3479
(g440
g459
tp3480
(g70
g74
g120
g124
g10
g12
g84
tp3481
tp3482
a((g118
g68
g6
g74
g8
g124
g62
g76
g12
g80
g82
g84
g14
tp3483
(g379
g1809
tp3484
(g68
g120
g8
g124
g62
g10
g76
g80
g14
tp3485
tp3486
a((g118
g68
g70
g4
g120
g8
g124
g62
g10
g76
g78
g82
g84
g14
tp3487
(g533
tp3488
(g118
g74
g62
g10
g76
g82
g84
tp3489
tp3490
a((g4
g6
g74
g8
g124
g62
g10
g76
g12
g78
g80
g82
g84
g14
tp3491
(g379
g495
tp3492
(g2
g4
g6
g120
g8
g124
g76
g78
g80
g14
tp3493
tp3494
a((g2
g68
g70
g4
g74
g120
g8
g124
g10
g76
g12
g82
g14
tp3495
(g1450
tp3496
(g118
g4
g74
g120
g124
g76
tp3497
tp3498
a((g2
g68
g70
g6
g74
g120
g8
g76
g12
g82
g84
g14
tp3499
(g514
g472
tp3500
(g2
g70
g4
g6
g76
g12
g14
tp3501
tp3502
a((g2
g68
g70
g74
g124
g62
g76
g12
g82
tp3503
(g379
g2952
(istructures.domain
Action
p3504
(dp3505
g18
(lp3506
(S'at_x6'
p3507
tp3508
a(S'at_y3'
p3509
tp3510
asg24
(lp3511
(S'at_x5'
p3512
tp3513
asg28
(tsg29
(lp3514
(S'at_x6'
p3515
tp3516
asg33
I0
sg34
(lp3517
sg36
S'move_6_3_5_3'
p3518
sbtp3519
(g2
g70
g120
g12
g78
g84
tp3520
tp3521
a((g2
g70
g4
g74
g120
g8
g62
g10
g76
g78
g80
g82
g84
tp3522
(g459
tp3523
(g70
g4
g120
g10
g12
g78
g82
tp3524
tp3525
a((g2
g68
g70
g74
g120
g124
g62
g76
g78
g80
tp3526
(g1898
tp3527
(g118
g70
g74
g76
g78
tp3528
tp3529
a((g118
g68
g70
g4
g6
g74
g120
g8
g124
g10
g12
g78
g80
g82
g14
tp3530
(g817
tp3531
(g68
g70
g4
g6
g120
g8
g124
g12
g84
tp3532
tp3533
a((g2
g68
g74
g120
g8
g124
g10
g76
g80
g84
g14
tp3534
(g318
g86
tp3535
(g2
g118
g68
g8
g76
g78
g84
tp3536
tp3537
a((g2
g118
g68
g70
g4
g6
g74
g8
g124
g10
g80
g14
tp3538
(g423
g284
tp3539
(g2
g70
g4
g8
g12
g80
g82
tp3540
tp3541
a((g2
g70
g6
g120
g124
g62
g76
g12
g80
g82
g14
tp3542
(g817
g303
tp3543
(g70
g74
g124
g76
g84
tp3544
tp3545
a((g118
g68
g4
g120
g8
g124
g62
g10
g12
g80
g82
g14
tp3546
(g16
tp3547
(g118
g68
g70
g8
g10
g80
g14
tp3548
tp3549
a((g2
g118
g70
g4
g6
g124
g62
g10
g78
g80
g82
g84
tp3550
(g150
tp3551
(g2
g4
g120
g124
g62
g82
g84
tp3552
tp3553
a((g2
g68
g70
g120
g8
g124
g62
g10
g76
g12
g78
g80
g82
g84
g14
tp3554
(g86
tp3555
(g118
g70
g8
g124
g62
g12
g78
g84
tp3556
tp3557
a((g2
g118
g68
g4
g6
g74
g8
g124
g62
g12
g84
g14
tp3558
((istructures.domain
Action
p3559
(dp3560
g18
(lp3561
(S'at_x4'
p3562
tp3563
a(S'at_y3'
p3564
tp3565
asg24
(lp3566
(S'at_y2'
p3567
tp3568
asg28
(tsg29
(lp3569
(S'at_y3'
p3570
tp3571
asg33
I0
sg34
(lp3572
sg36
S'move_4_3_4_2'
p3573
sbtp3574
(g2
g118
g68
g4
g74
g124
g62
g12
g80
g14
tp3575
tp3576
a((g118
g4
g120
g62
g76
g12
g78
g80
g82
g84
g14
tp3577
(g1786
tp3578
(g118
g4
g6
g120
g78
tp3579
tp3580
a((g70
g4
g6
g74
g120
g8
g124
g10
g78
g80
g82
g84
g14
tp3581
(g878
g1898
tp3582
(g118
g68
g70
g4
g8
g82
tp3583
tp3584
a((g2
g118
g4
g6
g74
g8
g124
g78
g80
g84
g14
tp3585
(g914
g1809
tp3586
(g2
g118
g124
g10
g84
tp3587
tp3588
a((g2
g118
g70
g74
g62
g10
g76
g12
g78
g82
g14
tp3589
(g126
g1692
tp3590
(g2
g118
g4
g74
g62
g10
g76
g78
g80
g14
tp3591
tp3592
a((g2
g118
g68
g4
g6
g74
g8
g124
g10
g76
g12
g82
g84
g14
tp3593
(g1254
g1423
tp3594
(g68
g4
g74
g120
g10
g76
g80
g14
tp3595
tp3596
a((g2
g68
g70
g8
g124
g62
g10
g78
g84
tp3597
(g533
g897
g135
tp3598
(g2
g74
g8
g124
g10
g76
g84
tp3599
tp3600
a((g2
g70
g4
g74
g8
g124
g62
g76
g12
g78
g82
g84
g14
tp3601
(g440
g150
tp3602
(g2
g4
g120
g124
g10
g76
g82
tp3603
tp3604
a((g118
g70
g74
g120
g8
g124
g10
g76
g80
g14
tp3605
(g459
g352
(istructures.domain
Action
p3606
(dp3607
g18
(lp3608
(S'at_x6'
p3609
tp3610
a(S'at_y1'
p3611
tp3612
asg24
(lp3613
(S'at_x7'
p3614
tp3615
asg28
(tsg29
(lp3616
(S'at_x6'
p3617
tp3618
asg33
I0
sg34
(lp3619
sg36
S'move_6_1_7_1'
p3620
sbtp3621
(g2
g124
g10
g76
g12
g82
tp3622
tp3623
a((g68
g70
g4
g6
g74
g120
g8
g62
g10
g82
g84
g14
tp3624
(g1530
g459
tp3625
(g68
g6
g74
g120
g62
g10
g12
g14
tp3626
tp3627
a((g2
g118
g8
g62
g76
g84
tp3628
(g634
g998
(istructures.domain
Action
p3629
(dp3630
g18
(lp3631
(S'at_x6'
p3632
tp3633
a(S'at_y3'
p3634
tp3635
asg24
(lp3636
(S'at_y2'
p3637
tp3638
asg28
(tsg29
(lp3639
(S'at_y3'
p3640
tp3641
asg33
I0
sg34
(lp3642
sg36
S'move_6_3_6_2'
p3643
sb(istructures.domain
Action
p3644
(dp3645
g18
(lp3646
(S'at_x6'
p3647
tp3648
a(S'at_y2'
p3649
tp3650
asg24
(lp3651
(S'at_y1'
p3652
tp3653
asg28
(tsg29
(lp3654
(S'at_y2'
p3655
tp3656
asg33
I0
sg34
(lp3657
sg36
S'move_6_2_6_1'
p3658
sbtp3659
(g74
g62
g76
g12
g14
tp3660
tp3661
a((g2
g118
g4
g74
g120
g124
g62
g78
g80
g82
g84
g14
tp3662
(g878
g1373
tp3663
(g118
g68
g4
g6
g124
g62
g78
g84
tp3664
tp3665
a((g118
g70
g4
g74
g120
g62
g76
g78
g80
g82
g84
g14
tp3666
(g495
tp3667
(g2
g70
g120
g80
tp3668
tp3669
a((g118
g68
g70
g120
g8
g124
g62
g10
g78
g80
g84
g14
tp3670
(g897
tp3671
(g118
g4
g8
g84
tp3672
tp3673
a((g2
g68
g70
g4
g6
g120
g8
g124
g76
g12
g80
g82
g84
g14
tp3674
(g1450
tp3675
(g2
g118
g8
g124
g80
tp3676
tp3677
a((g2
g118
g70
g74
g120
g8
g62
g78
g82
g84
g14
tp3678
(g581
g459
g550
tp3679
(g118
g68
g8
g12
g82
tp3680
tp3681
a((g118
g70
g74
g8
g124
g62
g76
g12
g78
g80
tp3682
(g440
g150
g1549
tp3683
(g6
g120
g10
g76
tp3684
tp3685
a((g2
g118
g4
g74
g120
g8
g62
g78
g80
g14
tp3686
(g817
tp3687
(g2
g118
g4
g8
g78
g84
g14
tp3688
tp3689
a((g2
g68
g70
g4
g6
g8
g124
g10
g12
g78
g82
g14
tp3690
(g379
g303
tp3691
(g74
g120
g8
g124
g10
g12
g78
tp3692
tp3693
a((g2
g4
g74
g120
g8
g124
g62
g10
g12
g82
g84
g14
tp3694
(g1291
g352
tp3695
(g6
g8
g124
g10
g82
g84
tp3696
tp3697
a((g2
g68
g6
g74
g120
g62
g10
g76
g12
g78
g80
g82
g14
tp3698
(g817
g1254
tp3699
(g10
g78
g80
g84
g14
tp3700
tp3701
a((g2
g118
g70
g4
g6
g74
g124
g62
g10
g78
g80
g82
g84
tp3702
(g150
tp3703
(g118
g74
g120
g62
g84
tp3704
tp3705
a((g2
g118
g4
g6
g74
g120
g8
g76
g12
g78
g84
g14
tp3706
(g581
tp3707
(g2
g118
g120
g78
g80
tp3708
tp3709
a((g118
g6
g74
g8
g76
g78
tp3710
(g941
tp3711
(g124
tp3712
tp3713
a((g2
g118
g68
g6
g8
g124
g10
g76
g80
g84
g14
tp3714
(g53
tp3715
(g2
g68
g124
g62
g10
g80
g84
tp3716
tp3717
a((g2
g68
g4
g120
g8
g124
g62
g10
g78
g80
g82
g84
g14
tp3718
(g533
g16
tp3719
(g2
g70
g74
g120
g124
g62
g82
g14
tp3720
tp3721
a((g2
g118
g68
g70
g6
g120
g8
g124
g62
g76
g12
g78
g80
tp3722
(g201
g1218
tp3723
(g2
g6
g74
g62
g80
g14
tp3724
tp3725
a((g118
g70
g4
g74
g8
g62
g10
g12
g82
g84
g14
tp3726
(g1291
tp3727
(g4
g6
g74
g8
g62
g10
g12
g84
tp3728
tp3729
a((g2
g118
g68
g70
g6
g74
g8
g62
g12
g78
g84
g14
tp3730
(g126
g514
tp3731
(g68
g4
g8
g62
g78
g80
g84
g14
tp3732
tp3733
a((g70
g4
g6
g74
g8
g124
g62
g10
g76
g12
g78
g82
g84
g14
tp3734
(g150
g495
tp3735
(g2
g4
g6
g120
g8
g76
g82
g84
tp3736
tp3737
a((g2
g4
g120
g124
g62
g10
g76
g12
g78
g84
g14
tp3738
(g581
g1549
g163
tp3739
(g4
g6
g120
g10
g76
g12
g80
g84
g14
tp3740
tp3741
a((g2
g118
g68
g6
g120
g8
g62
g10
g12
g78
g80
g84
g14
tp3742
(g794
g1469
tp3743
(g2
g118
g68
g8
g124
g10
g12
g80
g82
tp3744
tp3745
a((g118
g68
g70
g4
g6
g74
g8
g124
g62
g12
g82
g84
g14
tp3746
(g337
g135
tp3747
(g118
g4
g124
g62
g76
g78
g14
tp3748
tp3749
a((g118
g68
g70
g120
g124
g62
g10
g76
g12
g78
g80
g82
tp3750
(g817
g533
tp3751
(g68
g70
g74
g62
g10
g12
g84
tp3752
tp3753
a((g2
g4
g74
g120
g8
g124
g62
g10
g76
g12
g78
g80
g84
g14
tp3754
(g16
g352
tp3755
(g70
g8
g12
g82
tp3756
tp3757
a((g2
g118
g68
g70
g4
g120
g8
g124
g62
g10
g12
g78
g82
g84
g14
tp3758
(g1291
g352
tp3759
(g2
g118
g68
g4
g6
g8
g62
g10
g12
g78
g82
g84
tp3760
tp3761
a((g2
g68
g70
g4
g6
g8
g62
g76
g84
g14
tp3762
(g1503
g1090
tp3763
(g118
g74
g76
tp3764
tp3765
a((g2
g68
g70
g4
g6
g74
g8
g10
g80
g82
g84
g14
tp3766
(g1423
g714
tp3767
(g2
g4
g6
g120
g8
g124
g10
g80
tp3768
tp3769
a((g2
g68
g70
g120
g8
g124
g10
g76
g78
g82
g84
g14
tp3770
(g581
g86
tp3771
(g118
g70
g10
g78
g80
g82
tp3772
tp3773
a((g2
g68
g4
g6
g120
g124
g62
g10
g12
g82
g14
tp3774
(g135
tp3775
(g2
g6
g124
g62
g10
g76
g82
g14
tp3776
tp3777
a((g68
g70
g6
g74
g8
g76
g12
g78
g82
g14
tp3778
(g265
g53
tp3779
(g2
g70
g8
g62
g76
g82
g14
tp3780
tp3781
a((g2
g118
g68
g6
g120
g62
g10
g12
g78
g84
tp3782
(g1469
g212
tp3783
(g2
g118
g68
g6
g8
g124
g62
g12
tp3784
tp3785
a((g2
g118
g70
g6
g120
g8
g124
g76
g12
g82
g84
tp3786
(g126
g897
g1117
tp3787
(g2
g118
g4
g8
g78
g80
g82
tp3788
tp3789
a((g118
g68
g70
g6
g74
g120
g124
g62
g10
g12
g14
tp3790
(g897
g318
tp3791
(g4
g6
g62
g12
g78
g14
tp3792
tp3793
a((g2
g68
g70
g120
g8
g62
g12
g78
g80
g82
g84
tp3794
(g514
g135
tp3795
(g2
g68
g62
g76
g78
g80
g84
tp3796
tp3797
a((g2
g68
g70
g4
g124
g12
g78
g84
g14
tp3798
(g126
g1549
g135
tp3799
(g70
g6
g76
g80
g14
tp3800
tp3801
a((g2
g4
g74
g120
g8
g62
g10
g76
g12
g80
g84
g14
tp3802
(g878
tp3803
(g2
g68
g74
g62
g10
g12
tp3804
tp3805
a((g118
g68
g70
g4
g6
g74
g120
g124
g62
g76
g12
g78
g82
g84
tp3806
(g126
tp3807
(g6
g120
g62
g80
g82
tp3808
tp3809
a((g2
g70
g74
g120
g8
g124
g62
g10
g76
g12
tp3810
(g227
g1291
tp3811
(g6
g10
g12
tp3812
tp3813
a((g118
g70
g4
g8
g62
g10
g82
g84
g14
tp3814
(g423
g101
tp3815
(g118
g120
g12
g82
tp3816
tp3817
a((g2
g118
g68
g4
g74
g120
g8
g124
g62
g10
g76
g78
g82
g84
g14
tp3818
(g1291
tp3819
(g118
g4
g6
g62
g76
g14
tp3820
tp3821
a((g2
g68
g4
g6
g74
g120
g124
g10
g76
g78
g80
tp3822
(g284
tp3823
(g4
g74
g124
g10
g76
g78
g82
tp3824
tp3825
a((g2
g118
g68
g70
g6
g74
g120
g8
g10
g76
g12
g78
g80
g82
g84
tp3826
(g514
tp3827
(g2
g4
g6
g74
g10
g76
g12
g78
tp3828
tp3829
a((g2
g118
g6
g74
g120
g8
g62
g10
g12
g84
g14
tp3830
(g3430
tp3831
(g2
g68
g8
g62
tp3832
tp3833
a((g2
g70
g4
g6
g74
g8
g124
g62
g10
g78
g82
g84
g14
tp3834
(g150
g878
tp3835
(g68
g74
g120
g8
g124
g62
g78
tp3836
tp3837
a((g2
g118
g68
g70
g4
g74
g120
g124
g10
g78
g80
g14
tp3838
(g459
g53
tp3839
(g68
g120
g62
g10
g12
tp3840
tp3841
a((g4
g6
g8
g124
g10
g76
g78
g80
g84
tp3842
(g533
g733
g337
tp3843
(g74
g10
g12
g78
tp3844
tp3845
a((g2
g118
g68
g70
g4
g120
g8
g124
g62
g10
g78
g80
g82
g84
g14
tp3846
(g135
tp3847
(g2
g118
g124
g62
g76
g78
g80
g82
g84
g14
tp3848
tp3849
a((g2
g68
g4
g120
g124
g12
g78
g82
g84
g14
tp3850
(g581
g1075
g212
tp3851
(g2
g4
g120
g8
g124
g10
g80
tp3852
tp3853
a((g2
g118
g68
g70
g4
g6
g120
g8
g124
g82
g14
tp3854
(g163
tp3855
(g2
g4
g6
g8
g82
g84
tp3856
tp3857
a((g2
g68
g4
g6
g74
g120
g8
g10
g14
tp3858
(g16
g53
tp3859
(g2
g68
g70
g6
g62
g10
tp3860
tp3861
a((g118
g68
g4
g6
g120
g8
g124
g62
g76
g12
g80
g82
tp3862
(g1117
tp3863
(g4
g120
g8
g124
g62
g78
g82
tp3864
tp3865
a((g118
g68
g74
g120
g8
g62
g10
g76
g12
g80
g84
tp3866
(g318
tp3867
(g8
g78
tp3868
tp3869
a((g2
g118
g70
g6
g74
g120
g124
g62
g10
g76
g78
g84
tp3870
(g201
g897
g212
tp3871
(g2
g4
g6
g120
g8
g62
g10
g84
g14
tp3872
tp3873
a((g2
g118
g68
g4
g6
g120
g8
g10
g80
g84
g14
tp3874
(g714
g135
tp3875
(g118
g8
g124
g10
g76
g14
tp3876
tp3877
a((g2
g118
g68
g70
g6
g74
g120
g8
g124
g62
g10
g76
g12
g82
g84
tp3878
(g1530
tp3879
(g68
g6
g120
g8
g124
g62
g76
g12
g80
tp3880
tp3881
a((g2
g118
g68
g70
g6
g62
g76
g78
g82
g84
g14
tp3882
(g514
tp3883
(g2
g118
g68
g4
g62
g84
tp3884
tp3885
a((g2
g68
g70
g4
g6
g74
g120
g124
g62
g76
g78
g80
g82
g84
tp3886
(g979
g86
tp3887
(g118
g4
g6
g120
g124
g76
g80
tp3888
tp3889
a((g118
g70
g6
g74
g8
g124
g62
g76
g12
g80
g82
g84
g14
tp3890
(g897
g1117
tp3891
(g4
g8
g124
g62
g76
g78
g80
g84
tp3892
tp3893
a((g2
g70
g74
g120
g8
g124
g62
g10
g76
g78
g80
g84
g14
tp3894
(g423
tp3895
(g2
g70
g74
g8
g124
g62
g12
g80
tp3896
tp3897
a((g70
g74
g120
g124
g10
g76
g80
g14
tp3898
(g423
g817
g3504
tp3899
(g124
g76
g12
g78
g84
tp3900
tp3901
a((g2
g68
g70
g4
g6
g74
g120
g124
g10
g76
g78
g80
g82
g14
tp3902
(g212
tp3903
(g2
g68
g4
g6
g8
g10
g78
g80
g14
tp3904
tp3905
a((g68
g4
g74
g8
g124
g62
g10
g76
g78
g84
g14
tp3906
(g581
g1549
g284
tp3907
(g8
g10
g80
g82
g14
tp3908
tp3909
a((g2
g68
g70
g6
g74
g120
g124
g62
g10
g82
g84
g14
tp3910
(g1450
tp3911
(g2
g118
g68
g120
g124
g62
g82
tp3912
tp3913
a((g2
g68
g6
g124
g62
g10
g76
g80
g82
g14
tp3914
(g653
g303
g2822
tp3915
(g68
g6
g62
g76
g12
g78
g80
g82
g14
tp3916
tp3917
a((g2
g118
g68
g70
g6
g120
g78
g84
g14
tp3918
(g581
g767
g53
tp3919
(g2
g68
g70
g124
g62
g78
g80
g14
tp3920
tp3921
a((g118
g74
g124
g62
g10
g12
g78
g80
g84
tp3922
((istructures.domain
Action
p3923
(dp3924
g18
(lp3925
(S'at_x6'
p3926
tp3927
a(S'at_y5'
p3928
tp3929
asg24
(lp3930
(S'at_y6'
p3931
tp3932
asg28
(tsg29
(lp3933
(S'at_y5'
p3934
tp3935
asg33
I0
sg34
(lp3936
sg36
S'move_6_5_6_6'
p3937
sbg1898
tp3938
(g118
g12
g14
tp3939
tp3940
a((g2
g118
g68
g70
g4
g120
g62
g10
g12
g80
g84
g14
tp3941
(g212
tp3942
(g4
g8
g10
tp3943
tp3944
a((g118
g4
g74
g120
g8
g62
g76
g78
g80
g84
g14
tp3945
(g767
tp3946
(g74
g120
g8
g124
g62
g76
g80
g84
tp3947
tp3948
a((g2
g118
g70
g4
g6
g74
g120
g10
g76
g78
g80
g82
g84
g14
tp3949
(g459
g1469
tp3950
(g118
g70
g6
g120
g124
g10
g76
g12
g82
tp3951
tp3952
a((g2
g68
g70
g4
g6
g8
g124
g62
g10
g12
g78
g84
g14
tp3953
(g126
g86
tp3954
(g118
g68
g70
g4
g80
g84
tp3955
tp3956
a((g2
g68
g70
g4
g6
g74
g120
g8
g62
g10
g76
g12
g82
g84
g14
tp3957
(g1530
tp3958
(g70
g4
g62
g76
g12
g80
tp3959
tp3960
a((g2
g118
g68
g70
g4
g6
g74
g124
g10
g76
g78
g80
g84
g14
tp3961
(g212
tp3962
(g2
g118
g70
g4
g74
g8
g76
g78
g80
g84
tp3963
tp3964
a((g2
g68
g4
g74
g8
g124
g62
g12
g78
g80
g82
g84
g14
tp3965
(g1231
g150
tp3966
(g2
g68
g120
g124
g82
tp3967
tp3968
a((g118
g68
g70
g4
g74
g8
g124
g62
g12
g82
g84
tp3969
(g126
g150
g2822
tp3970
(g118
g120
g78
g80
g84
tp3971
tp3972
a((g2
g68
g6
g74
g120
g8
g124
g62
g10
g78
g80
g84
g14
tp3973
(g86
g1195
tp3974
(g118
g8
g12
g80
tp3975
tp3976
a((g2
g118
g68
g4
g74
g120
g8
g62
g10
g76
g12
g78
g80
g82
g14
tp3977
(g767
tp3978
(g68
g4
g124
g62
g10
g76
g78
g80
g82
tp3979
tp3980
a((g2
g118
g70
g6
g74
g120
g8
g76
g12
g78
g80
g84
g14
tp3981
(g440
tp3982
(g2
g74
g10
g78
g14
tp3983
tp3984
a((g68
g70
g4
g120
g8
g62
g10
g76
g12
g78
g82
g84
g14
tp3985
(g126
g1291
tp3986
(g68
g70
g6
g120
g8
g62
g10
g76
g80
tp3987
tp3988
a((g2
g118
g4
g6
g74
g120
g124
g62
g10
g76
g78
g80
g82
g14
tp3989
(g459
tp3990
(g2
g118
g4
g6
g62
g12
g78
g14
tp3991
tp3992
a((g2
g68
g70
g4
g6
g120
g62
g76
g12
g82
g84
g14
tp3993
(g440
g212
tp3994
(g2
g6
g8
g62
g10
g76
g84
tp3995
tp3996
a((g118
g70
g4
g6
g74
g10
g76
g12
g78
g80
g82
g14
tp3997
(g379
g767
tp3998
(g70
g6
g74
g120
g124
g10
g12
g78
g14
tp3999
tp4000
a((g2
g68
g70
g4
g6
g74
g120
g124
g62
g10
g76
g78
g80
g82
g14
tp4001
(g423
g1898
tp4002
(g118
g70
g74
g120
g62
g12
g14
tp4003
tp4004
a((g70
g4
g6
g124
g10
g76
g12
g80
g84
g14
tp4005
(g1503
tp4006
(g118
g4
g6
g124
g10
g76
g12
tp4007
tp4008
a((g118
g70
g4
g6
g74
g120
g8
g62
g10
g12
g82
g84
g14
tp4009
(g878
g318
tp4010
(g68
g70
g6
g62
g12
g78
tp4011
tp4012
a((g2
g118
g68
g4
g6
g120
g62
g10
g12
g78
g84
tp4013
(g227
g212
tp4014
(g6
g8
g10
g78
g82
g84
tp4015
tp4016
a((g118
g68
g70
g6
g74
g120
g8
g62
g10
g12
g78
g80
g14
tp4017
(g265
tp4018
(g2
g118
g68
g70
g120
g8
g12
tp4019
tp4020
a((g2
g68
g70
g6
g120
g8
g62
g10
g76
g12
g78
g80
g84
g14
tp4021
(g86
g533
tp4022
(g118
g6
g74
g8
g62
g80
g84
tp4023
tp4024
a((g2
g118
g4
g8
g10
g12
g78
g82
g84
g14
tp4025
(g581
tp4026
(g118
g4
g10
g12
g78
g80
g14
tp4027
tp4028
a((g2
g68
g70
g4
g74
g8
g124
g62
g10
g78
g80
g84
tp4029
(g423
g150
g1549
tp4030
(g68
g4
g6
g120
g62
g12
g80
g84
tp4031
tp4032
a((g118
g68
g4
g74
g120
g8
g124
g62
g76
g12
g78
g84
g14
tp4033
(g472
g126
tp4034
(g118
g70
g4
g124
g76
g80
g84
tp4035
tp4036
a((g2
g70
g6
g74
g120
g8
g10
g76
g82
g84
g14
tp4037
(g1530
tp4038
(g70
g6
g120
g8
g76
g80
g82
g14
tp4039
tp4040
a((g2
g118
g68
g70
g4
g120
g8
g124
g76
g12
g78
g80
g14
tp4041
(g1151
tp4042
(g74
g120
g8
g14
tp4043
tp4044
a((g2
g68
g4
g6
g120
g8
g124
g78
g80
g82
tp4045
(g1898
g182
tp4046
(g68
g6
g78
g82
g14
tp4047
tp4048
a((g2
g118
g70
g4
g6
g120
g124
g10
g76
g78
g80
g82
g14
tp4049
(g878
tp4050
(g118
g68
g70
g6
g120
g10
g78
tp4051
tp4052
a((g2
g118
g70
g4
g6
g74
g124
g62
g10
g76
g12
g78
g80
g82
g84
g14
tp4053
(g150
tp4054
(g118
g4
g74
g120
g62
g76
g12
g78
g80
g82
g14
tp4055
tp4056
a((g2
g118
g68
g70
g4
g6
g62
g10
g76
g12
g78
g82
g84
g14
tp4057
(g533
g212
tp4058
(g68
g70
g4
g74
g8
g62
g12
g14
tp4059
tp4060
a((g2
g118
g6
g120
g62
g10
g78
g82
g14
tp4061
(g767
g303
tp4062
(g6
g74
g120
g124
g62
g78
g82
g14
tp4063
tp4064
a((g2
g68
g70
g4
g6
g74
g124
g62
g10
g12
g80
g82
tp4065
(g150
g135
tp4066
(g68
g4
g120
g124
g62
g10
g76
g12
g82
tp4067
tp4068
a((g2
g118
g70
g6
g120
g8
g62
g10
g12
g78
g82
g14
tp4069
(g126
g550
tp4070
(g2
g118
g68
g120
g10
g80
tp4071
tp4072
a((g2
g118
g68
g6
g8
g124
g62
g10
g76
g12
g84
g14
tp4073
(g1254
g1195
g303
tp4074
(g118
g68
g6
g74
g8
g124
g62
g12
g80
g84
tp4075
tp4076
a((g68
g70
g6
g120
g62
g10
g76
g12
g80
g82
g84
g14
tp4077
(g714
tp4078
(g68
g6
g120
g124
g10
g76
g12
g14
tp4079
tp4080
a((g2
g118
g4
g6
g120
g10
g76
g12
g78
g80
g82
g14
tp4081
(g212
tp4082
(g2
g118
g4
g120
g8
g80
tp4083
tp4084
a((g118
g68
g70
g4
g6
g8
g62
g10
g76
g78
g80
g82
g84
tp4085
(g201
g423
tp4086
(g68
g4
g6
g8
g62
g76
g12
g78
g80
g82
g14
tp4087
tp4088
a((g2
g68
g70
g74
g8
g124
g62
g12
g78
g82
g84
g14
tp4089
(g86
tp4090
(g2
g118
g68
g8
g124
g62
g12
g78
g82
tp4091
tp4092
a((g118
g4
g74
g120
g8
g124
g62
g12
g78
g80
g82
tp4093
(g817
tp4094
(g118
g4
g74
g120
g8
g124
g82
g84
tp4095
tp4096
a((g2
g70
g4
g6
g8
g124
g62
g10
g12
g82
g84
tp4097
(g1653
tp4098
(g2
g118
g82
tp4099
tp4100
a((g2
g118
g68
g70
g4
g8
g80
g82
g84
tp4101
(g1423
g53
tp4102
(g118
g68
g70
g120
g8
g62
g84
tp4103
tp4104
a((g2
g118
g68
g4
g120
g124
g62
g10
g76
g12
g78
g84
tp4105
(g227
g303
tp4106
(g118
g68
g4
g74
g124
g62
g78
g82
g84
tp4107
tp4108
a((g70
g4
g74
g8
g76
g12
g80
g82
g14
tp4109
(g1786
g878
tp4110
(g68
g70
g6
g74
g8
g80
tp4111
tp4112
a((g2
g68
g4
g74
g120
g62
g10
g12
g80
g84
g14
tp4113
(g16
g714
tp4114
(g2
g70
g74
g124
g62
g80
tp4115
tp4116
a((g2
g118
g70
g4
g6
g8
g124
g62
g10
g80
g14
tp4117
(g1117
g533
tp4118
(g2
g70
g74
g124
g62
g10
g80
g14
tp4119
tp4120
a((g2
g118
g4
g6
g120
g8
g62
g10
g78
g80
g82
g84
g14
tp4121
(g459
g533
tp4122
(g118
g4
g6
g74
g10
g12
g82
tp4123
tp4124
a((g2
g68
g6
g74
g124
g62
g76
g78
g84
g14
tp4125
(g581
g284
g1630
tp4126
(g76
g80
g82
g84
tp4127
tp4128
a((g2
g118
g68
g70
g6
g74
g120
g8
g62
g76
g12
g78
g82
g84
g14
tp4129
(g126
g514
tp4130
(g2
g4
g6
g74
g120
g80
g14
tp4131
tp4132
a((g118
g68
g4
g6
g74
g120
g124
g62
g10
g12
g78
g80
g84
g14
tp4133
(g135
tp4134
(g4
g6
g124
g10
g76
g12
g78
g80
g84
tp4135
tp4136
a((g2
g118
g70
g6
g74
g62
g10
g76
g12
g80
g82
g84
g14
tp4137
(g1117
g101
tp4138
(g118
g74
g120
g78
g80
g82
g14
tp4139
tp4140
a((g118
g68
g4
g6
g120
g8
g124
g62
g76
g12
g84
g14
tp4141
(g337
g1151
tp4142
(g118
g68
g74
g62
g84
g14
tp4143
tp4144
a((g70
g4
g6
g120
g62
g10
g12
g80
g84
g14
tp4145
(g352
g878
tp4146
(g68
g4
g6
g80
g82
tp4147
tp4148
a((g2
g4
g74
g120
g62
g10
g76
g78
g82
g14
tp4149
(g212
tp4150
(g120
g8
g78
tp4151
tp4152
a((g2
g118
g70
g4
g120
g124
g62
g10
g82
g84
tp4153
(g1530
g459
tp4154
(g2
g4
g124
g62
g10
g12
tp4155
tp4156
a((g118
g68
g70
g120
g8
g124
g62
g76
g12
g82
g84
tp4157
(g979
tp4158
(g118
g70
g124
g62
g76
g14
tp4159
tp4160
a((g2
g118
g68
g4
g6
g120
g8
g62
g10
g76
g78
g80
g84
g14
tp4161
(g1469
tp4162
(g118
g68
g8
g124
g62
g10
g76
g78
g14
tp4163
tp4164
a((g2
g118
g68
g70
g4
g74
g8
g124
g62
g10
g12
g78
g82
g84
tp4165
(g581
tp4166
(g2
g118
g68
g74
g124
g62
g12
g80
g82
tp4167
tp4168
a((g2
g118
g70
g4
g6
g124
g10
g76
g12
g78
g82
g84
tp4169
(g150
tp4170
(g2
g118
g120
g124
g82
tp4171
tp4172
a((g2
g118
g6
g74
g120
g8
g124
g62
g76
g12
g80
g82
g84
g14
tp4173
(g472
tp4174
(g70
g6
g74
g8
g124
g76
g82
tp4175
tp4176
a((g2
g70
g4
g74
g120
g8
g124
g10
g84
tp4177
(g2067
tp4178
(g74
g8
g10
g82
g84
tp4179
tp4180
a((g2
g124
g10
g76
g78
g80
g82
tp4181
(g1423
g1898
tp4182
(g118
g120
g10
tp4183
tp4184
a((g118
g68
g6
g120
g8
g124
g62
g10
g12
g78
g80
g82
g84
g14
tp4185
(g472
tp4186
(g118
g68
g70
g6
g8
g12
g78
g80
g14
tp4187
tp4188
a((g2
g68
g70
g6
g74
g8
g124
g62
g76
g80
g82
tp4189
(g2822
g1898
tp4190
(g2
g118
g70
g6
g62
g76
g78
tp4191
tp4192
a((g68
g70
g6
g74
g120
g8
g124
g12
g82
g84
g14
tp4193
(g337
g581
tp4194
(g8
g12
g78
g80
g82
g14
tp4195
tp4196
a((g2
g118
g70
g4
g74
g120
g8
g124
g62
g10
g12
g82
g84
g14
tp4197
(g318
tp4198
(g2
g118
g70
g120
g8
g12
g78
g82
g14
tp4199
tp4200
a((g2
g118
g68
g70
g6
g74
g120
g8
g124
g76
g12
g80
g82
g84
tp4201
(g201
g440
tp4202
(g70
g6
g74
g8
g124
g10
g76
g14
tp4203
tp4204
a((g2
g118
g68
g6
g74
g124
g62
g10
g12
g78
g84
tp4205
(g212
g2090
tp4206
(g2
g74
g8
g62
g10
g78
g14
tp4207
tp4208
a((g70
g74
g120
g8
g124
g62
g10
g12
g78
g80
g82
g14
tp4209
(g86
tp4210
(g118
g74
g8
g124
g62
g10
g82
tp4211
tp4212
a((g118
g68
g4
g8
g10
g76
g12
g78
g80
g82
g14
tp4213
((istructures.domain
Action
p4214
(dp4215
g18
(lp4216
(S'at_x0'
p4217
tp4218
a(S'at_y5'
p4219
tp4220
asg24
(lp4221
(S'at_y4'
p4222
tp4223
asg28
(tsg29
(lp4224
(S'at_y5'
p4225
tp4226
asg33
I0
sg34
(lp4227
sg36
S'move_0_5_0_4'
p4228
sbtp4229
(g124
g76
g12
g14
tp4230
tp4231
a((g70
g4
g6
g74
g120
g8
g10
g76
g12
tp4232
(g227
(istructures.domain
Action
p4233
(dp4234
g18
(lp4235
(S'at_x4'
p4236
tp4237
a(S'at_y1'
p4238
tp4239
asg24
(lp4240
(S'at_x5'
p4241
tp4242
asg28
(tsg29
(lp4243
(S'at_x4'
p4244
tp4245
asg33
I0
sg34
(lp4246
sg36
S'move_4_1_5_1'
p4247
sbtp4248
(g74
g8
g10
g76
g78
g82
tp4249
tp4250
a((g2
g118
g68
g4
g6
g74
g120
g8
g62
g10
g76
g12
g78
g80
g82
g84
tp4251
(g182
tp4252
(g2
g4
g6
g62
g12
g78
g14
tp4253
tp4254
a((g70
g4
g6
g120
g8
g124
g62
g10
g76
g78
g80
g82
g84
tp4255
(g1898
tp4256
(g118
g70
g120
g62
g10
g76
g78
g82
tp4257
tp4258
a((g2
g118
g6
g120
g8
g124
g62
g76
g78
g80
g84
g14
tp4259
(g459
g1151
tp4260
(g118
g6
g74
g124
g12
g14
tp4261
tp4262
a((g68
g70
g4
g6
g74
g120
g124
g62
g10
g76
g12
g80
g82
g14
tp4263
(g817
g337
tp4264
(g68
g120
g124
g62
g12
g78
g84
g14
tp4265
tp4266
a((g2
g118
g68
g4
g6
g74
g120
g8
g124
g62
g10
g12
g78
g80
g84
tp4267
(g135
tp4268
(g2
g118
g68
g6
g74
g120
g8
g76
tp4269
tp4270
a((g2
g68
g70
g4
g6
g120
g8
g10
g78
g82
g84
g14
tp4271
(g581
g53
tp4272
(g2
g8
g62
g80
g82
tp4273
tp4274
a((g2
g118
g68
g70
g6
g74
g62
g10
g76
g12
g78
g80
g84
tp4275
(g212
tp4276
(g118
g8
g62
g10
g12
g80
g84
tp4277
tp4278
a((g2
g118
g68
g70
g6
g74
g120
g8
g62
g10
g76
g12
g78
g84
g14
tp4279
(g514
tp4280
(g118
g68
g4
g10
g12
g84
g14
tp4281
tp4282
a((g118
g70
g6
g8
g124
g62
g76
g84
tp4283
(g201
g3559
g859
tp4284
(g68
g6
g124
g62
g76
g80
tp4285
tp4286
a((g2
g118
g70
g8
g124
g62
g78
g80
g82
g84
tp4287
(g1549
tp4288
(g118
g6
g80
tp4289
tp4290
a((g2
g70
g4
g74
g120
g124
g62
g10
g76
g12
g82
g84
g14
tp4291
(g1450
tp4292
(g118
g70
g74
g82
tp4293
tp4294
a((g70
g4
g6
g74
g124
g62
g10
g12
g80
g82
g84
g14
tp4295
(g1117
g495
tp4296
(g2
g70
g62
g10
g12
g78
g82
tp4297
tp4298
a((g70
g6
g74
g120
g62
g80
g82
g84
tp4299
(g714
tp4300
(g70
g6
g74
g120
g124
g62
g82
tp4301
tp4302
a((g2
g118
g68
g4
g120
g8
g124
g10
g78
g80
g14
tp4303
(g16
g1549
tp4304
(g118
g70
g6
g124
g10
tp4305
tp4306
a((g2
g118
g68
g4
g74
g120
g8
g62
g10
g76
g78
g80
g82
g84
tp4307
(g16
g1549
tp4308
(g2
g118
g70
g6
g120
g76
g82
tp4309
tp4310
a((g2
g68
g70
g6
g74
g120
g8
g124
g62
g12
g82
g84
g14
tp4311
(g897
g135
tp4312
(g4
g120
g8
g62
g76
g12
g82
tp4313
tp4314
a((g2
g118
g68
g6
g8
g124
g62
g12
g78
g14
tp4315
(g1254
g1630
tp4316
(g6
g62
g80
g84
g14
tp4317
tp4318
a((g118
g70
g74
g120
g8
g124
g62
g76
g12
g78
g80
g14
tp4319
(g1484
tp4320
(g2
g8
tp4321
tp4322
a((g118
g68
g6
g120
g124
g62
g78
g14
tp4323
(g1151
g163
tp4324
(g118
g68
g74
g62
g84
tp4325
tp4326
a((g2
g118
g68
g70
g4
g6
g120
g8
g62
g10
g76
g78
g80
g82
g84
g14
tp4327
(g423
tp4328
(g68
g120
g62
g76
g12
g14
tp4329
tp4330
a((g2
g68
g70
g4
g6
g74
g12
g78
g80
g84
g14
tp4331
(g794
g53
tp4332
(g2
g4
g74
g62
g12
g78
g80
g82
g84
tp4333
tp4334
a((g68
g70
g4
g6
g8
g124
g62
g10
g12
g78
g80
g82
g84
g14
tp4335
(g86
g379
tp4336
(g118
g70
g4
g6
g120
g8
g124
g62
g10
g12
g78
g84
tp4337
tp4338
a((g118
g68
g70
g4
g6
g76
g12
g78
g80
g82
g14
tp4339
(g941
tp4340
(g4
g6
g124
g76
g78
g14
tp4341
tp4342
a((g2
g68
g70
g4
g6
g120
g8
g124
g62
g10
g78
g82
g84
g14
tp4343
(g533
g135
tp4344
(g6
g74
g8
g124
g62
g10
g76
g84
tp4345
tp4346
a((g2
g118
g68
g4
g6
g74
g8
g10
g78
g82
g84
g14
tp4347
(g653
g941
tp4348
(g2
g68
g74
g8
g124
g12
g82
g14
tp4349
tp4350
a((g2
g70
g4
g6
g120
g124
g62
g10
g76
g78
g80
g82
tp4351
(g459
g1630
tp4352
(g2
g120
g62
g10
g12
g78
g84
tp4353
tp4354
a((g118
g68
g70
g6
g120
g8
g10
g78
g80
g84
g14
tp4355
(g533
g265
tp4356
(g2
g118
g6
g8
g80
tp4357
tp4358
a((g2
g118
g70
g4
g120
g124
g62
g76
g12
g78
g84
g14
tp4359
(g352
g400
tp4360
(g70
g4
g6
g124
g76
g12
g82
g84
g14
tp4361
tp4362
a((g118
g68
g4
g6
g120
g8
g76
g12
g78
g80
g82
tp4363
(g1809
g533
tp4364
(g118
g4
g6
g74
g120
g10
g80
tp4365
tp4366
a((g2
g4
g6
g8
g62
g10
g76
g12
g82
g14
tp4367
(g1254
g596
g1503
tp4368
(g118
g8
g10
g76
g84
tp4369
tp4370
a((g2
g118
g68
g6
g8
g124
g62
g10
g76
g78
g84
g14
tp4371
(g581
g533
g914
tp4372
(g118
g6
g74
g8
g10
g12
g14
tp4373
tp4374
a((g2
g118
g68
g4
g6
g74
g8
g62
g76
g12
tp4375
(g941
g2090
tp4376
(g74
g124
g62
g14
tp4377
tp4378
a((g2
g118
g68
g70
g4
g6
g8
g10
g76
g84
g14
tp4379
(g101
tp4380
(g2
g118
g68
g6
g120
g10
tp4381
tp4382
a((g2
g68
g4
g6
g74
g120
g10
g76
g12
g78
g80
g84
g14
tp4383
(g16
g53
tp4384
(g2
g70
g6
g62
g78
g14
tp4385
tp4386
a((g118
g68
g70
g4
g6
g74
g8
g62
g10
g76
g12
g14
tp4387
(g126
(istructures.domain
Action
p4388
(dp4389
g18
(lp4390
(S'at_x0'
p4391
tp4392
a(S'at_y2'
p4393
tp4394
asg24
(lp4395
(S'at_y3'
p4396
tp4397
asg28
(tsg29
(lp4398
(S'at_y2'
p4399
tp4400
asg33
I0
sg34
(lp4401
sg36
S'move_0_2_0_3'
p4402
sbtp4403
(g118
g70
g4
g74
g62
g10
g84
g14
tp4404
tp4405
a((g2
g118
g68
g70
g4
g6
g74
g120
g8
g124
g12
g78
g80
g82
g14
tp4406
(g440
tp4407
(g6
g120
g8
g10
g78
g14
tp4408
tp4409
a((g2
g118
g68
g4
g6
g74
g120
g62
g10
g78
g80
g82
g84
g14
tp4410
(g767
g135
tp4411
(g2
g6
g74
g124
g76
g78
g80
g14
tp4412
tp4413
a((g2
g118
g68
g4
g74
g120
g62
g12
g78
g80
g84
g14
tp4414
(g352
tp4415
(g68
g74
g80
g82
g84
g14
tp4416
tp4417
a((g2
g118
g4
g6
g120
g8
g124
g76
g12
g78
g80
tp4418
(g817
tp4419
(g2
g4
g6
g8
g124
g12
g78
g84
tp4420
tp4421
a((g2
g70
g4
g6
g74
g120
g8
g124
g62
g10
g76
g12
g78
g80
g82
g84
g14
tp4422
(g86
tp4423
(g2
g118
g70
g4
g6
g10
g78
g80
tp4424
tp4425
a((g2
g68
g4
g74
g120
g8
g76
g12
g78
g80
g14
tp4426
(g1075
g53
tp4427
(g2
g68
g4
g74
g8
g62
g10
g76
g78
g80
g14
tp4428
tp4429
a((g70
g4
g6
g74
g120
g10
g76
g12
g78
g84
tp4430
(g1469
g3606
tp4431
(g2
g70
g6
g124
g76
g78
tp4432
tp4433
a((g118
g68
g70
g4
g74
g8
g62
g76
g80
tp4434
(g4388
g2637
tp4435
(g68
g70
g4
g8
g124
g76
g84
tp4436
tp4437
a((g2
g70
g4
g120
g8
g124
g10
g76
g12
g78
g82
g84
g14
tp4438
(g126
tp4439
(g2
g4
g8
g76
g80
g82
tp4440
tp4441
a((g118
g70
g4
g6
g74
g120
g8
g76
g12
g82
g84
g14
tp4442
(g767
tp4443
(g4
g6
g120
g8
g124
g76
g12
g82
g84
g14
tp4444
tp4445
a((g2
g68
g4
g124
g62
g10
g76
g78
g80
g82
g84
tp4446
(g303
g1392
tp4447
(g4
g74
g62
g10
g76
g78
g14
tp4448
tp4449
a((g2
g68
g70
g4
g120
g8
g76
g78
g82
g84
g14
tp4450
(g1218
tp4451
(g2
g68
g70
g4
g74
g120
g8
g82
g84
tp4452
tp4453
a((g70
g74
g120
g62
g10
g76
g12
g78
g82
g84
tp4454
(g1469
g1898
tp4455
(g118
g10
g76
g78
g82
tp4456
tp4457
a((g2
g4
g6
g120
g62
g76
g78
g80
g82
g84
tp4458
(g459
g581
tp4459
(g6
g62
g76
g12
g80
g82
tp4460
tp4461
a((g2
g68
g70
g6
g74
g120
g124
g62
g10
g80
g82
tp4462
(g212
tp4463
(g70
g8
g124
g62
g80
g82
tp4464
tp4465
a((g2
g68
g4
g6
g74
g120
g8
g124
g10
g76
g78
g82
g84
tp4466
(g53
tp4467
(g68
g4
g6
g74
g120
g62
g76
g82
g84
tp4468
tp4469
a((g2
g4
g6
g120
g8
g10
g78
g80
g82
g14
tp4470
(g459
g86
tp4471
(g118
g4
g120
g10
g12
tp4472
tp4473
a((g2
g70
g4
g8
g124
g62
g10
g76
g12
g78
g14
tp4474
(g533
(istructures.domain
Action
p4475
(dp4476
g18
(lp4477
(S'at_x0'
p4478
tp4479
a(S'at_y4'
p4480
tp4481
asg24
(lp4482
(S'at_y5'
p4483
tp4484
asg28
(tsg29
(lp4485
(S'at_y4'
p4486
tp4487
asg33
I0
sg34
(lp4488
sg36
S'move_0_4_0_5'
p4489
sbtp4490
(g118
g70
g74
g8
g12
g14
tp4491
tp4492
a((g2
g118
g74
g8
g62
g10
g76
g12
g78
g80
g82
tp4493
(g2637
tp4494
(g8
g124
g62
g10
g76
g78
tp4495
tp4496
a((g2
g68
g70
g6
g74
g120
g62
g76
g80
g82
tp4497
(g459
g979
g1450
tp4498
(g2
g118
g70
g6
g74
g76
g12
g82
tp4499
tp4500
a((g2
g118
g68
g4
g8
g124
g62
g76
g78
g80
g84
tp4501
(g1549
g284
tp4502
(g68
g8
g80
g82
tp4503
tp4504
a((g118
g68
g70
g4
g6
g74
g120
g10
g76
g12
g84
g14
tp4505
(g1044
tp4506
(g118
g70
g4
g10
g78
g14
tp4507
tp4508
a((g2
g70
g6
g8
g76
g78
g80
g82
tp4509
(g619
tp4510
(g6
g76
g82
g84
tp4511
tp4512
a((g68
g70
g74
g120
g8
g124
g10
g78
tp4513
(g423
g126
g979
tp4514
(g74
g120
g8
g124
g78
g80
g14
tp4515
tp4516
a((g2
g118
g68
g70
g4
g8
g124
g62
g10
g76
g12
g78
g80
g82
tp4517
(g201
tp4518
(g70
g8
g82
g14
tp4519
tp4520
a((g2
g118
g68
g4
g6
g74
g8
g124
g10
g76
g12
tp4521
(g1254
g53
tp4522
(g2
g118
g6
g8
g62
g10
g80
tp4523
tp4524
a((g2
g118
g68
g70
g4
g74
g120
g10
g76
g78
g80
g82
tp4525
(g1291
g53
tp4526
(g2
g118
g68
g70
g4
g6
g62
g10
tp4527
tp4528
a((g2
g68
g70
g4
g6
g74
g120
g8
g62
g10
g78
g80
g84
g14
tp4529
(g423
g1469
tp4530
(g2
g68
g6
g74
g120
g8
g124
g12
g80
tp4531
tp4532
a((g118
g68
g4
g74
g124
g62
g12
g78
g80
g82
g14
tp4533
(g1549
g2822
tp4534
(g118
g68
g6
g62
g78
g80
g82
g14
tp4535
tp4536
a((g118
g68
g70
g120
g8
g62
g10
g76
g12
g78
g80
g84
g14
tp4537
(g533
g514
tp4538
(g118
g68
g4
g74
g62
g10
g12
g80
tp4539
tp4540
a((g2
g68
g70
g6
g10
g76
g78
g80
g82
g84
tp4541
(g1423
tp4542
(g6
g120
g76
g78
tp4543
tp4544
a((g6
g120
g8
g124
g10
g78
g80
g82
g84
tp4545
(g533
tp4546
(g6
g74
g120
g124
g10
tp4547
tp4548
a((g2
g118
g68
g70
g74
g8
g124
g10
g12
g80
g82
g84
tp4549
(g150
tp4550
(g120
g8
g124
g10
g80
g82
g84
tp4551
tp4552
a((g68
g74
g120
g8
g62
g10
g76
g12
g78
g14
tp4553
(g265
tp4554
(g2
g8
g62
g12
g78
tp4555
tp4556
a((g2
g118
g68
g4
g120
g8
g62
g10
g76
g12
g78
g80
g82
g84
tp4557
(g533
g2090
tp4558
(g2
g118
g4
g74
g8
g76
g84
g14
tp4559
tp4560
a((g2
g118
g68
g70
g6
g8
g124
g62
g76
g12
g78
g80
g82
g14
tp4561
(g619
g1151
tp4562
(g70
g74
g12
g84
tp4563
tp4564
a((g2
g68
g4
g6
g62
g76
g78
g84
g14
tp4565
(g86
g941
tp4566
(g68
g4
g124
g76
g84
tp4567
tp4568
a((g118
g68
g70
g4
g6
g74
g120
g76
g80
g82
tp4569
(g767
g979
tp4570
(g124
g14
tp4571
tp4572
a((g2
g118
g70
g6
g74
g120
g8
g124
g76
g78
g14
tp4573
(g550
g1630
tp4574
(g2
g68
g6
g74
g8
g78
g84
tp4575
tp4576
a((g2
g118
g68
g70
g4
g120
g124
g82
g84
tp4577
(g53
g979
tp4578
(g2
g118
g70
g124
g62
g82
g84
g14
tp4579
tp4580
a((g2
g118
g68
g70
g6
g120
g124
g62
g10
g76
g12
g82
tp4581
(g201
g303
tp4582
(g68
g6
g74
g120
g62
g10
g76
g82
g14
tp4583
tp4584
a((g2
g68
g4
g6
g120
g124
g62
g10
g76
g78
g80
g82
tp4585
(g16
g212
tp4586
(g68
g70
g6
g8
g10
g76
g78
g80
tp4587
tp4588
a((g2
g6
g120
g8
g124
g62
g10
g76
g12
g84
g14
tp4589
(g337
g352
tp4590
(g2
g124
g62
g78
g82
tp4591
tp4592
a((g2
g4
g62
g12
g84
tp4593
(g2704
g3504
tp4594
(g12
g78
g84
tp4595
tp4596
a((g118
g68
g70
g4
g6
g74
g8
g10
g76
g12
g78
g80
g84
g14
tp4597
(g101
tp4598
(g4
g74
g120
g76
g84
tp4599
tp4600
a((g2
g118
g68
g70
g4
g6
g74
g8
g124
g10
g12
g78
g80
g82
g84
g14
tp4601
(g379
tp4602
(g2
g6
g74
g120
g8
g124
g78
g14
tp4603
tp4604
a((g68
g4
g6
g74
g120
g8
g124
g10
g76
g12
g78
g84
tp4605
(g284
g1898
tp4606
(g118
g68
g120
g8
g10
g12
g78
g82
tp4607
tp4608
a((g2
g4
g74
g120
g8
g62
g10
g12
g78
g80
g84
g14
tp4609
(g352
g1469
tp4610
(g4
g74
g124
g62
g78
g82
tp4611
tp4612
a((g118
g70
g4
g74
g8
g10
g12
g78
g80
g82
tp4613
(g1291
g941
tp4614
(g70
g4
g6
g8
g124
g78
g80
tp4615
tp4616
a((g118
g68
g4
g74
g120
g8
g10
g12
g78
g80
g82
g84
tp4617
(g16
tp4618
(g118
g70
g74
g8
g10
g12
g84
tp4619
tp4620
a((g2
g118
g68
g70
g4
g6
g120
g8
g124
g62
g10
g76
g12
g78
g80
tp4621
(g201
tp4622
(g2
g70
g6
g8
g10
g76
g12
g78
g80
g14
tp4623
tp4624
a((g2
g118
g70
g4
g6
g74
g120
g124
g62
g12
g78
g82
g84
g14
tp4625
(g440
g212
tp4626
(g2
g70
g4
g6
g74
g8
g10
g82
tp4627
tp4628
a((g70
g4
g6
g120
g8
g124
g76
g12
g80
g82
tp4629
(g817
tp4630
(g70
g4
g6
g8
g124
g12
g82
g84
tp4631
tp4632
a((g68
g70
g6
g74
g120
g8
g124
g76
g12
g78
g80
g84
g14
tp4633
(g86
tp4634
(g118
g70
g74
g120
g124
g12
g78
g84
tp4635
tp4636
a((g2
g68
g6
g120
g124
g10
g80
g82
g14
tp4637
(g459
g303
tp4638
(g68
g6
g74
g10
g12
g14
tp4639
tp4640
a((g2
g118
g70
g4
g6
g74
g120
g124
g62
g10
g78
g80
g82
g84
tp4641
(g201
tp4642
(g2
g4
g74
g124
g62
g14
tp4643
tp4644
a((g2
g68
g70
g8
g124
g62
g10
g76
g12
g78
g80
g82
g14
tp4645
(g533
g379
tp4646
(g68
g70
g74
g120
g8
g12
g14
tp4647
tp4648
a((g2
g118
g4
g6
g74
g120
g124
g76
g12
g78
g80
g14
tp4649
(g284
g1630
tp4650
(g118
g74
g76
g12
g78
g80
g82
g84
tp4651
tp4652
a((g118
g4
g6
g74
g120
g62
g12
g82
g84
g14
tp4653
(g767
g1170
tp4654
(g4
g6
g74
g124
g62
g80
g82
g84
tp4655
tp4656
a((g2
g68
g70
g6
g74
g120
g124
g76
g78
g84
g14
tp4657
(g897
g1898
tp4658
(g118
g4
g6
g120
g78
g84
g14
tp4659
tp4660
a((g2
g118
g68
g6
g120
g124
g10
g76
g12
g78
g80
g14
tp4661
(g212
tp4662
(g118
g8
g124
g10
g76
g78
g80
g14
tp4663
tp4664
a((g2
g118
g68
g4
g6
g120
g8
g62
g76
g12
g78
g82
g84
tp4665
(g581
g182
tp4666
(g68
g4
g6
g62
g76
g78
g80
g82
g14
tp4667
tp4668
a((g118
g68
g70
g4
g6
g74
g120
g8
g62
g12
g80
g82
g14
tp4669
(g135
tp4670
(g118
g70
g74
g120
g76
g82
g14
tp4671
tp4672
a((g118
g68
g70
g4
g6
g74
g124
g62
g10
g12
g80
tp4673
(g265
tp4674
(g2
g70
g124
g62
g10
g12
g80
tp4675
tp4676
a((g2
g118
g4
g120
g8
g62
g10
g76
g12
g80
g82
g14
tp4677
(g817
g2704
tp4678
(g118
g4
g74
g120
g8
g84
g14
tp4679
tp4680
a((g74
g124
g76
g78
g80
g82
g14
tp4681
(g619
(istructures.domain
Action
p4682
(dp4683
g18
(lp4684
(S'at_x3'
p4685
tp4686
a(S'at_y3'
p4687
tp4688
asg24
(lp4689
(S'at_x4'
p4690
tp4691
asg28
(tsg29
(lp4692
(S'at_x3'
p4693
tp4694
asg33
I0
sg34
(lp4695
sg36
S'move_3_3_4_3'
p4696
sbtp4697
(g6
g124
g78
g84
g14
tp4698
tp4699
a((g118
g70
g4
g6
g120
g8
g124
g62
g10
g12
g78
g80
g84
tp4700
(g284
g1549
tp4701
(g118
g70
g6
g120
g8
g124
g10
g80
g82
tp4702
tp4703
a((g2
g118
g68
g70
g4
g6
g8
g62
g10
g76
g78
g80
g82
g14
tp4704
(g533
g1117
tp4705
(g2
g70
g4
g74
g78
g80
g82
g14
tp4706
tp4707
a((g2
g118
g68
g4
g6
g74
g8
g62
g10
g78
g80
g82
g84
tp4708
(g1423
tp4709
(g74
g120
g62
g80
g84
tp4710
tp4711
a((g2
g118
g68
g70
g4
g120
g124
g62
g10
g76
g12
g78
g80
g82
g14
tp4712
(g533
g1291
tp4713
(g68
g6
g74
g62
g10
g12
g80
tp4714
tp4715
a((g2
g118
g68
g70
g4
g6
g74
g8
g124
g62
g76
g12
g78
g82
g84
g14
tp4716
(g440
tp4717
(g2
g118
g6
g74
g8
g10
g76
g82
g84
tp4718
tp4719
a((g2
g118
g68
g6
g74
g8
g124
g62
g10
g76
g82
tp4720
(g653
tp4721
(g68
g6
g124
g76
g12
tp4722
tp4723
a((g2
g118
g68
g70
g4
g8
g124
g62
g76
g12
g80
g82
g14
tp4724
(g2952
tp4725
(g118
g68
g70
g80
g82
g84
tp4726
tp4727
a((g2
g118
g68
g4
g6
g74
g120
g8
g124
g76
g12
g78
g82
g84
tp4728
(g1809
g16
tp4729
(g118
g68
g70
g120
g8
g124
g10
tp4730
tp4731
a((g70
g4
g6
g74
g124
g10
g76
g78
g80
g14
tp4732
(g150
g1484
tp4733
(g2
g6
g120
g124
g10
g76
g78
g80
g14
tp4734
tp4735
a((g2
g68
g70
g4
g6
g74
g124
g62
g10
g78
g80
g82
g84
tp4736
(g150
g2090
tp4737
(g74
g120
g62
g82
g14
tp4738
tp4739
a((g68
g70
g6
g74
g8
g124
g62
g10
g76
g12
g80
g82
g84
g14
tp4740
(g897
tp4741
(g68
g4
g6
g62
g10
g12
g80
g82
g84
g14
tp4742
tp4743
a((g2
g68
g74
g120
g8
g124
g10
g12
g78
g80
g82
g84
tp4744
(g472
g1549
tp4745
(g2
g70
g6
g8
g12
g82
tp4746
tp4747
a((g118
g68
g70
g4
g120
g8
g124
g62
g12
g78
g80
g82
tp4748
(g201
g440
tp4749
(g68
g70
g10
g78
g80
g14
tp4750
tp4751
a((g2
g68
g70
g6
g124
g62
g80
g82
g14
tp4752
(g150
g817
tp4753
(g2
g68
g120
g124
g62
g82
g84
g14
tp4754
tp4755
a((g2
g118
g68
g70
g74
g120
g10
g76
g78
g80
g82
g14
tp4756
(g767
g53
tp4757
(g2
g120
g124
g62
g76
g78
g80
tp4758
tp4759
a((g2
g118
g68
g70
g4
g6
g120
g124
g76
g12
g82
g84
tp4760
(g126
g53
tp4761
(g118
g68
g124
g62
g80
g82
tp4762
tp4763
a((g2
g118
g70
g74
g8
g124
g62
g10
g76
g12
g80
g82
tp4764
(g201
g596
tp4765
(g12
g82
g84
g14
tp4766
tp4767
a((g2
g68
g70
g6
g120
g8
g124
g62
g10
g76
g80
tp4768
(g303
g318
tp4769
(g68
g6
g78
tp4770
tp4771
a((g70
g4
g74
g120
g124
g76
g78
g80
g84
g14
tp4772
(g86
g1549
tp4773
(g118
g70
g6
g120
g76
g84
tp4774
tp4775
a((g2
g118
g68
g70
g74
g120
g62
g10
g12
g78
g82
g84
g14
tp4776
(g400
tp4777
(g2
g70
g6
g74
g62
g12
g82
g84
tp4778
tp4779
a((g2
g118
g68
g70
g120
g8
g124
g62
g10
g76
g78
g80
g84
tp4780
(g423
g897
tp4781
(g118
g4
g120
g8
g124
g62
g12
g78
g84
tp4782
tp4783
a((g2
g68
g4
g120
g8
g124
g10
g76
g12
g82
g84
g14
tp4784
(g1254
g303
tp4785
(g68
g74
g120
g8
g124
g76
g80
g82
g84
tp4786
tp4787
a((g2
g68
g4
g6
g120
g8
g124
g62
g10
g76
g78
g80
g84
g14
tp4788
(g86
g691
tp4789
(g2
g118
g70
g4
g6
g62
g10
g80
g84
tp4790
tp4791
a((g118
g68
g70
g74
g124
g10
g12
g78
g80
tp4792
(g897
g1549
tp4793
(g118
g4
g6
g74
g124
g80
tp4794
tp4795
a((g68
g70
g4
g6
g74
g120
g8
g124
g62
g10
g12
g78
g80
g14
tp4796
(g284
tp4797
(g68
g70
g74
g62
g10
g78
g80
g82
g14
tp4798
tp4799
a((g2
g118
g70
g8
g10
g12
g78
g82
g84
g14
tp4800
(g581
g1692
tp4801
(g118
g4
g10
g12
g78
g80
g14
tp4802
tp4803
a((g2
g68
g70
g4
g6
g74
g8
g10
g76
g78
tp4804
(g2240
g53
tp4805
(g68
g4
g6
g74
g120
g8
g62
g78
tp4806
tp4807
a((g118
g70
g6
g74
g120
g124
g62
g10
g76
g78
g80
g82
tp4808
(g459
tp4809
(g74
g10
g76
g12
tp4810
tp4811
a((g2
g118
g68
g4
g6
g120
g8
g124
g76
g78
g80
g82
g84
g14
tp4812
(g53
tp4813
(g6
g124
g62
g76
g80
g82
g84
g14
tp4814
tp4815
a((g2
g68
g74
g120
g8
g62
g12
g78
g80
g82
g84
g14
tp4816
(g472
g514
tp4817
(g2
g4
g62
g12
g78
g14
tp4818
tp4819
a((g2
g68
g4
g6
g8
g124
g10
g76
g12
g78
g84
tp4820
(g284
g53
tp4821
(g68
g4
g124
g62
g76
g78
g82
g84
tp4822
tp4823
a((g118
g68
g4
g6
g74
g120
g124
g62
g76
g78
g80
g14
tp4824
(g817
g265
tp4825
(g2
g118
g68
g6
g76
g78
g84
tp4826
tp4827
a((g2
g118
g6
g74
g8
g62
g10
g76
g12
g82
g84
tp4828
(g318
g2704
tp4829
(g118
g6
g74
g8
g62
g12
g78
g82
g84
tp4830
tp4831
a((g2
g118
g70
g4
g120
g8
g62
g10
g12
g78
g80
g84
tp4832
(g533
g227
tp4833
(g118
g4
g74
g8
g80
g82
tp4834
tp4835
a((g118
g68
g70
g4
g74
g62
g76
g12
g78
g84
g14
tp4836
(g440
g101
tp4837
(g118
g4
g74
g120
g10
g78
g84
tp4838
tp4839
a((g2
g118
g68
g4
g6
g120
g8
g124
g62
g10
g76
g80
g82
g14
tp4840
(g817
tp4841
(g2
g4
g6
g120
g8
g124
g62
g76
g82
g84
g14
tp4842
tp4843
a((g2
g68
g70
g6
g74
g120
g8
g124
g62
g12
g78
g14
tp4844
(g284
tp4845
(g68
g70
g74
g120
g8
g62
g78
g82
g14
tp4846
tp4847
a((g2
g70
g120
g8
g10
g76
g78
g80
g82
g14
tp4848
(g817
g2337
tp4849
(g70
g6
g120
g8
g76
g82
g84
tp4850
tp4851
a((g2
g118
g68
g4
g74
g120
g8
g124
g12
g78
g82
g14
tp4852
(g1254
tp4853
(g2
g74
g120
g124
g80
tp4854
tp4855
a((g4
g124
g10
g76
g12
g78
g82
g84
g14
tp4856
(g581
g1898
tp4857
(g118
g10
g76
g78
g80
g14
tp4858
tp4859
a((g2
g118
g68
g6
g120
g124
g62
g76
g80
g82
tp4860
(g459
tp4861
(g2
g118
g6
g120
g76
g12
g82
tp4862
tp4863
a((g2
g68
g4
g74
g120
g124
g62
g10
g76
g12
g80
g84
g14
tp4864
(g1450
tp4865
(g2
g118
g68
g120
g10
g80
g84
tp4866
tp4867
a((g2
g118
g68
g6
g74
g8
g10
g80
g82
g84
g14
tp4868
(g1423
g1759
tp4869
(g2
g70
g84
g14
tp4870
tp4871
a((g2
g118
g70
g120
g8
g10
g76
g78
g80
g82
tp4872
(g533
g767
tp4873
(g2
g70
g74
g120
g8
g124
g10
g82
tp4874
tp4875
a((g2
g118
g68
g4
g120
g8
g62
g76
g12
g78
g80
g82
g84
g14
tp4876
(g767
g1549
tp4877
(g2
g6
g124
g62
g76
g12
g80
g84
g14
tp4878
tp4879
a((g2
g118
g70
g4
g6
g74
g120
g8
g124
g62
g12
g80
g82
g14
tp4880
(g1117
g1786
tp4881
(g118
g70
g6
g74
g124
g12
g78
tp4882
tp4883
a((g2
g118
g68
g70
g74
g8
g62
g76
g12
g78
g82
g14
tp4884
(g440
tp4885
(g2
g70
g74
g8
g10
g76
tp4886
tp4887
a((g118
g68
g4
g6
g74
g120
g10
g76
g12
g78
g80
g82
g84
g14
tp4888
(g767
tp4889
(g4
g6
g120
g124
g80
g82
g84
tp4890
tp4891
a((g118
g6
g8
g124
g62
g10
g76
g12
g78
g84
g14
tp4892
(g284
tp4893
(g118
g62
g76
g12
g82
g14
tp4894
tp4895
a((g68
g4
g74
g120
g8
g124
g62
g76
g12
g78
g80
g82
g14
tp4896
(g817
g86
tp4897
(g118
g74
g120
g8
g124
g76
g12
g84
tp4898
tp4899
a((g118
g4
g120
g10
g76
g12
g80
g82
g14
tp4900
(g472
tp4901
(g70
g4
g10
g82
tp4902
tp4903
a((g2
g118
g70
g4
g6
g74
g120
g62
g12
g78
g82
g14
tp4904
(g126
tp4905
(g2
g118
g70
g6
g120
g80
tp4906
tp4907
a((g118
g68
g70
g4
g6
g74
g124
g10
g80
g82
g14
tp4908
(g4388
tp4909
(g118
g68
g70
g4
g82
g84
tp4910
tp4911
a((g2
g118
g68
g120
g8
g62
g76
g12
g78
g82
tp4912
(g1151
tp4913
(g118
g68
g74
g120
g62
g12
tp4914
tp4915
a((g2
g118
g68
g70
g6
g74
g120
g8
g124
g76
g84
g14
tp4916
(g897
g53
tp4917
(g118
g68
g4
g8
g124
g62
tp4918
tp4919
a((g2
g118
g68
g70
g6
g74
g8
g124
g76
g12
g82
g84
g14
tp4920
(g379
g53
tp4921
(g2
g118
g70
g6
g74
g120
g8
g124
g62
g76
g12
g84
tp4922
tp4923
a((g2
g68
g70
g4
g74
g120
g8
g62
g76
g12
g78
g84
g14
tp4924
(g1469
g1898
tp4925
(g2
g118
g68
g70
g4
g74
g120
g8
g12
g14
tp4926
tp4927
a((g2
g118
g68
g4
g6
g74
g120
g8
g124
g62
g10
g76
g80
g82
g14
tp4928
(g318
tp4929
(g118
g6
g8
g62
g78
g80
g82
g14
tp4930
tp4931
a((g2
g118
g68
g70
g4
g120
g8
g10
g12
g82
g84
g14
tp4932
(g767
g303
tp4933
(g68
g4
g74
g120
g124
g12
g82
g14
tp4934
tp4935
a((g2
g118
g68
g70
g6
g8
g62
g10
g12
g82
g84
g14
tp4936
(g1044
tp4937
(g2
g68
g62
g10
g78
g84
g14
tp4938
tp4939
a((g2
g6
g8
g124
g62
g10
g76
g12
g82
tp4940
(g1254
g1653
tp4941
(g2
g118
g8
g76
g80
tp4942
tp4943
a((g2
g70
g6
g120
g124
g62
g10
g76
g80
g84
g14
tp4944
(g212
g1653
tp4945
(g2
g118
g70
g8
g62
g10
g14
tp4946
tp4947
a((g2
g118
g68
g6
g120
g8
g10
g76
g78
g82
g84
g14
tp4948
(g581
g459
tp4949
(g120
g10
g12
g14
tp4950
tp4951
a((g118
g70
g4
g6
g74
g120
g8
g124
g76
g80
g82
g84
g14
tp4952
(g495
tp4953
(g2
g70
g120
g124
g76
g82
g14
tp4954
tp4955
a((g2
g68
g70
g4
g6
g120
g124
g62
g10
g12
g80
g82
g84
g14
tp4956
(g1117
g303
tp4957
(g68
g70
g74
g120
g12
g78
g82
g14
tp4958
tp4959
a((g2
g118
g70
g4
g8
g124
g62
g10
g76
g78
g80
g82
g84
g14
tp4960
(g878
tp4961
(g2
g118
g68
g70
g4
g10
g76
g78
g80
tp4962
tp4963
a((g2
g118
g4
g6
g74
g120
g8
g124
g76
g12
g78
g80
g82
g14
tp4964
(g878
tp4965
(g2
g118
g68
g4
g6
g120
g8
g124
g76
g12
g82
tp4966
tp4967
a((g2
g118
g70
g4
g6
g74
g120
g124
g10
g12
g78
g84
tp4968
(g201
g581
tp4969
(g4
g6
g120
g124
g12
g78
g80
g14
tp4970
tp4971
a((g2
g118
g68
g6
g8
g62
g10
g12
g78
g82
tp4972
(g1254
g941
tp4973
(g2
g8
g124
g78
g80
g82
tp4974
tp4975
a((g2
g118
g68
g74
g62
g10
g76
g80
g84
tp4976
(g2637
g212
tp4977
(g68
g74
g8
g124
g62
g10
g76
tp4978
tp4979
a((g70
g6
g74
g120
g8
g124
g62
g10
g76
g78
g82
g84
g14
tp4980
(g581
tp4981
(g6
g74
g120
g8
g124
g10
g78
g80
tp4982
tp4983
a((g68
g70
g4
g74
g120
g8
g124
g80
g84
g14
tp4984
(g265
tp4985
(g2
g68
g4
g80
tp4986
tp4987
a((g6
g120
g62
g10
g12
g80
g82
g84
g14
tp4988
(g714
g1450
tp4989
(g118
g120
g124
g80
g82
tp4990
tp4991
a((g2
g118
g68
g6
g120
g8
g76
tp4992
(g182
tp4993
(g68
g8
g14
tp4994
tp4995
a((g2
g4
g8
g10
g76
g12
g78
g82
g84
tp4996
(g16
g1469
tp4997
(g2
g70
g8
g124
g76
g12
tp4998
tp4999
a((g2
g118
g4
g6
g120
g124
g62
g76
g12
g80
g82
g84
g14
tp5000
(g303
tp5001
(g74
g124
g62
g76
g80
g82
tp5002
tp5003
a((g2
g118
g70
g4
g6
g74
g120
g8
g12
g78
g80
g82
g84
tp5004
(g201
g878
tp5005
(g2
g68
g6
g74
g12
g78
g80
tp5006
tp5007
a((g2
g70
g6
g74
g120
g8
g10
g76
g80
g82
g84
g14
tp5008
(g714
g817
tp5009
(g2
g74
g8
g124
g10
g76
g84
g14
tp5010
tp5011
a((g70
g4
g6
g74
g120
g124
g62
g12
tp5012
(g227
tp5013
(g70
g6
g74
g124
g62
g82
tp5014
tp5015
a((g2
g118
g68
g4
g74
g8
g124
g62
g10
g76
g12
g80
g82
g84
tp5016
(g318
tp5017
(g2
g68
g4
g124
g62
g10
g76
g78
g84
tp5018
tp5019
a((g2
g118
g68
g70
g4
g6
g120
g8
g124
g10
g76
g12
g78
g80
g82
g14
tp5020
(g303
tp5021
(g68
g4
g74
g8
g124
g78
tp5022
tp5023
a((g2
g68
g4
g6
g74
g120
g8
g76
g12
g82
g84
g14
tp5024
(g1530
g1450
tp5025
(g118
g68
g74
g120
g76
g12
g80
tp5026
tp5027
a((g2
g68
g70
g4
g6
g120
g8
g62
g10
g76
g12
g78
g80
g84
g14
tp5028
(g86
g1469
tp5029
(g118
g68
g4
g6
g124
g10
g12
g78
tp5030
tp5031
a((g2
g118
g70
g8
g124
g10
g76
g80
g82
g84
g14
tp5032
(g423
g150
tp5033
(g120
g8
g12
g82
g84
tp5034
tp5035
a((g4
g120
g8
g76
g12
g78
g84
g14
tp5036
(g581
tp5037
(g120
g8
g76
g78
g80
g14
tp5038
tp5039
a((g118
g68
g70
g4
g120
g124
g62
g10
g76
g78
g80
g84
g14
tp5040
(g352
g1291
tp5041
(g68
g6
g62
g78
g80
g14
tp5042
tp5043
a((g2
g118
g68
g4
g6
g74
g124
g62
g10
g78
g82
g14
tp5044
(g212
tp5045
(g2
g68
g6
g8
g62
g10
g78
g82
g14
tp5046
tp5047
a((g2
g70
g4
g6
g74
g120
g124
g62
g76
g12
g78
g84
g14
tp5048
(g581
g352
tp5049
(g2
g70
g4
g6
g74
g62
g12
g80
g82
g14
tp5050
tp5051
a((g68
g70
g4
g74
g120
g62
g76
g12
g78
g80
g84
tp5052
(g265
g1218
tp5053
(g2
g70
g4
g74
g80
g84
tp5054
tp5055
a((g2
g68
g70
g4
g6
g74
g120
g8
g62
g10
g76
g12
g80
g82
g14
tp5056
(g817
g1044
tp5057
(g68
g70
g74
g120
g8
g76
g78
g84
g14
tp5058
tp5059
a((g118
g70
g4
g6
g120
g8
g76
g12
g78
g80
g84
g14
tp5060
(g1151
g714
tp5061
(g118
g70
g74
g120
g124
g80
g14
tp5062
tp5063
a((g118
g68
g4
g6
g120
g8
g80
g82
g84
g14
tp5064
(g767
g1759
tp5065
(g68
g70
g124
g80
tp5066
tp5067
a((g2
g118
g68
g4
g6
g74
g120
g62
g10
g80
g14
tp5068
(g817
g1044
tp5069
(g68
g74
g62
g10
g78
g84
tp5070
tp5071
a((g118
g68
g120
g62
g10
g78
g82
g84
g14
tp5072
(g581
g533
g653
tp5073
(g68
g74
g12
g80
tp5074
tp5075
a((g2
g68
g70
g4
g6
g74
g120
g124
g62
g10
g76
g12
g80
g14
tp5076
(g1117
g1630
tp5077
(g2
g70
g74
g120
g76
g78
g80
g84
g14
tp5078
tp5079
a((g2
g118
g68
g70
g4
g6
g74
g120
g8
g124
g62
g10
g76
g12
g80
g84
tp5080
(g1117
tp5081
(g2
g70
g74
g120
g124
g12
g78
g80
g84
tp5082
tp5083
a((g2
g118
g70
g4
g74
g8
g124
g62
g10
g76
g78
g80
g82
g84
tp5084
(g201
g1898
tp5085
(g118
g70
g4
g74
g10
g82
g14
tp5086
tp5087
a((g2
g118
g68
g70
g4
g74
g120
g8
g124
g76
g12
g78
g82
tp5088
(g53
tp5089
(g2
g68
g70
g4
g124
g62
g82
tp5090
tp5091
a((g2
g68
g70
g4
g6
g74
g8
g10
g80
g82
g14
tp5092
(g1423
g1450
tp5093
(g2
g118
g70
g4
g74
g120
g10
tp5094
tp5095
a((g2
g118
g6
g120
g8
g124
g80
g84
g14
tp5096
(g459
g337
tp5097
(g118
g120
g8
g12
g78
tp5098
tp5099
a((g2
g118
g70
g4
g6
g74
g120
g8
g62
g10
g76
g12
g78
g82
g84
g14
tp5100
(g767
tp5101
(g2
g70
g74
g120
g124
g62
g10
g78
g82
g14
tp5102
tp5103
a((g2
g68
g70
g4
g74
g8
g76
g12
g78
g82
g14
tp5104
(g440
tp5105
(g2
g68
g70
g74
g8
g10
g76
tp5106
tp5107
a((g2
g6
g74
g8
g76
g80
g82
g84
tp5108
(g914
g1809
g672
tp5109
(g2
g124
g10
g76
tp5110
tp5111
a((g118
g68
g4
g6
g120
g8
g124
g62
g10
g78
g80
g82
g84
tp5112
(g653
g135
tp5113
(g120
g124
g62
g76
g12
g80
g82
tp5114
tp5115
a((g2
g118
g68
g70
g4
g8
g76
g12
g78
g82
g84
g14
tp5116
(g440
g53
tp5117
(g2
g118
g70
g8
g62
g10
g78
g82
g14
tp5118
tp5119
a((g2
g118
g68
g4
g124
g62
g78
g82
g14
tp5120
(g1021
g150
tp5121
(g120
g124
g62
g82
g14
tp5122
tp5123
a((g118
g6
g74
g120
g8
g124
g10
g76
g78
g80
g84
g14
tp5124
(g352
g495
tp5125
(g2
g6
g8
g78
g82
g84
tp5126
tp5127
a((g2
g118
g68
g4
g6
g120
g8
g124
g62
g10
g78
g80
g82
g14
tp5128
(g653
g135
tp5129
(g68
g6
g76
g12
g80
g82
tp5130
tp5131
a((g2
g68
g70
g74
g8
g76
g78
g84
g14
tp5132
(g581
g2240
tp5133
(g2
g68
g74
g120
g76
g78
g80
g14
tp5134
tp5135
a((g2
g118
g68
g70
g6
g74
g62
g10
g76
g78
g80
g82
tp5136
(g201
tp5137
(g2
g70
g6
g74
g10
g78
g14
tp5138
tp5139
a((g2
g70
g4
g6
g74
g62
g10
g76
g12
g80
g84
tp5140
(g1836
g1653
tp5141
(g2
g118
g6
g76
tp5142
tp5143
a((g2
g118
g68
g70
g4
g62
g10
g78
g80
g82
g84
g14
tp5144
(g212
tp5145
(g2
g118
g8
g62
g10
g82
g84
g14
tp5146
tp5147
a((g118
g68
g4
g74
g76
g12
g80
tp5148
(g2637
g2822
g1549
tp5149
(g68
g4
g6
g124
g76
g12
tp5150
tp5151
a((g68
g70
g4
g6
g74
g8
g124
g62
g10
g12
g78
g82
g14
tp5152
(g135
tp5153
(g68
g70
g74
g124
g10
g76
g78
tp5154
tp5155
a((g118
g70
g4
g6
g74
g120
g8
g124
g62
g12
g78
g80
g84
g14
tp5156
(g284
tp5157
(g118
g4
g74
g120
g124
g62
g12
g78
g80
g82
g84
g14
tp5158
tp5159
a((g2
g68
g70
g4
g120
g124
g62
g10
g76
g12
g78
g82
g14
tp5160
(g126
g423
tp5161
(g4
g120
g62
g76
g12
g78
g80
g82
tp5162
tp5163
a((g2
g68
g6
g8
g124
g62
g10
g76
g80
g82
g14
tp5164
(g653
g1117
tp5165
(g68
g8
g124
g76
g12
g78
g80
g82
tp5166
tp5167
a((g68
g70
g4
g6
g74
g8
g124
g10
g78
g82
tp5168
(g979
tp5169
(g4
g6
g74
g8
g10
g14
tp5170
tp5171
a((g118
g68
g4
g6
g120
g62
g10
g76
g12
tp5172
(g227
g4233
tp5173
(g118
g4
g78
g82
tp5174
tp5175
a((g2
g118
g4
g74
g120
g78
g82
tp5176
((istructures.domain
Action
p5177
(dp5178
g18
(lp5179
(S'at_x3'
p5180
tp5181
a(S'at_y5'
p5182
tp5183
asg24
(lp5184
(S'at_x4'
p5185
tp5186
asg28
(tsg29
(lp5187
(S'at_x3'
p5188
tp5189
asg33
I0
sg34
(lp5190
sg36
S'move_3_5_4_5'
p5191
sbtp5192
(g2
g118
g6
g74
g120
g78
tp5193
tp5194
a((g68
g4
g6
g124
g62
g78
g80
g82
tp5195
(g1423
g135
tp5196
(g6
g120
g62
g76
g78
g80
tp5197
tp5198
a((g118
g68
g70
g4
g6
g74
g120
g8
g124
g62
g10
g76
g78
g84
g14
tp5199
(g284
tp5200
(g68
g120
g8
g124
g76
g78
g82
tp5201
tp5202
a((g2
g68
g70
g6
g74
g120
g8
g10
g12
g78
g80
g82
g84
g14
tp5203
(g53
tp5204
(g68
g62
g10
g12
g78
g84
g14
tp5205
tp5206
a((g2
g118
g6
g74
g120
g8
g124
g10
g80
g84
g14
tp5207
(g1117
tp5208
(g74
g124
g10
g78
g80
g84
g14
tp5209
tp5210
a((g2
g4
g6
g120
g8
g124
g62
g10
g76
g12
g82
g84
tp5211
(g472
tp5212
(g2
g70
g4
g8
g124
g76
g12
tp5213
tp5214
a((g2
g68
g70
g4
g74
g8
g124
g62
g12
g80
tp5215
(g979
tp5216
(g2
g70
g4
g74
g124
g14
tp5217
tp5218
a((g2
g118
g68
g70
g4
g74
g120
g8
g124
g62
g10
g76
g12
g78
g80
g82
g84
g14
tp5219
(g1291
tp5220
(g118
g68
g4
g6
g124
g62
g10
g80
g84
g14
tp5221
tp5222
a((g2
g68
g4
g6
g120
g124
g10
g76
g12
g80
g82
tp5223
(g212
g1653
tp5224
(g118
g68
g4
g120
g8
g12
g80
g82
tp5225
tp5226
a((g2
g118
g68
g70
g6
g120
g8
g124
g10
g76
g12
g80
g84
g14
tp5227
(g897
g284
tp5228
(g118
g4
g120
g8
g124
g76
g82
g84
g14
tp5229
tp5230
a((g2
g118
g70
g8
g76
g12
g78
g80
g14
tp5231
(g550
g53
tp5232
(g2
g118
g68
g62
g12
tp5233
tp5234
a((g2
g118
g68
g70
g124
g62
g10
g76
g12
g78
g82
g84
tp5235
(g379
g212
tp5236
(g2
g68
g70
g120
g8
g124
g62
g10
g12
tp5237
tp5238
a((g2
g68
g70
g4
g6
g74
g120
g8
g124
g10
g76
g12
g78
g80
tp5239
(g817
g53
tp5240
(g2
g68
g70
g124
g62
g10
g84
tp5241
tp5242
a((g2
g118
g70
g4
g6
g124
g62
g10
g76
g80
g82
g84
g14
tp5243
(g914
tp5244
(g2
g118
g4
g6
g10
g76
g12
g84
g14
tp5245
tp5246
a((g2
g118
g68
g70
g6
g8
g124
g10
g76
g78
g84
g14
tp5247
(g53
tp5248
(g68
g62
g10
g84
g14
tp5249
tp5250
a((g118
g70
g6
g74
g120
g8
g124
g12
g78
g80
g82
tp5251
(g1484
tp5252
(g2
g70
g6
g120
g124
g78
tp5253
tp5254
a((g2
g118
g68
g70
g6
g120
g80
g82
tp5255
(g201
g459
g440
tp5256
(g2
g70
g6
g120
g10
g14
tp5257
tp5258
a((g2
g118
g68
g70
g6
g74
g120
g8
g62
g76
g80
g84
tp5259
(g767
g284
tp5260
(g2
g120
g124
g62
g76
g82
tp5261
tp5262
a((g2
g68
g70
g6
g8
g124
g62
g78
tp5263
(g150
g284
g303
tp5264
(g68
g74
g120
g8
g78
g82
tp5265
tp5266
a((g2
g118
g68
g4
g74
g120
g8
g124
g76
g12
g82
g84
g14
tp5267
(g53
tp5268
(g4
g74
g120
g8
g124
g62
g12
g84
g14
tp5269
tp5270
a((g2
g118
g70
g4
g6
g8
g10
g12
g78
g80
g84
tp5271
(g960
g1469
tp5272
(g118
g70
g4
g8
g124
g12
g80
g82
tp5273
tp5274
a((g68
g70
g6
g120
g8
g124
g62
g76
g12
g82
g84
tp5275
(g897
g1530
tp5276
(g68
g4
g6
g124
g62
g76
g12
g80
tp5277
tp5278
a((g4
g6
g120
g10
g76
g78
g82
g14
tp5279
(g1759
(istructures.domain
Action
p5280
(dp5281
g18
(lp5282
(S'at_x3'
p5283
tp5284
a(S'at_y0'
p5285
tp5286
asg24
(lp5287
(S'at_x2'
p5288
tp5289
asg28
(tsg29
(lp5290
(S'at_x3'
p5291
tp5292
asg33
I0
sg34
(lp5293
sg36
S'move_3_0_2_0'
p5294
sbtp5295
(g70
g4
g120
g76
g78
tp5296
tp5297
a((g2
g68
g70
g74
g120
g8
g124
g62
g10
g76
g80
g82
g14
tp5298
(g459
g1450
tp5299
(g2
g118
g68
g70
g74
g8
g62
g10
g76
g12
tp5300
tp5301
a((g70
g4
g74
g120
g62
g10
g76
g12
g78
g84
g14
tp5302
(g581
g86
tp5303
(g118
g70
g4
g62
g10
g76
g12
g78
g80
tp5304
tp5305
a((g2
g118
g68
g70
g4
g6
g120
g124
g76
g12
g78
g80
g82
tp5306
(g201
g817
tp5307
(g68
g4
g124
g76
g12
g78
g84
g14
tp5308
tp5309
a((g118
g68
g70
g120
g8
g62
g10
g76
g80
g82
g14
tp5310
(g767
(istructures.domain
Action
p5311
(dp5312
g18
(lp5313
(S'at_x2'
p5314
tp5315
a(S'at_y4'
p5316
tp5317
asg24
(lp5318
(S'at_y3'
p5319
tp5320
asg28
(tsg29
(lp5321
(S'at_y4'
p5322
tp5323
asg33
I0
sg34
(lp5324
sg36
S'move_2_4_2_3'
p5325
sbtp5326
(g68
g120
g8
g10
g80
g82
g84
g14
tp5327
tp5328
a((g2
g118
g68
g70
g4
g6
g74
g62
g10
g76
g12
g78
g80
g82
g14
tp5329
(g941
tp5330
(g68
g70
g124
g62
g10
g78
g80
g82
g14
tp5331
tp5332
a((g2
g118
g68
g4
g6
g8
g62
g10
g12
g78
g80
g82
g14
tp5333
(g619
tp5334
(g118
g4
g6
g62
g12
g78
g84
tp5335
tp5336
a((g2
g118
g70
g4
g74
g124
g62
g10
g78
g82
g84
tp5337
(g581
g1291
tp5338
(g2
g118
g4
g6
g62
g10
g78
g80
tp5339
tp5340
a((g2
g68
g120
g10
g12
g78
g82
g84
g14
tp5341
(g1254
g53
tp5342
(g62
g78
g80
g84
tp5343
tp5344
a((g2
g118
g68
g74
g120
g8
g124
g62
g80
g84
tp5345
(g459
g1075
tp5346
(g2
g118
g68
g74
g120
g8
g62
g10
tp5347
tp5348
a((g2
g118
g70
g4
g6
g120
g8
g10
g76
g80
g82
g84
tp5349
(g1117
tp5350
(g118
g120
g8
g10
g78
g80
g84
tp5351
tp5352
a((g2
g68
g4
g6
g74
g120
g62
g10
g76
g78
g80
g84
g14
tp5353
(g16
g1469
tp5354
(g2
g70
g6
g124
g78
g80
tp5355
tp5356
a((g2
g118
g68
g6
g74
g8
g124
g10
g76
g82
g84
g14
tp5357
(g3371
g53
tp5358
(g6
g74
g120
g8
g124
g62
g10
g84
g14
tp5359
tp5360
a((g2
g118
g68
g6
g120
g124
g62
g76
g12
g78
g80
tp5361
(g227
tp5362
(g118
g68
g6
g124
g12
g80
g82
tp5363
tp5364
a((g2
g68
g70
g4
g6
g62
g10
g76
g12
g78
g84
g14
tp5365
(g533
g101
tp5366
(g68
g4
g74
g120
g12
g14
tp5367
tp5368
a((g2
g118
g68
g4
g124
g78
tp5369
(g53
g2090
tp5370
(g2
g118
g4
g62
g14
tp5371
tp5372
a((g2
g68
g70
g4
g6
g74
g120
g8
g124
g76
g12
g80
g82
g14
tp5373
(g1450
tp5374
(g118
g70
g4
g6
g120
g124
g12
g80
g82
tp5375
tp5376
a((g2
g70
g120
g8
g10
g76
g12
g80
g82
g84
g14
tp5377
(g1291
g2704
tp5378
(g70
g6
g74
g8
g80
g84
g14
tp5379
tp5380
a((g2
g118
g68
g70
g6
g74
g8
g124
g62
g10
g82
g84
g14
tp5381
(g423
g337
tp5382
(g2
g118
g70
g124
g12
g78
g82
g84
g14
tp5383
tp5384
a((g2
g118
g68
g70
g120
g8
g10
g76
g12
g78
g80
g82
g14
tp5385
(g817
g767
tp5386
(g70
g8
g124
g10
g82
g84
g14
tp5387
tp5388
a((g2
g68
g70
g4
g6
g74
g124
g62
g10
g12
g78
g80
g14
tp5389
(g212
tp5390
(g2
g68
g70
g74
g8
g10
g12
g80
g14
tp5391
tp5392
a((g2
g74
g120
g8
g124
g62
g10
g76
g78
g80
g14
tp5393
(g459
g352
tp5394
(g2
g74
g8
g124
g10
g76
g12
g78
g82
tp5395
tp5396
a((g2
g118
g68
g4
g6
g74
g120
g124
g10
g80
g82
tp5397
(g459
tp5398
(g6
g120
g12
g82
tp5399
tp5400
a((g2
g70
g74
g8
g124
g62
g10
g12
g78
g80
g82
g84
g14
tp5401
(g150
g1291
tp5402
(g2
g6
g120
g8
g124
g12
g78
g84
tp5403
tp5404
a((g2
g68
g4
g6
g74
g120
g124
g10
g78
g80
g84
g14
tp5405
(g16
g352
tp5406
(g70
g6
g124
g78
g82
tp5407
tp5408
a((g2
g118
g68
g4
g6
g74
g120
g8
g62
g10
g76
g80
g84
g14
tp5409
(g767
g16
tp5410
(g2
g68
g70
g6
g74
g120
g124
tp5411
tp5412
a((g2
g68
g70
g6
g74
g120
g124
g62
g10
g76
g12
g78
g80
tp5413
(g227
tp5414
(g2
g68
g70
g6
g74
g76
g78
g80
g82
tp5415
tp5416
a((g2
g118
g4
g6
g120
g62
g10
g76
g12
g78
g82
g84
tp5417
(g212
tp5418
(g2
g118
g4
g8
g62
g78
g82
g84
tp5419
tp5420
a((g2
g68
g70
g4
g124
g62
g10
g76
g12
g80
g82
tp5421
(g1291
g303
tp5422
(g68
g70
g4
g6
g74
g62
g76
g80
tp5423
tp5424
a((g2
g118
g68
g70
g74
g120
g8
g62
g10
g76
g12
g78
g82
g84
tp5425
(g514
g472
tp5426
(g70
g4
g74
g76
g78
g84
tp5427
tp5428
a((g2
g118
g68
g70
g4
g6
g120
g124
g62
g10
g12
g80
g82
g14
tp5429
(g817
g212
tp5430
(g2
g4
g120
g8
g62
g10
g84
g14
tp5431
tp5432
a((g2
g68
g6
g74
g120
g8
g76
g12
g78
tp5433
(g2090
g86
tp5434
(g118
g6
g74
g120
g78
tp5435
tp5436
a((g2
g4
g6
g120
g8
g124
g10
g76
g12
g78
g80
tp5437
(g533
tp5438
(g4
g74
g120
g8
g124
g80
tp5439
tp5440
a((g2
g118
g4
g120
g124
g62
g10
g76
g12
g78
g80
g82
tp5441
(g817
tp5442
(g2
g118
g124
g10
g12
g82
g84
tp5443
tp5444
a((g2
g118
g68
g70
g6
g74
g120
g124
g62
g10
g76
g12
g78
g80
g84
g14
tp5445
(g212
tp5446
(g68
g120
g8
g10
g80
g14
tp5447
tp5448
a((g2
g68
g70
g4
g74
g8
g124
g62
g10
g76
g12
g82
g14
tp5449
(g126
g1423
g318
tp5450
(g68
g70
g4
g120
g76
g78
g80
tp5451
tp5452
a((g2
g118
g68
g70
g6
g120
g8
g62
g10
g12
g82
g14
tp5453
(g767
tp5454
(g2
g68
g6
g120
g8
g124
g62
g12
tp5455
tp5456
a((g2
g118
g68
g70
g4
g6
g74
g8
g62
g12
g80
g82
g84
tp5457
(g440
g941
tp5458
(g2
g70
g6
g8
g124
g10
g80
tp5459
tp5460
a((g68
g70
g4
g62
g10
g76
g82
g14
tp5461
(g423
g2240
g1786
g1231
tp5462
(g70
g6
g120
g76
g12
tp5463
tp5464
a((g2
g68
g70
g4
g74
g120
g8
g124
g62
g10
g76
g12
g80
g82
g84
g14
tp5465
(g1291
tp5466
(g68
g70
g6
g10
g14
tp5467
tp5468
a((g4
g74
g120
g8
g78
g80
g82
g84
g14
tp5469
(g459
(istructures.domain
Action
p5470
(dp5471
g18
(lp5472
(S'at_x6'
p5473
tp5474
a(S'at_y1'
p5475
tp5476
asg24
(lp5477
(S'at_y0'
p5478
tp5479
asg28
(tsg29
(lp5480
(S'at_y1'
p5481
tp5482
asg33
I0
sg34
(lp5483
sg36
S'move_6_1_6_0'
p5484
sbg495
tp5485
(g2
g120
g8
g10
tp5486
tp5487
a((g2
g118
g68
g74
g120
g62
g10
g76
g78
tp5488
(g767
g212
tp5489
(g2
g68
g74
g8
g124
g62
tp5490
tp5491
a((g68
g70
g6
g8
g62
g12
g78
g80
g14
tp5492
(g2240
tp5493
(g68
g120
g78
g80
tp5494
tp5495
a((g2
g118
g68
g70
g74
g120
g8
g124
g62
g10
g76
g12
g78
g80
g82
g84
tp5496
(g1291
tp5497
(g68
g6
g74
g124
g76
g78
tp5498
tp5499
a((g2
g118
g68
g74
g120
g8
g78
tp5500
(g2209
g1132
g135
tp5501
(g2
g8
g76
g78
tp5502
tp5503
a((g2
g118
g68
g74
g120
g8
g10
g76
g12
g80
g82
g84
tp5504
(g318
g53
tp5505
(g118
g68
g62
g10
g78
tp5506
tp5507
a((g2
g68
g70
g4
g120
g8
g62
g10
g78
g80
g82
g14
tp5508
(g817
g533
tp5509
(g4
g74
g62
g82
g84
tp5510
tp5511
a((g118
g70
g124
g62
g76
g78
tp5512
(g201
g150
g550
tp5513
(g68
g120
g124
g62
g76
g78
tp5514
tp5515
a((g118
g68
g70
g74
g8
g62
g76
g12
g78
g80
g82
tp5516
(g2240
tp5517
(g68
g74
g120
g62
g76
g12
g82
tp5518
tp5519
a((g2
g118
g68
g70
g4
g6
g74
g62
g10
g76
g80
g84
g14
tp5520
(g914
g212
tp5521
(g2
g118
g68
g70
g4
g8
g62
g10
g12
g14
tp5522
tp5523
a((g118
g68
g4
g6
g74
g120
g8
g124
g62
g10
g76
g12
g82
g84
tp5524
(g1170
tp5525
(g120
g80
g82
tp5526
tp5527
a((g2
g118
g70
g74
g120
g8
g124
g62
g76
g80
g82
g84
g14
tp5528
(g897
g1373
tp5529
(g4
g6
g74
g8
g124
g62
g76
g80
g14
tp5530
tp5531
a((g2
g118
g68
g70
g4
g6
g74
g120
g124
g10
g76
g12
g78
g82
tp5532
(g1630
tp5533
(g2
g68
g70
g4
g6
g10
g76
g12
g84
tp5534
tp5535
a((g2
g118
g68
g8
g124
g62
g10
g12
g78
g82
g14
tp5536
(g1254
g303
g1630
tp5537
(g118
g68
g74
g10
g78
g80
g82
g84
g14
tp5538
tp5539
a((g2
g68
g74
g120
g8
g124
g62
g10
g76
g12
g80
tp5540
(g817
g2090
tp5541
(g2
g74
g124
g76
g12
g84
g14
tp5542
tp5543
a((g2
g70
g6
g74
g8
g62
g10
g12
g78
g84
g14
tp5544
(g126
g794
tp5545
(g74
g10
g78
g80
g82
g14
tp5546
tp5547
a((g2
g118
g68
g4
g62
g76
g12
g78
g80
g82
g84
g14
tp5548
(g1469
g1021
tp5549
(g68
g70
g124
g62
g76
g78
g80
g82
tp5550
tp5551
a((g2
g118
g4
g74
g120
g8
g10
g76
g12
g78
g80
g84
g14
tp5552
(g352
g1549
tp5553
(g2
g118
g6
g74
g8
g76
g80
g82
g84
g14
tp5554
tp5555
a((g2
g70
g74
g8
g124
g80
g84
g14
tp5556
(g914
g38
tp5557
(g68
g70
g124
g12
tp5558
tp5559
a((g2
g118
g68
g6
g8
g124
g62
g76
g12
g78
g82
g14
tp5560
(g379
g472
tp5561
(g2
g118
g70
g6
g124
g76
tp5562
tp5563
a((g2
g68
g70
g4
g6
g74
g120
g8
g124
g62
g10
g12
g80
g84
tp5564
(g284
tp5565
(g2
g74
g124
g10
g80
g82
g84
tp5566
tp5567
a((g2
g68
g70
g6
g74
g8
g124
g10
g76
g78
g80
g82
g14
tp5568
(g86
g150
tp5569
(g2
g118
g68
g74
g120
g8
g124
g78
g80
g82
tp5570
tp5571
a((g2
g118
g4
g6
g120
g124
g62
g10
g12
g80
g82
g84
g14
tp5572
(g16
g303
tp5573
(g118
g70
g6
g74
g124
g10
g12
g80
g14
tp5574
tp5575
a((g2
g118
g68
g4
g120
g8
g124
g10
g78
g84
tp5576
(g182
g53
tp5577
(g68
g120
g124
g62
g10
g78
g84
g14
tp5578
tp5579
a((g2
g70
g4
g6
g74
g120
g124
g62
g10
g78
g80
g82
g14
tp5580
(g212
tp5581
(g70
g4
g74
g120
g8
g124
g10
g80
tp5582
tp5583
a((g2
g118
g70
g6
g74
g8
g124
g62
g10
g76
g78
g84
g14
tp5584
(g284
tp5585
(g2
g8
g62
g10
g82
g84
tp5586
tp5587
a((g68
g70
g4
g6
g124
g62
g78
g80
g82
g84
g14
tp5588
(g86
tp5589
(g118
g68
g70
g62
tp5590
tp5591
a((g2
g68
g70
g4
g6
g74
g120
g8
g12
g80
g84
tp5592
(g1117
g53
tp5593
(g2
g68
g74
g120
g8
g62
g12
g78
g80
g84
tp5594
tp5595
a((g2
g118
g68
g70
g4
g74
g120
g62
g76
g12
g80
g82
g84
g14
tp5596
(g767
tp5597
(g70
g74
g120
g124
g62
g76
g12
g80
g82
g14
tp5598
tp5599
a((g2
g118
g4
g6
g120
g62
g10
g78
g80
g84
tp5600
(g16
g212
tp5601
(g70
g6
g8
g10
g84
tp5602
tp5603
a((g2
g118
g68
g70
g4
g6
g120
g8
g124
g10
g76
g12
g78
g14
tp5604
(g126
tp5605
(g70
g4
g6
g124
g80
tp5606
tp5607
a((g118
g68
g70
g4
g74
g8
g10
g76
g12
g80
g82
tp5608
(g2637
g265
tp5609
(g2
g70
g8
g124
g76
tp5610
tp5611
a((g2
g118
g68
g4
g8
g124
g62
g10
g76
g12
g78
g84
g14
tp5612
(g400
tp5613
(g118
g6
g124
g62
g10
g76
tp5614
tp5615
a((g118
g68
g70
g4
g6
g74
g120
g124
g62
g10
g76
g78
g80
g82
g14
tp5616
(g423
g817
tp5617
(g118
g4
g6
g74
g12
g78
g84
tp5618
tp5619
a((g2
g118
g68
g70
g4
g6
g74
g120
g124
g76
g12
g82
g84
g14
tp5620
(g440
g1530
tp5621
(g2
g68
g70
g74
g120
g10
g80
tp5622
tp5623
a((g118
g68
g4
g6
g74
g120
g62
g10
g76
g12
g78
g80
g84
g14
tp5624
(g767
g16
tp5625
(g68
g70
g6
g120
g124
g76
g78
g80
g84
tp5626
tp5627
a((g2
g74
g8
g62
g10
g76
g78
g82
g84
tp5628
(g581
g653
tp5629
(g76
g12
g78
g80
tp5630
tp5631
a((g68
g70
g4
g74
g120
g8
g76
g78
g80
g82
g14
tp5632
(g1373
tp5633
(g70
g4
g6
g120
g76
g78
g80
g14
tp5634
tp5635
a((g118
g68
g6
g74
g120
g8
g62
g76
g12
g78
g84
g14
tp5636
(g581
g265
tp5637
(g2
g118
g8
g62
g12
g78
g80
g14
tp5638
tp5639
a((g2
g118
g70
g4
g6
g8
g124
g76
g80
g82
g84
g14
tp5640
(g303
g2822
tp5641
(g118
g6
g76
g78
g82
g84
tp5642
tp5643
a((g2
g118
g68
g70
g4
g6
g74
g120
g8
g10
g76
g80
g82
g84
g14
tp5644
(g318
g1090
tp5645
(g118
g68
g70
g6
g74
g10
g76
g78
g82
g84
g14
tp5646
tp5647
a((g4
g6
g74
g62
g10
g12
g78
g80
g14
tp5648
(g619
g1170
g495
tp5649
(g2
g6
g10
g78
g80
g84
tp5650
tp5651
a((g118
g68
g70
g4
g6
g74
g124
g62
g76
g12
g78
g84
tp5652
(g201
g150
tp5653
(g4
g74
g120
g12
g78
g14
tp5654
tp5655
a((g2
g70
g6
g74
g120
g62
g10
g78
g82
g14
tp5656
(g550
tp5657
(g2
g68
g74
g10
g78
tp5658
tp5659
a((g2
g118
g4
g6
g74
g124
g10
g76
g78
g80
g82
g84
tp5660
(g914
g212
tp5661
(g4
g74
g8
g10
g76
g12
g82
g84
tp5662
tp5663
a((g68
g70
g6
g74
g124
g78
g80
tp5664
(g1630
tp5665
(g70
g80
g84
tp5666
tp5667
a((g2
g118
g4
g74
g120
g8
g124
g10
g76
g12
g82
g84
tp5668
(g182
tp5669
(g74
g8
g124
g10
g82
g84
g14
tp5670
tp5671
a((g68
g70
g4
g6
g120
g124
g62
g10
g12
g78
g80
g14
tp5672
(g533
g265
tp5673
(g2
g68
g4
g6
g120
g12
tp5674
tp5675
a((g118
g68
g70
g6
g120
g8
g62
g76
g12
g78
g82
g14
tp5676
(g767
g1218
tp5677
(g68
g74
g8
g124
g76
g12
g82
g14
tp5678
tp5679
a((g2
g118
g120
g8
g124
g62
g76
g78
g80
g82
g84
g14
tp5680
(g1373
tp5681
(g6
g8
g62
g76
g78
g80
tp5682
tp5683
a((g2
g68
g70
g4
g74
g120
g8
g62
g10
g76
g12
g82
tp5684
(g318
g2704
tp5685
(g70
g4
g74
g120
g8
g62
g10
g76
g78
g82
tp5686
tp5687
a((g2
g118
g68
g70
g6
g120
g62
g10
g76
g80
g82
g84
tp5688
(g514
tp5689
(g118
g4
g120
g62
g76
g80
g84
tp5690
tp5691
a((g2
g118
g68
g4
g6
g74
g120
g124
g10
g76
g78
g80
g82
g14
tp5692
(g53
tp5693
(g2
g118
g68
g4
g6
g74
g120
g124
g62
g76
g78
g82
tp5694
tp5695
a((g2
g118
g68
g70
g6
g120
g124
g76
g12
g78
g80
g82
g84
tp5696
(g201
tp5697
(g2
g70
g120
g76
g12
g78
g80
g82
g84
g14
tp5698
tp5699
a((g2
g118
g68
g70
g6
g120
g124
g62
g82
g14
tp5700
(g897
g1759
g135
tp5701
(g2
g68
g70
g4
g124
g62
g76
g82
tp5702
tp5703
a((g2
g68
g70
g4
g6
g74
g120
g8
g124
g62
g10
g76
g12
tp5704
(g126
g979
g352
tp5705
(g2
g6
g8
g124
g62
g10
g80
g82
g14
tp5706
tp5707
a((g2
g118
g4
g74
g8
g124
g62
g10
g76
g78
g82
tp5708
(g1291
g16
tp5709
(g2
g70
g6
g74
g62
g10
g76
g78
tp5710
tp5711
a((g68
g70
g4
g74
g120
g8
g124
g62
g76
g12
g78
g80
g14
tp5712
(g265
tp5713
(g2
g70
g120
g8
g62
g76
g14
tp5714
tp5715
a((g2
g118
g68
g70
g4
g120
g8
g62
g10
g76
g12
g80
g14
tp5716
(g352
tp5717
(g118
g68
g70
g10
g76
g82
tp5718
tp5719
a((g2
g118
g70
g4
g8
g62
g12
g78
g82
g84
tp5720
(g379
g400
tp5721
(g2
g118
g70
g4
g6
g120
g12
g84
tp5722
tp5723
a((g118
g68
g70
g4
g74
g120
g124
g62
g10
g78
g80
g84
tp5724
(g423
g135
tp5725
(g118
g68
g62
g76
g12
g78
g80
g84
tp5726
tp5727
a((g2
g118
g68
g70
g4
g6
g74
g120
g124
g62
g10
g12
g78
g80
tp5728
(g817
tp5729
(g2
g118
g70
g4
g6
g74
g120
g62
g10
g84
tp5730
tp5731
a((g118
g68
g6
g74
g8
g62
g76
g12
g78
g80
g82
g14
tp5732
(g619
g1170
tp5733
(g118
g76
g78
g80
g84
tp5734
tp5735
a((g2
g68
g70
g4
g6
g74
g120
g10
g76
g12
g80
g82
g14
tp5736
(g212
g53
tp5737
(g4
g6
g120
g8
g62
g10
g12
tp5738
tp5739
a((g2
g118
g68
g70
g6
g74
g8
g10
g12
g78
g80
g82
g84
g14
tp5740
(g379
g53
tp5741
(g68
g6
g74
g120
g8
g62
g10
g12
tp5742
tp5743
a((g2
g118
g6
g74
g8
g124
g62
g10
g12
g82
g84
g14
tp5744
((istructures.domain
Action
p5745
(dp5746
g18
(lp5747
(S'at_x3'
p5748
tp5749
a(S'at_y6'
p5750
tp5751
asg24
(lp5752
(S'at_y7'
p5753
tp5754
asg28
(tsg29
(lp5755
(S'at_y6'
p5756
tp5757
asg33
I0
sg34
(lp5758
sg36
S'move_3_6_3_7'
p5759
sbg634
tp5760
(g68
g6
g74
g10
g82
g84
g14
tp5761
tp5762
a((g2
g68
g4
g120
g8
g124
g62
g76
g78
g80
g84
g14
tp5763
(g303
g1898
tp5764
(g118
g68
g4
g74
g78
g84
g14
tp5765
tp5766
a((g2
g118
g68
g4
g74
g124
g76
g12
g78
g82
g14
tp5767
(g1254
g619
g400
tp5768
(g2
g4
g6
g124
g76
g82
g84
g14
tp5769
tp5770
a((g2
g68
g4
g124
g62
g10
g76
g12
g82
g84
g14
tp5771
(g212
(istructures.domain
Action
p5772
(dp5773
g18
(lp5774
(S'at_x3'
p5775
tp5776
a(S'at_y3'
p5777
tp5778
asg24
(lp5779
(S'at_y2'
p5780
tp5781
asg28
(tsg29
(lp5782
(S'at_y3'
p5783
tp5784
asg33
I0
sg34
(lp5785
sg36
S'move_3_3_3_2'
p5786
sbtp5787
(g2
g68
g4
g8
g124
g10
g76
g12
g80
g82
g14
tp5788
tp5789
a((g2
g118
g68
g70
g120
g62
g76
g12
g78
g80
g82
g84
tp5790
(g440
g212
tp5791
(g2
g68
g120
g8
g10
g80
tp5792
tp5793
a((g2
g6
g74
g120
g8
g62
g10
g12
g78
g80
g14
tp5794
(g86
tp5795
(g2
g118
g6
g120
g8
g12
g80
tp5796
tp5797
a((g68
g70
g4
g74
g120
g8
g124
g62
g12
g78
g82
g14
tp5798
(g1786
g1898
tp5799
(g118
g68
g70
g4
g6
g120
g62
g78
g14
tp5800
tp5801
a((g118
g74
g62
g76
g12
g78
g80
g82
tp5802
(g379
g472
tp5803
(g70
g12
g78
tp5804
tp5805
a((g2
g118
g68
g70
g4
g6
g74
g8
g124
g62
g10
g76
g12
g78
g80
tp5806
(g150
g1630
tp5807
(g2
g68
g4
g6
g120
g62
g76
g80
g84
tp5808
tp5809
a((g2
g4
g74
g120
g8
g124
g10
g76
g80
g82
g84
g14
tp5810
(g878
g53
tp5811
(g2
g74
g120
g8
g62
g10
g76
g80
tp5812
tp5813
a((g118
g70
g6
g120
g62
g10
g78
g84
g14
tp5814
(g514
g878
tp5815
(g68
g4
g6
g62
g10
g84
tp5816
tp5817
a((g2
g118
g68
g70
g4
g6
g74
g120
g8
g62
g82
tp5818
(g201
(istructures.domain
Action
p5819
(dp5820
g18
(lp5821
(S'at_x6'
p5822
tp5823
a(S'at_y7'
p5824
tp5825
asg24
(lp5826
(S'at_x5'
p5827
tp5828
asg28
(tsg29
(lp5829
(S'at_x6'
p5830
tp5831
asg33
I0
sg34
(lp5832
sg36
S'move_6_7_5_7'
p5833
sbtp5834
(g2
g4
g6
g120
g62
g78
g14
tp5835
tp5836
a((g2
g118
g68
g6
g74
g120
g8
g124
g10
g76
g12
g78
g84
tp5837
(g1254
g1326
tp5838
(g2
g118
g68
g6
g8
g124
g76
g78
g80
g82
g84
tp5839
tp5840
a((g2
g70
g4
g6
g74
g120
g8
g124
g62
g10
g12
g80
g82
g14
tp5841
(g1117
g86
tp5842
(g118
g70
g4
g74
g8
g124
g10
g12
g78
tp5843
tp5844
a((g2
g4
g6
g74
g120
g8
g124
g10
g78
g82
g84
tp5845
(g16
tp5846
(g2
g70
g74
g120
g10
g82
tp5847
tp5848
a((g2
g118
g4
g6
g74
g120
g8
g124
g76
g78
tp5849
(g284
g182
tp5850
(g4
g74
g8
g124
g82
g14
tp5851
tp5852
a((g2
g118
g70
g4
g74
g8
g62
g10
g76
g80
g82
g84
g14
tp5853
(g878
g201
tp5854
(g2
g68
g70
g10
g76
g82
g84
g14
tp5855
tp5856
a((g118
g68
g70
g4
g74
g62
g10
g80
tp5857
(g265
tp5858
(g2
g118
g68
g70
g4
g62
tp5859
tp5860
a((g2
g118
g68
g120
g8
g62
g76
g78
g80
g82
g84
tp5861
(g459
g182
g1786
tp5862
(g2
g6
g120
g62
g12
g78
g84
g14
tp5863
tp5864
a((g2
g68
g4
g6
g74
g62
g12
g80
g82
tp5865
(g379
g817
g960
tp5866
(g4
g74
g120
g62
g12
g82
g84
tp5867
tp5868
a((g2
g118
g68
g70
g4
g74
g8
g124
g62
g10
g76
g12
g78
g80
g82
g84
g14
tp5869
(g1549
tp5870
(g2
g4
g6
g74
g8
g124
g10
g12
g82
g14
tp5871
tp5872
a((g2
g118
g68
g70
g4
g74
g124
g62
g76
g80
g82
g84
tp5873
(g979
tp5874
(g118
g4
g74
g62
g76
g80
g82
g84
g14
tp5875
tp5876
a((g2
g70
g124
g10
g76
g80
g82
g84
g14
tp5877
(g212
g303
tp5878
(g74
g8
g84
tp5879
tp5880
a((g2
g118
g68
g4
g74
g120
g8
g124
g76
g78
g80
g84
g14
tp5881
(g352
g1549
tp5882
(g2
g6
g124
g76
g82
g84
g14
tp5883
tp5884
a((g118
g68
g70
g74
g120
g10
g76
g78
g80
g82
g14
tp5885
(g265
g53
tp5886
(g2
g118
g120
g62
g76
g78
g80
g14
tp5887
tp5888
a((g118
g68
g6
g74
g8
g62
g10
g76
g12
g78
g84
g14
tp5889
(g1469
g265
tp5890
(g2
g118
g124
g62
g76
g14
tp5891
tp5892
a((g2
g118
g4
g6
g8
g124
g62
g76
g78
g84
g14
tp5893
(g581
g914
g284
tp5894
(g4
g76
g12
g78
g82
tp5895
tp5896
a((g118
g8
g62
g10
g76
g80
g82
g84
g14
tp5897
(g1423
g1759
g859
tp5898
(g68
g70
g8
g62
g10
g84
tp5899
tp5900
a((g2
g4
g6
g120
g124
g62
g10
g76
g84
tp5901
(g1195
g472
tp5902
(g2
g70
g4
g6
g62
g12
tp5903
tp5904
a((g118
g4
g74
g8
g124
g12
g80
g82
g84
tp5905
(g495
tp5906
(g2
g4
g8
g124
g80
g82
g84
tp5907
tp5908
a((g2
g118
g68
g70
g4
g6
g74
g8
g124
g76
g82
g14
tp5909
(g53
tp5910
(g70
g4
g6
g74
g62
g76
g14
tp5911
tp5912
a((g2
g4
g6
g62
g10
g76
g12
g78
g80
tp5913
(g212
tp5914
(g4
g8
g62
g12
g78
tp5915
tp5916
a((g118
g4
g6
g74
g8
g124
g80
g84
g14
tp5917
(g878
g1603
tp5918
(g68
g74
g84
g14
tp5919
tp5920
a((g2
g118
g68
g70
g4
g74
g120
g8
g124
g62
g12
g78
g80
g82
g84
tp5921
(g1549
g135
tp5922
(g118
g70
g6
g120
g76
g84
tp5923
tp5924
a((g2
g118
g4
g6
g74
g120
g8
g124
g10
g76
g12
g78
g82
g84
g14
tp5925
(g581
g878
tp5926
(g118
g68
g4
g10
g80
tp5927
tp5928
a((g2
g68
g4
g120
g62
g10
g12
g84
g14
tp5929
(g1254
g714
g1450
tp5930
(g2
g118
g4
g124
g10
g80
tp5931
tp5932
a((g118
g68
g4
g74
g120
g124
g76
g12
g80
g82
g14
tp5933
(g5470
g459
tp5934
(g68
g10
g12
g14
tp5935
tp5936
a.