(lp0
(istructures.sensor
Sensor
p1
(dp2
S'rhs'
p3
(istructures.sensor
Sensor
p4
(dp5
g3
(istructures.sensor
Sensor
p6
(dp7
g3
NsS'lhs'
p8
(S'on-sale-goods1-market1-level0'
p9
tp10
sS'op'
p11
Nsbsg8
(istructures.sensor
Sensor
p12
(dp13
g3
(istructures.sensor
Sensor
p14
(dp15
g3
Nsg8
S'stored-goods2-level0'
p16
sg11
Nsbsg8
(istructures.sensor
Sensor
p17
(dp18
g3
Nsg8
S'loaded-goods2-truck1-level1'
p19
sg11
Nsbsg11
I1
sbsg11
I7
sbsg8
(istructures.sensor
Sensor
p20
(dp21
g3
(istructures.sensor
Sensor
p22
(dp23
g3
Nsg8
(istructures.sensor
Sensor
p24
(dp25
g3
Nsg8
S'stored-goods1-level1'
p26
sg11
Nsbsg11
S'-'
p27
sbsg8
(istructures.sensor
Sensor
p28
(dp29
g3
(istructures.sensor
Sensor
p30
(dp31
g3
Nsg8
g26
sg11
Nsbsg8
(istructures.sensor
Sensor
p32
(dp33
g3
Nsg8
S'ready-to-load-goods1-market1-level1'
p34
sg11
Nsbsg11
I6
sbsg11
I3
sbsg11
I6
sba(istructures.sensor
Sensor
p35
(dp36
g3
Nsg8
(istructures.sensor
Sensor
p37
(dp38
g3
(istructures.sensor
Sensor
p39
(dp40
g3
(istructures.sensor
Sensor
p41
(dp42
g3
Nsg8
S'loaded-goods2-truck1-level0'
p43
sg11
Nsbsg8
(istructures.sensor
Sensor
p44
(dp45
g3
Nsg8
S'stored-goods1-level0'
p46
sg11
Nsbsg11
I5
sbsg8
(istructures.sensor
Sensor
p47
(dp48
g3
Nsg8
(S'loaded-goods1-truck1-level1'
p49
tp50
sg11
Nsbsg11
S'^'
p51
sbsg11
g27
sba(istructures.sensor
Sensor
p52
(dp53
g3
(istructures.sensor
Sensor
p54
(dp55
g3
(istructures.sensor
Sensor
p56
(dp57
g3
(istructures.sensor
Sensor
p58
(dp59
g3
Nsg8
S'ready-to-load-goods2-market1-level0'
p60
sg11
Nsbsg8
(istructures.sensor
Sensor
p61
(dp62
g3
Nsg8
g60
sg11
Nsbsg11
I2
sbsg8
(istructures.sensor
Sensor
p63
(dp64
g3
(istructures.sensor
Sensor
p65
(dp66
g3
Nsg8
S'on-sale-goods1-market1-level1'
p67
sg11
Nsbsg8
(istructures.sensor
Sensor
p68
(dp69
g3
Nsg8
g67
sg11
Nsbsg11
g51
sbsg11
g51
sbsg8
(istructures.sensor
Sensor
p70
(dp71
g3
(istructures.sensor
Sensor
p72
(dp73
g3
(istructures.sensor
Sensor
p74
(dp75
g3
Nsg8
S'at-truck1-market1'
p76
sg11
Nsbsg8
(istructures.sensor
Sensor
p77
(dp78
g3
Nsg8
g34
sg11
Nsbsg11
g51
sbsg8
(istructures.sensor
Sensor
p79
(dp80
g3
(istructures.sensor
Sensor
p81
(dp82
g3
Nsg8
g16
sg11
Nsbsg8
(istructures.sensor
Sensor
p83
(dp84
g3
Nsg8
S'at-truck1-depot1'
p85
sg11
Nsbsg11
I1
sbsg11
I9
sbsg11
I4
sba(istructures.sensor
Sensor
p86
(dp87
g3
Nsg8
(istructures.sensor
Sensor
p88
(dp89
g3
(istructures.sensor
Sensor
p90
(dp91
g3
(istructures.sensor
Sensor
p92
(dp93
g3
Nsg8
S'ready-to-load-goods1-market1-level0'
p94
sg11
Nsbsg8
(istructures.sensor
Sensor
p95
(dp96
g3
Nsg8
S'on-sale-goods2-market1-level1'
p97
sg11
Nsbsg11
I2
sbsg8
(istructures.sensor
Sensor
p98
(dp99
g3
(istructures.sensor
Sensor
p100
(dp101
g3
Nsg8
g26
sg11
Nsbsg8
(istructures.sensor
Sensor
p102
(dp103
g3
Nsg8
g9
sg11
Nsbsg11
g51
sbsg11
I5
sbsg11
g27
sba(istructures.sensor
Sensor
p104
(dp105
g3
(istructures.sensor
Sensor
p106
(dp107
g3
Nsg8
(istructures.sensor
Sensor
p108
(dp109
g3
Nsg8
(istructures.sensor
Sensor
p110
(dp111
g3
Nsg8
S'loaded-goods1-truck1-level0'
p112
sg11
Nsbsg11
g27
sbsg11
g27
sbsg8
(istructures.sensor
Sensor
p113
(dp114
g3
Nsg8
(S'stored-goods2-level1'
p115
tp116
sg11
Nsbsg11
S'v'
p117
sba(istructures.sensor
Sensor
p118
(dp119
g3
(istructures.sensor
Sensor
p120
(dp121
g3
(istructures.sensor
Sensor
p122
(dp123
g3
Nsg8
(g112
tp124
sg11
Nsbsg8
(istructures.sensor
Sensor
p125
(dp126
g3
(istructures.sensor
Sensor
p127
(dp128
g3
Nsg8
g85
sg11
Nsbsg8
(istructures.sensor
Sensor
p129
(dp130
g3
Nsg8
g19
sg11
Nsbsg11
g117
sbsg11
I6
sbsg8
(istructures.sensor
Sensor
p131
(dp132
g3
(istructures.sensor
Sensor
p133
(dp134
g3
Nsg8
(g49
tp135
sg11
Nsbsg8
(istructures.sensor
Sensor
p136
(dp137
g3
Nsg8
(istructures.sensor
Sensor
p138
(dp139
g3
Nsg8
g94
sg11
Nsbsg11
g27
sbsg11
g117
sbsg11
g117
sba(istructures.sensor
Sensor
p140
(dp141
g3
Nsg8
(S'on-sale-goods2-market1-level0'
p142
tp143
sg11
Nsba(istructures.sensor
Sensor
p144
(dp145
g3
(istructures.sensor
Sensor
p146
(dp147
g3
Nsg8
(istructures.sensor
Sensor
p148
(dp149
g3
(istructures.sensor
Sensor
p150
(dp151
g3
Nsg8
g142
sg11
Nsbsg8
(istructures.sensor
Sensor
p152
(dp153
g3
Nsg8
g34
sg11
Nsbsg11
I5
sbsg11
g27
sbsg8
(istructures.sensor
Sensor
p154
(dp155
g3
(istructures.sensor
Sensor
p156
(dp157
g3
(istructures.sensor
Sensor
p158
(dp159
g3
Nsg8
g115
sg11
Nsbsg8
(istructures.sensor
Sensor
p160
(dp161
g3
Nsg8
g60
sg11
Nsbsg11
I8
sbsg8
(istructures.sensor
Sensor
p162
(dp163
g3
(istructures.sensor
Sensor
p164
(dp165
g3
Nsg8
g26
sg11
Nsbsg8
(istructures.sensor
Sensor
p166
(dp167
g3
Nsg8
g67
sg11
Nsbsg11
I10
sbsg11
g51
sbsg11
g117
sba(istructures.sensor
Sensor
p168
(dp169
g3
Nsg8
(g19
tp170
sg11
Nsba(istructures.sensor
Sensor
p171
(dp172
g3
Nsg8
(istructures.sensor
Sensor
p173
(dp174
g3
Nsg8
(istructures.sensor
Sensor
p175
(dp176
g3
(istructures.sensor
Sensor
p177
(dp178
g3
Nsg8
g26
sg11
Nsbsg8
(istructures.sensor
Sensor
p179
(dp180
g3
Nsg8
g34
sg11
Nsbsg11
g51
sbsg11
g27
sbsg11
g27
sba(istructures.sensor
Sensor
p181
(dp182
g3
(istructures.sensor
Sensor
p183
(dp184
g3
Nsg8
(g43
tp185
sg11
Nsbsg8
(istructures.sensor
Sensor
p186
(dp187
g3
(istructures.sensor
Sensor
p188
(dp189
g3
(istructures.sensor
Sensor
p190
(dp191
g3
Nsg8
g26
sg11
Nsbsg8
(istructures.sensor
Sensor
p192
(dp193
g3
Nsg8
g16
sg11
Nsbsg11
g117
sbsg8
(istructures.sensor
Sensor
p194
(dp195
g3
Nsg8
(g34
tp196
sg11
Nsbsg11
g51
sbsg11
g51
sba(istructures.sensor
Sensor
p197
(dp198
g3
(istructures.sensor
Sensor
p199
(dp200
g3
(istructures.sensor
Sensor
p201
(dp202
g3
Nsg8
(istructures.sensor
Sensor
p203
(dp204
g3
Nsg8
g85
sg11
Nsbsg11
g27
sbsg8
(istructures.sensor
Sensor
p205
(dp206
g3
(istructures.sensor
Sensor
p207
(dp208
g3
Nsg8
g97
sg11
Nsbsg8
(istructures.sensor
Sensor
p209
(dp210
g3
Nsg8
g94
sg11
Nsbsg11
I7
sbsg11
g51
sbsg8
(istructures.sensor
Sensor
p211
(dp212
g3
Nsg8
(istructures.sensor
Sensor
p213
(dp214
g3
(istructures.sensor
Sensor
p215
(dp216
g3
Nsg8
g46
sg11
Nsbsg8
(istructures.sensor
Sensor
p217
(dp218
g3
Nsg8
g76
sg11
Nsbsg11
g51
sbsg11
g27
sbsg11
g117
sba(istructures.sensor
Sensor
p219
(dp220
g3
Nsg8
(istructures.sensor
Sensor
p221
(dp222
g3
Nsg8
(istructures.sensor
Sensor
p223
(dp224
g3
(istructures.sensor
Sensor
p225
(dp226
g3
Nsg8
g112
sg11
Nsbsg8
(istructures.sensor
Sensor
p227
(dp228
g3
Nsg8
g19
sg11
Nsbsg11
g117
sbsg11
g27
sbsg11
g27
sba(istructures.sensor
Sensor
p229
(dp230
g3
Nsg8
(istructures.sensor
Sensor
p231
(dp232
g3
Nsg8
(g142
tp233
sg11
Nsbsg11
g27
sba(istructures.sensor
Sensor
p234
(dp235
g3
(istructures.sensor
Sensor
p236
(dp237
g3
(istructures.sensor
Sensor
p238
(dp239
g3
Nsg8
(g26
tp240
sg11
Nsbsg8
(istructures.sensor
Sensor
p241
(dp242
g3
Nsg8
(g49
tp243
sg11
Nsbsg11
I4
sbsg8
(istructures.sensor
Sensor
p244
(dp245
g3
(istructures.sensor
Sensor
p246
(dp247
g3
Nsg8
(g112
tp248
sg11
Nsbsg8
(istructures.sensor
Sensor
p249
(dp250
g3
(istructures.sensor
Sensor
p251
(dp252
g3
Nsg8
g142
sg11
Nsbsg8
(istructures.sensor
Sensor
p253
(dp254
g3
Nsg8
g142
sg11
Nsbsg11
g51
sbsg11
I8
sbsg11
g51
sba.