(lp0
(((S'loaded-goods1-truck1-level1'
p1
tp2
(S'loaded-goods2-truck1-level1'
p3
tp4
(S'on-sale-goods2-market1-level1'
p5
tp6
(S'stored-goods2-level0'
p7
tp8
(S'ready-to-load-goods1-market1-level0'
p9
tp10
(S'at-truck1-market1'
p11
tp12
(S'ready-to-load-goods1-market1-level1'
p13
tp14
(S'on-sale-goods1-market1-level1'
p15
tp16
(S'ready-to-load-goods2-market1-level1'
p17
tp18
(S'ready-to-load-goods2-market1-level0'
p19
tp20
(S'loaded-goods1-truck1-level0'
p21
tp22
(S'loaded-goods2-truck1-level0'
p23
tp24
(S'stored-goods1-level0'
p25
tp26
tp27
((istructures.domain
Action
p28
(dp29
S'positive_preconditions'
p30
(lp31
g12
asS'add_effects'
p32
(lp33
(S'at-truck1-depot1'
p34
tp35
asS'parameters'
p36
(tsS'del_effects'
p37
(lp38
(S'at-truck1-market1'
p39
tp40
asS'cost'
p41
I0
sS'negative_preconditions'
p42
(lp43
sS'name'
p44
S'drive-truck1-market1-depot1'
p45
sbtp46
(g6
g10
g14
g16
g20
g35
g22
g24
tp47
tp48
a((g2
(S'on-sale-goods2-market1-level0'
p49
tp50
g6
(S'stored-goods1-level1'
p51
tp52
g12
g14
g16
(S'stored-goods2-level1'
p53
tp54
g18
g20
g35
g22
g24
tp55
((istructures.domain
Action
p56
(dp57
g30
(lp58
(S'ready-to-load-goods1-market1-level1'
p59
tp60
a(S'loaded-goods1-truck1-level0'
p61
tp62
a(S'at-truck1-market1'
p63
tp64
asg32
(lp65
(S'loaded-goods1-truck1-level1'
p66
tp67
a(S'ready-to-load-goods1-market1-level0'
p68
tp69
asg36
(tsg37
(lp70
(S'loaded-goods1-truck1-level0'
p71
tp72
a(S'ready-to-load-goods1-market1-level1'
p73
tp74
asg41
I0
sg42
(lp75
sg44
S'load-goods1-truck1-market1-level0-level1-level0-level1'
p76
sb(istructures.domain
Action
p77
(dp78
g30
(lp79
g10
ag16
a(S'at-truck1-market1'
p80
tp81
asg32
(lp82
(S'on-sale-goods1-market1-level0'
p83
tp84
ag14
asg36
(tsg37
(lp85
(S'on-sale-goods1-market1-level1'
p86
tp87
a(S'ready-to-load-goods1-market1-level0'
p88
tp89
asg41
I0
sg42
(lp90
sg44
S'buy-truck1-goods1-market1-level0-level1-level0-level1'
p91
sbtp92
(g2
g6
g84
g18
g35
g24
tp93
tp94
a((g2
g4
g6
g52
g8
g10
g12
g16
g54
g24
g26
tp95
(g28
(istructures.domain
Action
p96
(dp97
g30
(lp98
g26
ag2
a(S'at-truck1-depot1'
p99
tp100
asg32
(lp101
g22
ag52
asg36
(tsg37
(lp102
(S'loaded-goods1-truck1-level1'
p103
tp104
a(S'stored-goods1-level0'
p105
tp106
asg41
I0
sg42
(lp107
sg44
S'unload-goods1-truck1-depot1-level0-level1-level0-level1'
p108
sb(istructures.domain
Action
p109
(dp110
g30
(lp111
(S'at-truck1-depot1'
p112
tp113
asg32
(lp114
(S'at-truck1-market1'
p115
tp116
asg36
(tsg37
(lp117
(S'at-truck1-depot1'
p118
tp119
asg41
I0
sg42
(lp120
sg44
S'drive-truck1-depot1-market1'
p121
sbg77
g56
tp122
(g2
g4
g6
g10
g12
g84
g24
tp123
tp124
a((g2
g4
g6
g52
g8
g10
g12
g14
g16
g84
g18
g35
g24
tp125
((istructures.domain
Action
p126
(dp127
g30
(lp128
g8
ag4
a(S'at-truck1-depot1'
p129
tp130
asg32
(lp131
g24
ag54
asg36
(tsg37
(lp132
(S'loaded-goods2-truck1-level1'
p133
tp134
a(S'stored-goods2-level0'
p135
tp136
asg41
I0
sg42
(lp137
sg44
S'unload-goods2-truck1-depot1-level0-level1-level0-level1'
p138
sbtp139
(g52
g10
g12
g14
g16
g54
g84
g35
g24
tp140
tp141
a((g2
g50
g4
g8
g54
g18
g20
g35
g22
g24
tp142
(g109
tp143
(g2
g50
g4
g8
g12
g54
g20
tp144
tp145
a((g2
g6
g8
g10
g12
g14
g84
g18
g35
g22
g24
g26
tp146
((istructures.domain
Action
p147
(dp148
g30
(lp149
(S'ready-to-load-goods2-market1-level1'
p150
tp151
a(S'loaded-goods2-truck1-level0'
p152
tp153
a(S'at-truck1-market1'
p154
tp155
asg32
(lp156
(S'loaded-goods2-truck1-level1'
p157
tp158
a(S'ready-to-load-goods2-market1-level0'
p159
tp160
asg36
(tsg37
(lp161
(S'loaded-goods2-truck1-level0'
p162
tp163
a(S'ready-to-load-goods2-market1-level1'
p164
tp165
asg41
I0
sg42
(lp166
sg44
S'load-goods2-truck1-market1-level0-level1-level0-level1'
p167
sbg126
tp168
(g2
g6
g10
g12
g14
g54
g20
g22
tp169
tp170
a((g2
g4
g8
g84
g18
g35
g22
g24
tp171
(g126
tp172
(g2
g54
g84
g18
g35
g24
tp173
tp174
a((g2
g50
g52
g14
g16
g18
g35
g22
g24
g26
tp175
(g109
tp176
(g50
g52
g12
g14
g22
g26
tp177
tp178
a((g4
g6
g12
g14
g16
g54
g18
g20
g35
g22
g24
g26
tp179
(g56
g77
g96
tp180
(g52
g14
g54
g84
g20
g22
tp181
tp182
a((g50
g4
g8
g10
g12
g14
g16
g18
g20
g35
g22
tp183
(g126
tp184
(g12
g14
g16
g54
g22
tp185
tp186
a((g50
g4
g6
g52
g8
g10
g12
g14
g16
g54
g84
g18
g20
g35
tp187
(g126
tp188
(g6
g52
g16
g18
g35
g24
tp189
tp190
a((g2
g50
g4
g6
g8
g14
g16
g54
g18
g35
g26
tp191
(g96
g109
g56
g77
tp192
(g2
g52
g12
g14
g54
tp193
tp194
a((g2
g4
g6
g8
g12
g14
g16
g54
g18
g35
g22
g24
g26
tp195
(g56
g77
g96
g56
tp196
(g52
g10
g12
g54
g84
tp197
tp198
a((g2
g50
g4
g52
g8
g10
g12
g16
g54
g18
g20
g24
g26
tp199
(g77
g28
g96
tp200
(g4
g52
g14
g18
g20
g22
g24
tp201
tp202
a((g2
g4
g6
g8
g14
g16
g84
g18
g20
g35
g22
g24
g26
tp203
(g96
tp204
(g4
g6
g52
g14
g35
g24
tp205
tp206
a((g2
g4
g6
g8
g10
g14
g16
g54
g84
g18
g20
g35
g22
g24
tp207
(g109
tp208
(g2
g4
g6
g10
g12
g54
g84
g18
g20
g22
tp209
tp210
a((g4
g6
g52
g8
g12
g14
g16
g54
g84
g18
g35
g22
g24
g26
tp211
(g147
g126
g56
tp212
(g2
g6
g52
g10
g12
g84
g20
g24
g26
tp213
tp214
a((g2
g8
g12
g14
g54
g84
g18
g22
g24
tp215
(g28
tp216
(g8
g54
g35
tp217
tp218
a((g2
g50
g4
g6
g8
g10
g12
g16
g54
g84
g20
g35
g22
g24
g26
tp219
(g77
tp220
(g50
g4
g8
g14
g84
tp221
tp222
a((g2
g50
g4
g52
g8
g10
g12
g16
g84
g18
g20
g35
g24
g26
tp223
(g126
g96
tp224
(g50
g52
g10
g12
g54
g84
g22
g24
tp225
tp226
a((g2
g4
g6
g52
g12
g16
g54
g20
g24
g26
tp227
((istructures.domain
Action
p228
(dp229
g30
(lp230
g20
ag6
a(S'at-truck1-market1'
p231
tp232
asg32
(lp233
g50
ag18
asg36
(tsg37
(lp234
(S'on-sale-goods2-market1-level1'
p235
tp236
a(S'ready-to-load-goods2-market1-level0'
p237
tp238
asg41
I0
sg42
(lp239
sg44
S'buy-truck1-goods2-market1-level0-level1-level0-level1'
p240
sbg28
tp241
(g50
g4
g16
g54
g18
g35
g26
tp242
tp243
a((g4
g6
g8
g10
g12
g16
g54
g84
g22
g26
tp244
(g28
g126
g109
tp245
(g12
g54
g24
tp246
tp247
a((g50
g6
g10
g16
g84
g18
g20
g35
g22
g24
tp248
(g109
g77
tp249
(g6
g12
g14
g18
g20
tp250
tp251
a((g2
g4
g6
g8
g10
g12
g14
g16
g84
g18
g20
g35
g22
g24
tp252
(g228
tp253
(g2
g50
g8
g12
g84
tp254
tp255
a((g2
g4
g6
g8
g10
g12
g14
g16
g84
g18
g26
tp256
(g28
g126
g96
tp257
(g52
g10
g16
g54
g35
g24
tp258
tp259
a((g4
g10
g12
g16
g54
g18
g24
g26
tp260
(g77
tp261
(g14
g26
tp262
tp263
a((g2
g6
g12
g16
g84
g18
g24
g26
tp264
(g28
g96
g109
g147
g228
tp265
(g4
g52
g12
g84
g18
g22
tp266
tp267
a((g2
g50
g4
g6
g52
g8
g10
g12
g14
g16
g54
g18
g20
g22
g24
g26
tp268
(g77
g56
g28
g96
tp269
(g4
g8
g10
g54
g84
g18
g20
g35
g22
tp270
tp271
a((g2
g4
g6
g52
g8
g10
g14
g16
g20
g35
g22
g26
tp272
(g109
g77
tp273
(g6
g52
g8
g84
g22
g26
tp274
tp275
a((g2
g50
g4
g6
g52
g8
g10
g12
g16
g54
g20
g35
g22
g26
tp276
(g228
g126
tp277
(g2
g50
g10
g12
g54
g18
g35
g24
tp278
tp279
a((g2
g50
g52
g10
g12
g54
g84
g18
g20
g26
tp280
(g28
tp281
(g54
g84
g18
g20
g35
tp282
tp283
a((g2
g50
g4
g6
g52
g8
g16
g54
g84
g18
g20
g35
g22
g26
tp284
(g109
tp285
(g50
g8
g12
g16
g84
g18
g22
g26
tp286
tp287
a((g2
g50
g4
g6
g8
g10
g12
g16
g54
g84
g20
g35
g26
tp288
(g228
g96
tp289
(g50
g4
g52
g8
g16
g18
g35
tp290
tp291
a((g2
g4
g6
g52
g10
g12
g14
g16
g54
g20
g22
g26
tp292
(g228
g77
tp293
(g2
g54
g84
g18
g22
tp294
tp295
a((g2
g4
g6
g52
g8
g10
g12
g14
g16
g54
g84
g20
g35
g24
tp296
(g228
tp297
(g8
g16
g84
g18
tp298
tp299
a((g2
g6
g12
g54
g84
g18
g24
g26
tp300
(g147
g28
tp301
(g4
g54
g84
g20
g35
tp302
tp303
a((g2
g50
g4
g6
g52
g8
g10
g12
g20
g35
g26
tp304
(g228
tp305
(g2
g4
g18
g26
tp306
tp307
a((g2
g50
g4
g6
g52
g8
g14
g16
g54
g84
g18
g20
g35
g22
tp308
(g109
tp309
(g2
g4
g6
g52
g8
g12
g14
g16
g18
g20
g22
tp310
tp311
a((g6
g8
g10
g12
g14
g16
g18
g35
g24
tp312
(g147
g228
g126
tp313
(g12
g14
g16
g54
g18
tp314
tp315
a((g2
g4
g52
g8
g10
g12
g16
g54
g84
g22
g24
g26
tp316
(g28
tp317
(g2
g10
g16
g35
g24
g26
tp318
tp319
a((g2
g50
g52
g8
g12
g14
g16
g54
g18
g20
g35
g22
g24
tp320
(g147
g56
g77
tp321
(g2
g4
g52
g12
g14
g54
g84
g20
g35
tp322
tp323
a((g2
g6
g8
g12
g14
g54
g84
g18
g20
g22
g24
g26
tp324
(g228
g147
g56
g28
tp325
(g2
g50
g4
g10
g20
g35
g26
tp326
tp327
a((g2
g4
g6
g52
g8
g12
g14
g16
g54
g84
g18
g35
tp328
(g126
g147
tp329
(g52
g16
g20
g35
tp330
tp331
a((g2
g50
g4
g8
g10
g12
g14
g16
g20
g22
g26
tp332
(g28
g126
tp333
(g2
g16
g54
g20
tp334
tp335
a((g2
g6
g10
g12
g54
g84
g18
g20
g35
g22
g26
tp336
(g228
tp337
(g2
g50
g12
g54
g18
g22
tp338
tp339
a((g2
g50
g4
g6
g52
g8
g10
g14
g16
g54
g84
g35
g26
tp340
(g109
tp341
(g50
g4
g10
g12
g16
g54
g84
g26
tp342
tp343
a((g2
g50
g4
g6
g8
g10
g14
g16
g54
g18
g20
g35
g24
g26
tp344
(g96
tp345
(g4
g6
g52
g8
g10
g14
g16
g54
g20
g35
g22
tp346
tp347
a((g2
g50
g4
g6
g52
g12
g16
g54
g84
g20
g22
g26
tp348
(g28
tp349
(g2
g16
g54
g20
g35
g22
g26
tp350
tp351
a((g2
g50
g4
g6
g52
g8
g10
g12
g54
g18
g20
g22
g26
tp352
(g28
tp353
(g4
g20
g35
tp354
tp355
a((g2
g4
g52
g8
g10
g12
g14
g16
g84
g18
g20
g35
g22
g24
g26
tp356
(g126
tp357
(g2
g10
g12
g14
g54
g20
g24
g26
tp358
tp359
a((g2
g4
g6
g12
g14
g16
g18
g22
g24
g26
tp360
(g56
g77
tp361
(g2
g6
g14
g84
g18
g24
g26
tp362
tp363
a((g50
g4
g6
g10
g12
g14
g18
g35
g22
g24
tp364
(g147
g56
tp365
(g2
g50
g6
g12
g20
tp366
tp367
a((g52
g10
g12
g16
g84
g20
g22
g24
g26
tp368
(g28
tp369
(g10
g16
g84
g35
g24
tp370
tp371
a((g50
g4
g6
g52
g8
g10
g14
g16
g84
g18
g35
g22
tp372
(g109
tp373
(g50
g4
g6
g10
g12
g16
g22
tp374
tp375
a((g2
g50
g6
g10
g12
g14
g16
g54
g84
g18
g20
g35
g24
g26
tp376
(g96
g56
tp377
(g2
g52
g10
g12
g16
g84
g18
tp378
tp379
a((g2
g50
g6
g52
g10
g12
g14
g16
g54
g84
g18
g20
g24
g26
tp380
(g28
tp381
(g2
g50
g10
g54
g18
g20
g35
g26
tp382
tp383
a((g2
g6
g8
g10
g14
g16
g54
g84
g18
g20
g35
g24
g26
tp384
(g96
tp385
(g6
g52
g8
g10
g16
g54
g84
g20
g35
g22
tp386
tp387
a((g2
g50
g4
g6
g52
g8
g12
g14
g16
g84
g18
g20
g35
g24
g26
tp388
(g126
g96
g56
tp389
(g2
g6
g52
g10
g16
g54
g18
g20
g35
tp390
tp391
a((g2
g50
g4
g52
g8
g10
g12
g16
g18
g20
g24
tp392
(g28
g126
g109
g77
tp393
(g12
g14
g54
g18
g20
tp394
tp395
a((g4
g6
g8
g10
g12
g14
g16
g54
g18
g20
g35
g24
tp396
(g228
tp397
(g50
g12
g14
g16
g35
g24
tp398
tp399
a((g2
g4
g6
g52
g8
g10
g14
g16
g54
g18
g20
g35
g24
tp400
(g109
g228
g28
tp401
(g2
g50
g10
g14
g16
g35
tp402
tp403
a((g4
g6
g52
g8
g10
g12
g14
g54
g84
g18
g35
g22
g24
g26
tp404
(g147
g56
tp405
(g2
g6
g52
g10
g54
g20
g35
tp406
tp407
a((g2
g50
g8
g10
g12
g14
g16
g84
g18
g20
g35
g24
g26
tp408
(g147
tp409
(g2
g4
g10
g12
g14
g84
tp410
tp411
a((g2
g4
g6
g10
g12
g14
g16
g84
g18
g22
g24
g26
tp412
(g147
tp413
(g2
g10
g12
g20
g22
tp414
tp415
a((g2
g50
g4
g12
g14
g54
g84
g20
g22
g24
g26
tp416
(g28
g96
g109
g56
g28
tp417
(g2
g52
g10
g54
g20
g35
g24
tp418
tp419
a((g2
g50
g4
g52
g8
g10
g12
g16
g54
g84
g20
g35
tp420
(g126
tp421
(g2
g12
g16
g84
g35
g24
tp422
tp423
a((g50
g4
g6
g8
g10
g12
g16
g84
g18
g20
g22
tp424
(g28
g126
g109
g77
tp425
(g50
g6
g12
g14
g54
g18
tp426
tp427
a((g2
g50
g4
g6
g10
g12
g16
g54
g84
g18
g24
g26
tp428
(g28
g96
tp429
(g6
g16
g54
g84
g18
g35
g22
g24
tp430
tp431
a((g2
g4
g6
g52
g14
g54
g84
g18
g35
g22
g24
g26
tp432
(g109
g56
g28
tp433
(g2
g6
g52
g10
g84
g18
g35
g24
tp434
tp435
a((g2
g4
g6
g52
g8
g10
g12
g14
g84
g18
g22
g24
tp436
(g147
g28
g126
tp437
(g2
g6
g52
g14
g54
g84
g20
g35
tp438
tp439
a((g6
g52
g8
g12
g14
g54
g20
g35
g22
g24
g26
tp440
(g228
g56
tp441
(g2
g50
g8
g10
g12
g54
g18
g26
tp442
tp443
a((g2
g4
g6
g10
g12
g14
g16
g54
g84
g18
g24
g26
tp444
(g28
tp445
(g4
g10
g14
g54
g18
g35
tp446
tp447
a((g2
g50
g8
g12
g14
g16
g54
g84
g18
g35
g22
g24
g26
tp448
(g147
g126
tp449
(g2
g54
g20
g35
g24
tp450
tp451
a((g2
g50
g4
g52
g8
g10
g16
g54
g18
g20
g35
g22
g24
g26
tp452
(g109
g77
g28
tp453
(g50
g4
g14
g54
g84
g20
g35
g22
tp454
tp455
a((g2
g50
g4
g6
g52
g14
g54
g18
g20
g35
g22
g24
g26
tp456
(g109
tp457
(g2
g50
g6
g12
g24
g26
tp458
tp459
a((g4
g6
g52
g12
g14
g16
g84
g22
g24
tp460
(g56
tp461
(g10
g12
g16
tp462
tp463
a((g2
g50
g4
g6
g10
g14
g84
g20
g35
g22
g24
g26
tp464
(g109
g228
tp465
(g2
g4
g14
g84
g18
g24
tp466
tp467
a((g50
g4
g6
g52
g8
g12
g16
g54
g20
g35
g22
g26
tp468
(g228
tp469
(g50
g4
g52
g8
g16
g54
g18
g22
tp470
tp471
a((g2
g50
g4
g6
g8
g10
g14
g16
g54
g84
g18
g20
g35
g22
g24
g26
tp472
(g96
tp473
(g4
g6
g52
g8
g10
g16
g20
g35
tp474
tp475
a((g50
g4
g6
g52
g8
g10
g14
g16
g54
g84
g18
g35
g22
g26
tp476
(g126
g109
g147
g28
tp477
(g4
g6
g14
g16
g20
g35
g22
tp478
tp479
a((g2
g50
g4
g6
g52
g8
g12
g14
g16
g18
g22
g24
g26
tp480
(g56
g77
g28
g96
tp481
(g50
g4
g6
g52
g14
g84
g22
tp482
tp483
a((g4
g10
g12
g16
g54
g18
g20
g24
g26
tp484
(g77
tp485
(g14
g84
g18
g24
tp486
tp487
a((g6
g8
g12
g14
g16
g84
g20
g35
g22
g26
tp488
(g228
g56
g77
g96
g56
tp489
(g2
g50
g52
g8
g10
g18
tp490
tp491
a((g2
g50
g6
g52
g8
g12
g14
g16
g54
g84
g18
g20
g22
g24
g26
tp492
(g147
g228
g28
tp493
(g2
g50
g4
g8
g14
g16
g18
g35
g22
g26
tp494
tp495
a((g52
g8
g10
g14
g16
g54
g84
g18
g35
g22
g24
tp496
(g109
g147
g28
g126
g109
tp497
(g12
g14
g16
g84
g20
g22
g24
tp498
tp499
a((g6
g52
g8
g10
g12
g16
g54
g18
g20
g22
g24
g26
tp500
(g28
tp501
(g52
g8
g10
g20
g35
g22
g26
tp502
tp503
a((g50
g6
g8
g10
g12
g14
g16
g84
g18
g24
tp504
(g147
tp505
(g10
g12
g14
g16
g84
g20
tp506
tp507
a((g2
g50
g52
g12
g14
g16
g84
g18
g24
g26
tp508
(g28
g96
g109
g147
g56
tp509
(g2
g4
g52
g10
g12
g16
g20
tp510
tp511
a((g2
g50
g4
g52
g8
g10
g12
g16
g18
g20
tp512
(g28
g126
g109
tp513
(g2
g50
g52
g10
g12
g16
g24
tp514
tp515
a((g50
g4
g6
g52
g8
g10
g12
g14
g16
g54
g18
g20
g22
g26
tp516
(g56
g28
g126
tp517
(g2
g6
g10
g18
g20
g24
tp518
tp519
a((g2
g50
g4
g8
g14
g16
g54
g18
g35
g22
g24
tp520
(g109
g56
g77
tp521
(g2
g50
g12
g14
g54
g84
tp522
tp523
a((g50
g52
g8
g10
g12
g14
g16
g24
g26
tp524
(g28
tp525
(g50
g52
g14
g16
g35
g24
g26
tp526
tp527
a((g4
g14
g16
g54
g84
g20
g35
g22
g24
tp528
(g109
g56
tp529
(g2
g4
g54
g84
g24
tp530
tp531
a((g2
g6
g52
g8
g10
g12
g14
g16
g54
g84
g20
g35
g22
g24
g26
tp532
(g228
tp533
(g50
g52
g10
g14
g16
g18
g35
g22
g24
g26
tp534
tp535
a((g6
g52
g8
g10
g14
g16
g54
g18
g20
g35
g22
g26
tp536
(g109
g228
g77
g56
tp537
(g2
g50
g52
g84
g18
g26
tp538
tp539
a((g2
g50
g4
g6
g52
g8
g12
g14
g16
g54
g84
g18
g35
g24
g26
tp540
(g147
tp541
(g52
g8
g12
g54
g84
g20
g35
g26
tp542
tp543
a((g2
g4
g6
g52
g10
g16
g54
g18
g20
g35
g24
tp544
(g109
g77
tp545
(g4
g6
g14
g54
g20
g24
tp546
tp547
a((g50
g4
g6
g8
g10
g12
g16
g20
g35
g22
g24
g26
tp548
(g77
tp549
(g50
g12
g14
g35
g24
tp550
tp551
a((g2
g50
g4
g6
g16
g54
g18
g20
g35
g24
tp552
(g109
tp553
(g2
g50
g4
g6
g12
g54
g20
g24
tp554
tp555
a((g2
g50
g6
g10
g12
g14
g16
g54
g84
g18
g22
g24
g26
tp556
(g28
g96
g109
g147
g56
g28
tp557
(g2
g4
g6
g52
g10
g16
g84
g20
g35
tp558
tp559
a((g2
g6
g52
g10
g12
g16
g54
g84
g20
g22
g24
g26
tp560
(g228
g77
g28
tp561
(g2
g52
g14
g54
g84
g18
g35
g22
g24
tp562
tp563
a((g2
g50
g6
g52
g8
g10
g12
g16
g54
g84
g18
g20
g35
g22
g24
tp564
(g147
g228
tp565
(g2
g4
g52
g18
tp566
tp567
a((g2
g50
g4
g10
g12
g14
g54
g84
g18
g20
g35
g24
g26
tp568
(g96
tp569
(g50
g52
g10
g12
g14
g54
g18
g20
g24
tp570
tp571
a((g4
g52
g8
g14
g16
g54
g84
g18
g20
g35
g22
g24
g26
tp572
(g109
g56
g77
tp573
(g2
g4
g52
g12
g14
g18
g20
g24
tp574
tp575
a((g2
g50
g4
g6
g52
g8
g10
g12
g14
g16
g18
g20
g35
g22
g24
g26
tp576
(g126
tp577
(g50
g6
g52
g54
g18
g20
g22
tp578
tp579
a((g50
g4
g6
g8
g12
g14
g16
g18
g35
g22
g26
tp580
(g126
g56
g96
tp581
(g50
g52
g10
g16
g54
g18
g35
g22
tp582
tp583
a((g50
g6
g10
g14
g16
g54
g84
g18
g35
g22
g24
g26
tp584
(g109
g56
g28
g96
g109
g77
tp585
(g50
g6
g52
g12
g14
g18
tp586
tp587
a((g2
g50
g6
g52
g10
g12
g14
g16
g54
g84
g18
g35
g24
tp588
(g147
tp589
(g4
g52
g20
tp590
tp591
a((g6
g52
g8
g10
g14
g84
g20
g35
g22
g24
g26
tp592
(g109
g228
g28
tp593
(g8
g14
g18
g35
g22
tp594
tp595
a((g50
g4
g6
g8
g10
g12
g16
g54
g84
g18
g20
g22
g26
tp596
(g28
tp597
(g4
g8
g54
g84
g35
g22
tp598
tp599
a((g2
g4
g6
g52
g8
g10
g16
g54
g18
g35
g22
g26
tp600
(g126
g109
g147
g228
tp601
(g50
g4
g52
g54
g18
g26
tp602
tp603
a((g50
g6
g8
g10
g54
g84
g20
g35
g22
tp604
(g109
g228
tp605
(g50
g8
g10
g18
g22
tp606
tp607
a((g2
g50
g4
g6
g52
g8
g10
g12
g14
g16
g54
g18
g20
g22
g26
tp608
(g28
g126
tp609
(g14
g16
g54
g20
g24
tp610
tp611
a((g2
g6
g52
g8
g10
g12
g14
g16
g54
g20
g26
tp612
(g228
g28
tp613
(g2
g52
g8
g14
g18
g35
g26
tp614
tp615
a((g2
g50
g4
g6
g52
g8
g10
g12
g14
g16
g84
g18
g20
g26
tp616
(g28
tp617
(g2
g6
g52
g16
g84
g18
g20
g35
g26
tp618
tp619
a((g2
g50
g4
g6
g52
g8
g10
g12
g14
g16
g20
g22
g24
g26
tp620
(g77
g28
g126
tp621
(g6
g52
g54
g84
g35
g22
g24
tp622
tp623
a((g2
g50
g4
g6
g52
g8
g54
g84
g18
g20
g35
g22
g26
tp624
(g126
tp625
(g2
g22
g24
tp626
tp627
a((g2
g50
g6
g52
g8
g10
g14
g16
g54
g18
g35
g24
g26
tp628
(g109
g77
tp629
(g2
g50
g6
g52
g12
g14
g84
g24
g26
tp630
tp631
a((g2
g6
g52
g8
g12
g14
g16
g54
g18
g35
g22
g24
g26
tp632
(g147
tp633
(g2
g4
g8
g12
g16
g22
tp634
tp635
a((g6
g52
g8
g10
g12
g14
g54
g18
g24
g26
tp636
(g147
g228
tp637
(g4
g8
g10
g14
g54
g18
g26
tp638
tp639
a((g2
g4
g6
g52
g10
g12
g14
g54
g20
g22
g24
g26
tp640
(g28
tp641
(g4
g6
g52
g10
g14
g35
g24
g26
tp642
tp643
a((g4
g52
g8
g10
g12
g14
g16
g54
g20
g22
g26
tp644
(g77
g28
tp645
(g4
g52
g8
g84
g20
g35
g22
tp646
tp647
a((g2
g4
g6
g52
g8
g10
g12
g54
g18
g20
g35
g22
g24
tp648
(g228
tp649
(g2
g50
g52
g18
g22
g24
tp650
tp651
a((g2
g50
g52
g10
g12
g16
g54
g84
g18
g24
tp652
(g147
tp653
(g2
g50
g10
g16
g84
g20
tp654
tp655
a((g2
g50
g4
g8
g10
g12
g14
g16
g84
g18
g35
g26
tp656
(g126
g96
tp657
(g50
g52
g10
g12
g54
g18
tp658
tp659
a((g6
g8
g12
g14
g16
g18
g22
g24
g26
tp660
(g147
g56
g28
g126
g96
g109
tp661
(g6
g10
g12
g54
g22
g24
tp662
tp663
a((g50
g6
g52
g12
g14
g16
g54
g84
g18
g22
g24
g26
tp664
(g56
tp665
(g2
g6
g52
g12
g24
tp666
tp667
a((g4
g6
g52
g8
g10
g12
g16
g54
g84
g18
g35
g22
g26
tp668
(g126
g147
tp669
(g6
g52
g10
g16
g84
g20
g26
tp670
tp671
a((g50
g4
g6
g52
g8
g10
g12
g14
g18
g20
g22
g24
g26
tp672
(g28
g126
tp673
(g50
g6
g14
g54
g20
g35
g22
g24
tp674
tp675
a((g2
g50
g4
g6
g52
g8
g12
g14
g84
g20
g35
g22
g26
tp676
(g126
tp677
(g6
g52
g14
g54
g84
g20
g35
g24
tp678
tp679
a((g2
g50
g4
g8
g10
g12
g54
g20
g35
g22
g24
g26
tp680
(g96
tp681
(g50
g52
g8
g10
g12
g54
g20
g35
g22
g24
tp682
tp683
a((g50
g4
g6
g52
g8
g14
g16
g54
g84
g18
g35
g22
tp684
(g126
g109
g56
g77
tp685
(g2
g50
g6
g52
g12
g14
g84
g18
g24
tp686
tp687
a((g2
g50
g6
g8
g10
g12
g14
g54
g18
g20
g35
g22
g24
g26
tp688
(g147
tp689
(g4
g6
g8
g12
g20
g26
tp690
tp691
a((g2
g10
g14
g16
g54
g84
g35
g22
g24
g26
tp692
(g109
tp693
(g10
g12
g16
g54
g84
g26
tp694
tp695
a((g2
g4
g52
g8
g10
g14
g54
g84
g18
g20
g35
g22
g26
tp696
(g109
tp697
(g4
g52
g8
g10
g12
g14
g54
g84
g18
g20
g22
tp698
tp699
a((g2
g6
g10
g12
g16
g54
g18
g20
g35
g24
g26
tp700
(g77
tp701
(g6
g12
g14
g54
g20
g35
g24
g26
tp702
tp703
a((g50
g4
g6
g8
g14
g84
g18
g20
g35
g22
g26
tp704
(g126
g109
g56
tp705
(g50
g6
g10
g12
g84
g18
g20
g24
tp706
tp707
a((g2
g50
g4
g6
g52
g8
g10
g12
g14
g54
g84
g18
g22
g26
tp708
(g28
g126
tp709
(g2
g18
g35
g22
g24
tp710
tp711
a((g4
g6
g52
g8
g10
g12
g14
g54
g20
g22
g24
g26
tp712
(g56
tp713
(g2
g10
g12
g54
g20
g24
tp714
tp715
a((g4
g6
g52
g8
g10
g12
g14
g16
g54
g84
g18
g20
g35
g22
tp716
(g56
tp717
(g2
g4
g52
g10
g12
g18
g35
tp718
tp719
a((g4
g6
g52
g8
g14
g16
g54
g20
g35
g22
g26
tp720
(g126
g109
g56
g77
g28
g96
tp721
(g14
g54
g84
g22
g24
tp722
tp723
a((g2
g6
g8
g10
g14
g84
g18
g20
g35
g22
g24
g26
tp724
(g96
g109
g147
g228
g28
g126
tp725
(g50
g52
g14
g54
g84
g18
g35
tp726
tp727
a((g2
g50
g6
g52
g8
g10
g12
g14
g16
g54
g18
g20
g35
g22
g24
g26
tp728
(g77
tp729
(g12
g14
g54
g84
g18
g26
tp730
tp731
a((g2
g4
g6
g52
g8
g12
g14
g16
g20
g24
g26
tp732
(g28
g126
g109
g228
g147
tp733
(g4
g52
g54
tp734
tp735
a((g4
g6
g52
g8
g10
g12
g14
g54
g84
g20
g35
g24
g26
tp736
(g228
g147
tp737
(g50
g4
g52
g10
g14
g20
g35
tp738
tp739
a((g2
g50
g4
g6
g52
g12
g14
g16
g54
g84
g18
g20
g35
g22
g24
g26
tp740
(g56
tp741
(g50
g10
g16
g84
g35
g26
tp742
tp743
a((g2
g50
g4
g8
g84
g18
g20
g35
g24
g26
tp744
(g126
g96
tp745
(g54
g22
tp746
tp747
a((g50
g6
g8
g10
g14
g16
g54
g84
g18
g35
g22
g24
tp748
(g109
tp749
(g50
g12
g14
g54
g22
tp750
tp751
a((g2
g50
g4
g6
g10
g12
g16
g54
g84
g18
g24
g26
tp752
(g77
g28
g96
tp753
(g50
g52
g14
g84
g35
tp754
tp755
a((g2
g6
g12
g14
g16
g54
g84
g20
g35
g22
tp756
(g228
tp757
(g14
g16
g84
g18
g35
g22
tp758
tp759
a((g2
g50
g4
g12
g14
g16
g18
g35
g22
g26
tp760
(g56
tp761
(g50
g10
g12
g26
tp762
tp763
a((g4
g6
g8
g10
g14
g54
g84
g18
g35
g22
g26
tp764
(g126
g109
g147
tp765
(g84
g20
g26
tp766
tp767
a((g2
g4
g6
g12
g14
g16
g18
g20
g35
g22
g24
g26
tp768
(g96
g56
tp769
(g2
g4
g6
g52
g35
tp770
tp771
a((g4
g6
g52
g8
g10
g12
g14
g16
g54
g18
g20
g35
g26
tp772
(g77
tp773
(g52
g14
g84
g18
g35
tp774
tp775
a((g2
g4
g12
g16
g54
g18
g22
g24
g26
tp776
(g28
tp777
(g4
g54
g35
tp778
tp779
a((g2
g4
g6
g52
g8
g20
g35
g24
g26
tp780
(g126
tp781
(g2
g52
g54
g24
tp782
tp783
a((g2
g4
g6
g10
g12
g16
g20
g22
tp784
(g228
tp785
(g2
g50
g10
g16
g22
tp786
tp787
a((g2
g50
g4
g6
g8
g16
g54
g35
g22
g26
tp788
(g126
g96
tp789
(g50
g52
g54
g24
tp790
tp791
a((g2
g50
g4
g6
g8
g10
g12
g16
g54
g18
g22
g26
tp792
(g77
g28
tp793
(g2
g14
g54
g35
tp794
tp795
a((g2
g50
g4
g6
g52
g8
g10
g14
g16
g54
g18
g20
g35
g24
g26
tp796
(g96
tp797
(g50
g4
g6
g52
g54
g35
g22
g24
tp798
tp799
a((g50
g4
g6
g10
g12
g14
g54
g84
g20
g22
g26
tp800
(g28
tp801
(g50
g4
g6
g14
g54
g84
g35
g22
g26
tp802
tp803
a((g4
g6
g52
g8
g12
g14
g84
g20
g22
g26
tp804
(g28
g126
g109
g228
g147
tp805
(g50
g52
g54
g20
g22
g26
tp806
tp807
a((g2
g50
g52
g10
g12
g14
g16
g54
g84
g20
g24
tp808
(g28
tp809
(g2
g14
g16
g54
g84
g35
tp810
tp811
a((g52
g8
g14
g16
g84
g18
g35
g22
g24
g26
tp812
(g109
tp813
(g12
g16
g22
tp814
tp815
a((g2
g50
g4
g6
g52
g8
g10
g16
g54
g18
g20
g35
g22
g26
tp816
(g126
g109
tp817
(g50
g6
g10
g12
g16
g18
g24
tp818
tp819
a((g4
g6
g52
g8
g10
g12
g14
g84
g18
g20
g35
g24
tp820
(g228
g147
tp821
(g50
g52
g12
g20
g35
tp822
tp823
a((g2
g50
g52
g8
g12
g14
g16
g84
g18
g35
g26
tp824
(g96
tp825
(g8
g12
g14
g16
g84
g22
tp826
tp827
a((g2
g4
g6
g8
g10
g16
g84
g20
g35
g26
tp828
(g96
g109
g77
tp829
(g4
g6
g8
g12
g14
g84
g20
g22
tp830
tp831
a((g4
g6
g52
g8
g10
g14
g84
g18
g35
g22
g24
g26
tp832
(g126
tp833
(g6
g52
g10
g14
g54
g84
g35
g24
g26
tp834
tp835
a((g2
g50
g6
g8
g10
g12
g16
g54
g20
g35
g22
g24
tp836
(g77
tp837
(g12
g54
g84
g35
tp838
tp839
a((g2
g50
g4
g6
g52
g8
g10
g12
g16
g84
g18
g20
g35
g22
tp840
(g126
tp841
(g2
g50
g6
g52
g12
g54
g35
tp842
tp843
a((g2
g4
g6
g52
g10
g12
g14
g16
g84
g18
g35
g24
g26
tp844
(g147
g228
tp845
(g50
g26
tp846
tp847
a((g2
g50
g4
g6
g52
g8
g10
g12
g14
g16
g84
g18
g20
g24
g26
tp848
(g28
tp849
(g2
g6
g52
g8
g10
g14
g16
g35
g26
tp850
tp851
a((g6
g8
g12
g14
g16
g84
g18
g35
g22
g24
g26
tp852
(g147
g228
g126
g147
g56
g96
tp853
(g50
g10
g84
g20
g35
g22
tp854
tp855
a((g2
g50
g4
g6
g52
g8
g10
g12
g16
g54
g84
g18
g24
g26
tp856
(g147
g28
tp857
(g6
g52
g8
g10
g16
g54
g84
g20
g35
tp858
tp859
a((g2
g50
g4
g52
g12
g14
g84
g18
g20
g22
g24
g26
tp860
(g56
tp861
(g2
g50
g10
g84
g20
g26
tp862
tp863
a((g50
g6
g52
g8
g14
g16
g54
g84
g18
g20
g35
g22
g24
g26
tp864
(g109
g147
g228
tp865
(g4
g12
g14
g16
g84
g18
g26
tp866
tp867
a((g50
g4
g6
g52
g8
g10
g12
g16
g54
g84
g22
g24
g26
tp868
(g77
tp869
(g50
g6
g52
g12
g14
g24
tp870
tp871
a((g2
g50
g4
g52
g8
g10
g12
g14
g16
g54
g84
g24
tp872
(g28
tp873
(g2
g52
g8
g16
g84
g35
g24
tp874
tp875
a((g2
g6
g52
g8
g10
g14
g54
g84
g18
g20
g35
g22
g24
tp876
(g109
g228
g147
tp877
(g2
g50
g4
g10
g12
g22
tp878
tp879
a((g50
g6
g52
g10
g12
g54
g84
g18
g20
g22
g24
tp880
(g147
g228
tp881
(g4
g10
g84
g18
g22
tp882
tp883
a((g2
g50
g4
g10
g12
g16
g54
g84
g20
g35
g22
g24
g26
tp884
(g77
g96
tp885
(g50
g52
g12
g14
g54
g20
g35
tp886
tp887
a((g50
g4
g6
g8
g10
g12
g14
g84
g18
g20
g35
g22
tp888
(g56
tp889
(g2
g50
g4
g6
g12
g84
g35
tp890
tp891
a((g2
g6
g52
g8
g10
g12
g16
g54
g20
g35
g22
g24
tp892
(g228
g77
g147
g56
tp893
(g2
g50
g4
g52
g10
g54
g84
g20
g35
tp894
tp895
a((g50
g52
g8
g10
g12
g14
g16
g54
g20
g22
g24
g26
tp896
(g77
g28
tp897
(g50
g8
g14
g54
g84
g35
tp898
tp899
a((g50
g4
g52
g8
g10
g12
g14
g16
g18
g20
g24
g26
tp900
(g28
tp901
(g50
g4
g8
g14
g35
g24
tp902
tp903
a((g50
g6
g52
g8
g10
g12
g14
g16
g84
g18
g20
g22
g24
g26
tp904
(g28
tp905
(g52
g8
g10
g84
g18
g20
g35
g22
g24
tp906
tp907
a((g2
g6
g52
g8
g10
g12
g14
g84
g20
g35
g24
g26
tp908
(g228
g147
g126
tp909
(g2
g50
g12
g20
g24
tp910
tp911
a((g6
g52
g8
g12
g14
g16
g54
g35
g22
g24
g26
tp912
(g56
g77
tp913
(g52
g14
g54
g84
g35
g24
g26
tp914
tp915
a((g2
g50
g4
g6
g8
g12
g14
g16
g54
g18
g20
g22
g24
tp916
(g28
tp917
(g2
g50
g8
g14
g54
g20
g35
g22
tp918
tp919
a((g2
g50
g4
g52
g8
g10
g12
g16
g20
g35
g24
tp920
(g77
tp921
(g50
g4
g52
g12
g14
g20
g35
tp922
tp923
a((g2
g50
g4
g6
g52
g8
g12
g14
g16
g54
g18
g35
g22
g24
g26
tp924
(g56
g77
tp925
(g50
g6
g52
g8
g12
g54
g84
g18
g26
tp926
tp927
a((g6
g52
g8
g12
g14
g54
g20
g35
g22
g24
g26
tp928
(g228
g56
tp929
(g50
g52
g10
g12
g54
g18
tp930
tp931
a((g2
g50
g6
g52
g10
g12
g16
g84
g18
g20
g35
g24
tp932
(g77
tp933
(g2
g6
g14
g20
tp934
tp935
a((g2
g50
g4
g6
g52
g10
g16
g84
g20
g35
g26
tp936
(g109
g228
g77
g28
tp937
(g14
g18
g35
g26
tp938
tp939
a((g2
g8
g12
g14
g16
g54
g84
g18
g24
tp940
(g147
tp941
(g2
g8
g14
g16
g54
g84
g20
tp942
tp943
a((g50
g4
g52
g8
g84
g35
tp944
(g126
tp945
(g50
g52
g35
g24
tp946
tp947
a((g50
g6
g52
g8
g12
g14
g16
g54
g84
g18
g20
g35
g22
g24
g26
tp948
(g147
tp949
(g4
g8
g12
g14
g54
g84
g35
g26
tp950
tp951
a((g50
g4
g6
g8
g10
g12
g16
g54
g18
g20
g35
g22
g26
tp952
(g77
g56
g96
tp953
(g50
g4
g6
g52
g8
g10
g54
g18
tp954
tp955
a((g2
g50
g6
g8
g12
g14
g16
g54
g84
g18
g22
g24
g26
tp956
(g28
g96
g109
g147
g56
g77
g28
tp957
(g2
g4
g6
g52
g8
g14
g54
g20
g35
tp958
tp959
a((g2
g50
g4
g52
g8
g12
g14
g16
g84
g18
g35
g22
g24
tp960
(g126
g147
tp961
(g50
g12
g16
g54
g84
g20
g35
g22
tp962
tp963
a((g2
g50
g4
g52
g8
g14
g54
g84
g18
g20
g35
g22
g24
g26
tp964
(g109
g56
tp965
(g50
g4
g52
g8
g10
g12
g54
g18
g20
g26
tp966
tp967
a((g50
g4
g6
g8
g10
g84
g20
g35
g26
tp968
(g126
tp969
(g50
g10
g20
g24
g26
tp970
tp971
a((g2
g50
g52
g8
g10
g14
g16
g54
g18
g35
g24
g26
tp972
(g109
g147
tp973
(g2
g50
g4
g12
g16
g54
tp974
tp975
a((g2
g50
g4
g8
g10
g12
g14
g84
g18
g35
g24
g26
tp976
(g126
tp977
(g50
g14
g54
tp978
tp979
a((g2
g50
g4
g6
g8
g10
g12
g14
g16
g84
g22
g26
tp980
(g28
g126
tp981
(g2
g50
g10
g16
g35
g24
tp982
tp983
a((g2
g4
g6
g52
g8
g12
g16
g84
g20
g35
g22
g26
tp984
(g228
g126
tp985
(g2
g50
g12
g16
g54
g84
g18
g35
g24
g26
tp986
tp987
a((g2
g4
g6
g52
g8
g10
g12
g14
g84
g18
g35
g22
tp988
(g126
g147
tp989
(g4
g6
g52
g10
g14
g20
g35
g22
tp990
tp991
a((g50
g4
g52
g8
g10
g16
g18
g20
g35
g22
g26
tp992
(g126
g109
tp993
(g50
g10
g12
g16
g24
tp994
tp995
a((g50
g4
g6
g8
g10
g14
g54
g35
g26
tp996
(g109
tp997
(g4
g6
g12
g54
tp998
tp999
a((g4
g6
g8
g12
g14
g54
g84
g22
g24
g26
tp1000
(g56
tp1001
(g2
g4
g84
g24
tp1002
tp1003
a((g2
g4
g6
g8
g10
g16
g54
g84
g18
g35
g22
g24
g26
tp1004
(g109
g147
g28
tp1005
(g2
g6
g8
g16
g54
g84
g20
g35
tp1006
tp1007
a((g4
g6
g52
g10
g12
g14
g54
g84
g20
g24
g26
tp1008
(g28
tp1009
(g52
g10
g14
g20
g35
g24
g26
tp1010
tp1011
a((g4
g6
g52
g8
g12
g16
g54
g84
g18
g20
g22
g24
g26
tp1012
(g28
tp1013
(g4
g6
g52
g54
g18
g35
g22
g26
tp1014
tp1015
a((g2
g50
g4
g6
g8
g10
g16
g84
g18
g20
g35
g22
g26
tp1016
(g109
g77
tp1017
(g2
g50
g6
g14
g20
g22
tp1018
tp1019
a((g2
g50
g6
g8
g10
g12
g16
g84
g18
g20
g35
g22
g24
g26
tp1020
(g77
tp1021
(g14
g35
g22
g24
tp1022
tp1023
a((g2
g4
g6
g52
g12
g14
g16
g84
g20
g24
g26
tp1024
(g228
g28
g96
tp1025
(g4
g14
g18
g35
g22
g24
tp1026
tp1027
a((g2
g4
g6
g8
g12
g14
g16
g54
g20
g35
g22
g24
g26
tp1028
(g96
tp1029
(g6
g52
g8
g12
g14
g20
g35
g22
g24
tp1030
tp1031
a((g2
g50
g6
g52
g8
g12
g14
g16
g54
g84
g20
g35
g22
g24
tp1032
(g228
g56
tp1033
(g2
g52
g8
g10
g12
g16
g18
g35
g24
tp1034
tp1035
a((g2
g50
g4
g6
g52
g8
g10
g14
g16
g54
g18
g35
g24
tp1036
(g109
tp1037
(g2
g50
g52
g10
g12
g16
g18
tp1038
tp1039
a((g2
g50
g4
g52
g8
g10
g12
g16
g84
g20
g35
g22
g26
tp1040
(g126
tp1041
(g50
g16
g54
g84
g20
g22
g26
tp1042
tp1043
a((g50
g6
g52
g8
g10
g16
g54
g35
g22
g24
tp1044
(g109
g77
g56
tp1045
(g2
g50
g12
g84
g24
tp1046
tp1047
a((g50
g4
g52
g12
g14
g16
g54
g84
g18
g20
g22
g24
g26
tp1048
(g56
tp1049
(g2
g50
g52
g12
g16
g54
g84
g26
tp1050
tp1051
a((g2
g50
g6
g52
g8
g12
g14
g54
g84
g18
g20
g26
tp1052
(g28
tp1053
(g54
g84
g18
g20
g35
tp1054
tp1055
a((g2
g50
g4
g6
g8
g10
g16
g84
g20
g35
g22
g26
tp1056
(g96
g109
g228
tp1057
(g4
g52
g8
g10
g12
g84
g18
tp1058
tp1059
a((g50
g6
g10
g12
g16
g54
g18
g20
g22
g26
tp1060
(g77
tp1061
(g50
g6
g14
g84
g22
tp1062
tp1063
a((g2
g4
g6
g52
g8
g14
g84
g18
g35
g26
tp1064
(g126
g109
g147
g228
tp1065
(g50
g52
g18
g26
tp1066
tp1067
a((g2
g50
g4
g6
g52
g10
g84
g18
g35
g22
g24
g26
tp1068
(g109
tp1069
(g2
g50
g6
g12
g22
g24
tp1070
tp1071
a((g2
g50
g52
g8
g10
g12
g16
g54
g84
g18
g20
g24
g26
tp1072
(g28
tp1073
(g54
g84
g18
g20
g35
g24
g26
tp1074
tp1075
a((g2
g50
g4
g8
g10
g16
g84
g18
g20
g35
g22
g26
tp1076
(g126
g96
g109
g77
g56
tp1077
(g2
g50
g52
g10
g12
g54
g84
g20
g24
tp1078
tp1079
a((g2
g4
g52
g8
g16
g18
g20
g35
g24
g26
tp1080
(g126
g96
g109
tp1081
(g12
g54
g20
g22
tp1082
tp1083
a((g2
g50
g4
g14
g54
g84
g18
g20
g35
g26
tp1084
(g96
g109
g56
g28
tp1085
(g2
g4
g52
g84
g18
g20
g35
tp1086
tp1087
a((g2
g4
g6
g52
g8
g12
g14
g16
g24
tp1088
(g28
tp1089
(g4
g6
g8
g14
g35
g24
tp1090
tp1091
a((g2
g50
g4
g52
g8
g10
g12
g14
g16
g84
g18
g20
g26
tp1092
(g28
g126
g109
g147
tp1093
(g50
g4
g52
g10
g16
g54
g84
tp1094
tp1095
a((g50
g4
g6
g52
g10
g14
g16
g54
g84
g18
g35
g22
g24
tp1096
(g109
tp1097
(g52
g10
g12
g14
g16
g24
tp1098
tp1099
a((g2
g50
g6
g52
g10
g12
g16
g54
g20
g35
g22
tp1100
(g77
tp1101
(g2
g50
g52
g14
g20
g22
tp1102
tp1103
a((g2
g50
g8
g10
g12
g14
g16
g84
g20
g24
g26
tp1104
(g28
tp1105
(g2
g8
g84
g20
g35
g24
tp1106
tp1107
a((g50
g4
g6
g52
g8
g12
g14
g16
g84
g18
g35
g22
g26
tp1108
(g126
tp1109
(g54
g18
g35
g22
g24
tp1110
tp1111
a((g4
g6
g52
g8
g10
g14
g16
g84
g18
g35
g22
g24
g26
tp1112
(g109
g56
tp1113
(g2
g6
g52
g12
g84
g26
tp1114
tp1115
a((g50
g4
g6
g52
g12
g14
g84
g18
g20
g35
g22
g24
g26
tp1116
(g56
tp1117
(g4
g6
g10
g84
g35
g24
tp1118
tp1119
a((g4
g8
g10
g12
g14
g16
g54
g18
g20
g35
g22
tp1120
(g56
tp1121
(g2
g4
g8
g54
g18
g20
g35
tp1122
tp1123
a((g2
g50
g4
g6
g52
g8
g12
g16
g54
g18
g22
g26
tp1124
(g28
g126
g109
g147
g28
tp1125
(g52
g20
g35
g26
tp1126
tp1127
a((g2
g50
g4
g52
g10
g16
g20
g35
g24
g26
tp1128
(g109
tp1129
(g4
g52
g10
g12
g20
tp1130
tp1131
a((g2
g50
g4
g6
g52
g8
g10
g14
g16
g18
g20
g35
g22
g24
tp1132
(g109
g77
g28
tp1133
(g2
g50
g4
g6
g52
g8
g14
g84
g18
g35
g24
tp1134
tp1135
a((g2
g4
g6
g8
g10
g12
g14
g16
g18
g20
g24
g26
tp1136
(g228
g28
g126
g96
tp1137
(g50
g52
g54
g18
g24
tp1138
tp1139
a((g2
g50
g4
g6
g8
g14
g16
g54
g18
g35
g22
g24
g26
tp1140
(g109
g56
g77
tp1141
(g2
g50
g6
g12
g14
g54
g84
tp1142
tp1143
a((g2
g50
g6
g8
g10
g12
g14
g16
g35
g22
g24
g26
tp1144
(g77
g56
tp1145
(g10
g84
g35
g24
tp1146
tp1147
a((g2
g4
g6
g52
g8
g10
g12
g16
g54
g18
g20
g26
tp1148
(g28
g96
tp1149
(g4
g52
g16
g22
tp1150
tp1151
a((g2
g50
g4
g6
g8
g10
g12
g14
g16
g84
g20
g35
g26
tp1152
(g228
tp1153
(g12
g84
g18
g35
g26
tp1154
tp1155
a((g2
g6
g52
g8
g10
g12
g14
g16
g54
g20
g35
g22
g24
tp1156
(g228
g147
tp1157
(g2
g50
g52
g10
g12
g16
g20
tp1158
tp1159
a((g2
g4
g6
g52
g8
g10
g12
g16
g20
g22
g24
g26
tp1160
(g28
g126
g109
g228
g77
g147
g56
g28
tp1161
(g4
g10
g54
g84
g35
g26
tp1162
tp1163
a((g2
g50
g4
g6
g52
g8
g12
g14
g16
g54
g84
g20
g22
g24
tp1164
(g228
tp1165
(g4
g8
g12
g14
g18
g22
g24
tp1166
tp1167
a((g2
g50
g4
g6
g8
g10
g16
g54
g20
g35
g22
g24
g26
tp1168
(g109
g77
tp1169
(g2
g4
g6
g14
g54
g84
tp1170
tp1171
a((g2
g50
g6
g52
g10
g12
g16
g35
g24
tp1172
(g77
tp1173
(g2
g50
g6
g52
g12
g84
g35
g24
tp1174
tp1175
a((g2
g4
g6
g52
g8
g10
g14
g16
g54
g18
g20
g35
g22
g24
tp1176
(g109
g77
tp1177
(g2
g4
g6
g8
g54
g84
g22
g24
tp1178
tp1179
a((g50
g6
g52
g10
g12
g14
g16
g54
g18
g20
g35
g22
g26
tp1180
(g56
g77
tp1181
(g2
g50
g14
g18
g35
tp1182
tp1183
a((g50
g4
g6
g52
g8
g10
g12
g14
g16
g20
g35
g24
tp1184
(g126
tp1185
(g6
g10
g12
g14
g16
g54
g20
tp1186
tp1187
a((g2
g50
g4
g6
g8
g10
g12
g16
g54
g84
g18
g22
tp1188
(g28
g126
tp1189
(g50
g54
g84
g24
tp1190
tp1191
a((g2
g6
g52
g8
g12
g14
g54
g84
g18
g22
g24
tp1192
(g147
g228
tp1193
(g2
g50
g12
g14
g18
g22
tp1194
tp1195
a((g50
g4
g52
g8
g10
g12
g16
g54
g18
g35
g22
g24
g26
tp1196
(g77
g56
tp1197
(g10
g12
g54
g84
g18
g24
g26
tp1198
tp1199
a((g6
g52
g8
g10
g14
g54
g84
g18
g35
g22
g24
g26
tp1200
(g109
g147
g56
g28
tp1201
(g2
g52
g20
g35
tp1202
tp1203
a((g50
g4
g6
g52
g10
g12
g14
g16
g54
g22
g24
g26
tp1204
(g56
g77
tp1205
(g2
g4
g12
g14
tp1206
tp1207
a((g2
g50
g8
g12
g14
g84
g18
g20
g35
g22
g24
g26
tp1208
(g96
g147
g56
tp1209
(g2
g4
g52
g8
g84
tp1210
tp1211
a((g50
g4
g6
g8
g10
g14
g16
g18
g20
g35
g22
g26
tp1212
(g109
g77
tp1213
(g8
g12
g14
g84
g22
tp1214
tp1215
a((g2
g4
g6
g52
g8
g10
g12
g54
g20
g35
g24
g26
tp1216
(g228
tp1217
(g2
g52
g8
g12
g54
g18
tp1218
tp1219
a((g8
g10
g12
g14
g16
g54
g18
g24
g26
tp1220
(g147
tp1221
(g4
g16
g54
g20
tp1222
tp1223
a((g2
g4
g6
g52
g10
g16
g54
g18
g20
g35
g22
g24
tp1224
(g109
g77
g28
tp1225
(g2
g4
g6
g52
g14
g84
g18
g20
g35
g24
tp1226
tp1227
a((g50
g4
g6
g52
g8
g10
g14
g16
g84
g18
g20
g35
g22
tp1228
(g126
g109
g56
tp1229
(g2
g50
g6
g12
g54
g18
g24
tp1230
tp1231
a((g4
g6
g8
g10
g12
g16
g54
g84
g18
g35
g22
g24
tp1232
(g77
g56
tp1233
(g2
g6
g10
g12
g54
g35
g24
tp1234
tp1235
a((g4
g6
g52
g10
g12
g16
g54
g84
g18
g20
g26
tp1236
(g28
tp1237
(g16
g54
g84
g18
g20
g35
tp1238
tp1239
a((g2
g50
g6
g12
g14
g84
g20
g24
g26
tp1240
(g28
g96
g109
g56
tp1241
(g2
g10
g12
tp1242
tp1243
a((g2
g4
g10
g12
g14
g54
g84
g18
g20
g35
g22
g26
tp1244
(g96
tp1245
(g52
g14
g18
g20
g35
g22
tp1246
tp1247
a((g2
g50
g6
g10
g12
g54
g84
g18
g24
tp1248
(g147
tp1249
(g4
g10
g12
g84
tp1250
tp1251
a((g2
g50
g6
g52
g10
g14
g16
g54
g84
g35
g22
tp1252
(g109
tp1253
(g50
g52
g10
g12
g16
g54
g84
tp1254
tp1255
a((g2
g50
g52
g8
g12
g14
g16
g54
g20
g24
g26
tp1256
(g28
tp1257
(g2
g50
g52
g20
g35
g24
g26
tp1258
tp1259
a((g2
g50
g6
g52
g8
g16
g54
g84
g20
g35
g24
g26
tp1260
(g109
tp1261
(g6
g52
g8
g12
g16
g54
g84
g26
tp1262
tp1263
a((g2
g50
g6
g10
g12
g16
g54
g84
g18
g20
g35
g22
g24
tp1264
(g77
tp1265
(g12
g14
g84
g18
g20
g35
g24
tp1266
tp1267
a((g2
g50
g6
g52
g8
g10
g12
g16
g54
g84
g20
g26
tp1268
(g228
tp1269
(g2
g50
g52
g8
g54
g18
g26
tp1270
tp1271
a((g50
g4
g52
g8
g12
g14
g54
g84
g35
g22
g24
g26
tp1272
(g56
tp1273
(g8
g10
g12
g24
g26
tp1274
tp1275
a((g2
g6
g52
g16
g18
g20
g35
g22
g24
g26
tp1276
(g109
tp1277
(g2
g6
g12
g24
tp1278
tp1279
a((g2
g50
g4
g6
g10
g12
g16
g54
g84
g18
g35
g24
g26
tp1280
(g147
tp1281
(g2
g50
g10
g16
g54
g20
g35
tp1282
tp1283
a((g2
g4
g6
g8
g10
g12
g14
g84
g18
g20
g24
g26
tp1284
(g28
g126
tp1285
(g14
g54
g84
g18
g35
g24
g26
tp1286
tp1287
a((g2
g50
g4
g6
g52
g8
g10
g16
g84
g18
g35
g22
g24
g26
tp1288
(g109
g147
tp1289
(g50
g4
g52
g8
g12
g16
g84
g20
g26
tp1290
tp1291
a((g8
g10
g12
g16
g84
g18
g35
g24
g26
tp1292
(g147
g126
tp1293
(g10
g12
g54
g84
g20
g35
g24
tp1294
tp1295
a((g2
g6
g8
g10
g14
g16
g84
g18
g20
g35
g22
g24
g26
tp1296
(g109
tp1297
(g2
g8
g12
g20
g22
g24
g26
tp1298
tp1299
a((g2
g50
g4
g6
g8
g10
g12
g14
g16
g84
g18
g26
tp1300
(g28
g126
g96
tp1301
(g50
g52
g54
g84
g22
tp1302
tp1303
a((g50
g4
g6
g52
g8
g14
g54
g84
g18
g35
g22
g24
g26
tp1304
(g109
g147
g56
g28
tp1305
(g2
g50
g4
g6
g52
g10
g20
g35
g26
tp1306
tp1307
a((g4
g6
g52
g8
g12
g14
g84
g20
g35
g22
g24
tp1308
(g228
g147
g126
g56
tp1309
(g2
g50
g52
g10
g12
g20
g35
g24
tp1310
tp1311
a((g50
g4
g6
g8
g10
g12
g16
g54
g18
g35
g22
g24
g26
tp1312
(g77
g56
tp1313
(g2
g50
g4
g6
g8
g10
g84
g24
tp1314
tp1315
a((g50
g4
g6
g8
g12
g14
g16
g54
g18
g22
g24
g26
tp1316
(g56
g77
g28
g96
tp1317
(g14
g84
g22
tp1318
tp1319
a((g2
g50
g52
g8
g10
g14
g16
g84
g18
g20
g35
g22
g24
g26
tp1320
(g109
tp1321
(g2
g50
g8
g10
g12
g14
g16
g18
g24
tp1322
tp1323
a((g2
g50
g52
g8
g10
g16
g18
g35
g24
tp1324
(g109
g147
tp1325
(g50
g4
g8
g10
g16
g20
tp1326
tp1327
a((g2
g50
g52
g8
g10
g12
g16
g54
g84
g18
g20
g35
g24
g26
tp1328
(g77
g96
tp1329
(g14
g18
g20
g22
g24
tp1330
tp1331
a((g2
g50
g6
g52
g10
g16
g84
g18
g20
g35
g22
g24
g26
tp1332
(g109
tp1333
(g2
g50
g52
g12
g24
tp1334
tp1335
a((g2
g6
g52
g8
g10
g12
g16
g84
g20
g22
g24
tp1336
(g228
g28
tp1337
(g2
g50
g8
g18
g35
g22
g24
tp1338
tp1339
a((g2
g50
g4
g6
g52
g8
g10
g12
g14
g16
g54
g84
g18
g35
g22
g24
g26
tp1340
(g147
tp1341
(g2
g50
g4
g10
g12
g14
g16
g20
g26
tp1342
tp1343
a((g2
g50
g4
g6
g52
g8
g10
g16
g54
g84
g18
g35
g22
g24
g26
tp1344
(g109
tp1345
(g52
g10
g12
g54
g84
g18
g24
g26
tp1346
tp1347
a((g4
g6
g8
g14
g16
g54
g18
g20
g35
g22
g26
tp1348
(g126
g109
g56
g28
g96
g109
g77
g56
tp1349
(g2
g6
g52
g10
g84
g24
tp1350
tp1351
a((g50
g4
g8
g10
g12
g16
g18
g20
g35
g26
tp1352
(g126
tp1353
(g50
g16
g54
g18
g24
tp1354
tp1355
a((g2
g50
g4
g6
g52
g8
g14
g16
g18
g35
g24
g26
tp1356
(g126
g109
g147
tp1357
(g2
g4
g6
g52
g12
g54
g20
g26
tp1358
tp1359
a((g2
g4
g6
g52
g8
g10
g14
g16
g84
g20
g35
g22
g24
g26
tp1360
(g109
g228
tp1361
(g50
g52
g8
g10
g84
g22
g24
g26
tp1362
tp1363
a((g2
g52
g8
g12
g16
g84
g18
g35
g22
g24
tp1364
(g147
tp1365
(g4
g52
g8
g12
g20
g22
tp1366
tp1367
a((g50
g8
g10
g14
g54
g84
g18
g20
g35
g22
g26
tp1368
(g109
g56
g28
g96
tp1369
(g52
g10
g54
g18
tp1370
tp1371
a((g2
g50
g4
g6
g52
g8
g10
g12
g84
g18
g22
g24
g26
tp1372
(g28
tp1373
(g4
g52
g8
g10
g18
g35
g22
g24
g26
tp1374
tp1375
a((g2
g50
g52
g10
g14
g18
g20
g35
g22
g24
g26
tp1376
(g109
tp1377
(g50
g52
g10
g12
g14
g20
g22
g24
g26
tp1378
tp1379
a((g2
g50
g12
g14
g54
g84
g18
g35
g22
g24
tp1380
(g147
g56
tp1381
(g50
g4
g10
g54
g35
tp1382
tp1383
a((g4
g6
g14
g16
g54
g18
g35
g22
tp1384
(g109
tp1385
(g12
g54
g18
g22
tp1386
tp1387
a((g2
g50
g4
g10
g12
g14
g84
g20
g22
g24
g26
tp1388
(g28
g96
tp1389
(g4
g52
g84
g20
g24
tp1390
tp1391
a((g2
g50
g4
g6
g52
g8
g10
g12
g14
g84
g20
g24
g26
tp1392
(g228
g28
g126
tp1393
(g2
g50
g52
g10
g54
g18
g35
tp1394
tp1395
a((g2
g4
g6
g52
g10
g12
g14
g54
g20
g22
g24
tp1396
(g228
g28
tp1397
(g2
g4
g54
g18
g35
g22
tp1398
tp1399
a((g2
g50
g6
g8
g12
g14
g54
g84
g18
g35
g22
g24
g26
tp1400
(g147
g56
tp1401
(g2
g50
g6
g8
g10
g54
g20
tp1402
tp1403
a((g50
g6
g12
g16
g54
g84
g18
g35
g24
g26
tp1404
(g147
tp1405
(g50
g12
g84
g20
g35
g26
tp1406
tp1407
a((g50
g4
g6
g52
g8
g12
g14
g16
g84
g18
g20
g35
g22
g26
tp1408
(g56
tp1409
(g2
g8
g10
g12
g16
g20
g26
tp1410
tp1411
a((g6
g8
g10
g12
g14
g84
g18
g22
g24
g26
tp1412
(g56
g28
g96
g109
tp1413
(g6
g52
g8
g12
g18
g22
g24
tp1414
tp1415
a((g2
g50
g4
g6
g8
g10
g12
g14
g16
g54
g20
g22
g26
tp1416
(g228
g28
tp1417
(g2
g50
g8
g14
g16
g54
g18
g35
g22
tp1418
tp1419
a((g50
g4
g6
g52
g8
g10
g12
g14
g16
g20
g22
g24
tp1420
(g228
g28
tp1421
(g52
g8
g10
g16
g18
g35
g24
tp1422
tp1423
a((g2
g50
g4
g6
g52
g8
g10
g12
g18
g20
g22
tp1424
(g28
tp1425
(g2
g50
g4
g6
g52
g8
g18
g35
tp1426
tp1427
a((g4
g6
g52
g10
g12
g16
g84
g20
g35
g22
g26
tp1428
(g77
g56
tp1429
(g2
g52
g10
g84
g20
g35
g26
tp1430
tp1431
a((g50
g52
g10
g12
g14
g16
g54
g84
g18
g35
g22
g24
g26
tp1432
(g56
g77
tp1433
(g2
g50
g52
g14
g84
g18
g35
g24
tp1434
tp1435
a((g2
g50
g8
g14
g16
g54
g84
g18
g20
g35
g22
g24
g26
tp1436
(g96
tp1437
(g50
g52
g8
g54
g84
g35
tp1438
tp1439
a((g2
g50
g4
g6
g52
g12
g14
g54
g84
g18
g22
g26
tp1440
(g28
tp1441
(g50
g6
g52
g14
g35
tp1442
tp1443
a((g2
g50
g4
g6
g52
g8
g10
g12
g14
g16
g54
g84
g18
g35
g24
g26
tp1444
(g147
tp1445
(g50
g6
g52
g10
g14
g16
g20
tp1446
tp1447
a((g2
g50
g4
g6
g52
g10
g12
g14
g16
g18
g35
g24
g26
tp1448
(g77
g147
tp1449
(g2
g6
g52
g12
g84
g20
g35
tp1450
tp1451
a((g4
g8
g14
g18
g20
g35
g22
g24
tp1452
(g126
g109
tp1453
(g12
g54
g18
g20
g22
tp1454
tp1455
a((g50
g4
g6
g52
g8
g10
g16
g18
g20
g35
g22
g24
g26
tp1456
(g109
tp1457
(g6
g52
g10
g12
g20
g26
tp1458
tp1459
a((g4
g6
g52
g8
g10
g12
g14
g16
g54
g84
g20
g35
g24
tp1460
(g228
g147
tp1461
(g50
g8
g12
g14
g16
g54
g84
g20
g35
tp1462
tp1463
a((g50
g4
g6
g52
g10
g12
g14
g16
g54
g18
g20
g35
g22
g26
tp1464
(g77
g56
tp1465
(g4
g6
g52
g10
g84
g20
g35
tp1466
tp1467
a((g2
g50
g4
g6
g52
g8
g10
g12
g14
g16
g84
g18
g22
g24
g26
tp1468
(g147
g28
g126
tp1469
(g6
g52
g10
g14
g54
g84
g20
g24
g26
tp1470
tp1471
a((g50
g4
g52
g8
g18
g35
g22
g24
tp1472
(g109
tp1473
(g52
g8
g12
g18
tp1474
tp1475
a((g50
g4
g6
g10
g12
g14
g16
g54
g18
g22
g24
tp1476
(g77
g56
g28
tp1477
(g2
g50
g6
g84
g35
g24
tp1478
tp1479
a((g2
g50
g4
g12
g16
g54
g84
g18
g35
g22
g24
g26
tp1480
(g147
tp1481
(g2
g50
g12
g16
g84
g20
g22
g26
tp1482
tp1483
a((g2
g50
g4
g52
g12
g14
g84
g18
g20
g24
g26
tp1484
(g28
g96
tp1485
(g52
g14
g22
tp1486
tp1487
a((g6
g52
g8
g10
g16
g54
g84
g20
g35
g24
g26
tp1488
(g109
g228
g147
tp1489
(g4
g52
g10
g26
tp1490
tp1491
a((g2
g4
g6
g52
g10
g12
g14
g16
g54
g84
g20
g22
g24
g26
tp1492
(g228
g147
tp1493
(g50
g4
g52
g14
g84
g20
tp1494
tp1495
a((g2
g50
g4
g52
g8
g84
g18
g35
g22
tp1496
(g126
g109
g147
g28
tp1497
(g2
g54
g20
g35
g22
tp1498
tp1499
a((g2
g50
g52
g8
g10
g14
g16
g54
g84
g18
g20
g35
g22
g24
tp1500
(g109
tp1501
(g52
g8
g10
g12
g14
g54
g84
g20
g22
tp1502
tp1503
a((g2
g50
g6
g52
g10
g12
g16
g54
g18
g20
g22
g26
tp1504
(g77
g28
tp1505
(g52
g14
g54
g18
g20
g35
tp1506
tp1507
a((g2
g6
g52
g8
g10
g14
g54
g84
g18
g20
g35
g22
g24
g26
tp1508
(g109
tp1509
(g2
g8
g10
g12
g84
g18
g22
g26
tp1510
tp1511
a((g52
g16
g54
g84
g20
g35
g24
g26
tp1512
(g109
tp1513
(g52
g12
g54
g24
g26
tp1514
tp1515
a((g2
g50
g4
g6
g8
g12
g14
g84
g18
g20
g26
tp1516
(g28
g126
g96
tp1517
(g50
g52
g18
g35
g24
tp1518
tp1519
a((g50
g4
g52
g8
g10
g14
g54
g84
g35
g22
g26
tp1520
(g126
tp1521
(g10
g14
g54
g22
g24
g26
tp1522
tp1523
a((g2
g4
g6
g8
g10
g12
g14
g16
g18
g20
g35
g22
g24
g26
tp1524
(g77
g126
g147
tp1525
(g2
g4
g12
g54
g84
g20
g22
g26
tp1526
tp1527
a((g4
g6
g52
g8
g10
g16
g20
g35
g22
g26
tp1528
(g126
g109
g228
g77
g147
g28
tp1529
(g50
g4
g52
g14
g84
g20
g35
g22
tp1530
tp1531
a((g2
g50
g4
g6
g52
g8
g14
g16
g54
g18
g35
g22
g24
tp1532
(g109
g56
g77
g28
tp1533
(g50
g4
g8
g14
g54
g84
g35
tp1534
tp1535
a((g2
g4
g6
g8
g12
g14
g16
g54
g18
g20
g22
g26
tp1536
(g228
g28
g126
g96
tp1537
(g50
g52
g16
g35
g24
tp1538
tp1539
a((g2
g4
g6
g52
g14
g54
g84
g18
g20
g35
g22
g24
tp1540
(g109
tp1541
(g2
g4
g6
g52
g12
g84
g22
tp1542
tp1543
a((g2
g50
g4
g6
g8
g10
g84
g18
g35
g24
g26
tp1544
(g126
g109
g147
g28
tp1545
(g2
g50
g54
g20
g35
g26
tp1546
tp1547
a((g4
g6
g8
g10
g12
g14
g54
g18
g20
g22
tp1548
(g28
g126
g109
g228
tp1549
(g50
g10
g12
g14
g54
g18
g24
tp1550
tp1551
a((g50
g52
g8
g10
g12
g14
g16
g84
g18
g20
g24
tp1552
(g28
tp1553
(g18
g20
g35
g24
tp1554
tp1555
a((g2
g50
g6
g52
g10
g14
g16
g54
g18
g35
g22
g24
g26
tp1556
(g109
tp1557
(g2
g10
g12
g14
g16
g18
g22
tp1558
tp1559
a((g2
g6
g10
g12
g14
g16
g54
g18
g20
g22
g24
g26
tp1560
(g228
g147
tp1561
(g50
g4
g10
g12
g14
g16
g54
g22
g26
tp1562
tp1563
a((g6
g52
g12
g14
g16
g84
g22
g24
tp1564
(g28
tp1565
(g6
g14
g16
g84
g35
g22
tp1566
tp1567
a((g2
g50
g6
g52
g8
g12
g14
g16
g84
g18
g35
g22
g24
g26
tp1568
(g147
tp1569
(g2
g4
g6
g12
g84
g22
g26
tp1570
tp1571
a((g2
g50
g6
g52
g10
g84
g18
g35
g24
g26
tp1572
(g109
g147
tp1573
(g50
g4
g52
g10
g84
g20
g26
tp1574
tp1575
a((g2
g50
g4
g8
g10
g14
g16
g54
g84
g18
g20
g35
g22
g24
g26
tp1576
(g109
tp1577
(g4
g8
g10
g12
g14
g84
g18
g20
g22
tp1578
tp1579
a((g2
g4
g6
g8
g10
g14
g16
g84
g20
g35
g22
g24
g26
tp1580
(g96
tp1581
(g6
g52
g8
g10
g14
tp1582
tp1583
a((g2
g50
g8
g10
g12
g14
g84
g18
g20
g35
g22
g24
tp1584
(g147
g126
tp1585
(g50
g10
g12
g14
g54
g84
g35
g22
g24
tp1586
tp1587
a((g2
g6
g52
g12
g14
g16
g54
g84
g20
g35
g22
g24
tp1588
(g228
tp1589
(g2
g50
g12
g14
g84
g22
tp1590
tp1591
a((g50
g6
g10
g12
g16
g54
g18
g20
g22
g26
tp1592
(g77
tp1593
(g6
g12
g14
g22
tp1594
tp1595
a((g2
g50
g4
g52
g8
g10
g12
g16
g84
g18
g26
tp1596
(g28
g126
g109
g147
tp1597
(g4
g52
g10
g12
g16
g20
g26
tp1598
tp1599
a((g2
g4
g6
g8
g10
g12
g16
g18
g20
g22
g24
g26
tp1600
(g28
g126
g96
tp1601
(g52
g10
g16
g54
g18
g20
g24
tp1602
tp1603
a((g50
g4
g6
g8
g10
g12
g14
g16
g54
g18
g20
g35
g22
g26
tp1604
(g77
tp1605
(g50
g4
g12
g14
g84
g20
g35
g26
tp1606
tp1607
a((g2
g50
g6
g52
g8
g10
g12
g14
g16
g54
g22
g24
g26
tp1608
(g77
tp1609
(g8
g12
g14
g84
g26
tp1610
tp1611
a((g2
g4
g8
g10
g14
g16
g84
g18
g20
g35
g22
g26
tp1612
(g96
g109
g56
g28
tp1613
(g2
g52
g8
g84
g18
g35
tp1614
tp1615
a((g50
g4
g52
g8
g12
g14
g16
g84
g18
g20
g35
g22
g26
tp1616
(g126
g147
tp1617
(g50
g4
g12
g16
g54
g84
g20
g22
g26
tp1618
tp1619
a((g4
g6
g8
g10
g54
g18
g35
g22
g24
g26
tp1620
(g109
g147
g28
tp1621
(g8
g10
g54
g20
g35
g22
tp1622
tp1623
a((g50
g4
g6
g8
g10
g14
g16
g54
g18
g35
g22
g24
g26
tp1624
(g109
g147
g56
g77
tp1625
(g2
g14
g54
g20
tp1626
tp1627
a((g2
g4
g6
g8
g10
g12
g14
g18
g22
g24
g26
tp1628
(g147
g28
g126
g109
g228
g147
g28
tp1629
(g2
g50
g10
g54
g20
g35
g22
g26
tp1630
tp1631
a((g4
g6
g52
g8
g10
g16
g54
g35
g22
g26
tp1632
(g109
g77
g56
tp1633
(g2
g4
g6
g52
g8
g12
g54
tp1634
tp1635
a((g50
g4
g6
g52
g8
g10
g14
g18
g20
g35
g22
g24
g26
tp1636
(g109
tp1637
(g50
g52
g10
g12
g22
g24
tp1638
tp1639
a((g2
g6
g8
g10
g12
g14
g16
g20
g35
g24
g26
tp1640
(g228
tp1641
(g2
g8
g12
g14
g18
g35
g26
tp1642
tp1643
a((g2
g4
g6
g8
g10
g16
g20
g35
g22
g26
tp1644
(g109
g77
tp1645
(g6
g8
g12
g14
g84
tp1646
tp1647
a((g6
g52
g10
g12
g14
g16
g54
g84
g20
g22
g24
g26
tp1648
(g56
tp1649
(g2
g6
g10
g12
g54
g84
g24
g26
tp1650
tp1651
a((g2
g4
g6
g52
g8
g14
g16
g54
g18
g20
g35
g22
g24
g26
tp1652
(g109
g56
g28
g96
g109
g77
g56
g28
tp1653
(g52
g8
g10
g54
g84
g18
g20
g35
tp1654
tp1655
a((g50
g8
g10
g12
g14
g16
g54
g20
g35
g22
g24
tp1656
(g77
tp1657
(g8
g12
g14
g84
g20
g22
tp1658
tp1659
a((g2
g50
g4
g6
g14
g54
g84
g18
g35
g22
g24
g26
tp1660
(g109
g56
tp1661
(g2
g50
g4
g6
g10
g18
g24
tp1662
tp1663
a((g2
g4
g6
g52
g10
g12
g14
g16
g54
g84
g20
g35
g22
g24
g26
tp1664
(g228
tp1665
(g12
g16
g84
g18
g35
g24
g26
tp1666
tp1667
a((g2
g50
g52
g10
g16
g54
g84
g20
g35
g22
g24
g26
tp1668
(g109
tp1669
(g12
g54
g84
g20
g26
tp1670
tp1671
a((g2
g50
g4
g6
g8
g10
g12
g14
g84
g35
g22
g24
tp1672
(g126
tp1673
(g2
g6
g12
g14
g54
g84
tp1674
tp1675
a((g2
g50
g6
g52
g8
g12
g14
g18
g35
g22
g24
tp1676
(g147
g126
tp1677
(g2
g50
g12
g14
g54
tp1678
tp1679
a((g2
g50
g4
g6
g52
g10
g12
g14
g84
g18
g20
g22
g24
tp1680
(g28
tp1681
(g50
g52
g18
g35
g24
tp1682
tp1683
a((g2
g50
g4
g6
g10
g14
g16
g54
g84
g18
g35
g22
g24
g26
tp1684
(g96
g109
tp1685
(g50
g52
g10
g12
g14
g18
g22
tp1686
tp1687
a((g2
g50
g4
g6
g52
g8
g10
g12
g14
g16
g26
tp1688
(g28
g126
tp1689
(g2
g50
g6
g52
g14
g16
g54
g26
tp1690
tp1691
a((g2
g50
g6
g8
g12
g14
g16
g54
g84
g18
g35
g24
g26
tp1692
(g96
g147
tp1693
(g6
g52
g8
g20
g35
g22
tp1694
tp1695
a((g2
g50
g4
g6
g10
g12
g16
g18
g35
g22
g24
g26
tp1696
(g77
tp1697
(g50
g6
g12
g14
g24
tp1698
tp1699
a((g2
g50
g4
g6
g12
g14
g16
g22
g24
g26
tp1700
(g56
g28
tp1701
(g10
g35
g26
tp1702
tp1703
a((g50
g4
g52
g8
g10
g12
g14
g84
g18
g22
g26
tp1704
(g28
g126
g109
g147
g28
tp1705
(g4
g52
g54
g84
g35
g26
tp1706
tp1707
a((g2
g50
g12
g14
g16
g54
g18
g24
g26
tp1708
(g28
tp1709
(g2
g50
g16
g54
g18
g35
g24
g26
tp1710
tp1711
a((g2
g50
g6
g14
g16
g18
g20
g35
g22
g24
g26
tp1712
(g109
g56
g28
g96
g109
tp1713
(g50
g10
g12
g18
g22
g24
tp1714
tp1715
a((g50
g4
g6
g8
g10
g14
g16
g84
g20
g35
g22
g24
g26
tp1716
(g126
g109
tp1717
(g12
g54
g22
g26
tp1718
tp1719
a((g2
g4
g10
g14
g16
g18
g35
g22
g24
g26
tp1720
(g96
g109
tp1721
(g4
g52
g12
g14
g16
g18
g24
tp1722
tp1723
a((g2
g8
g16
g54
g84
g18
g20
g35
g24
g26
tp1724
(g109
g147
tp1725
(g2
g4
g8
g12
g84
g26
tp1726
tp1727
a((g2
g4
g6
g52
g8
g10
g14
g18
g35
g24
g26
tp1728
(g96
g109
g147
tp1729
(g4
g6
g12
g20
g22
tp1730
tp1731
a((g4
g6
g8
g10
g12
g14
g54
g84
g18
g22
g26
tp1732
(g28
g126
g109
g147
g228
g56
g28
tp1733
(g2
g50
g4
g54
g84
g35
g26
tp1734
tp1735
a((g2
g50
g4
g6
g52
g10
g12
g16
g18
g35
tp1736
(g77
tp1737
(g6
g52
g14
g35
tp1738
tp1739
a((g4
g6
g52
g8
g10
g14
g16
g54
g20
g35
g22
g24
g26
tp1740
(g109
g228
tp1741
(g8
g54
g18
g22
g24
g26
tp1742
tp1743
a((g2
g50
g6
g52
g10
g18
g20
g35
g24
tp1744
(g109
g147
tp1745
(g4
g10
tp1746
tp1747
a((g50
g4
g6
g52
g8
g10
g12
g14
g16
g54
g20
g35
g22
g26
tp1748
(g228
tp1749
(g50
g4
g52
g8
g12
g14
g54
g18
g22
g26
tp1750
tp1751
a((g2
g50
g4
g6
g8
g12
g14
g16
g84
g18
g20
g22
g26
tp1752
(g56
tp1753
(g4
g10
g12
g16
g84
g20
tp1754
tp1755
a((g50
g6
g10
g12
g14
g16
g22
g24
g26
tp1756
(g77
g28
tp1757
(g50
g14
g84
g35
g22
tp1758
tp1759
a((g2
g52
g8
g10
g16
g54
g84
g18
g20
g35
g22
tp1760
(g109
g77
g28
tp1761
(g8
g14
g20
g35
tp1762
tp1763
a((g2
g50
g4
g6
g10
g12
g54
g20
g24
g26
tp1764
(g228
g28
tp1765
(g50
g4
g10
g18
g35
g24
tp1766
tp1767
a((g2
g50
g4
g6
g12
g14
g16
g18
g20
g35
g24
g26
tp1768
(g96
tp1769
(g4
g6
g52
g14
g16
g20
g22
tp1770
tp1771
a((g2
g6
g8
g10
g12
g16
g54
g84
g18
g35
g22
g24
tp1772
(g147
tp1773
(g4
g6
g8
g10
g12
g20
g35
g22
tp1774
tp1775
a((g50
g4
g6
g52
g8
g14
g54
g84
g20
g35
g22
g24
tp1776
(g109
g228
g56
tp1777
(g2
g4
g10
g18
tp1778
tp1779
a((g2
g52
g10
g12
g14
g16
g54
g84
g18
g22
g24
tp1780
(g147
tp1781
(g2
g4
g52
g10
g84
g22
tp1782
tp1783
a((g6
g52
g8
g14
g16
g54
g84
g20
g35
g24
tp1784
(g109
g228
g147
tp1785
(g50
g4
g8
g14
g16
g54
g84
tp1786
tp1787
a((g2
g50
g4
g6
g52
g8
g10
g12
g14
g16
g54
g20
g22
tp1788
(g228
g77
g28
tp1789
(g2
g50
g4
g52
g84
g18
g35
tp1790
tp1791
a((g2
g52
g8
g10
g12
g14
g18
g20
g35
g22
g24
tp1792
(g147
g126
tp1793
(g2
g12
g54
g20
g24
tp1794
tp1795
a((g2
g50
g6
g10
g16
g54
g84
g20
g35
g22
g24
g26
tp1796
(g96
g109
g77
g56
tp1797
(g2
g50
g6
g52
g10
g54
g84
g24
tp1798
tp1799
a((g50
g6
g52
g8
g10
g12
g16
g18
g20
g24
g26
tp1800
(g28
tp1801
(g8
g20
g35
tp1802
tp1803
a((g50
g6
g52
g8
g10
g14
g54
g18
g20
g35
g22
g24
g26
tp1804
(g109
g147
tp1805
(g4
g6
g52
g10
g22
g26
tp1806
tp1807
a((g50
g6
g8
g10
g12
g14
g16
g54
g20
g35
g22
tp1808
(g77
g56
tp1809
(g2
g50
g10
g12
g54
g84
g20
tp1810
tp1811
a((g2
g50
g4
g6
g52
g8
g12
g14
g16
g54
g20
g26
tp1812
(g28
g126
g96
g109
g56
g77
tp1813
(g50
g6
g52
g12
g84
g20
g24
tp1814
tp1815
a((g4
g6
g52
g8
g12
g14
g16
g54
g84
g20
g22
g26
tp1816
(g228
g28
g126
tp1817
(g50
g54
g35
g22
g24
g26
tp1818
tp1819
a((g2
g6
g52
g10
g12
g16
g54
g84
g18
g35
g22
g24
g26
tp1820
(g147
g228
tp1821
(g50
g52
g12
g54
g18
tp1822
tp1823
a((g2
g50
g4
g52
g8
g14
g16
g54
g84
g18
g35
g22
tp1824
(g126
tp1825
(g50
g52
g54
g35
g22
g24
tp1826
tp1827
a((g2
g4
g8
g10
g12
g54
g18
g26
tp1828
(g28
g96
tp1829
(g52
g54
g18
tp1830
tp1831
a((g50
g4
g6
g52
g8
g12
g14
g16
g54
g20
g35
g22
g24
g26
tp1832
(g228
tp1833
(g14
g16
g54
g18
g35
g22
g26
tp1834
tp1835
a((g4
g6
g52
g8
g10
g12
g54
g20
g35
g26
tp1836
(g228
g126
g147
tp1837
(g50
g4
g52
g12
g20
tp1838
tp1839
a((g50
g8
g10
g12
g16
g54
g18
g22
g24
tp1840
(g147
g28
g126
g109
tp1841
(g50
g12
g16
g54
g20
g24
tp1842
tp1843
a((g2
g50
g6
g8
g10
g12
g14
g16
g84
g22
g24
g26
tp1844
(g28
g96
tp1845
(g52
g14
g35
tp1846
tp1847
a((g2
g4
g8
g12
g16
g54
g84
g18
g20
g22
g26
tp1848
(g28
tp1849
(g2
g4
g8
g20
g35
g22
tp1850
tp1851
a((g2
g50
g4
g10
g12
g14
g16
g84
g22
g24
g26
tp1852
(g28
tp1853
(g2
g50
g4
g10
g35
g22
g26
tp1854
tp1855
a((g2
g50
g4
g8
g10
g12
g14
g16
g54
g18
g20
g22
g24
tp1856
(g77
g28
tp1857
(g2
g4
g14
g54
g84
g18
g35
g24
tp1858
tp1859
a((g50
g4
g6
g52
g10
g12
g16
g54
g84
g18
g35
g22
g24
g26
tp1860
(g77
g56
tp1861
(g2
g4
g10
g54
g24
g26
tp1862
tp1863
a((g4
g8
g10
g12
g54
g18
g22
g24
tp1864
(g147
g28
g126
g109
tp1865
(g12
g20
g22
g24
tp1866
tp1867
a((g2
g4
g52
g8
g10
g12
g14
g16
g84
g35
g26
tp1868
(g126
tp1869
(g52
g14
g54
g84
g24
tp1870
tp1871
a((g2
g50
g6
g52
g8
g10
g12
g16
g54
g20
g22
g24
g26
tp1872
(g228
g77
g28
tp1873
(g2
g52
g8
g54
g84
g18
g35
g24
g26
tp1874
tp1875
a((g2
g4
g6
g8
g10
g12
g16
g54
g18
g20
g35
g22
g24
g26
tp1876
(g77
g96
tp1877
(g4
g6
g52
g84
g35
tp1878
tp1879
a((g2
g6
g52
g8
g10
g16
g84
g18
g20
g35
tp1880
(g109
g77
tp1881
(g6
g14
g84
g18
g20
tp1882
tp1883
a((g50
g4
g8
g10
g12
g84
g18
g20
g35
g24
tp1884
(g126
tp1885
(g50
g54
g84
g24
tp1886
tp1887
a((g2
g50
g4
g8
g12
g14
g16
g54
g18
g35
g22
tp1888
(g126
tp1889
(g50
g35
g24
tp1890
tp1891
a((g50
g6
g52
g8
g10
g14
g16
g84
g18
g35
g22
g24
tp1892
(g109
g147
tp1893
(g4
g10
g12
tp1894
tp1895
a((g52
g8
g12
g14
g16
g54
g84
g20
g35
g22
tp1896
(g56
tp1897
(g8
g10
g16
g54
tp1898
tp1899
a((g2
g4
g10
g12
g16
g84
g18
g35
g22
g24
g26
tp1900
(g77
g147
tp1901
(g12
g14
g84
g20
g35
g22
tp1902
tp1903
a((g2
g52
g8
g10
g12
g84
g18
g20
g35
g22
g24
tp1904
(g147
tp1905
(g4
g8
g10
g84
g35
tp1906
tp1907
a((g50
g4
g52
g8
g10
g12
g14
g16
g84
g20
g35
g24
g26
tp1908
(g126
tp1909
(g10
g16
g54
g84
g20
g24
g26
tp1910
tp1911
a((g2
g50
g4
g6
g52
g8
g10
g12
g16
g54
g84
g18
g20
g35
g22
g24
g26
tp1912
(g77
tp1913
(g2
g4
g6
g14
g18
g20
g35
g24
g26
tp1914
tp1915
a((g2
g50
g4
g10
g12
g16
g54
g84
g18
g22
g24
tp1916
(g28
tp1917
(g2
g50
g4
g54
g35
g22
tp1918
tp1919
a((g2
g50
g6
g52
g8
g12
g14
g20
g35
g24
g26
tp1920
(g96
g56
tp1921
(g52
g10
g12
g35
g24
tp1922
tp1923
a((g50
g4
g6
g52
g8
g12
g14
g16
g84
g18
g20
g22
g24
g26
tp1924
(g28
tp1925
(g4
g6
g14
g16
g18
g35
g22
g26
tp1926
tp1927
a((g2
g50
g4
g52
g8
g10
g14
g16
g54
g84
g18
g20
g35
g26
tp1928
(g109
tp1929
(g4
g52
g8
g10
g12
g14
g16
g18
g26
tp1930
tp1931
a((g2
g50
g4
g8
g14
g16
g84
g20
g35
g22
tp1932
(g126
tp1933
(g2
g16
g54
g20
g35
g24
tp1934
tp1935
a((g50
g4
g6
g52
g8
g10
g12
g16
g54
g84
g18
g20
g24
g26
tp1936
(g77
tp1937
(g50
g4
g8
g12
g14
g54
g20
g24
tp1938
tp1939
a((g2
g50
g6
g8
g12
g14
g18
g35
g24
g26
tp1940
(g96
g147
g126
g56
tp1941
(g2
g52
g10
g54
g20
g35
g24
tp1942
tp1943
a((g2
g50
g4
g52
g8
g10
g16
g54
g18
g20
g35
g22
tp1944
(g109
g77
tp1945
(g52
g8
g14
g54
g18
g20
g22
tp1946
tp1947
a((g2
g50
g4
g52
g8
g10
g14
g16
g54
g84
g18
g35
g22
g24
g26
tp1948
(g109
g147
g28
g126
g109
tp1949
(g50
g52
g12
g14
g16
g20
g22
g24
g26
tp1950
tp1951
a((g2
g50
g6
g8
g10
g12
g14
g16
g18
g20
g35
g22
g24
g26
tp1952
(g96
tp1953
(g6
g52
g8
g10
g14
g16
g22
g24
tp1954
tp1955
a((g4
g8
g10
g12
g14
g54
g84
g18
g20
g35
g22
g24
g26
tp1956
(g56
g96
tp1957
(g4
g52
g8
g10
g12
g54
g20
g35
g22
g24
tp1958
tp1959
a((g2
g50
g6
g8
g10
g12
g14
g16
g20
g35
g22
g24
tp1960
(g228
g147
g126
tp1961
(g2
g14
g16
g54
g22
g24
tp1962
tp1963
a((g2
g6
g8
g14
g16
g54
g84
g20
g35
g24
g26
tp1964
(g96
g109
g228
g147
g56
tp1965
(g50
g4
g52
g8
g10
g12
g54
g20
tp1966
tp1967
a((g2
g10
g12
g14
g16
g84
g20
g22
g24
g26
tp1968
(g28
tp1969
(g16
g35
g22
tp1970
tp1971
a((g4
g6
g52
g10
g12
g16
g54
g18
g20
g35
g22
g24
g26
tp1972
(g228
g77
tp1973
(g50
g12
g14
g54
g84
g24
g26
tp1974
tp1975
a((g4
g6
g8
g10
g12
g54
g84
g18
g20
g22
g24
g26
tp1976
(g28
tp1977
(g6
g54
g35
g22
g24
tp1978
tp1979
a((g2
g50
g4
g52
g8
g10
g14
g18
g20
g35
g24
tp1980
(g126
g109
tp1981
(g2
g10
g12
g54
g18
g24
tp1982
tp1983
a((g2
g50
g6
g10
g14
g16
g54
g20
g35
g22
g24
g26
tp1984
(g96
tp1985
(g6
g52
g16
g54
g20
g24
tp1986
tp1987
a((g4
g6
g8
g12
g14
g84
g20
g22
g26
tp1988
(g28
g126
tp1989
(g6
g54
g22
g26
tp1990
tp1991
a((g2
g50
g4
g6
g8
g10
g14
g84
g18
g20
g35
g22
tp1992
(g109
tp1993
(g50
g4
g8
g10
g12
g84
g18
tp1994
tp1995
a((g2
g6
g12
g14
g16
g54
g20
g35
g24
g26
tp1996
(g228
g147
tp1997
(g4
g12
g14
g16
g54
tp1998
tp1999
a((g2
g50
g4
g6
g52
g8
g10
g14
g16
g54
g18
g20
g35
tp2000
(g109
g77
tp2001
(g2
g50
g6
g8
g12
g14
g84
tp2002
tp2003
a((g2
g50
g4
g6
g10
g12
g14
g16
g54
g20
g35
g22
g24
g26
tp2004
(g228
tp2005
(g2
g4
g14
g16
g54
g18
g24
tp2006
tp2007
a((g2
g50
g4
g52
g10
g12
g84
g26
tp2008
(g28
tp2009
(g4
g10
g35
tp2010
tp2011
a((g52
g8
g10
g12
g16
g54
g84
g20
g22
g24
tp2012
(g77
g56
tp2013
(g2
g8
g10
g12
g54
g20
tp2014
tp2015
a((g4
g6
g52
g8
g14
g16
g20
g35
g22
g26
tp2016
(g109
g56
tp2017
(g2
g4
g8
tp2018
tp2019
a((g2
g50
g10
g12
g54
g18
g22
g24
g26
tp2020
(g147
g28
tp2021
(g50
g4
g54
g20
g35
g22
g26
tp2022
tp2023
a((g2
g50
g6
g10
g12
g14
g16
g84
g18
g22
g26
tp2024
(g28
tp2025
(g50
g10
g14
g18
g35
g22
g26
tp2026
tp2027
a((g2
g50
g4
g52
g10
g12
g84
g18
g35
g24
g26
tp2028
(g147
tp2029
(g50
g84
g20
g35
tp2030
tp2031
a((g2
g4
g6
g8
g10
g12
g14
g16
g18
g20
g35
g22
tp2032
(g228
g126
tp2033
(g50
g12
g16
g54
g18
g22
g24
tp2034
tp2035
a((g2
g6
g8
g10
g12
g14
g16
g84
g18
g20
g22
g24
g26
tp2036
(g28
g96
tp2037
(g52
g8
g10
g18
g35
g24
tp2038
tp2039
a((g50
g4
g52
g8
g10
g12
g14
g16
g54
g20
g35
g22
g24
g26
tp2040
(g56
g77
tp2041
(g2
g4
g8
g14
g54
g84
tp2042
tp2043
a((g50
g4
g6
g52
g12
g14
g16
g54
g84
g20
g35
g22
g24
g26
tp2044
(g56
tp2045
(g50
g4
g6
g52
g10
g54
g84
g35
g24
g26
tp2046
tp2047
a((g2
g50
g4
g6
g52
g8
g10
g14
g16
g54
g84
g18
g20
g35
g24
g26
tp2048
(g96
tp2049
(g52
g10
g14
g16
g84
g18
g20
g22
g24
tp2050
tp2051
a((g2
g4
g52
g8
g12
g14
g16
g54
g84
g18
g35
g22
g26
tp2052
(g126
g147
tp2053
(g4
g12
g14
g20
g26
tp2054
tp2055
a((g50
g6
g52
g8
g10
g12
g14
g18
g35
g22
g24
g26
tp2056
(g56
tp2057
(g2
g10
g12
g26
tp2058
tp2059
a((g2
g50
g6
g8
g10
g12
g14
g16
g54
g24
tp2060
(g28
tp2061
(g50
g6
g8
g35
g24
tp2062
tp2063
a((g2
g4
g6
g8
g10
g12
g14
g54
g84
g18
g20
g22
g24
g26
tp2064
(g28
tp2065
(g4
g6
g8
g14
g54
g84
g20
g35
g24
tp2066
tp2067
a((g2
g4
g6
g10
g12
g14
g16
g18
g20
g35
g22
g24
g26
tp2068
(g77
tp2069
(g2
g6
g14
g84
g35
tp2070
tp2071
a((g2
g50
g4
g6
g52
g12
g14
g84
g20
g22
g24
g26
tp2072
(g56
tp2073
(g2
g50
g4
g6
g10
g12
g84
g20
g26
tp2074
tp2075
a((g2
g50
g4
g6
g52
g8
g10
g84
g18
g35
g24
g26
tp2076
(g109
g147
tp2077
(g50
g6
g52
g10
g12
g84
g20
tp2078
tp2079
a((g2
g50
g10
g16
g18
g20
g35
g24
g26
tp2080
(g109
g147
tp2081
(g2
g50
g4
g10
g20
tp2082
tp2083
a((g2
g50
g6
g8
g10
g12
g14
g16
g54
g18
g20
g35
g24
g26
tp2084
(g147
tp2085
(g2
g4
g10
g14
g16
g20
g26
tp2086
tp2087
a((g2
g4
g6
g52
g8
g10
g12
g84
g20
g35
g22
g24
g26
tp2088
(g228
g126
g147
tp2089
(g2
g50
g4
g52
g10
g54
g84
g20
g35
tp2090
tp2091
a((g50
g4
g6
g8
g10
g12
g16
g54
g20
g35
g24
g26
tp2092
(g228
tp2093
(g50
g4
g8
g10
g12
g16
g54
g18
g24
tp2094
tp2095
a((g2
g8
g10
g16
g54
g35
g26
tp2096
(g96
g109
g77
tp2097
(g12
g14
g22
tp2098
tp2099
a((g4
g6
g8
g10
g12
g14
g16
g18
g22
tp2100
(g77
g28
g126
tp2101
(g54
g84
g18
g35
g22
g24
tp2102
tp2103
a((g2
g4
g6
g52
g8
g10
g14
g16
g84
g20
g35
g22
g24
tp2104
(g109
g228
g28
tp2105
(g2
g4
g52
g10
g14
g18
g35
tp2106
tp2107
a((g2
g4
g52
g12
g14
g16
g84
g20
g35
g22
tp2108
(g56
tp2109
(g10
g12
g84
g20
tp2110
tp2111
a((g2
g50
g4
g6
g52
g12
g14
g16
g54
g84
g18
g22
g24
tp2112
(g147
tp2113
(g2
g50
g52
g16
g84
g20
tp2114
tp2115
a((g2
g8
g10
g14
g16
g54
g84
g18
g20
g35
g26
tp2116
(g96
tp2117
(g52
g10
g16
g54
g84
g20
g35
g22
tp2118
tp2119
a((g2
g50
g4
g6
g8
g10
g14
g16
g54
g18
g20
g35
g22
g26
tp2120
(g109
g77
g28
tp2121
(g4
g6
g54
g84
g35
g22
g26
tp2122
tp2123
a((g4
g6
g8
g10
g14
g16
g18
g35
g24
tp2124
(g126
tp2125
(g54
tp2126
tp2127
a((g50
g4
g6
g52
g10
g16
g54
g20
g35
g22
g24
tp2128
(g109
g228
g77
g56
tp2129
(g2
g10
g12
g54
g84
g18
g24
tp2130
tp2131
a((g2
g6
g8
g10
g16
g35
g22
g24
g26
tp2132
(g109
tp2133
(g6
g8
g12
g16
g26
tp2134
tp2135
a((g2
g50
g4
g6
g52
g8
g12
g14
g16
g84
g18
g22
g26
tp2136
(g28
g126
g109
tp2137
(g2
g50
g6
g52
g12
g14
g18
g24
tp2138
tp2139
a((g2
g50
g4
g6
g52
g10
g12
g16
g54
g18
g20
g35
g26
tp2140
(g77
g96
tp2141
(g12
g14
g54
g84
g22
tp2142
tp2143
a((g4
g6
g52
g12
g14
g16
g54
g18
g20
g35
g22
g24
g26
tp2144
(g56
g77
g96
g56
tp2145
(g2
g52
g10
g12
g84
g20
g24
tp2146
tp2147
a((g2
g50
g6
g52
g8
g12
g14
g16
g84
g20
g26
tp2148
(g28
g96
g109
g56
tp2149
(g6
g52
g8
g10
g16
tp2150
tp2151
a((g2
g50
g4
g10
g12
g16
g54
g20
g35
g24
g26
tp2152
(g96
tp2153
(g50
g4
g22
g24
tp2154
tp2155
a((g4
g6
g52
g8
g10
g16
g84
g18
g35
g22
g24
g26
tp2156
(g109
tp2157
(g4
g52
g8
g10
g12
g16
g84
g18
g22
g24
g26
tp2158
tp2159
a((g2
g52
g8
g10
g12
g16
g54
g18
g20
g22
g24
g26
tp2160
(g28
tp2161
(g2
g52
g10
g16
g35
tp2162
tp2163
a((g2
g4
g6
g52
g8
g10
g12
g16
g54
g84
g18
g20
g35
g22
g26
tp2164
(g126
tp2165
(g10
g12
g20
g35
g24
tp2166
tp2167
a((g2
g50
g4
g6
g52
g8
g16
g54
g84
g35
tp2168
(g126
tp2169
(g6
g52
g54
g24
tp2170
tp2171
a((g2
g4
g6
g8
g10
g12
g16
g54
g18
g24
tp2172
(g77
g147
tp2173
(g8
g14
g20
tp2174
tp2175
a((g2
g50
g4
g6
g8
g10
g12
g14
g16
g54
g18
g24
g26
tp2176
(g28
g96
tp2177
(g50
g6
g52
g10
g14
g16
g54
g22
g24
tp2178
tp2179
a((g4
g6
g8
g10
g12
g14
g84
g18
g20
g24
tp2180
(g28
tp2181
(g4
g10
g20
g35
tp2182
tp2183
a((g50
g4
g6
g52
g8
g14
g54
g84
g18
g20
g35
g22
g26
tp2184
(g109
g56
tp2185
(g50
g4
g6
g52
g10
g54
g84
g20
tp2186
tp2187
a((g2
g4
g6
g8
g10
g12
g14
g16
g54
g84
g18
g24
g26
tp2188
(g147
g28
tp2189
(g4
g6
g8
g10
g14
g16
g54
g84
g20
g35
g26
tp2190
tp2191
a((g4
g6
g52
g10
g12
g16
g54
g18
g20
g35
g22
g24
tp2192
(g77
tp2193
(g4
g6
g52
g12
g14
g54
g84
g18
g20
g35
tp2194
tp2195
a((g2
g50
g4
g6
g52
g8
g10
g12
g84
g20
g22
g26
tp2196
(g28
g126
tp2197
(g2
g6
g10
g54
g84
g20
g35
g26
tp2198
tp2199
a((g2
g4
g6
g52
g8
g10
g16
g20
g35
g22
g24
tp2200
(g109
g228
g77
tp2201
(g2
g8
g14
g18
g22
tp2202
tp2203
a((g50
g6
g52
g8
g10
g12
g14
g16
g84
g18
g20
g35
g22
g24
tp2204
(g147
tp2205
(g4
g6
g8
g12
g14
g84
g35
g22
tp2206
tp2207
a((g50
g4
g6
g52
g8
g10
g14
g16
g18
g20
g35
g22
g26
tp2208
(g126
g109
g147
tp2209
(g4
g52
g10
g54
tp2210
tp2211
a((g2
g50
g6
g10
g84
g18
g20
g35
g22
g24
g26
tp2212
(g109
tp2213
(g6
g12
g84
g20
g22
g24
g26
tp2214
tp2215
a((g6
g52
g8
g10
g12
g16
g54
g84
g18
g26
tp2216
(g77
g28
tp2217
(g8
g14
g35
tp2218
tp2219
a((g50
g4
g6
g52
g8
g10
g12
g14
g16
g54
g18
g20
g22
g24
g26
tp2220
(g56
tp2221
(g2
g4
g6
g8
tp2222
tp2223
a((g2
g4
g6
g52
g8
g12
g16
g54
g20
g24
tp2224
(g228
tp2225
(g50
g4
g8
g12
g54
g24
tp2226
tp2227
a((g2
g50
g4
g8
g12
g14
g18
g20
g22
g24
g26
tp2228
(g56
g28
tp2229
(g50
g10
g20
g35
tp2230
tp2231
a((g2
g6
g14
g16
g84
g20
g35
g22
g24
g26
tp2232
(g109
g228
g28
tp2233
(g50
g14
g84
g18
g35
tp2234
tp2235
a((g2
g50
g4
g6
g12
g14
g16
g54
g84
g18
g20
g22
g26
tp2236
(g28
tp2237
(g2
g50
g4
g6
g14
g16
g54
g20
g35
g22
g26
tp2238
tp2239
a((g2
g4
g6
g12
g14
g16
g20
g35
g24
g26
tp2240
(g96
g56
g77
tp2241
(g4
g12
g14
g84
g35
tp2242
tp2243
a((g50
g4
g52
g12
g14
g16
g84
g22
g24
tp2244
(g56
g28
tp2245
(g2
g4
g52
g10
g16
g84
g35
g24
tp2246
tp2247
a((g50
g4
g52
g8
g10
g12
g16
g54
g84
g18
g22
g26
tp2248
(g28
g126
g109
g77
g147
tp2249
(g52
g14
g84
g20
g26
tp2250
tp2251
a((g2
g4
g6
g10
g12
g16
g54
g18
g24
g26
tp2252
(g77
g147
g228
tp2253
(g50
g4
g84
g26
tp2254
tp2255
a((g50
g4
g6
g52
g8
g10
g12
g14
g16
g18
g22
g24
g26
tp2256
(g77
g147
g28
tp2257
(g52
g8
g14
g84
g20
g35
g26
tp2258
tp2259
a((g2
g50
g6
g10
g12
g16
g54
g84
g18
g35
g22
g24
g26
tp2260
(g147
tp2261
(g50
g6
g10
g12
g84
g20
tp2262
tp2263
a((g8
g10
g14
g16
g84
g18
g35
g24
tp2264
(g109
tp2265
(g8
g10
g12
g14
g16
g84
g18
tp2266
tp2267
a((g2
g50
g6
g10
g12
g14
g54
g84
g20
g35
g22
g24
g26
tp2268
(g96
tp2269
(g52
g10
g12
g20
g24
tp2270
tp2271
a((g2
g6
g14
g54
g84
g18
g20
g35
g22
g24
g26
tp2272
(g109
g228
tp2273
(g2
g50
g12
g14
g22
tp2274
tp2275
a((g4
g6
g52
g8
g10
g16
g18
g35
g22
g26
tp2276
(g126
tp2277
(g52
g10
g54
g35
g22
g26
tp2278
tp2279
a((g2
g6
g52
g10
g12
g16
g54
g18
g35
g22
g24
g26
tp2280
(g147
tp2281
(g2
g4
g6
g52
g12
g54
g35
g26
tp2282
tp2283
a((g2
g50
g4
g6
g52
g8
g10
g12
g16
g54
g20
g35
g24
tp2284
(g77
tp2285
(g2
g50
g52
g84
g24
tp2286
tp2287
a((g2
g50
g4
g52
g8
g10
g12
g16
g84
g18
g35
g22
g26
tp2288
(g126
tp2289
(g2
g12
g54
g84
g18
g35
g22
g26
tp2290
tp2291
a((g2
g50
g4
g6
g8
g10
g12
g14
g16
g18
g20
g24
g26
tp2292
(g28
g96
tp2293
(g50
g4
g14
g16
g22
g24
tp2294
tp2295
a((g2
g50
g4
g52
g8
g10
g12
g16
g54
g18
g20
g35
g22
g24
g26
tp2296
(g77
tp2297
(g4
g14
g54
g84
g20
g35
g24
g26
tp2298
tp2299
a((g4
g6
g8
g54
g84
g18
g35
g22
g24
g26
tp2300
(g109
g147
g28
tp2301
(g4
g6
g8
g54
g20
g35
g22
tp2302
tp2303
a((g2
g4
g6
g52
g8
g10
g12
g14
g16
g84
g18
tp2304
(g28
tp2305
(g6
g52
g14
g16
g84
g35
tp2306
tp2307
a((g2
g50
g4
g6
g18
g20
g35
g22
tp2308
(g109
tp2309
(g2
g50
g6
g12
g20
tp2310
tp2311
a((g50
g4
g6
g14
g16
g18
g20
g35
g22
g26
tp2312
(g109
g56
g28
g96
g109
g77
tp2313
(g12
g84
g18
g20
g22
tp2314
tp2315
a((g2
g50
g4
g6
g52
g8
g12
g14
g16
g18
g20
g35
g22
g24
g26
tp2316
(g56
g77
tp2317
(g6
g8
g84
g18
g35
g26
tp2318
tp2319
a((g4
g6
g52
g10
g14
g54
g84
g20
g35
g22
g24
g26
tp2320
(g109
g228
tp2321
(g50
g54
g84
tp2322
tp2323
a((g2
g50
g4
g52
g8
g10
g12
g14
g16
g54
g84
g18
g22
g24
g26
tp2324
(g147
tp2325
(g50
g4
g52
g16
g54
g84
g20
g22
g26
tp2326
tp2327
a((g2
g50
g52
g8
g10
g12
g16
g54
g84
g18
g20
g35
g22
g24
tp2328
(g77
tp2329
(g2
g52
g14
g35
g22
g24
tp2330
tp2331
a((g2
g50
g4
g6
g8
g12
g14
g16
g54
g84
g18
g20
g35
g24
g26
tp2332
(g96
tp2333
(g6
g52
g8
g18
g35
tp2334
tp2335
a((g2
g4
g6
g8
g10
g14
g35
g24
g26
tp2336
(g96
tp2337
(g52
g8
g10
g14
tp2338
tp2339
a((g2
g50
g4
g6
g8
g12
g16
g18
g35
g22
g26
tp2340
(g126
g147
tp2341
(g16
g20
g35
tp2342
tp2343
a((g2
g6
g8
g10
g12
g14
g16
g18
g35
g22
g24
g26
tp2344
(g147
g126
tp2345
(g10
g12
g14
g54
g20
g22
g26
tp2346
tp2347
a((g2
g50
g4
g52
g8
g10
g12
g14
g18
g22
tp2348
(g28
g126
g109
g147
g28
tp2349
(g50
g4
g20
g35
g22
tp2350
tp2351
a((g2
g50
g4
g10
g12
g14
g54
g18
g20
g22
g24
g26
tp2352
(g28
g96
g109
g56
tp2353
(g2
g50
g4
g52
g10
g12
g54
g20
g24
tp2354
tp2355
a((g4
g6
g8
g10
g14
g16
g18
g20
g35
g22
g24
tp2356
(g109
g228
tp2357
(g50
g10
g12
g14
g16
g18
g22
tp2358
tp2359
a((g2
g4
g6
g52
g8
g10
g16
g18
g20
g35
g22
g24
tp2360
(g109
g77
tp2361
(g2
g4
g6
g8
g12
g14
g84
tp2362
tp2363
a((g50
g4
g52
g8
g10
g14
g16
g18
g35
g26
tp2364
(g109
g77
tp2365
(g50
g4
g52
g84
g26
tp2366
tp2367
a((g2
g50
g4
g6
g8
g10
g12
g14
g16
g54
g84
g26
tp2368
(g28
g96
tp2369
(g6
g8
g10
g16
g22
tp2370
tp2371
a((g4
g6
g12
g14
g16
g54
g84
g18
g35
g22
g24
g26
tp2372
(g147
tp2373
(g4
g16
g20
tp2374
tp2375
a((g2
g4
g6
g8
g10
g14
g16
g84
g18
g35
tp2376
(g126
g109
g147
tp2377
(g4
g6
g14
g54
g20
tp2378
tp2379
a((g50
g4
g52
g8
g10
g12
g14
g16
g54
g84
g18
g35
g26
tp2380
(g126
tp2381
(g50
g52
g16
g54
g18
g24
tp2382
tp2383
a((g2
g50
g4
g6
g10
g12
g14
g16
g54
g84
g18
g20
g22
g26
tp2384
(g28
tp2385
(g50
g10
g16
g54
g35
tp2386
tp2387
a((g2
g50
g10
g12
g14
g16
g54
g18
g22
g24
g26
tp2388
(g77
g56
g28
tp2389
(g50
g10
g54
g84
g35
g24
g26
tp2390
tp2391
a((g2
g50
g4
g8
g10
g14
g84
g20
g35
g22
g24
g26
tp2392
(g109
tp2393
(g50
g8
g12
g14
g84
g24
tp2394
tp2395
a((g4
g6
g8
g10
g12
g14
g16
g54
g18
g20
g22
g26
tp2396
(g56
g28
g96
tp2397
(g6
g52
g8
g10
g16
g54
g18
g35
g22
tp2398
tp2399
a((g2
g4
g6
g52
g10
g12
g14
g54
g84
g20
g22
g24
tp2400
(g28
tp2401
(g2
g6
g10
g14
g84
g20
g35
g22
g24
tp2402
tp2403
a((g2
g50
g6
g8
g12
g14
g54
g84
g18
g20
g35
g24
g26
tp2404
(g96
tp2405
(g50
g14
g84
g22
tp2406
tp2407
a((g50
g4
g52
g12
g14
g16
g54
g84
g18
g35
g22
g24
tp2408
(g147
tp2409
(g50
g12
g14
g16
g84
g20
g35
g22
tp2410
tp2411
a((g2
g4
g6
g8
g10
g14
g16
g18
g20
g35
g22
g26
tp2412
(g109
g228
g28
tp2413
(g2
g50
g14
g35
tp2414
tp2415
a((g50
g4
g52
g10
g12
g16
g84
g18
g20
g35
g22
g24
tp2416
(g77
g56
tp2417
(g2
g50
g4
g52
g10
g12
g84
g35
g24
tp2418
tp2419
a((g52
g12
g14
g54
g84
g20
g35
g22
g26
tp2420
(g56
tp2421
(g2
g54
g84
g20
g35
tp2422
tp2423
a((g50
g4
g8
g14
g84
g18
g35
g24
tp2424
(g126
tp2425
(g54
g18
g35
g24
tp2426
tp2427
a((g50
g10
g12
g14
g16
g54
g84
g18
g22
g24
g26
tp2428
(g28
tp2429
(g50
g10
g14
g18
g35
tp2430
tp2431
a((g2
g4
g6
g12
g14
g16
g54
g84
g26
tp2432
(g28
g96
tp2433
(g52
g14
g54
tp2434
tp2435
a((g50
g6
g52
g10
g12
g14
g54
g84
g20
g26
tp2436
(g28
tp2437
(g50
g52
g54
g84
g20
g35
tp2438
tp2439
a((g6
g10
g14
g16
g84
g18
g20
g35
g22
g24
g26
tp2440
(g109
g147
g228
g56
g28
g96
g109
tp2441
(g50
g4
g52
g12
g18
g22
tp2442
tp2443
a((g50
g4
g52
g8
g10
g12
g16
g54
g18
g20
g22
g24
g26
tp2444
(g28
tp2445
(g50
g4
g52
g16
g54
g35
g22
tp2446
tp2447
a((g6
g52
g8
g10
g12
g14
g16
g54
g84
g20
g35
g24
g26
tp2448
(g228
g147
tp2449
(g50
g52
g54
g84
g20
tp2450
tp2451
a((g2
g4
g6
g52
g8
g10
g12
g16
g54
g84
g20
g35
g22
g26
tp2452
(g77
tp2453
(g2
g4
g6
g8
g12
g14
g84
g35
g22
tp2454
tp2455
a((g2
g50
g4
g6
g52
g8
g10
g12
g16
g84
g35
g24
g26
tp2456
(g77
g96
tp2457
(g50
g6
g14
g84
g35
g22
tp2458
tp2459
a((g2
g4
g8
g10
g12
g14
g16
g84
g18
g22
g26
tp2460
(g28
g126
g109
g147
tp2461
(g4
g10
g16
g84
g20
g26
tp2462
tp2463
a((g2
g50
g4
g6
g8
g10
g12
g14
g16
g54
g35
g22
g26
tp2464
(g126
tp2465
(g10
g12
g16
g54
g24
tp2466
tp2467
a((g2
g50
g4
g6
g14
g16
g54
g84
g35
g22
g24
g26
tp2468
(g109
g56
g28
g96
g109
tp2469
(g4
g52
g10
g12
g16
g22
tp2470
tp2471
a((g2
g4
g52
g8
g12
g14
g54
g18
g22
g24
g26
tp2472
(g56
g28
g96
tp2473
(g4
g52
g10
g22
g24
tp2474
tp2475
a((g50
g4
g6
g8
g10
g12
g14
g16
g54
g84
g20
g22
g24
g26
tp2476
(g228
g56
g28
g96
g109
tp2477
(g50
g4
g52
g12
g16
g18
g22
tp2478
tp2479
a((g50
g4
g52
g8
g10
g12
g14
g54
g84
g18
g35
g24
g26
tp2480
(g147
tp2481
(g50
g4
g52
g10
g12
g54
g84
g20
g35
tp2482
tp2483
a((g2
g50
g52
g8
g12
g14
g16
g18
g20
g35
g24
g26
tp2484
(g147
tp2485
(g50
g4
g8
g14
g20
g35
tp2486
tp2487
a((g2
g50
g6
g52
g10
g12
g14
g16
g54
g20
g35
g22
g24
g26
tp2488
(g228
g147
tp2489
(g50
g4
g10
g12
g14
g54
g20
g35
tp2490
tp2491
a((g2
g4
g6
g8
g12
g14
g16
g54
g84
g18
g20
g22
g24
g26
tp2492
(g56
g28
g96
tp2493
(g4
g6
g52
g8
g10
g16
g54
g84
g18
g24
tp2494
tp2495
a((g2
g50
g4
g6
g10
g16
g54
g84
g18
g20
g35
g26
tp2496
(g96
tp2497
(g50
g4
g6
g52
g16
g54
g84
g18
g35
tp2498
tp2499
a((g2
g6
g52
g8
g10
g14
g54
g84
g20
g35
tp2500
(g109
g228
tp2501
(g2
g12
g18
tp2502
tp2503
a((g50
g4
g52
g8
g12
g14
g54
g84
g22
g24
g26
tp2504
(g56
g28
g96
tp2505
(g50
g4
g10
g54
g22
g24
tp2506
tp2507
a((g2
g50
g6
g8
g10
g12
g14
g16
g84
g18
g20
g35
g22
g24
g26
tp2508
(g147
g126
tp2509
(g2
g50
g6
g10
g12
g14
g54
g20
g24
g26
tp2510
tp2511
a((g50
g4
g52
g10
g12
g16
g54
g84
g18
g20
g35
g22
g24
g26
tp2512
(g77
g56
tp2513
(g2
g4
g54
g84
g18
g20
g24
tp2514
tp2515
a((g2
g4
g6
g8
g10
g12
g14
g16
g54
g18
g20
g24
tp2516
(g77
tp2517
(g2
g8
g14
g84
g18
g24
tp2518
tp2519
a((g2
g4
g6
g8
g10
g12
g14
g16
g54
g20
g22
g24
g26
tp2520
(g28
tp2521
(g8
g10
g14
g16
g35
g22
g26
tp2522
tp2523
a((g2
g6
g52
g10
g12
g16
g54
g18
g20
g22
g24
g26
tp2524
(g228
g28
tp2525
(g2
g50
g10
g16
g35
g22
g24
tp2526
tp2527
a((g4
g52
g8
g10
g12
g14
g16
g54
g84
g18
g22
g26
tp2528
(g28
g126
g109
g147
tp2529
(g52
g54
g84
g20
g22
tp2530
tp2531
a((g2
g6
g52
g8
g10
g12
g16
g54
g18
g20
g35
g22
g24
g26
tp2532
(g228
g77
tp2533
(g50
g52
g14
g54
g18
g35
g22
tp2534
tp2535
a((g2
g50
g4
g6
g52
g8
g10
g12
g14
g18
g20
g35
g24
g26
tp2536
(g96
tp2537
(g50
g4
g12
g35
g22
tp2538
tp2539
a((g6
g52
g8
g14
g54
g84
g18
g35
g22
g24
g26
tp2540
(g109
g56
g28
g96
tp2541
(g6
g52
g8
g10
g18
g22
g24
tp2542
tp2543
a((g6
g52
g84
g18
g35
g24
g26
tp2544
(g109
g147
tp2545
(g4
g84
g26
tp2546
tp2547
a((g2
g4
g6
g10
g12
g16
g54
g84
g18
g20
g35
g24
g26
tp2548
(g77
g96
tp2549
(g52
g14
g18
g35
g24
tp2550
tp2551
a((g50
g12
g16
g54
g84
g18
g35
g22
g24
tp2552
(g147
tp2553
(g50
g4
g54
g20
tp2554
tp2555
a((g4
g8
g10
g12
g14
g16
g54
g18
g20
g22
g24
g26
tp2556
(g56
g28
g96
g109
g77
g56
tp2557
(g2
g4
g52
g8
g10
g84
g20
tp2558
tp2559
a((g2
g6
g10
g12
g16
g54
g84
g18
g22
g24
g26
tp2560
(g147
g228
tp2561
(g50
g54
g84
g18
g26
tp2562
tp2563
a((g50
g4
g52
g8
g10
g12
g14
g16
g54
g18
g35
g24
tp2564
(g147
tp2565
(g4
g8
g12
g16
g20
tp2566
tp2567
a((g2
g50
g6
g52
g8
g16
g84
g18
g20
g35
g22
g26
tp2568
(g109
tp2569
(g52
g8
g12
g26
tp2570
tp2571
a((g2
g50
g4
g6
g52
g8
g10
g16
g18
g35
g22
g24
g26
tp2572
(g109
g77
g147
g56
g28
g126
g96
tp2573
(g50
g10
g84
g20
g22
g24
tp2574
tp2575
a((g2
g50
g4
g6
g52
g8
g10
g14
g16
g54
g35
g26
tp2576
(g126
g96
tp2577
(g50
g6
g52
g10
g16
g54
g22
g24
tp2578
tp2579
a((g2
g50
g4
g6
g52
g8
g10
g14
g16
g35
g22
g24
g26
tp2580
(g109
g77
g56
g28
g96
tp2581
(g4
g6
g52
g8
g10
g84
g22
g24
tp2582
tp2583
a((g50
g4
g6
g52
g8
g10
g16
g18
g20
g35
g22
g26
tp2584
(g126
tp2585
(g50
g18
g20
g35
g22
g24
g26
tp2586
tp2587
a((g50
g4
g12
g14
g54
g18
g35
g22
tp2588
(g56
tp2589
(g2
g50
g10
g18
tp2590
tp2591
a((g50
g4
g6
g52
g8
g10
g14
g16
g84
g18
g20
g35
g22
tp2592
(g109
g56
tp2593
(g2
g52
g8
g12
g16
g84
g18
tp2594
tp2595
a((g4
g6
g52
g8
g10
g12
g14
g16
g18
g22
g24
g26
tp2596
(g56
g28
tp2597
(g2
g8
g16
g35
g24
tp2598
tp2599
a((g4
g6
g52
g8
g12
g14
g54
g84
g20
g35
g22
g24
g26
tp2600
(g56
tp2601
(g2
g6
g52
g8
g54
g84
g35
g26
tp2602
tp2603
a((g50
g6
g52
g8
g10
g12
g14
g16
g84
g18
g20
g22
g24
g26
tp2604
(g147
g28
g126
g109
g228
g147
tp2605
(g4
g52
g10
g16
g54
tp2606
tp2607
a((g2
g50
g4
g6
g8
g10
g16
g54
g18
g20
g35
g26
tp2608
(g96
g109
g77
g56
g28
tp2609
(g2
g50
g4
g52
g10
g54
g20
g35
tp2610
tp2611
a((g2
g50
g8
g12
g14
g16
g54
g18
g20
g24
g26
tp2612
(g28
g96
g109
g56
g77
tp2613
(g2
g50
g8
g12
g14
g84
tp2614
tp2615
a((g2
g50
g4
g6
g8
g10
g16
g20
g35
g26
tp2616
(g126
g96
g109
g228
g77
tp2617
(g14
g54
g18
g22
tp2618
tp2619
a((g2
g6
g8
g16
g54
g18
g20
g35
g24
g26
tp2620
(g96
g109
g147
g228
g28
tp2621
(g4
g52
g54
g18
g35
g22
tp2622
tp2623
a((g50
g4
g6
g52
g8
g54
g84
g18
g35
g24
g26
tp2624
(g109
tp2625
(g4
g12
g54
g84
g18
g24
tp2626
tp2627
a((g2
g50
g6
g12
g18
g20
g35
g24
g26
tp2628
(g96
tp2629
(g50
g52
g22
g24
tp2630
tp2631
a((g2
g50
g4
g6
g52
g10
g14
g16
g54
g84
g20
g35
g24
g26
tp2632
(g109
g228
tp2633
(g52
g10
g12
g14
g18
g26
tp2634
tp2635
a((g50
g4
g6
g52
g8
g10
g12
g14
g84
g20
g35
g22
tp2636
(g126
g56
tp2637
(g2
g6
g12
g54
g84
g20
g35
tp2638
tp2639
a((g2
g52
g8
g12
g16
g54
g84
g24
g26
tp2640
(g28
g96
tp2641
(g52
g54
g22
g24
tp2642
tp2643
a((g4
g6
g8
g10
g12
g14
g16
g54
g18
g20
g35
g24
g26
tp2644
(g228
tp2645
(g50
g12
g26
tp2646
tp2647
a((g50
g52
g8
g10
g12
g14
g16
g20
g26
tp2648
(g28
tp2649
(g8
g14
g35
g26
tp2650
tp2651
a((g6
g52
g8
g10
g12
g16
g54
g18
g20
g22
g24
tp2652
(g228
g77
tp2653
(g50
g52
g8
g14
g54
g84
tp2654
tp2655
a((g2
g50
g4
g52
g8
g12
g14
g16
g20
g22
g24
g26
tp2656
(g28
tp2657
(g2
g8
g16
g35
g24
g26
tp2658
tp2659
a((g2
g50
g6
g52
g12
g14
g16
g54
g84
g18
g20
g35
g22
g26
tp2660
(g56
tp2661
(g6
g10
g12
g16
g84
g18
g35
tp2662
tp2663
a((g2
g4
g6
g52
g8
g10
g12
g16
g54
g18
g20
g26
tp2664
(g228
g77
tp2665
(g2
g50
g4
g8
g14
g54
g84
g18
g26
tp2666
tp2667
a((g2
g50
g6
g8
g12
g14
g16
g84
g20
g35
g24
g26
tp2668
(g228
tp2669
(g14
g18
g35
g26
tp2670
tp2671
a((g4
g6
g8
g12
g16
g54
g18
g20
g35
g22
g24
g26
tp2672
(g228
tp2673
(g50
g22
g26
tp2674
tp2675
a((g2
g4
g6
g52
g10
g12
g14
g54
g84
g20
g35
tp2676
(g228
tp2677
(g2
g50
g52
g10
g14
g54
g84
g18
tp2678
tp2679
a((g4
g6
g8
g14
g16
g54
g84
g35
g22
g26
tp2680
(g109
g56
g28
g96
tp2681
(g4
g6
g52
g16
g54
tp2682
tp2683
a((g2
g6
g52
g10
g12
g14
g16
g54
g84
g20
g35
g24
g26
tp2684
(g228
g147
tp2685
(g50
g4
g12
g84
tp2686
tp2687
a((g2
g4
g6
g12
g14
g54
g18
g20
g22
tp2688
(g28
tp2689
(g2
g4
g18
g35
tp2690
tp2691
a((g4
g6
g52
g8
g12
g14
g16
g18
g20
g22
g24
g26
tp2692
(g56
tp2693
(g6
g52
g8
g10
g16
g18
g24
g26
tp2694
tp2695
a((g2
g50
g6
g12
g14
g16
g54
g84
g18
g20
g22
g24
g26
tp2696
(g147
g56
g28
g96
g109
tp2697
(g50
g4
g52
g10
g12
g16
g22
tp2698
tp2699
a((g50
g4
g52
g8
g10
g12
g16
g54
g84
g22
tp2700
(g77
g56
tp2701
(g2
g4
g52
g84
tp2702
tp2703
a((g2
g6
g8
g14
g16
g54
g84
g20
g35
g22
g24
tp2704
(g109
g228
g147
g28
tp2705
(g4
g16
g54
g35
g22
tp2706
tp2707
a((g2
g50
g6
g52
g12
g14
g16
g54
g18
g20
g35
g22
g24
tp2708
(g147
g56
g77
tp2709
(g4
g6
g52
g14
g84
g35
tp2710
tp2711
a((g2
g50
g6
g52
g8
g12
g14
g16
g84
g18
g20
g24
g26
tp2712
(g28
tp2713
(g2
g6
g14
g20
g35
tp2714
tp2715
a((g2
g6
g52
g8
g10
g12
g20
g22
g24
tp2716
(g228
tp2717
(g2
g50
g52
g18
g24
tp2718
tp2719
a((g2
g4
g6
g12
g14
g84
g18
g20
g35
g22
g24
g26
tp2720
(g56
tp2721
(g2
g4
g6
g10
g12
g84
g20
g24
tp2722
tp2723
a((g2
g50
g6
g8
g10
g12
g14
g16
g54
g18
g20
g24
g26
tp2724
(g28
g96
g109
g77
g56
tp2725
(g2
g10
g54
g84
g20
g24
tp2726
tp2727
a((g2
g50
g52
g10
g14
g16
g54
g18
g20
g35
g24
g26
tp2728
(g109
tp2729
(g50
g52
g12
g54
g18
g26
tp2730
tp2731
a((g50
g52
g8
g10
g12
g16
g54
g18
g35
g22
g24
tp2732
(g77
g147
g56
tp2733
(g2
g8
g84
g20
tp2734
tp2735
a((g50
g4
g6
g52
g8
g14
g84
g18
g35
g22
g24
g26
tp2736
(g109
g147
g56
g28
tp2737
(g2
g4
g6
g52
g8
g10
g84
g20
g35
tp2738
tp2739
a((g2
g50
g4
g6
g8
g10
g12
g16
g18
g20
g35
g22
g26
tp2740
(g77
g126
g56
tp2741
(g10
g54
g84
g18
g20
g35
g26
tp2742
tp2743
a((g2
g50
g4
g6
g8
g10
g14
g16
g54
g84
g18
g20
g35
g26
tp2744
(g96
g109
tp2745
(g4
g6
g52
g12
g14
g16
g54
g18
g22
tp2746
tp2747
a((g2
g4
g10
g12
g16
g54
g84
g18
g22
g24
g26
tp2748
(g28
g96
tp2749
(g52
g10
g16
g54
tp2750
tp2751
a((g2
g50
g6
g52
g12
g14
g16
g54
g18
g35
g22
g24
g26
tp2752
(g147
g56
g77
tp2753
(g2
g6
g52
g54
g84
g20
g35
g26
tp2754
tp2755
a((g2
g50
g4
g8
g10
g16
g54
g20
g35
g22
g24
g26
tp2756
(g109
g77
g28
tp2757
(g50
g8
g14
g54
g84
g20
g35
g22
tp2758
tp2759
a((g2
g6
g8
g10
g16
g84
g20
g35
g22
g24
tp2760
(g109
g228
g147
g28
g126
tp2761
(g2
g10
g54
g35
tp2762
tp2763
a((g50
g12
g14
g16
g18
g20
g26
tp2764
(g28
tp2765
(g50
g14
g18
g20
g35
tp2766
tp2767
a((g2
g50
g52
g8
g12
g14
g16
g54
g18
g35
g22
g24
g26
tp2768
(g147
tp2769
(g2
g14
g16
g54
g20
g26
tp2770
tp2771
a((g2
g50
g4
g8
g10
g16
g84
g18
g20
g35
tp2772
(g126
g109
tp2773
(g12
g16
g24
tp2774
tp2775
a((g4
g6
g52
g8
g10
g12
g14
g84
g18
g24
g26
tp2776
(g28
tp2777
(g4
g14
g18
g35
g26
tp2778
tp2779
a((g2
g50
g4
g6
g52
g8
g10
g12
g54
g84
g18
g22
g24
g26
tp2780
(g28
tp2781
(g2
g50
g18
g35
g22
g24
tp2782
tp2783
a((g2
g4
g6
g52
g8
g10
g54
g20
g35
g22
g24
g26
tp2784
(g109
tp2785
(g4
g6
g52
g10
g12
g20
g24
g26
tp2786
tp2787
a((g2
g50
g6
g52
g8
g10
g12
g16
g54
g18
g35
g22
g24
tp2788
(g77
g147
g126
tp2789
(g50
g84
g20
g35
g24
tp2790
tp2791
a((g2
g50
g4
g8
g10
g12
g14
g84
g18
g20
g22
g26
tp2792
(g28
tp2793
(g2
g50
g10
g84
g18
g35
g22
g26
tp2794
tp2795
a((g50
g4
g8
g14
g54
g84
g20
g35
g22
tp2796
(g126
tp2797
(g50
g54
g84
g35
g22
g24
tp2798
tp2799
a((g2
g50
g4
g52
g14
g16
g84
g18
g35
g22
g26
tp2800
(g109
g56
tp2801
(g50
g4
g10
g12
g16
g84
g26
tp2802
tp2803
a((g2
g6
g8
g10
g12
g14
g54
g84
g18
g35
g22
g24
tp2804
(g147
g228
tp2805
(g2
g50
g4
g8
g10
g12
g14
g54
g35
g22
tp2806
tp2807
a((g2
g50
g8
g10
g12
g16
g54
g18
g22
g24
g26
tp2808
(g77
g147
g56
tp2809
(g4
g10
g54
g84
g20
tp2810
tp2811
a((g2
g50
g4
g6
g8
g10
g12
g16
g18
g20
g26
tp2812
(g28
g126
tp2813
(g50
g54
g18
g20
g35
g26
tp2814
tp2815
a((g2
g52
g8
g12
g14
g16
g54
g84
g18
g20
g22
g24
g26
tp2816
(g56
tp2817
(g52
g8
g10
g16
tp2818
tp2819
a((g2
g4
g6
g8
g10
g12
g16
g54
g84
g20
g22
g24
tp2820
(g228
g77
g28
tp2821
(g14
g18
g35
g24
tp2822
tp2823
a((g2
g6
g52
g8
g10
g12
g84
g22
g24
tp2824
(g28
tp2825
(g52
g10
g84
g35
tp2826
tp2827
a((g50
g6
g8
g12
g54
g84
g18
g20
g22
g24
tp2828
(g28
tp2829
(g50
g6
g8
g18
g35
g22
g24
tp2830
tp2831
a((g6
g52
g10
g12
g16
g54
g84
g18
g20
g35
g22
g24
tp2832
(g228
tp2833
(g50
g52
g12
g84
tp2834
tp2835
a((g50
g4
g52
g8
g12
g14
g16
g54
g18
g35
g22
g24
tp2836
(g56
tp2837
(g2
g50
g4
g8
g10
g12
g16
g54
g18
tp2838
tp2839
a((g4
g8
g10
g14
g16
g18
g35
g22
g24
g26
tp2840
(g109
g56
g28
g96
g109
g77
g56
tp2841
(g2
g4
g52
g8
g10
g24
tp2842
tp2843
a((g50
g4
g6
g52
g10
g54
g18
g35
g22
g24
g26
tp2844
(g109
g147
g28
tp2845
(g4
g6
g10
g54
g20
g35
g22
g26
tp2846
tp2847
a((g2
g6
g8
g16
g54
g84
g18
g35
g24
g26
tp2848
(g109
g147
tp2849
(g4
g6
g8
g16
g26
tp2850
tp2851
a((g2
g50
g6
g12
g14
g54
g18
g35
g24
g26
tp2852
(g96
g147
tp2853
(g50
g4
g52
g12
g14
g54
tp2854
tp2855
a((g2
g50
g6
g52
g8
g10
g12
g14
g16
g84
g20
g24
tp2856
(g228
g147
g28
g126
g109
tp2857
(g12
g54
g84
g20
g24
tp2858
tp2859
a((g2
g4
g6
g10
g16
g54
g84
g18
g20
g35
g24
g26
tp2860
(g96
tp2861
(g4
g10
g20
g35
g22
tp2862
tp2863
a((g2
g50
g6
g52
g8
g14
g16
g84
g18
g35
g24
g26
tp2864
(g109
g147
tp2865
(g4
g52
g8
g12
g16
g84
g20
tp2866
tp2867
a((g2
g52
g10
g12
g14
g20
g35
g26
tp2868
(g96
tp2869
(g14
g35
g22
tp2870
tp2871
a((g2
g50
g4
g6
g52
g8
g10
g12
g84
g18
g24
g26
tp2872
(g28
tp2873
(g2
g50
g8
g10
g84
g18
g35
g24
tp2874
tp2875
a((g2
g50
g6
g8
g10
g12
g14
g16
g54
g84
g20
g22
g26
tp2876
(g28
tp2877
(g2
g6
g8
g10
g14
g35
g26
tp2878
tp2879
a((g2
g6
g8
g10
g12
g14
g16
g84
g18
g20
g24
tp2880
(g147
g28
tp2881
(g2
g4
g6
g8
g14
g16
g35
tp2882
tp2883
a((g50
g4
g6
g52
g8
g10
g12
g14
g84
g20
g35
g22
g24
g26
tp2884
(g228
g126
tp2885
(g50
g10
g14
g54
g84
g18
g26
tp2886
tp2887
a((g50
g4
g52
g8
g10
g16
g54
g84
g18
g20
g35
g22
g24
g26
tp2888
(g109
g77
g56
g28
tp2889
(g2
g52
g8
g10
g84
g18
g35
g24
tp2890
tp2891
a((g2
g50
g4
g52
g8
g12
g14
g16
g84
g18
g35
g22
g24
g26
tp2892
(g56
tp2893
(g50
g52
g10
g24
g26
tp2894
tp2895
a((g2
g6
g52
g8
g10
g14
g16
g84
g18
g20
g35
g22
g24
g26
tp2896
(g109
g147
g28
g126
g109
g228
g147
tp2897
(g4
g52
g54
g22
g26
tp2898
tp2899
a((g2
g4
g6
g8
g14
g16
g18
g20
g35
g26
tp2900
(g126
tp2901
(g14
g16
g54
g18
g20
g35
g24
g26
tp2902
tp2903
a((g50
g6
g52
g8
g10
g12
g54
g84
g20
g22
g24
tp2904
(g228
tp2905
(g50
g8
g84
g18
g22
g24
tp2906
tp2907
a((g2
g50
g4
g8
g14
g16
g54
g84
g18
g35
g22
g24
g26
tp2908
(g109
tp2909
(g50
g4
g12
g14
g54
g26
tp2910
tp2911
a((g6
g10
g16
g54
g18
g20
g35
g22
g24
g26
tp2912
(g109
g228
g77
tp2913
(g50
g12
g54
g84
g18
g22
g26
tp2914
tp2915
a((g2
g50
g52
g8
g10
g12
g14
g16
g54
g18
g20
g35
g24
tp2916
(g77
tp2917
(g2
g54
g84
g18
g35
tp2918
tp2919
a((g2
g50
g6
g8
g14
g16
g54
g18
g35
g24
g26
tp2920
(g96
tp2921
(g50
g52
g14
g16
g22
tp2922
tp2923
a((g2
g6
g52
g8
g12
g14
g54
g84
g18
g20
g35
g22
g24
g26
tp2924
(g228
g147
tp2925
(g2
g50
g4
g12
g20
tp2926
tp2927
a((g2
g50
g52
g8
g14
g84
g18
g20
g35
g22
g24
g26
tp2928
(g109
g56
tp2929
(g2
g50
g8
g10
g84
g20
g26
tp2930
tp2931
a((g2
g4
g6
g52
g8
g10
g12
g14
g16
g54
g18
g20
g22
g26
tp2932
(g77
g28
g126
tp2933
(g14
g54
g84
g18
g22
g24
tp2934
tp2935
a((g50
g4
g12
g14
g16
g84
g18
g20
g35
g22
g24
tp2936
(g56
tp2937
(g50
g4
g10
g12
g16
g84
g20
g35
tp2938
tp2939
a((g8
g12
g14
g54
g84
g20
g35
g22
g24
g26
tp2940
(g56
g96
tp2941
(g52
g54
g84
g20
g35
g22
g24
tp2942
tp2943
a((g2
g50
g4
g6
g52
g8
g14
g84
g18
g35
g22
g24
g26
tp2944
(g109
g147
tp2945
(g2
g50
g4
g6
g84
g20
tp2946
tp2947
a((g2
g4
g6
g52
g8
g10
g12
g16
g84
g35
g22
g26
tp2948
(g77
tp2949
(g6
g14
g35
g22
g26
tp2950
tp2951
a((g2
g4
g6
g8
g14
g16
g84
g18
g20
g35
g22
g24
g26
tp2952
(g126
g109
tp2953
(g2
g12
g54
g84
g20
g22
g24
g26
tp2954
tp2955
a((g2
g50
g4
g6
g52
g8
g14
g18
g20
g35
g22
g26
tp2956
(g109
g56
tp2957
(g50
g8
g10
g12
g18
g26
tp2958
tp2959
a((g2
g4
g6
g8
g10
g12
g14
g16
g18
g20
g35
g22
g24
tp2960
(g77
tp2961
(g2
g6
g14
g84
g18
g35
g24
tp2962
tp2963
a((g50
g4
g6
g52
g12
g14
g16
g54
g84
g18
g20
g22
g26
tp2964
(g56
tp2965
(g50
g4
g10
g18
tp2966
tp2967
a((g50
g6
g52
g8
g10
g12
g14
g16
g54
g84
g18
g20
g24
tp2968
(g28
tp2969
(g52
g8
g84
g18
g35
tp2970
tp2971
a((g2
g50
g4
g6
g10
g12
g14
g54
g84
g18
g20
g22
g26
tp2972
(g28
tp2973
(g2
g6
g10
g14
g84
g20
g35
g26
tp2974
tp2975
a((g4
g8
g10
g12
g14
g16
g54
g84
g18
g35
g22
g24
g26
tp2976
(g56
g96
tp2977
(g52
g8
g12
g16
g18
g35
g22
g24
tp2978
tp2979
a((g10
g16
g54
g84
g18
g20
g35
g22
g24
g26
tp2980
(g109
g77
g56
tp2981
(g2
g10
g12
g54
tp2982
tp2983
a((g2
g50
g4
g52
g8
g12
g14
g20
g35
g24
g26
tp2984
(g96
g56
tp2985
(g50
g52
g10
g35
g24
tp2986
tp2987
a((g2
g50
g4
g6
g52
g8
g14
g54
g84
g18
g20
g35
g22
tp2988
(g109
tp2989
(g4
g52
g8
g12
g54
g18
tp2990
tp2991
a((g2
g50
g4
g6
g52
g8
g10
g14
g16
g54
g20
g35
g22
g24
tp2992
(g109
g228
g77
tp2993
(g4
g52
g84
g18
g24
tp2994
tp2995
a((g50
g4
g8
g10
g12
g14
g16
g54
g84
g18
g20
g35
tp2996
(g126
tp2997
(g50
g10
g12
g84
g35
g24
tp2998
tp2999
a((g2
g50
g4
g6
g52
g8
g10
g12
g14
g16
g84
g20
g22
g26
tp3000
(g28
g126
tp3001
(g6
g52
g10
g14
g16
g20
g35
g24
g26
tp3002
tp3003
a((g2
g50
g4
g6
g52
g8
g10
g12
g16
g84
g20
g22
g24
g26
tp3004
(g28
tp3005
(g4
g52
g8
g35
g24
tp3006
tp3007
a((g50
g4
g6
g52
g10
g12
g14
g16
g54
g18
g20
tp3008
(g28
tp3009
(g6
g52
g10
g14
g35
tp3010
tp3011
a((g2
g50
g6
g52
g8
g12
g14
g16
g54
g84
g18
g20
g35
g22
g24
tp3012
(g147
tp3013
(g2
g50
g4
g6
g52
g8
g12
g35
tp3014
tp3015
a((g4
g52
g14
g16
g54
g18
g20
g35
g22
g24
g26
tp3016
(g109
g56
g77
g28
g96
tp3017
(g54
g84
g18
g35
g22
tp3018
tp3019
a((g2
g4
g6
g8
g10
g12
g14
g16
g54
g18
g20
g24
g26
tp3020
(g28
tp3021
(g2
g4
g8
g16
g18
g20
g35
g24
tp3022
tp3023
a((g2
g4
g6
g8
g14
g16
g54
g84
g18
g20
g35
g24
g26
tp3024
(g96
tp3025
(g6
g52
g18
g20
tp3026
tp3027
a((g2
g52
g8
g12
g14
g16
g54
g84
g18
g20
g35
g22
g24
g26
tp3028
(g56
tp3029
(g52
g8
g10
g16
g54
g20
g35
tp3030
tp3031
a((g4
g6
g52
g8
g10
g12
g16
g54
g20
g24
tp3032
(g77
g28
tp3033
(g4
g6
g52
g8
g84
g20
g35
g24
tp3034
tp3035
a((g2
g50
g4
g8
g10
g16
g18
g20
g35
g22
g26
tp3036
(g126
g96
g109
g77
tp3037
(g50
g52
g54
g84
g18
g22
tp3038
tp3039
a((g2
g4
g6
g8
g10
g12
g14
g16
g54
g20
g22
g24
g26
tp3040
(g28
g96
g109
g56
g28
tp3041
(g2
g4
g52
g16
g20
g35
tp3042
tp3043
a((g50
g10
g16
g54
g84
g18
g20
g35
g22
g24
g26
tp3044
(g109
tp3045
(g50
g12
g54
g24
g26
tp3046
tp3047
a((g2
g4
g6
g12
g16
g84
g20
g35
g22
g26
tp3048
(g228
tp3049
(g50
g4
g84
g22
g26
tp3050
tp3051
a((g2
g52
g8
g10
g14
g16
g84
g18
g35
g22
g24
tp3052
(g109
g147
tp3053
(g4
g8
g10
g14
tp3054
tp3055
a((g6
g52
g12
g14
g16
g54
g84
g18
g20
g22
g24
tp3056
(g56
tp3057
(g2
g12
g16
g18
g20
g24
tp3058
tp3059
a((g50
g52
g8
g12
g14
g16
g84
g18
g35
g22
g24
tp3060
(g147
tp3061
(g4
g8
g12
g14
g20
g22
tp3062
tp3063
a((g50
g4
g6
g52
g8
g14
g16
g54
g84
g18
g20
g35
g26
tp3064
(g109
tp3065
(g4
g6
g8
g12
g14
g16
g54
g20
tp3066
tp3067
a((g2
g50
g4
g8
g12
g14
g84
g18
g20
g24
g26
tp3068
(g28
g96
g109
g56
tp3069
(g50
g4
g8
g10
g18
g24
tp3070
tp3071
a((g2
g6
g8
g12
g14
g16
g54
g84
g20
g26
tp3072
(g28
g96
g109
g228
tp3073
(g12
g14
g16
g54
g18
g22
tp3074
tp3075
a((g2
g50
g6
g52
g10
g16
g18
g20
g35
g24
g26
tp3076
(g96
tp3077
(g6
g52
g16
g18
g35
g22
tp3078
tp3079
a((g50
g4
g6
g8
g10
g16
g35
g22
g24
g26
tp3080
(g109
g77
tp3081
(g4
g12
g14
g84
g22
g26
tp3082
tp3083
a((g2
g50
g6
g52
g8
g10
g12
g18
g24
g26
tp3084
(g28
tp3085
(g50
g6
g10
g35
g24
g26
tp3086
tp3087
a((g2
g50
g4
g6
g52
g8
g10
g12
g54
g20
g22
g24
g26
tp3088
(g28
tp3089
(g2
g6
g8
g54
g20
g35
g22
g24
g26
tp3090
tp3091
a((g4
g6
g52
g8
g10
g12
g14
g16
g20
g35
g22
g24
tp3092
(g56
g77
tp3093
(g2
g4
g14
g20
tp3094
tp3095
a((g4
g6
g8
g12
g14
g16
g84
g18
g20
g22
g24
g26
tp3096
(g56
g28
g96
tp3097
(g4
g52
g8
g10
g84
g20
g22
g24
tp3098
tp3099
a((g2
g4
g6
g12
g20
g35
g22
g26
tp3100
(g96
tp3101
(g6
g52
g35
g22
tp3102
tp3103
a((g50
g4
g52
g8
g10
g12
g14
g54
g84
g18
g35
g22
g24
tp3104
(g147
g56
tp3105
(g2
g4
g20
tp3106
tp3107
a((g2
g50
g4
g52
g10
g16
g54
g18
g20
g35
g24
g26
tp3108
(g109
g77
tp3109
(g2
g50
g4
g52
g14
g54
g20
g26
tp3110
tp3111
a((g4
g6
g52
g8
g10
g12
g54
g84
g18
g20
g35
g24
tp3112
(g228
tp3113
(g50
g10
g54
tp3114
tp3115
a((g2
g50
g4
g6
g52
g8
g10
g12
g16
g84
g20
g35
g22
g26
tp3116
(g77
g126
tp3117
(g2
g6
g12
g14
g54
g20
g26
tp3118
tp3119
a((g2
g50
g6
g52
g8
g10
g12
g16
g54
g84
g18
g24
g26
tp3120
(g28
g96
tp3121
(g52
g54
g18
g35
g22
tp3122
tp3123
a((g2
g50
g6
g52
g8
g10
g16
g84
g18
g20
g35
g22
g24
g26
tp3124
(g109
g147
g28
g126
g109
g228
g147
g28
tp3125
(g2
g50
g4
g10
g16
g54
g20
g35
g22
tp3126
tp3127
a((g2
g50
g4
g6
g8
g10
g12
g14
g16
g18
g20
g35
g22
g24
g26
tp3128
(g77
tp3129
(g2
g50
g4
g8
g12
g14
g84
g18
g22
tp3130
tp3131
a((g2
g4
g6
g8
g10
g12
g54
g84
g20
g35
g24
g26
tp3132
(g228
g96
tp3133
(g52
g54
g18
g35
tp3134
tp3135
a((g2
g6
g52
g8
g10
g12
g16
g18
g20
g35
g22
g24
g26
tp3136
(g147
g228
g126
g147
tp3137
(g50
g4
g54
g20
g35
g22
tp3138
tp3139
a((g2
g6
g52
g8
g10
g12
g14
g16
g84
g20
g35
g24
tp3140
(g228
g147
tp3141
(g50
g4
g52
g8
g12
g20
tp3142
tp3143
a((g2
g50
g4
g6
g52
g8
g10
g14
g16
g54
g84
g18
g35
g22
tp3144
(g126
tp3145
(g50
g6
g52
g84
g18
g22
g24
tp3146
tp3147
a((g2
g50
g4
g6
g52
g8
g10
g12
g84
g18
g20
g22
g26
tp3148
(g28
g126
tp3149
(g2
g50
g6
g52
g10
g54
g84
g22
g26
tp3150
tp3151
a((g2
g50
g52
g8
g10
g12
g16
g54
g84
g18
g22
g24
g26
tp3152
(g147
g28
tp3153
(g2
g4
g52
g10
g16
g35
g26
tp3154
tp3155
a((g2
g50
g4
g10
g12
g14
g16
g84
g18
g26
tp3156
(g28
g96
g109
tp3157
(g10
g12
g14
g16
g84
g22
tp3158
tp3159
a((g2
g6
g52
g8
g10
g14
g16
g54
g84
g20
g35
g22
g24
g26
tp3160
(g109
g228
g28
tp3161
(g2
g14
g16
g84
g18
g35
g22
tp3162
tp3163
a((g4
g6
g52
g8
g10
g14
g16
g35
g22
g26
tp3164
(g126
tp3165
(g6
g10
g16
g54
g35
g24
g26
tp3166
tp3167
a((g50
g6
g52
g12
g14
g54
g84
g18
g35
g22
g24
g26
tp3168
(g147
g228
tp3169
(g4
g52
g12
g54
g84
g18
g22
tp3170
tp3171
a((g2
g6
g52
g8
g10
g12
g16
g54
g84
g20
g22
g26
tp3172
(g228
tp3173
(g2
g52
g8
g16
g54
g84
g18
tp3174
tp3175
a((g2
g50
g6
g8
g12
g16
g54
g84
g22
g26
tp3176
(g28
g96
tp3177
(g6
g52
g16
g54
g84
g35
g22
tp3178
tp3179
a((g2
g6
g8
g14
g54
g84
g35
g24
g26
tp3180
(g96
tp3181
(g6
g52
g54
g35
tp3182
tp3183
a((g2
g6
g8
g10
g14
g16
g54
g84
g20
g35
g22
g24
tp3184
(g109
g228
g147
tp3185
(g50
g10
g54
g20
g22
tp3186
tp3187
a((g2
g50
g4
g6
g52
g10
g14
g16
g54
g84
g18
g35
g22
g24
tp3188
(g109
g147
tp3189
(g2
g50
g12
g14
g16
g20
g22
tp3190
tp3191
a((g2
g50
g4
g52
g10
g12
g14
g16
g54
g18
g20
g26
tp3192
(g28
g96
tp3193
(g50
g10
g14
g54
g22
tp3194
tp3195
a((g2
g4
g6
g52
g8
g12
g14
g54
g20
g35
g22
g24
g26
tp3196
(g228
tp3197
(g2
g50
g4
g52
g14
g18
g22
g26
tp3198
tp3199
a((g2
g50
g6
g8
g10
g12
g16
g54
g84
g22
g24
g26
tp3200
(g28
tp3201
(g8
g35
g24
g26
tp3202
tp3203
a((g50
g4
g6
g8
g12
g14
g35
g22
g24
g26
tp3204
(g126
tp3205
(g12
g54
g35
g22
g24
g26
tp3206
tp3207
a((g50
g6
g8
g12
g14
g16
g20
g35
g22
g26
tp3208
(g56
g96
tp3209
(g50
g52
g20
g22
tp3210
tp3211
a((g2
g50
g6
g52
g14
g16
g54
g84
g18
g35
g22
g24
g26
tp3212
(g109
g147
g228
tp3213
(g2
g4
g14
g16
g18
g22
tp3214
tp3215
a((g2
g4
g6
g52
g10
g12
g16
g54
g84
g18
g20
g22
g24
tp3216
(g28
tp3217
(g2
g4
g52
g35
tp3218
tp3219
a((g2
g50
g6
g52
g8
g10
g12
g16
g84
g18
g20
g35
g26
tp3220
(g77
tp3221
(g50
g8
g14
g18
g35
tp3222
tp3223
a((g2
g4
g6
g8
g12
g16
g54
g84
g18
g20
g35
g22
g26
tp3224
(g126
tp3225
(g84
g18
g20
g24
tp3226
tp3227
a((g50
g4
g6
g52
g8
g10
g12
g16
g84
g20
g35
g22
g24
tp3228
(g77
g126
tp3229
(g6
g52
g14
g54
g84
g20
g24
tp3230
tp3231
a((g2
g52
g12
g14
g16
g18
g20
g35
g26
tp3232
(g96
g56
tp3233
(g2
g10
g16
g18
g20
g35
tp3234
tp3235
a((g4
g52
g8
g10
g14
g18
g20
g35
g26
tp3236
(g126
g109
tp3237
(g12
g14
g54
g18
g20
g24
tp3238
tp3239
a((g2
g50
g4
g6
g52
g8
g10
g12
g16
g54
g84
g20
g22
g24
tp3240
(g77
g28
tp3241
(g50
g6
g8
g14
g84
g35
tp3242
tp3243
a((g2
g50
g4
g6
g52
g8
g12
g14
g16
g54
g84
g20
g22
tp3244
(g28
g126
tp3245
(g52
g14
g16
g84
g20
g35
g24
tp3246
tp3247
a((g2
g50
g4
g10
g12
g14
g16
g54
g20
g22
g24
g26
tp3248
(g28
tp3249
(g16
g35
g24
g26
tp3250
tp3251
a((g50
g4
g52
g12
g14
g16
g54
g84
g18
g35
g22
g24
g26
tp3252
(g56
tp3253
(g2
g50
g12
g84
g18
tp3254
tp3255
a((g6
g52
g12
g14
g16
g18
g35
g22
g24
tp3256
(g147
tp3257
(g4
g6
g52
g12
g16
g20
g35
tp3258
tp3259
a((g4
g6
g52
g12
g14
g16
g84
g20
g35
g22
g24
g26
tp3260
(g56
tp3261
(g2
g4
g52
g10
g84
g35
tp3262
tp3263
a((g2
g6
g52
g10
g14
g16
g54
g84
g35
g24
tp3264
(g109
tp3265
(g6
g10
g12
g16
g24
tp3266
tp3267
a((g2
g50
g52
g8
g10
g14
g16
g54
g18
g35
g22
g24
g26
tp3268
(g109
g147
g28
tp3269
(g4
g10
g14
g20
g35
g22
tp3270
tp3271
a((g52
g8
g12
g14
g16
g54
g18
g20
g22
g24
g26
tp3272
(g147
g56
g77
tp3273
(g4
g12
g54
g84
tp3274
tp3275
a((g2
g6
g8
g10
g12
g14
g16
g54
g84
g18
g20
g35
g24
g26
tp3276
(g228
g96
g147
tp3277
(g50
g4
g8
g20
g22
tp3278
tp3279
a((g2
g4
g6
g10
g12
g16
g54
g18
g20
g24
g26
tp3280
(g28
g96
g109
g77
g56
tp3281
(g4
g6
g10
g84
g24
tp3282
tp3283
a((g2
g6
g8
g12
g14
g16
g54
g18
g20
g35
g22
g24
tp3284
(g147
tp3285
(g2
g4
g8
g14
g16
g35
tp3286
tp3287
a((g2
g50
g4
g8
g10
g14
g16
g54
g84
g35
g22
g24
g26
tp3288
(g109
tp3289
(g4
g8
g12
g14
g54
g84
g24
g26
tp3290
tp3291
a((g50
g4
g52
g8
g12
g14
g16
g84
g18
g22
g26
tp3292
(g56
tp3293
(g2
g10
g16
g84
g26
tp3294
tp3295
a((g2
g50
g4
g52
g8
g12
g14
g16
g18
g20
g35
g22
g24
tp3296
(g56
g77
tp3297
(g52
g12
g84
g20
tp3298
tp3299
a((g4
g52
g8
g12
g14
g54
g18
g20
g22
g24
tp3300
(g56
tp3301
(g2
g52
g12
g54
g24
tp3302
tp3303
a((g2
g4
g52
g8
g14
g16
g18
g35
g22
g24
g26
tp3304
(g109
g56
tp3305
(g4
g10
g24
g26
tp3306
tp3307
a((g2
g50
g4
g6
g52
g10
g12
g14
g16
g18
g20
g22
g24
g26
tp3308
(g28
tp3309
(g50
g6
g10
g20
g35
g24
g26
tp3310
tp3311
a((g2
g6
g52
g8
g10
g12
g16
g84
g18
g35
g24
g26
tp3312
(g77
g96
g147
g126
tp3313
(g52
g12
g14
g20
g22
g24
tp3314
tp3315
a((g50
g4
g6
g52
g10
g12
g14
g16
g54
g18
g20
g22
g26
tp3316
(g28
tp3317
(g50
g6
g52
g54
g20
g35
g26
tp3318
tp3319
a((g50
g6
g52
g8
g12
g14
g16
g84
g18
g20
g22
g26
tp3320
(g56
g77
tp3321
(g2
g50
g6
g52
g14
tp3322
tp3323
a((g2
g50
g4
g6
g52
g8
g10
g12
g16
g54
g18
g20
g22
g24
g26
tp3324
(g77
g56
g28
tp3325
(g50
g10
g54
g84
g20
g35
tp3326
tp3327
a((g2
g50
g4
g6
g10
g14
g16
g54
g18
g35
g24
g26
tp3328
(g109
g147
tp3329
(g50
g4
g6
g20
g26
tp3330
tp3331
a((g4
g6
g52
g10
g14
g16
g18
g35
g22
g24
g26
tp3332
(g109
g147
g56
g77
tp3333
(g2
g14
g20
tp3334
tp3335
a((g4
g6
g52
g8
g10
g14
g16
g18
g20
g35
g22
g26
tp3336
(g126
g109
g228
g77
g56
tp3337
(g2
g50
g52
g10
g12
g54
g84
g24
g26
tp3338
tp3339
a((g2
g50
g4
g10
g16
g20
g35
g24
g26
tp3340
(g96
g109
g77
tp3341
(g50
g12
g84
g22
tp3342
tp3343
a((g50
g6
g52
g10
g12
g54
g18
g24
tp3344
(g147
g28
tp3345
(g4
g6
g52
g10
g54
g35
tp3346
tp3347
a((g2
g50
g4
g52
g8
g10
g12
g14
g54
g84
g18
g22
g26
tp3348
(g28
tp3349
(g2
g50
g8
g10
g84
g35
g26
tp3350
tp3351
a((g2
g50
g4
g52
g8
g12
g14
g16
g54
g84
g18
g22
g24
tp3352
(g28
tp3353
(g16
g35
g22
tp3354
tp3355
a((g50
g4
g6
g52
g8
g10
g14
g16
g54
g84
g18
g20
g35
g22
g26
tp3356
(g109
tp3357
(g50
g4
g6
g52
g8
g10
g12
g14
g16
g54
g84
g20
g26
tp3358
tp3359
a((g2
g50
g4
g8
g10
g12
g14
g16
g35
tp3360
(g126
tp3361
(g50
g12
g14
g54
g24
tp3362
tp3363
a((g2
g6
g52
g8
g10
g12
g16
g54
g20
g35
g22
g24
g26
tp3364
(g228
tp3365
(g2
g52
g10
g16
g18
g35
g22
g24
g26
tp3366
tp3367
a((g50
g4
g6
g8
g10
g16
g54
g18
g35
g22
g24
tp3368
(g109
tp3369
(g4
g6
g8
g10
g12
g16
g54
g18
g22
g24
tp3370
tp3371
a((g2
g4
g52
g8
g14
g16
g54
g84
g20
g35
g22
g26
tp3372
(g109
tp3373
(g2
g4
g52
g8
g12
g16
g54
g84
g22
tp3374
tp3375
a((g50
g6
g52
g8
g10
g12
g14
g84
g18
g35
g22
g24
g26
tp3376
(g56
tp3377
(g2
g50
g6
g8
g10
g12
g18
g35
tp3378
tp3379
a((g2
g50
g4
g6
g10
g12
g16
g54
g84
g20
tp3380
(g28
tp3381
(g2
g10
g16
g54
g84
g20
g35
tp3382
tp3383
a((g2
g4
g6
g52
g8
g14
g16
g54
g84
g18
g20
g35
g24
g26
tp3384
(g109
g228
g28
tp3385
(g2
g50
g4
g16
g54
g84
g18
g35
g24
tp3386
tp3387
a((g2
g50
g4
g6
g52
g8
g10
g12
g16
g18
g22
g24
g26
tp3388
(g77
tp3389
(g52
g14
g84
g18
tp3390
tp3391
a((g2
g4
g52
g8
g10
g14
g16
g54
g18
g35
g26
tp3392
(g96
g109
g77
tp3393
(g4
g52
g12
g54
g84
g18
g22
tp3394
tp3395
a((g2
g50
g4
g6
g52
g10
g12
g16
g54
g84
g18
g20
g22
g24
g26
tp3396
(g28
tp3397
(g2
g50
g10
g20
g35
g22
tp3398
tp3399
a((g2
g4
g6
g8
g14
g84
g18
g35
g26
tp3400
(g126
g96
g109
g147
g228
g56
tp3401
(g50
g4
g10
g54
g84
tp3402
tp3403
a((g2
g4
g6
g52
g8
g10
g14
g16
g54
g18
g35
g24
g26
tp3404
(g109
g77
g147
g28
g126
g109
g228
g147
g28
tp3405
(g2
g50
g14
g84
g20
g35
g26
tp3406
tp3407
a((g2
g50
g4
g6
g52
g8
g10
g12
g14
g16
g54
g18
g22
g26
tp3408
(g28
g126
g109
g77
g147
g28
tp3409
(g50
g6
g52
g14
g54
g84
g20
g35
g22
g26
tp3410
tp3411
a((g4
g6
g52
g8
g10
g14
g54
g84
g18
g20
g35
g22
g24
g26
tp3412
(g109
tp3413
(g4
g52
g8
g12
g14
g84
g18
g24
tp3414
tp3415
a((g50
g4
g6
g8
g12
g14
g16
g54
g18
g20
g22
g24
tp3416
(g56
tp3417
(g2
g6
g8
g10
g18
g24
tp3418
tp3419
a((g4
g6
g8
g10
g12
g14
g16
g54
g84
g20
g22
g24
tp3420
(g56
tp3421
(g2
g4
g6
g8
g16
g20
tp3422
tp3423
a((g50
g4
g52
g8
g10
g12
g14
g16
g54
g22
tp3424
(g56
g28
tp3425
(g2
g50
g4
g52
g8
g10
g35
tp3426
tp3427
a((g50
g4
g6
g8
g10
g12
g16
g54
g20
g22
g24
g26
tp3428
(g28
tp3429
(g4
g6
g8
g10
g16
g20
g35
g22
tp3430
tp3431
a((g4
g6
g52
g10
g12
g16
g54
g18
g35
g22
tp3432
(g77
g56
tp3433
(g2
g4
g6
g12
g35
tp3434
tp3435
a((g50
g6
g10
g12
g16
g84
g20
g35
g22
g24
tp3436
(g228
tp3437
(g10
g84
g18
g22
g24
tp3438
tp3439
a((g2
g8
g10
g16
g18
g20
g35
g24
g26
tp3440
(g96
g109
g77
g147
g56
tp3441
(g4
g10
g84
g20
tp3442
tp3443
a((g50
g4
g6
g52
g8
g10
g12
g14
g16
g54
g84
g18
g20
g24
tp3444
(g28
tp3445
(g50
g6
g52
g16
g20
g35
g24
tp3446
tp3447
a((g2
g4
g6
g52
g8
g12
g14
g16
g54
g84
g18
g20
g26
tp3448
(g28
g126
g96
tp3449
(g52
g14
g20
g22
g24
tp3450
tp3451
a((g2
g50
g4
g6
g8
g10
g16
g54
g84
g18
g20
g35
g22
g24
tp3452
(g109
g77
g28
tp3453
(g50
g6
g14
g54
g84
g20
g35
g22
tp3454
tp3455
a((g2
g4
g6
g8
g12
g14
g20
g26
tp3456
(g28
tp3457
(g4
g35
g26
tp3458
tp3459
a((g4
g8
g10
g12
g14
g16
g54
g18
g20
g22
g24
tp3460
(g28
tp3461
(g8
g10
g14
g16
g54
g18
g20
g35
g22
tp3462
tp3463
a((g2
g50
g4
g6
g52
g8
g12
g14
g16
g54
g18
g20
g26
tp3464
(g28
g96
g109
g56
tp3465
(g2
g6
g52
g8
g10
g16
g18
g20
tp3466
tp3467
a((g50
g4
g6
g52
g8
g14
g16
g54
g84
g35
g22
g24
tp3468
(g109
g56
g28
tp3469
(g2
g50
g8
g54
g84
g35
g24
tp3470
tp3471
a((g4
g52
g10
g14
g54
g84
g18
g20
g35
g26
tp3472
(g109
tp3473
(g4
g12
g54
g18
g20
tp3474
tp3475
a((g52
g10
g12
g14
g16
g18
g20
g35
g22
g24
tp3476
(g56
tp3477
(g2
g52
g12
g18
g20
g35
tp3478
tp3479
a((g50
g6
g8
g12
g14
g84
g18
g20
g35
g22
tp3480
(g56
tp3481
(g50
g6
g10
g84
g20
g35
tp3482
tp3483
a((g2
g6
g52
g8
g10
g12
g14
g16
g54
g84
g18
g35
g22
g24
tp3484
(g147
tp3485
(g2
g4
g8
g12
g14
g54
g35
tp3486
tp3487
a((g2
g50
g6
g52
g8
g10
g12
g14
g16
g54
g84
g18
g20
g24
g26
tp3488
(g28
tp3489
(g50
g6
g10
g16
g54
g18
g35
g24
tp3490
tp3491
a((g2
g50
g4
g52
g8
g10
g12
g16
g84
g18
g26
tp3492
(g28
g126
g109
g147
tp3493
(g2
g50
g4
g52
g10
g16
g54
g26
tp3494
tp3495
a((g4
g6
g8
g12
g16
g54
g84
g18
g20
g22
g24
g26
tp3496
(g28
tp3497
(g6
g8
g16
g54
g35
g24
g26
tp3498
tp3499
a((g2
g50
g6
g52
g10
g54
g84
g18
g20
g35
g24
tp3500
(g109
g147
tp3501
(g2
g4
g6
g10
g12
g54
g84
tp3502
tp3503
a((g50
g4
g52
g8
g10
g12
g14
g16
g54
g18
g20
g22
g26
tp3504
(g77
g56
tp3505
(g2
g4
g52
g12
g54
g84
g18
g20
tp3506
tp3507
a((g4
g6
g8
g12
g14
g84
g20
g22
g24
g26
tp3508
(g56
g28
g96
g109
tp3509
(g52
g10
g12
g84
g20
tp3510
tp3511
a((g4
g6
g10
g12
g16
g54
g84
g18
g20
g35
g24
g26
tp3512
(g77
tp3513
(g4
g14
g54
g84
tp3514
tp3515
a((g2
g50
g4
g6
g52
g8
g10
g12
g14
g54
g84
g20
g22
g24
g26
tp3516
(g28
tp3517
(g2
g50
g4
g52
g8
g54
g35
g26
tp3518
tp3519
a((g2
g50
g4
g6
g8
g10
g14
g54
g84
g18
g20
g35
g24
g26
tp3520
(g96
g109
g56
g28
tp3521
(g2
g50
g6
g52
g10
g54
g84
g20
g35
g24
tp3522
tp3523
a((g2
g6
g8
g12
g14
g16
g54
g84
g18
g20
g35
g22
g26
tp3524
(g96
g56
tp3525
(g2
g6
g52
g12
g16
g54
g18
g35
tp3526
tp3527
a((g50
g4
g6
g52
g8
g10
g12
g16
g54
g84
g18
g20
g35
g24
g26
tp3528
(g77
tp3529
(g50
g4
g6
g14
g54
g84
g20
g35
tp3530
tp3531
a((g2
g4
g6
g52
g8
g10
g12
g54
g18
g22
g24
tp3532
(g28
tp3533
(g6
g52
g54
g18
g35
g22
tp3534
tp3535
a((g50
g4
g8
g10
g16
g54
g84
g35
g22
g26
tp3536
(g109
tp3537
(g8
g12
g16
g54
g26
tp3538
tp3539
a((g4
g6
g52
g8
g10
g14
g16
g18
g20
g35
g22
g26
tp3540
(g126
g109
g228
g56
g28
tp3541
(g2
g50
g10
g35
g24
tp3542
tp3543
a((g2
g4
g6
g52
g8
g12
g14
g16
g54
g18
g35
g22
g26
tp3544
(g56
g77
tp3545
(g52
g54
g84
g35
tp3546
tp3547
a((g2
g50
g4
g6
g52
g8
g10
g14
g16
g54
g20
g35
g24
g26
tp3548
(g109
g77
tp3549
(g6
g8
g12
g14
g84
tp3550
tp3551
a((g2
g4
g6
g8
g10
g12
g14
g16
g54
g84
g18
g20
g22
g24
g26
tp3552
(g28
tp3553
(g2
g6
g8
g10
g54
g84
g18
g35
g22
g24
g26
tp3554
tp3555
a((g2
g4
g6
g10
g12
g14
g16
g54
g18
g20
g35
g24
tp3556
(g77
tp3557
(g2
g6
g84
g18
g20
g35
tp3558
tp3559
a((g2
g6
g52
g8
g10
g12
g16
g18
g20
g35
g22
g24
g26
tp3560
(g77
g147
g126
g56
tp3561
(g2
g6
g10
g12
g54
g84
g20
g35
g24
g26
tp3562
tp3563
a((g4
g52
g8
g10
g14
g16
g84
g18
g35
g22
g26
tp3564
(g126
g109
g147
tp3565
(g52
g16
g20
g22
g26
tp3566
tp3567
a((g2
g50
g4
g6
g52
g8
g10
g14
g16
g20
g35
g22
g24
g26
tp3568
(g126
tp3569
(g54
g22
g26
tp3570
tp3571
a((g50
g4
g6
g52
g8
g12
g14
g16
g54
g84
g20
g35
g22
g24
tp3572
(g56
tp3573
(g2
g6
g8
g10
g16
g20
g35
tp3574
tp3575
a((g2
g4
g6
g8
g14
g16
g54
g18
g20
g35
g22
g24
g26
tp3576
(g96
g109
g56
g28
tp3577
(g2
g52
g8
g10
g54
g18
g20
g35
tp3578
tp3579
a((g50
g4
g6
g52
g8
g10
g12
g14
g16
g54
g84
g18
g35
g22
g24
tp3580
(g56
tp3581
(g2
g4
g8
g10
g16
g54
g18
g35
g24
tp3582
tp3583
a((g6
g52
g14
g16
g84
g20
g35
g22
g26
tp3584
(g109
g228
tp3585
(g50
g52
g12
g14
g16
g22
tp3586
tp3587
a((g6
g52
g8
g12
g14
g16
g54
g84
g18
g20
g35
g22
g24
tp3588
(g56
tp3589
(g6
g52
g10
g54
g84
g18
g20
tp3590
tp3591
a((g2
g50
g6
g8
g10
g12
g14
g16
g54
g84
g18
g35
g22
g26
tp3592
(g96
tp3593
(g6
g52
g8
g10
g54
g22
tp3594
tp3595
a((g2
g50
g6
g52
g8
g10
g12
g54
g18
g20
g35
g22
g24
g26
tp3596
(g147
tp3597
(g4
g6
g52
g10
g20
g26
tp3598
tp3599
a((g2
g50
g52
g14
g54
g84
g18
g35
g26
tp3600
(g109
tp3601
(g50
g12
g14
g84
g18
tp3602
tp3603
a((g4
g6
g52
g12
g14
g16
g54
g18
g20
g35
g22
g24
g26
tp3604
(g56
g77
g96
g56
tp3605
(g2
g4
g10
g54
g84
g18
g20
g24
tp3606
tp3607
a((g2
g50
g6
g52
g8
g12
g14
g84
g18
g20
g35
g22
g24
tp3608
(g147
g228
g126
g147
g56
tp3609
(g2
g4
g10
g54
g84
g20
tp3610
tp3611
a((g2
g4
g6
g52
g8
g10
g16
g54
g84
g18
g20
g35
g24
g26
tp3612
(g109
tp3613
(g12
g16
g84
g20
g24
g26
tp3614
tp3615
a((g4
g6
g8
g10
g12
g16
g54
g84
g18
g22
g26
tp3616
(g77
g56
g28
g126
g96
g109
g147
tp3617
(g6
g52
g10
g12
g54
g84
g20
g22
tp3618
tp3619
a((g52
g16
g54
g18
g35
g26
tp3620
(g109
tp3621
(g12
g54
g18
tp3622
tp3623
a((g2
g50
g6
g52
g10
g12
g14
g16
g54
g18
g22
g24
tp3624
(g28
tp3625
(g50
g6
g52
g10
g18
g35
g22
g24
tp3626
tp3627
a((g50
g6
g12
g16
g54
g20
g35
g24
g26
tp3628
(g228
g147
tp3629
(g4
g12
g54
tp3630
tp3631
a((g50
g4
g52
g8
g12
g14
g16
g54
g84
g18
g20
g26
tp3632
(g28
tp3633
(g50
g4
g8
g16
g54
g18
g20
g35
tp3634
tp3635
a((g50
g6
g52
g10
g12
g16
g84
g18
g20
g22
g24
g26
tp3636
(g28
tp3637
(g52
g10
g16
g18
g35
g24
tp3638
tp3639
a((g2
g50
g4
g6
g52
g8
g10
g12
g16
g84
g18
g22
tp3640
(g28
tp3641
(g2
g4
g16
g84
g35
g22
tp3642
tp3643
a((g2
g50
g4
g6
g8
g16
g18
g20
g35
g22
g24
tp3644
(g109
tp3645
(g2
g50
g12
g16
g20
g22
tp3646
tp3647
a((g2
g4
g6
g52
g12
g14
g16
g84
g20
g24
g26
tp3648
(g28
g96
g109
g228
g56
tp3649
(g2
g50
g4
g52
g10
g12
g16
tp3650
tp3651
a((g50
g4
g6
g8
g12
g14
g16
g54
g84
g18
g35
g22
g24
g26
tp3652
(g56
g96
tp3653
(g50
g4
g6
g52
g10
g16
g22
g24
tp3654
tp3655
a((g50
g4
g6
g8
g10
g12
g16
g54
g84
g18
g22
g26
tp3656
(g77
g56
g28
g96
tp3657
(g50
g52
g8
g84
g18
g35
tp3658
tp3659
a((g6
g52
g10
g12
g14
g16
g84
g20
g24
g26
tp3660
(g228
g147
tp3661
(g50
g10
g12
g14
g16
g84
g20
tp3662
tp3663
a((g2
g50
g52
g8
g10
g12
g14
g16
g84
g18
g22
g24
tp3664
(g147
g28
g126
g109
tp3665
(g50
g12
g16
g54
g20
tp3666
tp3667
a((g2
g50
g6
g52
g8
g14
g16
g54
g84
g18
g35
g22
g24
g26
tp3668
(g109
g56
g28
tp3669
(g6
g10
g54
g18
g35
g24
g26
tp3670
tp3671
a((g50
g4
g8
g12
g14
g16
g18
g35
g22
tp3672
(g126
g147
tp3673
(g50
g4
g12
g54
g35
g22
tp3674
tp3675
a((g2
g50
g4
g6
g52
g8
g10
g12
g14
g54
g18
g35
g22
g24
tp3676
(g147
tp3677
(g50
g52
g14
g54
g20
tp3678
tp3679
a((g2
g50
g4
g6
g52
g8
g10
g14
g16
g84
g18
g35
g22
g26
tp3680
(g126
g109
g147
g28
tp3681
(g4
g6
g52
g10
g16
g54
g20
g35
g22
g26
tp3682
tp3683
a((g2
g4
g6
g52
g8
g12
g14
g16
g54
g84
g35
g22
g24
tp3684
(g56
tp3685
(g4
g6
g52
g10
g16
g35
g24
tp3686
tp3687
a((g4
g6
g52
g8
g10
g12
g16
g84
g18
g22
g24
g26
tp3688
(g28
tp3689
(g4
g52
g8
g84
g18
g35
tp3690
tp3691
a((g2
g4
g6
g52
g10
g12
g16
g54
g20
g22
g24
g26
tp3692
(g228
g77
g147
g56
g28
g96
g109
tp3693
(g50
g4
g52
g10
g12
g84
g20
g22
tp3694
tp3695
a((g50
g6
g52
g8
g14
g54
g18
g20
g35
g24
tp3696
(g109
g147
g228
tp3697
(g50
g4
g8
g14
g54
g18
tp3698
tp3699
a((g4
g6
g52
g8
g10
g14
g16
g54
g84
g18
g35
g22
g24
g26
tp3700
(g109
g147
g228
g28
g126
tp3701
(g50
g10
g14
g54
g84
g18
g35
g24
g26
tp3702
tp3703
a((g4
g6
g52
g8
g12
g14
g54
g84
g18
g20
g35
g22
g24
g26
tp3704
(g56
tp3705
(g2
g6
g54
g84
g20
g24
tp3706
tp3707
a((g2
g50
g4
g52
g8
g10
g12
g14
g16
g18
g22
g24
g26
tp3708
(g28
g126
tp3709
(g52
g16
g54
g18
g22
g24
tp3710
tp3711
a((g2
g4
g6
g52
g8
g12
g16
g84
g20
g35
g24
g26
tp3712
(g228
g147
g126
tp3713
(g50
g52
g12
g16
g84
g20
g35
g24
tp3714
tp3715
a((g2
g6
g52
g8
g14
g16
g54
g18
g20
g35
g22
g24
g26
tp3716
(g109
g56
g77
tp3717
(g6
g8
g84
tp3718
tp3719
a((g2
g4
g6
g8
g10
g14
g16
g84
g20
g35
g22
g24
g26
tp3720
(g109
g228
tp3721
(g10
g12
g14
g84
g18
tp3722
tp3723
a((g2
g4
g8
g10
g12
g14
g16
g18
g20
g22
g26
tp3724
(g77
g28
g126
tp3725
(g2
g54
g84
g18
g35
tp3726
tp3727
a((g2
g4
g6
g52
g8
g14
g16
g84
g35
g22
g24
g26
tp3728
(g109
g56
tp3729
(g2
g6
g52
g10
g26
tp3730
tp3731
a((g2
g50
g4
g6
g12
g14
g16
g54
g20
g24
g26
tp3732
(g28
g96
g109
g228
g56
tp3733
(g2
g50
g4
g10
g16
g54
g18
g24
tp3734
tp3735
a((g2
g4
g8
g12
g14
g16
g84
g35
g24
g26
tp3736
(g96
tp3737
(g4
g52
g14
g84
g35
g22
g24
tp3738
tp3739
a((g2
g50
g52
g10
g12
g14
g16
g54
g35
g26
tp3740
(g96
tp3741
(g50
g10
g16
g54
g22
tp3742
tp3743
a((g2
g50
g6
g8
g54
g84
g18
g20
g35
g22
g24
tp3744
(g109
tp3745
(g50
g6
g12
g54
g18
g22
g24
tp3746
tp3747
a((g50
g4
g6
g8
g10
g12
g14
g16
g54
g18
g20
g35
g22
g26
tp3748
(g77
tp3749
(g4
g6
g14
g54
g84
g18
tp3750
tp3751
a((g2
g4
g6
g10
g12
g14
g16
g84
g20
g35
g22
g24
g26
tp3752
(g228
tp3753
(g2
g50
g4
g10
g12
g14
g18
g35
g24
g26
tp3754
tp3755
a((g50
g4
g6
g52
g8
g12
g14
g16
g18
g20
g35
g22
g26
tp3756
(g56
tp3757
(g50
g4
g6
g8
g10
g18
g20
tp3758
tp3759
a((g2
g50
g4
g6
g14
g16
g54
g84
g35
g22
tp3760
(g109
tp3761
(g50
g6
g12
g16
g54
g22
tp3762
tp3763
a((g2
g50
g6
g8
g12
g16
g54
g18
g20
g35
g22
g24
g26
tp3764
(g147
g228
tp3765
(g2
g50
g4
g12
g16
g54
g18
tp3766
tp3767
a((g2
g6
g8
g10
g12
g84
g18
g20
g22
g24
tp3768
(g28
tp3769
(g6
g8
g10
g84
g20
g35
tp3770
tp3771
a((g50
g4
g6
g8
g12
g14
g16
g54
g84
g18
g20
g35
g22
tp3772
(g126
tp3773
(g50
g12
g16
g20
g24
tp3774
tp3775
a((g50
g4
g6
g52
g8
g10
g12
g16
g84
g18
g22
g24
g26
tp3776
(g77
tp3777
(g12
g14
g18
tp3778
tp3779
a((g2
g50
g6
g52
g14
g16
g18
g20
g35
g22
g24
g26
tp3780
(g109
g147
tp3781
(g50
g4
g12
g14
g16
g22
g26
tp3782
tp3783
a((g2
g4
g52
g8
g12
g14
g16
g18
g20
g35
g26
tp3784
(g126
g96
g56
g77
tp3785
(g52
g12
g54
g84
g20
g35
tp3786
tp3787
a((g50
g6
g52
g8
g10
g12
g16
g54
g20
g35
g22
g24
g26
tp3788
(g77
tp3789
(g6
g52
g8
g14
g54
g84
g35
g24
tp3790
tp3791
a((g4
g52
g8
g10
g14
g16
g54
g84
g20
g35
g22
g24
g26
tp3792
(g109
g56
tp3793
(g2
g54
g84
tp3794
tp3795
a((g2
g6
g52
g10
g12
g14
g16
g54
g84
g18
g35
g24
g26
tp3796
(g147
tp3797
(g2
g52
g14
g16
g54
g20
tp3798
tp3799
a((g52
g8
g10
g12
g14
g54
g84
g18
g35
g24
g26
tp3800
(g147
tp3801
(g4
g52
g10
g12
g54
g84
g35
g26
tp3802
tp3803
a((g2
g6
g8
g12
g14
g16
g84
g18
g35
g24
g26
tp3804
(g147
g228
tp3805
(g2
g50
g4
g8
g12
g14
g16
tp3806
tp3807
a((g50
g4
g6
g52
g8
g10
g12
g14
g16
g84
g20
g35
g22
g24
g26
tp3808
(g126
g56
tp3809
(g2
g52
g16
g54
g84
g20
tp3810
tp3811
a((g2
g50
g52
g8
g10
g16
g54
g18
g20
g35
g26
tp3812
(g96
g109
g77
tp3813
(g52
g8
g14
g54
g84
g18
g22
tp3814
tp3815
a((g50
g6
g52
g10
g12
g14
g16
g20
g35
g22
g26
tp3816
(g77
tp3817
(g6
g52
g12
g14
g84
g35
g22
tp3818
tp3819
a((g50
g4
g8
g10
g12
g16
g54
g84
g18
g20
g35
g22
g26
tp3820
(g77
g56
g96
tp3821
(g50
g52
g8
g84
g18
g35
g22
tp3822
tp3823
a((g2
g50
g6
g8
g12
g14
g54
g84
g18
g20
g24
g26
tp3824
(g28
g96
g109
g56
tp3825
(g2
g50
g6
g10
g54
g84
tp3826
tp3827
a((g2
g4
g6
g52
g8
g12
g14
g54
g20
g35
g22
g24
tp3828
(g56
tp3829
(g2
g6
g52
g10
g20
tp3830
tp3831
a((g2
g4
g6
g52
g8
g10
g12
g14
g16
g84
g18
g20
g22
tp3832
(g228
tp3833
(g50
g52
g10
g12
g14
g16
g84
g18
tp3834
tp3835
a((g2
g4
g6
g8
g10
g16
g84
g20
g35
g24
g26
tp3836
(g109
g77
g28
tp3837
(g2
g4
g6
g14
g20
g35
g24
tp3838
tp3839
a((g2
g4
g6
g52
g12
g14
g84
g20
g35
g22
g24
g26
tp3840
(g228
tp3841
(g2
g50
g12
g84
g35
g22
tp3842
tp3843
a((g50
g4
g52
g8
g10
g14
g18
g35
tp3844
(g109
tp3845
(g50
g4
g52
g8
g12
tp3846
tp3847
a((g2
g50
g52
g8
g12
g14
g16
g84
g20
g35
g24
g26
tp3848
(g96
tp3849
(g52
g8
g20
g22
tp3850
tp3851
a((g2
g8
g12
g14
g16
g54
g84
g20
g22
g26
tp3852
(g28
g96
g109
tp3853
(g52
g12
g16
g54
tp3854
tp3855
a((g50
g52
g8
g10
g12
g14
g16
g18
g35
g22
g24
g26
tp3856
(g147
tp3857
(g20
g35
g22
g26
tp3858
tp3859
a((g2
g4
g8
g10
g12
g14
g16
g54
g84
g18
g20
g22
g26
tp3860
(g28
g126
tp3861
(g10
g16
g84
g22
g24
tp3862
tp3863
a((g2
g50
g8
g12
g16
g54
g84
g18
g20
g35
g26
tp3864
(g96
tp3865
(g54
g84
g35
g22
tp3866
tp3867
a((g50
g4
g52
g8
g10
g84
g35
tp3868
(g109
tp3869
(g10
g12
tp3870
tp3871
a((g4
g52
g8
g10
g14
g16
g54
g84
g18
g35
g22
g24
g26
tp3872
(g109
g56
g77
g28
tp3873
(g2
g4
g52
g8
g14
g54
g18
g35
tp3874
tp3875
a((g4
g6
g52
g12
g14
g20
g22
g24
tp3876
(g28
tp3877
(g35
g22
g24
tp3878
tp3879
a((g2
g4
g6
g10
g12
g54
g84
g18
g22
g24
g26
tp3880
(g147
g228
tp3881
(g50
g10
g12
g18
tp3882
tp3883
a((g2
g50
g52
g12
g14
g16
g54
g18
g22
g24
g26
tp3884
(g28
tp3885
(g2
g14
g16
g18
g35
g24
g26
tp3886
tp3887
a((g50
g6
g52
g12
g54
g18
g22
g24
g26
tp3888
(g147
tp3889
(g4
g52
g20
tp3890
tp3891
a((g2
g50
g4
g6
g52
g8
g10
g12
g16
g54
g84
g20
g24
tp3892
(g228
g28
tp3893
(g2
g50
g4
g8
g10
g16
g84
g18
g35
tp3894
tp3895
a((g2
g4
g6
g52
g8
g14
g84
g18
g20
g35
g26
tp3896
(g126
g96
tp3897
(g6
g52
g54
g18
g35
g22
g24
tp3898
tp3899
a((g4
g6
g52
g8
g10
g12
g16
g84
g35
g26
tp3900
(g126
tp3901
(g6
g52
g12
g54
g84
g35
tp3902
tp3903
a((g50
g6
g52
g12
g14
g18
g35
g22
g24
tp3904
(g56
tp3905
(g6
g52
g10
tp3906
tp3907
a((g2
g52
g10
g14
g54
g84
g18
g20
g35
g26
tp3908
(g109
tp3909
(g2
g52
g12
g14
g84
g20
tp3910
tp3911
a((g4
g6
g8
g12
g54
g84
g20
g35
g22
tp3912
(g228
tp3913
(g12
g18
g35
tp3914
tp3915
a((g2
g6
g52
g8
g10
g12
g84
g18
g20
g35
g22
g24
g26
tp3916
(g228
g147
tp3917
(g2
g50
g4
g8
g12
g84
g20
tp3918
tp3919
a((g2
g50
g4
g6
g52
g8
g10
g12
g14
g16
g84
g18
g20
g35
g24
tp3920
(g126
tp3921
(g2
g6
g52
g10
g12
g14
g54
g84
g20
g35
g24
tp3922
tp3923
a((g50
g4
g6
g52
g10
g14
g16
g54
g84
g18
g35
g22
g24
tp3924
(g109
g147
tp3925
(g4
g52
g10
g14
g16
g84
g20
g22
tp3926
tp3927
a((g2
g50
g6
g8
g14
g16
g54
g84
g20
g35
tp3928
(g109
tp3929
(g2
g6
g8
g12
g54
g84
tp3930
tp3931
a((g2
g50
g6
g52
g10
g12
g14
g16
g84
g18
g20
g24
g26
tp3932
(g28
g96
g109
tp3933
(g50
g52
g12
g14
g16
g20
g22
g24
tp3934
tp3935
a((g50
g4
g6
g8
g14
g16
g54
g84
g18
g20
g35
g22
g24
g26
tp3936
(g109
g56
tp3937
(g4
g6
g10
g16
g54
g84
g18
g20
tp3938
tp3939
a((g50
g6
g8
g10
g16
g18
g35
g22
g24
tp3940
(g109
g147
tp3941
(g50
g6
g8
g16
g20
g22
tp3942
tp3943
a((g2
g50
g4
g6
g54
g84
g35
g22
g24
g26
tp3944
(g96
g109
tp3945
(g4
g52
g12
g54
g84
g22
g24
tp3946
tp3947
a((g50
g4
g52
g8
g14
g54
g84
g18
g35
g22
g26
tp3948
(g109
g56
tp3949
(g2
g50
g8
g10
g84
tp3950
tp3951
a((g2
g4
g6
g52
g8
g12
g14
g84
g20
g22
g26
tp3952
(g28
g126
tp3953
(g6
g54
g20
g35
g26
tp3954
tp3955
a((g50
g4
g6
g8
g10
g12
g14
g84
g18
g20
tp3956
(g28
g126
g109
tp3957
(g50
g6
g12
g84
g20
g24
tp3958
tp3959
a((g2
g6
g52
g8
g12
g14
g16
g54
g84
g18
g20
g35
g22
g24
g26
tp3960
(g228
g147
tp3961
(g50
g4
g8
g12
g14
g16
g54
g84
g20
tp3962
tp3963
a((g6
g52
g10
g14
g20
g35
g22
g24
g26
tp3964
(g109
g228
g28
tp3965
(g52
g18
g35
g22
g24
tp3966
tp3967
a((g50
g52
g8
g10
g12
g14
g16
g54
g18
g35
g22
g26
tp3968
(g77
g56
tp3969
(g2
g52
g8
g84
g35
tp3970
tp3971
a((g50
g6
g8
g10
g14
g18
g20
g35
g22
g24
g26
tp3972
(g109
g147
g28
g126
g109
g228
g147
tp3973
(g50
g4
g14
g54
g20
g22
g26
tp3974
tp3975
a((g50
g4
g6
g52
g8
g10
g12
g14
g16
g54
g20
g22
tp3976
(g228
g77
g56
tp3977
(g2
g50
g8
g10
g84
g18
tp3978
tp3979
a((g2
g6
g52
g8
g10
g12
g14
g16
g18
g35
g24
g26
tp3980
(g96
tp3981
(g52
g18
g35
g22
tp3982
tp3983
a((g50
g4
g52
g8
g10
g12
g14
g16
g84
g18
g20
g22
g24
tp3984
(g56
tp3985
(g2
g50
g4
g52
g8
g10
g18
tp3986
tp3987
a((g2
g50
g4
g6
g52
g8
g10
g14
g16
g54
g84
g18
g20
g35
g22
g24
tp3988
(g109
tp3989
(g2
g4
g8
g10
g12
g14
g54
g84
g24
tp3990
tp3991
a((g50
g4
g6
g10
g12
g14
g16
g54
g20
g35
g22
g24
g26
tp3992
(g77
tp3993
(g50
g6
g84
g24
tp3994
tp3995
a((g2
g6
g52
g8
g10
g14
g16
g54
g84
g18
g35
g22
g24
g26
tp3996
(g109
tp3997
(g2
g6
g8
g10
g12
g14
g54
g22
g24
g26
tp3998
tp3999
a((g2
g50
g4
g8
g10
g12
g14
g16
g54
g84
g18
g20
g22
g24
g26
tp4000
(g28
g96
g109
tp4001
(g50
g4
g52
g8
g10
g12
g84
g20
g24
tp4002
tp4003
a((g2
g50
g4
g6
g52
g8
g10
g12
g16
g20
g22
g24
g26
tp4004
(g77
tp4005
(g52
g12
g14
g84
g20
g22
tp4006
tp4007
a((g2
g4
g6
g8
g14
g84
g35
g22
g24
g26
tp4008
(g96
tp4009
(g4
g52
g14
g24
tp4010
tp4011
a((g2
g6
g8
g10
g14
g16
g18
g35
g24
g26
tp4012
(g96
g109
g77
g147
g28
g126
tp4013
(g6
g54
g84
g22
g24
tp4014
tp4015
a((g2
g50
g6
g10
g14
g16
g18
g35
g22
g24
g26
tp4016
(g109
g77
g147
tp4017
(g2
g14
g84
g20
g22
g26
tp4018
tp4019
a((g6
g10
g12
g14
g54
g18
g20
g35
g22
g24
g26
tp4020
(g56
g96
tp4021
(g6
g52
g18
g35
g22
tp4022
tp4023
a((g50
g6
g52
g8
g10
g12
g14
g16
g54
g20
g35
g22
g24
tp4024
(g228
g77
tp4025
(g50
g52
g12
g84
g18
g24
tp4026
tp4027
a((g2
g4
g6
g52
g10
g12
g16
g54
g84
g20
g35
g22
tp4028
(g77
tp4029
(g12
g14
g84
tp4030
tp4031
a((g50
g4
g6
g52
g8
g12
g14
g16
g84
g18
g20
g22
tp4032
(g28
tp4033
(g6
g52
g8
g14
g16
g35
g22
tp4034
tp4035
a((g2
g4
g6
g8
g10
g12
g14
g16
g35
g22
g24
g26
tp4036
(g77
g126
tp4037
(g6
g12
g14
g54
g84
g35
g22
tp4038
tp4039
a((g50
g4
g6
g52
g8
g10
g12
g18
g35
g22
g24
g26
tp4040
(g147
tp4041
(g8
g20
g35
g22
g26
tp4042
tp4043
a((g4
g6
g52
g8
g14
g16
g84
g20
g35
g22
g24
tp4044
(g109
g228
tp4045
(g50
g14
g84
g18
tp4046
tp4047
a((g2
g50
g4
g6
g52
g8
g10
g16
g54
g84
g18
g20
g35
g26
tp4048
(g126
tp4049
(g2
g10
g16
g54
g84
g20
g35
g24
g26
tp4050
tp4051
a((g2
g50
g4
g6
g52
g8
g10
g12
g14
g16
g84
g20
g35
g26
tp4052
(g96
tp4053
(g50
g4
g6
g10
g20
g35
g22
tp4054
tp4055
a((g2
g50
g6
g12
g14
g54
g20
g22
g24
tp4056
(g228
g56
g28
tp4057
(g2
g50
g10
g18
g35
tp4058
tp4059
a((g2
g6
g52
g8
g12
g14
g16
g54
g18
g20
g22
g24
tp4060
(g147
g56
tp4061
(g4
g8
g10
g12
g54
tp4062
tp4063
a((g50
g6
g12
g14
g16
g84
g20
g35
g22
g24
tp4064
(g228
g147
g56
tp4065
(g4
g10
g12
g84
g20
g35
tp4066
tp4067
a((g2
g6
g52
g8
g12
g14
g16
g84
g18
g20
g35
g24
g26
tp4068
(g96
g147
g56
tp4069
(g4
g6
g8
g10
g12
g16
g20
tp4070
tp4071
a((g4
g6
g52
g10
g14
g84
g18
g20
g35
g24
g26
tp4072
(g109
g228
g147
tp4073
(g50
g10
g12
g84
g20
g26
tp4074
tp4075
a((g52
g12
g14
g54
g18
g20
g22
g24
g26
tp4076
(g56
tp4077
(g10
g54
g20
tp4078
tp4079
a((g2
g4
g6
g52
g10
g14
g16
g18
g20
g35
g24
g26
tp4080
(g109
tp4081
(g6
g10
g12
g16
g18
g20
g24
tp4082
tp4083
a((g2
g50
g4
g6
g8
g14
g16
g18
g20
g35
g22
g24
g26
tp4084
(g126
g109
tp4085
(g50
g12
g54
g18
g20
tp4086
tp4087
a((g2
g50
g4
g52
g8
g10
g12
g16
g84
g18
g22
g24
tp4088
(g147
g28
tp4089
(g2
g50
g4
g16
g84
g20
g35
g22
tp4090
tp4091
a((g2
g50
g10
g12
g16
g54
g18
g20
g22
g26
tp4092
(g77
g28
tp4093
(g2
g14
g54
g18
g35
g26
tp4094
tp4095
a((g2
g50
g4
g6
g52
g8
g12
g14
g84
g18
g20
g35
g22
g26
tp4096
(g126
tp4097
(g50
g6
g52
g12
g14
g54
g84
g18
tp4098
tp4099
a((g2
g50
g4
g6
g52
g8
g12
g14
g16
g54
g84
g20
g22
g24
tp4100
(g28
tp4101
(g4
g6
g52
g8
g16
g54
g35
g22
tp4102
tp4103
a((g2
g4
g6
g52
g8
g10
g12
g16
g35
g26
tp4104
(g126
g96
tp4105
(g6
g22
g24
tp4106
tp4107
a((g2
g50
g6
g52
g8
g12
g14
g16
g84
g20
g24
g26
tp4108
(g228
g147
g28
g126
tp4109
(g52
g16
g54
g84
g20
g35
g24
g26
tp4110
tp4111
a((g2
g50
g4
g6
g10
g12
g14
g16
g54
g84
g22
g26
tp4112
(g28
g96
g109
tp4113
(g50
g4
g52
g10
g12
g16
g54
g84
tp4114
tp4115
a((g2
g50
g4
g6
g52
g10
g16
g54
g18
g20
g35
g22
g24
g26
tp4116
(g109
g77
tp4117
(g2
g6
g14
g18
g22
tp4118
tp4119
a((g2
g50
g4
g6
g8
g10
g14
g16
g84
g18
g35
g22
g24
g26
tp4120
(g126
g109
g147
g28
tp4121
(g2
g54
g20
g35
g22
g26
tp4122
tp4123
a((g2
g4
g52
g8
g10
g12
g14
g16
g84
g18
g35
g22
g26
tp4124
(g126
tp4125
(g14
g16
g54
g35
g26
tp4126
tp4127
a((g50
g4
g6
g52
g10
g12
g14
g54
g84
g20
g35
g22
g24
g26
tp4128
(g228
tp4129
(g50
g4
g12
g18
g26
tp4130
tp4131
a((g2
g4
g6
g10
g12
g54
g84
g18
g20
g24
g26
tp4132
(g228
tp4133
(g2
g50
g4
g10
tp4134
tp4135
a((g50
g6
g12
g16
g54
g84
g18
g20
g22
tp4136
(g28
tp4137
(g50
g6
g16
g84
g20
g35
tp4138
tp4139
a((g50
g6
g52
g8
g10
g12
g18
g22
g24
g26
tp4140
(g28
tp4141
(g50
g6
g52
g8
g18
g35
g24
g26
tp4142
tp4143
a((g2
g4
g6
g52
g12
g54
g18
g20
g22
g24
g26
tp4144
(g28
tp4145
(g2
g52
g54
g18
g35
tp4146
tp4147
a((g50
g4
g8
g10
g14
g16
g54
g18
g20
g35
tp4148
(g109
tp4149
(g4
g10
g12
g14
g54
tp4150
tp4151
a((g2
g6
g52
g8
g10
g12
g16
g54
g84
g18
g22
g24
g26
tp4152
(g147
tp4153
(g8
g12
g16
g54
g20
g22
g26
tp4154
tp4155
a((g2
g50
g4
g6
g10
g12
g14
g18
g20
tp4156
(g28
tp4157
(g4
g35
tp4158
tp4159
a.