(lp0
(I0
(istructures.sensor
Sensor
p1
(dp2
S'rhs'
p3
(istructures.sensor
Sensor
p4
(dp5
g3
(istructures.sensor
Sensor
p6
(dp7
g3
NsS'lhs'
p8
(S'holding_treasure_2'
p9
tp10
sS'op'
p11
Nsbsg8
(istructures.sensor
Sensor
p12
(dp13
g3
(istructures.sensor
Sensor
p14
(dp15
g3
(istructures.sensor
Sensor
p16
(dp17
g3
Nsg8
S'at_x2'
p18
sg11
Nsbsg8
(istructures.sensor
Sensor
p19
(dp20
g3
Nsg8
S'holding_treasure_3'
p21
sg11
Nsbsg11
S'v'
p22
sbsg8
(istructures.sensor
Sensor
p23
(dp24
g3
Nsg8
(istructures.sensor
Sensor
p25
(dp26
g3
Nsg8
S'at_x3'
p27
sg11
Nsbsg11
S'-'
p28
sbsg11
S'^'
p29
sbsg11
g29
sbsg8
(istructures.sensor
Sensor
p30
(dp31
g3
Nsg8
(istructures.sensor
Sensor
p32
(dp33
g3
(istructures.sensor
Sensor
p34
(dp35
g3
Nsg8
(g9
tp36
sg11
Nsbsg8
(istructures.sensor
Sensor
p37
(dp38
g3
(istructures.sensor
Sensor
p39
(dp40
g3
Nsg8
S'at_y3'
p41
sg11
Nsbsg8
(istructures.sensor
Sensor
p42
(dp43
g3
Nsg8
S'at_y0'
p44
sg11
Nsbsg11
g22
sbsg11
g22
sbsg11
g28
sbsg11
S'v'
p45
sbtp46
a(I0
(istructures.sensor
Sensor
p47
(dp48
g3
Nsg8
(istructures.sensor
Sensor
p49
(dp50
g3
(istructures.sensor
Sensor
p51
(dp52
g3
Nsg8
(istructures.sensor
Sensor
p53
(dp54
g3
Nsg8
S'at_y1'
p55
sg11
Nsbsg11
g28
sbsg8
(istructures.sensor
Sensor
p56
(dp57
g3
(istructures.sensor
Sensor
p58
(dp59
g3
Nsg8
S'at_x1'
p60
sg11
Nsbsg8
(istructures.sensor
Sensor
p61
(dp62
g3
Nsg8
g60
sg11
Nsbsg11
g22
sbsg11
g22
sbsg11
g28
sbtp63
a(I0
(istructures.sensor
Sensor
p64
(dp65
g3
(istructures.sensor
Sensor
p66
(dp67
g3
(istructures.sensor
Sensor
p68
(dp69
g3
(istructures.sensor
Sensor
p70
(dp71
g3
Nsg8
g41
sg11
Nsbsg8
(istructures.sensor
Sensor
p72
(dp73
g3
Nsg8
g55
sg11
Nsbsg11
I5
sbsg8
(istructures.sensor
Sensor
p74
(dp75
g3
(istructures.sensor
Sensor
p76
(dp77
g3
Nsg8
g60
sg11
Nsbsg8
(istructures.sensor
Sensor
p78
(dp79
g3
Nsg8
g41
sg11
Nsbsg11
I9
sbsg11
g22
sbsg8
(istructures.sensor
Sensor
p80
(dp81
g3
(istructures.sensor
Sensor
p82
(dp83
g3
Nsg8
(g41
tp84
sg11
Nsbsg8
(istructures.sensor
Sensor
p85
(dp86
g3
(istructures.sensor
Sensor
p87
(dp88
g3
Nsg8
g9
sg11
Nsbsg8
(istructures.sensor
Sensor
p89
(dp90
g3
Nsg8
g41
sg11
Nsbsg11
g29
sbsg11
g29
sbsg11
I1
sbtp91
a(I548
(istructures.sensor
Sensor
p92
(dp93
g3
(istructures.sensor
Sensor
p94
(dp95
g3
Nsg8
(S'at_x0'
p96
tp97
sg11
Nsbsg8
(istructures.sensor
Sensor
p98
(dp99
g3
Nsg8
(g21
tp100
sg11
Nsbsg11
I3
sbtp101
a(I290
(istructures.sensor
Sensor
p102
(dp103
g3
Nsg8
(istructures.sensor
Sensor
p104
(dp105
g3
(istructures.sensor
Sensor
p106
(dp107
g3
(istructures.sensor
Sensor
p108
(dp109
g3
Nsg8
g21
sg11
Nsbsg8
(istructures.sensor
Sensor
p110
(dp111
g3
Nsg8
g44
sg11
Nsbsg11
g22
sbsg8
(istructures.sensor
Sensor
p112
(dp113
g3
(istructures.sensor
Sensor
p114
(dp115
g3
Nsg8
g44
sg11
Nsbsg8
(istructures.sensor
Sensor
p116
(dp117
g3
Nsg8
g9
sg11
Nsbsg11
g22
sbsg11
g22
sbsg11
g28
sbtp118
a(I548
g92
tp119
a(I0
g30
tp120
a(I0
(istructures.sensor
Sensor
p121
(dp122
g3
(istructures.sensor
Sensor
p123
(dp124
g3
(istructures.sensor
Sensor
p125
(dp126
g3
(istructures.sensor
Sensor
p127
(dp128
g3
(istructures.sensor
Sensor
p129
(dp130
g3
Nsg8
g18
sg11
Nsbsg8
(istructures.sensor
Sensor
p131
(dp132
g3
Nsg8
S'holding_treasure_1'
p133
sg11
Nsbsg11
I4
sbsg8
(istructures.sensor
Sensor
p134
(dp135
g3
(istructures.sensor
Sensor
p136
(dp137
g3
Nsg8
g27
sg11
Nsbsg8
(istructures.sensor
Sensor
p138
(dp139
g3
Nsg8
g133
sg11
Nsbsg11
g29
sbsg11
I5
sbsg8
(istructures.sensor
Sensor
p140
(dp141
g3
(istructures.sensor
Sensor
p142
(dp143
g3
(istructures.sensor
Sensor
p144
(dp145
g3
Nsg8
g44
sg11
Nsbsg8
(istructures.sensor
Sensor
p146
(dp147
g3
Nsg8
g55
sg11
Nsbsg11
g29
sbsg8
(istructures.sensor
Sensor
p148
(dp149
g3
Nsg8
(istructures.sensor
Sensor
p150
(dp151
g3
Nsg8
g55
sg11
Nsbsg11
g28
sbsg11
g22
sbsg11
I5
sbsg8
g47
sg11
S'^'
p152
sbtp153
a(I86
(istructures.sensor
Sensor
p154
(dp155
g3
Nsg8
(g18
tp156
sg11
Nsbtp157
a(I290
g102
tp158
a(I0
(istructures.sensor
Sensor
p159
(dp160
g3
(istructures.sensor
Sensor
p161
(dp162
g3
(istructures.sensor
Sensor
p163
(dp164
g3
Nsg8
(g9
tp165
sg11
Nsbsg8
(istructures.sensor
Sensor
p166
(dp167
g3
(istructures.sensor
Sensor
p168
(dp169
g3
Nsg8
g133
sg11
Nsbsg8
(istructures.sensor
Sensor
p170
(dp171
g3
Nsg8
S'at_y2'
p172
sg11
Nsbsg11
g22
sbsg11
I6
sbsg8
(istructures.sensor
Sensor
p173
(dp174
g3
Nsg8
(istructures.sensor
Sensor
p175
(dp176
g3
(istructures.sensor
Sensor
p177
(dp178
g3
Nsg8
g96
sg11
Nsbsg8
(istructures.sensor
Sensor
p179
(dp180
g3
Nsg8
g9
sg11
Nsbsg11
g22
sbsg11
g28
sbsg11
I4
sbtp181
a(I0
(istructures.sensor
Sensor
p182
(dp183
g3
Nsg8
(g41
tp184
sg11
Nsbtp185
a(I0
g64
tp186
a(I102
(istructures.sensor
Sensor
p187
(dp188
g3
(istructures.sensor
Sensor
p189
(dp190
g3
Nsg8
(g133
tp191
sg11
Nsbsg8
(istructures.sensor
Sensor
p192
(dp193
g3
Nsg8
(istructures.sensor
Sensor
p194
(dp195
g3
(istructures.sensor
Sensor
p196
(dp197
g3
Nsg8
(g9
tp198
sg11
Nsbsg8
(istructures.sensor
Sensor
p199
(dp200
g3
(istructures.sensor
Sensor
p201
(dp202
g3
Nsg8
g44
sg11
Nsbsg8
(istructures.sensor
Sensor
p203
(dp204
g3
Nsg8
g60
sg11
Nsbsg11
I10
sbsg11
I2
sbsg11
g28
sbsg11
I4
sbtp205
a(I548
(istructures.sensor
Sensor
p206
(dp207
g3
(istructures.sensor
Sensor
p208
(dp209
g3
(istructures.sensor
Sensor
p210
(dp211
g3
(istructures.sensor
Sensor
p212
(dp213
g3
Nsg8
(istructures.sensor
Sensor
p214
(dp215
g3
Nsg8
g44
sg11
Nsbsg11
g28
sbsg8
(istructures.sensor
Sensor
p216
(dp217
g3
Nsg8
(g133
tp218
sg11
Nsbsg11
g22
sbsg8
(istructures.sensor
Sensor
p219
(dp220
g3
(istructures.sensor
Sensor
p221
(dp222
g3
(istructures.sensor
Sensor
p223
(dp224
g3
Nsg8
g18
sg11
Nsbsg8
(istructures.sensor
Sensor
p225
(dp226
g3
Nsg8
g21
sg11
Nsbsg11
g22
sbsg8
(istructures.sensor
Sensor
p227
(dp228
g3
Nsg8
(g55
tp229
sg11
Nsbsg11
I3
sbsg11
g29
sbsg8
g92
sg11
g45
sbtp230
a(I0
g208
tp231
a(I0
g208
tp232
a(I0
g159
tp233
a(I0
g159
tp234
a(I0
g64
tp235
a(I86
g154
tp236
a(I0
(istructures.sensor
Sensor
p237
(dp238
g3
(istructures.sensor
Sensor
p239
(dp240
g3
(istructures.sensor
Sensor
p241
(dp242
g3
Nsg8
(g96
tp243
sg11
Nsbsg8
(istructures.sensor
Sensor
p244
(dp245
g3
(istructures.sensor
Sensor
p246
(dp247
g3
Nsg8
g133
sg11
Nsbsg8
(istructures.sensor
Sensor
p248
(dp249
g3
Nsg8
g21
sg11
Nsbsg11
g29
sbsg11
I6
sbsg8
(istructures.sensor
Sensor
p250
(dp251
g3
Nsg8
(istructures.sensor
Sensor
p252
(dp253
g3
Nsg8
(g55
tp254
sg11
Nsbsg11
g28
sbsg11
g22
sbtp255
a(I0
g47
tp256
a(I290
g102
tp257
a(I0
g182
tp258
a(I0
g64
tp259
a(I0
(istructures.sensor
Sensor
p260
(dp261
g3
g30
sg8
(istructures.sensor
Sensor
p262
(dp263
g3
Nsg8
g30
sg11
S'-'
p264
sbsg11
I4
sbtp265
a(I0
g4
tp266
a(I0
g30
tp267
a(I86
g154
tp268
a(I86
g154
tp269
a(I0
(istructures.sensor
Sensor
p270
(dp271
g3
g189
sg8
(istructures.sensor
Sensor
p272
(dp273
g3
Nsg8
(istructures.sensor
Sensor
p274
(dp275
g3
Nsg8
(istructures.sensor
Sensor
p276
(dp277
g3
(istructures.sensor
Sensor
p278
(dp279
g3
Nsg8
g96
sg11
Nsbsg8
(istructures.sensor
Sensor
p280
(dp281
g3
Nsg8
g172
sg11
Nsbsg11
g29
sbsg11
g28
sbsg11
g28
sbsg11
g152
sbtp282
a(I0
g30
tp283
a(I0
g159
tp284
a(I20
g189
tp285
a(I0
g123
tp286
a(I548
g92
tp287
a(I0
(istructures.sensor
Sensor
p288
(dp289
g3
g272
sg8
g189
sg11
I5
sbtp290
a(I0
g47
tp291
a(I0
g123
tp292
a(I86
g154
tp293
a(I86
g154
tp294
a(I0
g4
tp295
a(I86
g154
tp296
a(I0
g30
tp297
a(I548
(istructures.sensor
Sensor
p298
(dp299
g3
g92
sg8
(istructures.sensor
Sensor
p300
(dp301
g3
(istructures.sensor
Sensor
p302
(dp303
g3
g272
sg8
g4
sg11
g45
sbsg8
g92
sg11
g152
sbsg11
g45
sbtp304
a(I0
g182
tp305
a(I0
g272
tp306
a(I0
g64
tp307
a(I0
g272
tp308
a(I0
g64
tp309
a(I0
g123
tp310
a(I86
g154
tp311
a(I0
g159
tp312
a(I0
(istructures.sensor
Sensor
p313
(dp314
g3
Nsg8
g154
sg11
g264
sbtp315
a(I0
g159
tp316
a(I548
g92
tp317
a(I18
(istructures.sensor
Sensor
p318
(dp319
g3
g189
sg8
g102
sg11
I2
sbtp320
a(I0
g237
tp321
a(I290
g102
tp322
a(I0
g30
tp323
a(I0
g47
tp324
a(I0
(istructures.sensor
Sensor
p325
(dp326
g3
g92
sg8
g64
sg11
I4
sbtp327
a(I290
(istructures.sensor
Sensor
p328
(dp329
g3
g272
sg8
g102
sg11
g45
sbtp330
a(I0
g47
tp331
a(I0
g4
tp332
a(I290
g102
tp333
a(I0
g30
tp334
a(I0
g4
tp335
a(I0
g30
tp336
a(I290
g102
tp337
a(I290
g192
tp338
a(I86
g154
tp339
a(I0
g123
tp340
a(I0
g237
tp341
a(I0
g237
tp342
a(I0
g272
tp343
a(I0
g159
tp344
a(I0
g159
tp345
a(I0
g237
tp346
a(I20
g189
tp347
a(I548
g92
tp348
a(I548
g92
tp349
a(I0
(istructures.sensor
Sensor
p350
(dp351
g3
g159
sg8
g4
sg11
g152
sbtp352
a(I0
g159
tp353
a(I0
(istructures.sensor
Sensor
p354
(dp355
g3
g237
sg8
g64
sg11
g45
sbtp356
a(I0
g30
tp357
a(I290
g102
tp358
a(I0
(istructures.sensor
Sensor
p359
(dp360
g3
g47
sg8
g47
sg11
g45
sbtp361
a(I290
g192
tp362
a(I0
g123
tp363
a(I0
g30
tp364
a(I0
g30
tp365
a(I548
g92
tp366
a(I290
g102
tp367
a(I86
g154
tp368
a(I0
g182
tp369
a(I0
(istructures.sensor
Sensor
p370
(dp371
g3
g182
sg8
g208
sg11
g152
sbtp372
a(I290
g102
tp373
a(I0
(istructures.sensor
Sensor
p374
(dp375
g3
(istructures.sensor
Sensor
p376
(dp377
g3
g159
sg8
g102
sg11
I5
sbsg8
g123
sg11
I5
sbtp378
a(I290
g192
tp379
a(I0
g47
tp380
a(I0
g182
tp381
a(I290
g192
tp382
a(I548
g92
tp383
a(I0
g64
tp384
a(I428
(istructures.sensor
Sensor
p385
(dp386
g3
g30
sg8
g92
sg11
g45
sbtp387
a(I94
(istructures.sensor
Sensor
p388
(dp389
g3
g237
sg8
g154
sg11
I5
sbtp390
a(I0
g4
tp391
a(I0
g4
tp392
a(I0
g4
tp393
a(I0
g4
tp394
a(I290
g102
tp395
a(I0
g30
tp396
a(I86
g154
tp397
a(I0
(istructures.sensor
Sensor
p398
(dp399
g3
g4
sg8
g64
sg11
g152
sbtp400
a(I0
(istructures.sensor
Sensor
p401
(dp402
g3
g182
sg8
g192
sg11
g152
sbtp403
a(I548
g92
tp404
a(I0
g30
tp405
a(I0
g30
tp406
a(I0
g123
tp407
a(I0
g237
tp408
a(I0
g159
tp409
a(I290
g192
tp410
a(I0
g208
tp411
a(I0
(istructures.sensor
Sensor
p412
(dp413
g3
Nsg8
g192
sg11
g264
sbtp414
a(I0
g272
tp415
a(I0
g237
tp416
a(I20
g189
tp417
a(I0
(istructures.sensor
Sensor
p418
(dp419
g3
g159
sg8
g4
sg11
g45
sbtp420
a(I188
(istructures.sensor
Sensor
p421
(dp422
g3
g154
sg8
g189
sg11
g45
sbtp423
a(I0
(istructures.sensor
Sensor
p424
(dp425
g3
Nsg8
g192
sg11
g264
sbtp426
a(I0
g4
tp427
a(I0
g47
tp428
a(I0
g237
tp429
a(I0
(istructures.sensor
Sensor
p430
(dp431
g3
g92
sg8
(istructures.sensor
Sensor
p432
(dp433
g3
g64
sg8
g92
sg11
g152
sbsg11
I1
sbtp434
a(I0
g64
tp435
a(I20
g189
tp436
a(I568
(istructures.sensor
Sensor
p437
(dp438
g3
g92
sg8
g192
sg11
I4
sbtp439
a(I290
g102
tp440
a(I290
g102
tp441
a(I0
(istructures.sensor
Sensor
p442
(dp443
g3
g47
sg8
g189
sg11
g152
sbtp444
a(I548
g92
tp445
a(I0
g30
tp446
a(I0
g30
tp447
a(I548
g92
tp448
a(I0
g159
tp449
a(I20
g189
tp450
a(I548
g92
tp451
a(I290
g192
tp452
a(I548
g92
tp453
a(I548
g92
tp454
a(I86
g154
tp455
a(I0
g30
tp456
a(I0
g237
tp457
a(I548
g92
tp458
a(I290
g192
tp459
a(I290
g102
tp460
a(I0
g123
tp461
a(I290
g102
tp462
a(I548
g92
tp463
a(I548
g92
tp464
a(I548
g92
tp465
a(I20
g189
tp466
a(I438
(istructures.sensor
Sensor
p467
(dp468
g3
g237
sg8
g92
sg11
g45
sbtp469
a(I0
g272
tp470
a(I0
g64
tp471
a(I0
g64
tp472
a(I0
g237
tp473
a(I0
g4
tp474
a(I0
g30
tp475
a(I0
g182
tp476
a(I0
g4
tp477
a(I0
g4
tp478
a(I548
g92
tp479
a(I548
g92
tp480
a(I0
g123
tp481
a(I548
g92
tp482
a(I0
g208
tp483
a(I86
g154
tp484
a(I548
g92
tp485
a(I548
g92
tp486
a(I548
g92
tp487
a(I548
g92
tp488
a(I426
(istructures.sensor
Sensor
p489
(dp490
g3
g189
sg8
g92
sg11
g45
sbtp491
a(I0
g30
tp492
a(I548
g92
tp493
a(I548
g92
tp494
a(I86
g154
tp495
a(I0
g64
tp496
a(I548
g92
tp497
a(I0
g182
tp498
a(I548
g92
tp499
a(I0
g272
tp500
a(I548
g92
tp501
a(I548
g92
tp502
a(I568
(istructures.sensor
Sensor
p503
(dp504
g3
g92
sg8
g92
sg11
I1
sbtp505
a(I548
g92
tp506
a(I548
g92
tp507
a(I0
g123
tp508
a(I0
(istructures.sensor
Sensor
p509
(dp510
g3
g123
sg8
g92
sg11
g152
sbtp511
a(I0
g123
tp512
a(I548
(istructures.sensor
Sensor
p513
(dp514
g3
g92
sg8
g4
sg11
g45
sbtp515
a(I548
g92
tp516
a(I548
g92
tp517
a(I290
g102
tp518
a(I548
g92
tp519
a(I548
g92
tp520
a(I548
g92
tp521
a(I290
g192
tp522
a(I548
g92
tp523
a(I548
g92
tp524
a(I548
(istructures.sensor
Sensor
p525
(dp526
g3
g92
sg8
g92
sg11
g45
sbtp527
a(I0
g30
tp528
a(I548
g92
tp529
a(I0
g123
tp530
a(I548
g92
tp531
a(I548
g92
tp532
a(I0
(istructures.sensor
Sensor
p533
(dp534
g3
Nsg8
g92
sg11
g264
sbtp535
a(I548
g92
tp536
a(I548
g92
tp537
a(I548
g92
tp538
a(I0
g237
tp539
a(I0
g64
tp540
a(I548
g92
tp541
a(I86
g154
tp542
a(I548
g92
tp543
a(I548
g92
tp544
a(I548
g92
tp545
a(I548
g92
tp546
a(I548
g92
tp547
a(I548
g92
tp548
a(I548
g92
tp549
a(I548
g92
tp550
a(I548
g92
tp551
a(I548
g92
tp552
a(I548
g92
tp553
a(I0
g123
tp554
a(I548
g92
tp555
a(I0
g123
tp556
a(I548
g92
tp557
a(I548
g92
tp558
a(I548
g92
tp559
a(I548
g92
tp560
a(I568
(istructures.sensor
Sensor
p561
(dp562
g3
g92
sg8
g92
sg11
I1
sbtp563
a(I290
g192
tp564
a(I548
(istructures.sensor
Sensor
p565
(dp566
g3
g92
sg8
g92
sg11
g152
sbtp567
a(I548
g92
tp568
a(I548
g92
tp569
a(I548
g92
tp570
a(I548
g92
tp571
a(I548
g92
tp572
a(I0
g47
tp573
a(I548
g92
tp574
a(I548
g92
tp575
a(I548
g92
tp576
a(I548
g92
tp577
a(I0
g182
tp578
a(I548
g92
tp579
a(I20
g189
tp580
a(I548
g92
tp581
a(I86
g154
tp582
a(I548
g92
tp583
a(I0
g182
tp584
a(I378
(istructures.sensor
Sensor
p585
(dp586
g3
g92
sg8
g182
sg11
g45
sbtp587
a(I548
g92
tp588
a(I548
g92
tp589
a(I548
g92
tp590
a(I0
g237
tp591
a(I548
g92
tp592
a(I0
g208
tp593
a(I548
g92
tp594
a(I548
g92
tp595
a(I548
g92
tp596
a(I548
g92
tp597
a(I548
g92
tp598
a(I548
g92
tp599
a(I548
g92
tp600
a(I548
g92
tp601
a(I86
g154
tp602
a(I548
g92
tp603
a(I548
g92
tp604
a(I548
g92
tp605
a(I548
g92
tp606
a(I548
g92
tp607
a(I548
g92
tp608
a(I548
g92
tp609
a(I548
g92
tp610
a(I548
g92
tp611
a(I548
g92
tp612
a(I548
g92
tp613
a(I548
g92
tp614
a(I548
g92
tp615
a(I548
g92
tp616
a(I0
g182
tp617
a(I0
(istructures.sensor
Sensor
p618
(dp619
g3
g92
sg8
g123
sg11
g152
sbtp620
a(I548
g92
tp621
a(I548
g92
tp622
a(I548
g92
tp623
a(I548
g92
tp624
a(I548
g92
tp625
a(I0
g237
tp626
a(I548
g92
tp627
a(I548
g92
tp628
a(I548
g92
tp629
a(I0
g64
tp630
a(I548
g92
tp631
a(I0
g30
tp632
a(I548
g92
tp633
a(I548
g92
tp634
a(I548
g92
tp635
a(I0
g272
tp636
a(I548
g92
tp637
a(I548
g92
tp638
a(I548
g92
tp639
a(I548
g92
tp640
a(I548
g92
tp641
a(I548
g92
tp642
a(I548
g92
tp643
a(I0
g272
tp644
a(I548
g92
tp645
a(I548
g92
tp646
a(I548
g92
tp647
a(I548
g92
tp648
a(I548
(istructures.sensor
Sensor
p649
(dp650
g3
g92
sg8
g92
sg11
g45
sbtp651
a(I548
g92
tp652
a(I548
g92
tp653
a(I290
g102
tp654
a(I548
g92
tp655
a(I20
g189
tp656
a(I548
g92
tp657
a(I548
g92
tp658
a(I548
g92
tp659
a(I0
g208
tp660
a(I0
g123
tp661
a(I548
g92
tp662
a(I548
g92
tp663
a(I548
g92
tp664
a(I548
g92
tp665
a(I548
g92
tp666
a(I548
g92
tp667
a(I548
g92
tp668
a(I548
g92
tp669
a(I548
g92
tp670
a(I548
g92
tp671
a(I548
g92
tp672
a(I548
g92
tp673
a(I548
g92
tp674
a(I548
g92
tp675
a(I548
g92
tp676
a(I548
g92
tp677
a(I548
g92
tp678
a(I548
g92
tp679
a(I548
g92
tp680
a(I548
g92
tp681
a(I548
g92
tp682
a(I548
g92
tp683
a(I548
g92
tp684
a(I548
g92
tp685
a(I548
g92
tp686
a(I548
g92
tp687
a(I548
g92
tp688
a(I548
g92
tp689
a(I548
g92
tp690
a(I0
g182
tp691
a(I548
g92
tp692
a(I548
g92
tp693
a(I548
g92
tp694
a(I548
g92
tp695
a(I548
g92
tp696
a(I548
g92
tp697
a(I548
g92
tp698
a(I548
g92
tp699
a(I548
g92
tp700
a(I548
g92
tp701
a(I0
g182
tp702
a(I548
g92
tp703
a(I548
g92
tp704
a(I548
g92
tp705
a(I548
g92
tp706
a(I548
g92
tp707
a(I548
g92
tp708
a(I548
g92
tp709
a(I548
g92
tp710
a(I548
g92
tp711
a(I548
g92
tp712
a(I548
g92
tp713
a(I548
g92
tp714
a(I548
g92
tp715
a(I548
g92
tp716
a(I548
g92
tp717
a(I548
g92
tp718
a(I548
g92
tp719
a(I548
g92
tp720
a(I548
g92
tp721
a(I548
g92
tp722
a(I548
g92
tp723
a(I548
g92
tp724
a(I548
g92
tp725
a(I548
g92
tp726
a(I548
g92
tp727
a(I548
g92
tp728
a(I548
g92
tp729
a(I548
g92
tp730
a(I548
g92
tp731
a(I548
g92
tp732
a(I548
g92
tp733
a(I548
g92
tp734
a(I548
g92
tp735
a(I548
g92
tp736
a(I548
g92
tp737
a(I548
g92
tp738
a(I548
g92
tp739
a(I548
g92
tp740
a(I548
(istructures.sensor
Sensor
p741
(dp742
g3
g92
sg8
g92
sg11
g152
sbtp743
a(I548
g92
tp744
a(I548
g92
tp745
a(I548
g92
tp746
a(I548
g92
tp747
a(I548
g92
tp748
a(I548
g92
tp749
a(I548
g92
tp750
a(I548
g92
tp751
a(I548
g92
tp752
a(I548
g92
tp753
a(I548
g92
tp754
a(I548
g92
tp755
a(I548
g92
tp756
a(I548
g92
tp757
a(I548
g92
tp758
a(I548
g92
tp759
a(I548
g92
tp760
a(I548
g92
tp761
a(I548
g92
tp762
a(I548
g92
tp763
a(I548
g92
tp764
a(I548
g92
tp765
a(I548
g92
tp766
a(I548
g92
tp767
a(I548
g92
tp768
a(I548
g92
tp769
a(I548
g92
tp770
a(I548
g92
tp771
a(I548
g92
tp772
a(I548
g92
tp773
a(I548
g92
tp774
a(I548
g92
tp775
a(I548
g92
tp776
a(I548
g92
tp777
a(I548
g92
tp778
a(I548
g92
tp779
a(I548
g92
tp780
a(I548
g92
tp781
a(I548
g92
tp782
a(I548
g92
tp783
a(I548
g92
tp784
a(I548
g92
tp785
a(I548
g92
tp786
a(I548
g92
tp787
a(I548
g92
tp788
a(I548
g92
tp789
a(I548
g92
tp790
a(I548
g92
tp791
a(I548
g92
tp792
a(I548
g92
tp793
a(I548
g92
tp794
a(I548
g92
tp795
a(I548
g92
tp796
a(I548
g92
tp797
a(I548
g92
tp798
a(I548
g92
tp799
a(I548
g92
tp800
a(I548
g92
tp801
a(I548
g92
tp802
a(I548
g92
tp803
a(I548
g92
tp804
a(I548
g92
tp805
a(I548
g92
tp806
a(I548
g92
tp807
a(I548
g92
tp808
a(I548
g92
tp809
a(I0
g182
tp810
a(I548
g92
tp811
a(I548
g92
tp812
a(I548
g92
tp813
a(I548
g92
tp814
a(I548
g92
tp815
a(I548
g92
tp816
a(I548
g92
tp817
a(I548
g92
tp818
a(I548
g92
tp819
a(I548
g92
tp820
a(I548
g92
tp821
a(I548
g92
tp822
a(I548
g92
tp823
a(I548
g92
tp824
a(I548
g92
tp825
a(I548
g92
tp826
a(I548
g92
tp827
a(I548
g92
tp828
a(I548
g92
tp829
a(I548
g92
tp830
a(I548
g92
tp831
a(I548
g92
tp832
a(I548
g92
tp833
a(I548
g92
tp834
a(I548
g92
tp835
a(I548
g92
tp836
a(I548
g92
tp837
a(I548
g92
tp838
a(I548
g92
tp839
a(I548
g92
tp840
a(I568
(istructures.sensor
Sensor
p841
(dp842
g3
g92
sg8
g92
sg11
I5
sbtp843
a(I548
g92
tp844
a(I548
g92
tp845
a(I548
g92
tp846
a(I548
g92
tp847
a(I548
g92
tp848
a(I548
g92
tp849
a(I548
g92
tp850
a(I548
g92
tp851
a(I548
g92
tp852
a(I548
g92
tp853
a(I548
g92
tp854
a(I548
g92
tp855
a(I548
g92
tp856
a(I548
g92
tp857
a(I548
g92
tp858
a(I548
g92
tp859
a(I548
g92
tp860
a(I548
g92
tp861
a(I548
g92
tp862
a(I548
g92
tp863
a(I548
g92
tp864
a(I548
g92
tp865
a(I548
g92
tp866
a(I548
g92
tp867
a(I548
g92
tp868
a(I548
g92
tp869
a(I548
g92
tp870
a(I548
g92
tp871
a(I548
g92
tp872
a(I548
g92
tp873
a(I548
g92
tp874
a(I548
g92
tp875
a(I548
g92
tp876
a(I548
g92
tp877
a(I548
g92
tp878
a(I548
g92
tp879
a(I548
g92
tp880
a(I548
g92
tp881
a(I548
g92
tp882
a(I548
g92
tp883
a(I548
g92
tp884
a(I548
g92
tp885
a(I548
g92
tp886
a(I548
g92
tp887
a(I548
g92
tp888
a(I548
g92
tp889
a(I548
g92
tp890
a(I548
g92
tp891
a(I548
g92
tp892
a(I548
g92
tp893
a(I548
g92
tp894
a(I548
g92
tp895
a(I548
g92
tp896
a(I548
g92
tp897
a(I548
g92
tp898
a(I548
g92
tp899
a(I548
g92
tp900
a(I548
g92
tp901
a(I548
g92
tp902
a(I548
g92
tp903
a(I548
g92
tp904
a(I548
g92
tp905
a(I548
g92
tp906
a(I548
g92
tp907
a(I548
g92
tp908
a(I548
g92
tp909
a(I548
g92
tp910
a(I548
g92
tp911
a(I548
g92
tp912
a(I548
g92
tp913
a(I548
g92
tp914
a(I548
g92
tp915
a(I548
g92
tp916
a(I548
g92
tp917
a(I548
g92
tp918
a(I548
g92
tp919
a(I548
g92
tp920
a(I548
g92
tp921
a(I548
g92
tp922
a(I0
g272
tp923
a(I548
g92
tp924
a(I548
g92
tp925
a(I548
g92
tp926
a(I548
g92
tp927
a(I548
g92
tp928
a(I548
g92
tp929
a(I548
g92
tp930
a(I548
g92
tp931
a(I548
g92
tp932
a(I548
g92
tp933
a(I548
g92
tp934
a(I548
g92
tp935
a(I548
g92
tp936
a(I548
g92
tp937
a(I548
g92
tp938
a(I548
g92
tp939
a(I548
g92
tp940
a(I548
g92
tp941
a(I548
g92
tp942
a(I548
g92
tp943
a(I548
g92
tp944
a(I548
g92
tp945
a(I548
g92
tp946
a(I548
g92
tp947
a(I548
g92
tp948
a(I548
g92
tp949
a(I548
g92
tp950
a(I548
g92
tp951
a(I548
g92
tp952
a(I548
g92
tp953
a(I548
g92
tp954
a(I548
g92
tp955
a(I548
g92
tp956
a(I548
g92
tp957
a(I548
g92
tp958
a(I548
g92
tp959
a(I548
g92
tp960
a(I548
g92
tp961
a(I548
g92
tp962
a(I548
g92
tp963
a(I548
g92
tp964
a(I548
g92
tp965
a(I548
g92
tp966
a(I548
g92
tp967
a(I548
g92
tp968
a(I548
g92
tp969
a(I548
g92
tp970
a(I548
g92
tp971
a(I548
g92
tp972
a(I548
g92
tp973
a(I548
g92
tp974
a(I548
g92
tp975
a(I548
g92
tp976
a(I548
g92
tp977
a(I548
g92
tp978
a(I548
g92
tp979
a(I0
g47
tp980
a(I548
g92
tp981
a(I548
g92
tp982
a(I548
g92
tp983
a(I548
g92
tp984
a(I548
g92
tp985
a(I548
g92
tp986
a(I548
g92
tp987
a(I548
g92
tp988
a(I548
g92
tp989
a(I548
g92
tp990
a(I548
g92
tp991
a(I548
g92
tp992
a(I548
g92
tp993
a(I548
g92
tp994
a(I548
g92
tp995
a(I548
g92
tp996
a(I548
g92
tp997
a(I548
g92
tp998
a(I548
g92
tp999
a(I548
g92
tp1000
a(I548
g92
tp1001
a(I548
g92
tp1002
a(I548
g92
tp1003
a(I548
g92
tp1004
a(I548
g92
tp1005
a(I548
g92
tp1006
a(I548
g92
tp1007
a(I548
g92
tp1008
a(I548
g92
tp1009
a(I548
g92
tp1010
a(I548
g92
tp1011
a(I548
g92
tp1012
a(I548
g92
tp1013
a(I548
g92
tp1014
a(I548
g92
tp1015
a(I548
g92
tp1016
a(I548
g92
tp1017
a(I548
g92
tp1018
a(I548
g92
tp1019
a(I548
g92
tp1020
a(I548
g92
tp1021
a(I548
g92
tp1022
a(I548
g92
tp1023
a(I548
g92
tp1024
a(I548
g92
tp1025
a(I548
g92
tp1026
a(I548
g92
tp1027
a(I548
g92
tp1028
a(I548
g92
tp1029
a(I548
g92
tp1030
a(I548
g92
tp1031
a(I548
g92
tp1032
a(I548
g92
tp1033
a(I548
g92
tp1034
a(I548
g92
tp1035
a(I548
g92
tp1036
a(I548
g92
tp1037
a(I548
g92
tp1038
a(I548
g92
tp1039
a(I548
g92
tp1040
a(I548
g92
tp1041
a(I548
g92
tp1042
a(I548
g92
tp1043
a(I548
g92
tp1044
a(I548
g92
tp1045
a(I548
g92
tp1046
a(I548
g92
tp1047
a(I548
g92
tp1048
a(I548
g92
tp1049
a(I548
g92
tp1050
a(I548
g92
tp1051
a(I548
g92
tp1052
a(I548
g92
tp1053
a(I548
g92
tp1054
a(I548
g92
tp1055
a(I548
g92
tp1056
a(I548
g92
tp1057
a(I548
g92
tp1058
a(I548
g92
tp1059
a(I548
g92
tp1060
a(I548
g92
tp1061
a(I548
g92
tp1062
a(I548
g92
tp1063
a(I548
g92
tp1064
a(I548
g92
tp1065
a(I548
g92
tp1066
a(I548
g92
tp1067
a(I548
g92
tp1068
a(I548
g92
tp1069
a(I548
g92
tp1070
a(I548
g92
tp1071
a(I548
g92
tp1072
a(I548
g92
tp1073
a(I548
g92
tp1074
a(I548
g92
tp1075
a(I548
g92
tp1076
a(I548
g92
tp1077
a(I548
g92
tp1078
a(I548
g92
tp1079
a(I548
g92
tp1080
a(I548
g92
tp1081
a(I548
g92
tp1082
a(I548
g92
tp1083
a(I548
g92
tp1084
a(I548
g92
tp1085
a(I548
g92
tp1086
a(I548
g92
tp1087
a(I548
g92
tp1088
a(I548
g92
tp1089
a(I548
g92
tp1090
a(I548
g92
tp1091
a(I548
g92
tp1092
a(I548
g92
tp1093
a(I548
g92
tp1094
a(I548
g92
tp1095
a(I548
g92
tp1096
a(I548
g92
tp1097
a(I548
g92
tp1098
a(I548
g92
tp1099
a(I548
g92
tp1100
a(I548
g92
tp1101
a(I548
g92
tp1102
a(I548
g92
tp1103
a(I548
g92
tp1104
a(I548
g92
tp1105
a(I548
g92
tp1106
a(I548
g92
tp1107
a(I548
g92
tp1108
a(I548
g92
tp1109
a(I548
g92
tp1110
a(I548
g92
tp1111
a(I548
g92
tp1112
a(I548
g92
tp1113
a(I548
g92
tp1114
a(I548
g92
tp1115
a(I548
g92
tp1116
a(I548
g92
tp1117
a(I548
g92
tp1118
a(I548
g92
tp1119
a(I548
g92
tp1120
a(I548
g92
tp1121
a(I548
g92
tp1122
a(I548
g92
tp1123
a(I548
g92
tp1124
a(I548
g92
tp1125
a(I548
g92
tp1126
a(I548
g92
tp1127
a(I548
g92
tp1128
a(I548
g92
tp1129
a(I548
g92
tp1130
a(I548
g92
tp1131
a(I548
g92
tp1132
a(I548
g92
tp1133
a(I548
g92
tp1134
a(I548
g92
tp1135
a(I548
g92
tp1136
a(I548
g92
tp1137
a(I548
g92
tp1138
a(I548
g92
tp1139
a(I548
g92
tp1140
a(I548
g92
tp1141
a(I548
g92
tp1142
a(I548
g92
tp1143
a(I548
g92
tp1144
a(I548
g92
tp1145
a(I548
g92
tp1146
a(I548
g92
tp1147
a(I548
g92
tp1148
a(I548
g92
tp1149
a(I548
g92
tp1150
a(I548
g92
tp1151
a(I548
g92
tp1152
a(I548
g92
tp1153
a(I548
g92
tp1154
a(I548
g92
tp1155
a(I548
g92
tp1156
a(I548
g92
tp1157
a(I548
g92
tp1158
a(I548
g92
tp1159
a(I548
g92
tp1160
a(I548
g92
tp1161
a(I548
g92
tp1162
a(I548
g92
tp1163
a(I548
g92
tp1164
a(I548
g92
tp1165
a(I548
g92
tp1166
a(I548
g92
tp1167
a(I548
g92
tp1168
a(I548
g92
tp1169
a(I548
g92
tp1170
a(I548
g92
tp1171
a(I548
g92
tp1172
a(I548
g92
tp1173
a(I548
g92
tp1174
a(I548
g92
tp1175
a(I548
g92
tp1176
a(I548
g92
tp1177
a(I548
g92
tp1178
a(I548
g92
tp1179
a(I548
g92
tp1180
a(I548
g92
tp1181
a(I548
g92
tp1182
a(I548
g92
tp1183
a(I548
g92
tp1184
a(I548
g92
tp1185
a(I548
g92
tp1186
a(I548
g92
tp1187
a(I548
g92
tp1188
a(I548
g92
tp1189
a(I548
g92
tp1190
a(I548
g92
tp1191
a(I548
g92
tp1192
a(I548
g92
tp1193
a(I548
g92
tp1194
a(I548
g92
tp1195
a(I548
g92
tp1196
a(I548
g92
tp1197
a(I548
g92
tp1198
a(I548
g92
tp1199
a(I548
g92
tp1200
a(I548
g92
tp1201
a(I548
g92
tp1202
a(I548
g92
tp1203
a(I548
g92
tp1204
a(I548
g92
tp1205
a(I548
g92
tp1206
a(I548
g92
tp1207
a(I548
g92
tp1208
a(I548
g92
tp1209
a(I548
g92
tp1210
a(I548
g92
tp1211
a(I548
g92
tp1212
a(I548
g92
tp1213
a(I548
g92
tp1214
a(I548
g92
tp1215
a(I548
g92
tp1216
a(I548
g92
tp1217
a(I548
g92
tp1218
a(I548
g92
tp1219
a(I548
g92
tp1220
a(I548
g92
tp1221
a(I548
g92
tp1222
a(I548
g92
tp1223
a(I548
g92
tp1224
a(I548
g92
tp1225
a(I548
g92
tp1226
a(I548
g92
tp1227
a(I548
g92
tp1228
a(I548
g92
tp1229
a(I548
g92
tp1230
a(I548
g92
tp1231
a(I548
g92
tp1232
a(I548
g92
tp1233
a(I548
g92
tp1234
a(I548
g92
tp1235
a(I548
g92
tp1236
a(I548
g92
tp1237
a(I548
g92
tp1238
a(I548
g92
tp1239
a(I548
g92
tp1240
a(I548
g92
tp1241
a(I548
g92
tp1242
a(I548
g92
tp1243
a(I548
g92
tp1244
a(I548
g92
tp1245
a(I548
g92
tp1246
a(I548
g92
tp1247
a(I548
g92
tp1248
a(I548
g92
tp1249
a(I548
g92
tp1250
a(I548
g92
tp1251
a(I548
g92
tp1252
a(I548
g92
tp1253
a(I548
g92
tp1254
a(I548
g92
tp1255
a(I548
g92
tp1256
a(I548
g92
tp1257
a(I548
g92
tp1258
a(I548
g92
tp1259
a(I548
g92
tp1260
a(I548
g92
tp1261
a(I548
g92
tp1262
a(I548
g92
tp1263
a(I548
g92
tp1264
a(I548
g92
tp1265
a(I548
g92
tp1266
a(I548
g92
tp1267
a(I548
g92
tp1268
a(I548
g92
tp1269
a(I548
g92
tp1270
a(I548
g92
tp1271
a(I548
g92
tp1272
a(I548
g92
tp1273
a(I548
g92
tp1274
a(I548
g92
tp1275
a(I548
g92
tp1276
a(I548
g92
tp1277
a(I548
g92
tp1278
a(I548
g92
tp1279
a(I548
g92
tp1280
a(I548
g92
tp1281
a(I548
g92
tp1282
a(I548
g92
tp1283
a(I548
g92
tp1284
a(I548
g92
tp1285
a(I548
g92
tp1286
a(I548
g92
tp1287
a(I548
g92
tp1288
a(I548
g92
tp1289
a(I548
g92
tp1290
a(I548
g92
tp1291
a(I548
g92
tp1292
a(I548
g92
tp1293
a(I548
g92
tp1294
a(I548
g92
tp1295
a(I548
g92
tp1296
a(I548
g92
tp1297
a(I548
g92
tp1298
a(I548
g92
tp1299
a(I548
g92
tp1300
a(I548
g92
tp1301
a(I548
g92
tp1302
a(I548
g92
tp1303
a(I548
g92
tp1304
a(I548
g92
tp1305
a(I548
g92
tp1306
a(I548
g92
tp1307
a(I548
g92
tp1308
a(I548
g92
tp1309
a(I548
g92
tp1310
a(I548
g92
tp1311
a(I548
g92
tp1312
a(I548
g92
tp1313
a(I548
g92
tp1314
a(I548
g92
tp1315
a(I548
g92
tp1316
a(I548
g92
tp1317
a(I548
g92
tp1318
a(I548
g92
tp1319
a(I548
g92
tp1320
a(I548
g92
tp1321
a(I548
g92
tp1322
a(I548
g92
tp1323
a(I548
g92
tp1324
a(I548
g92
tp1325
a(I548
g92
tp1326
a(I548
g92
tp1327
a(I548
g92
tp1328
a(I548
g92
tp1329
a(I548
g92
tp1330
a(I548
g92
tp1331
a(I548
g92
tp1332
a(I548
g92
tp1333
a(I548
g92
tp1334
a(I548
g92
tp1335
a(I548
g92
tp1336
a(I548
g92
tp1337
a(I548
g92
tp1338
a(I548
g92
tp1339
a(I548
g92
tp1340
a(I548
g92
tp1341
a(I548
g92
tp1342
a(I548
g92
tp1343
a(I548
g92
tp1344
a(I548
g92
tp1345
a(I548
g92
tp1346
a(I548
g92
tp1347
a(I548
g92
tp1348
a(I548
g92
tp1349
a(I548
g92
tp1350
a(I548
g92
tp1351
a(I548
g92
tp1352
a(I548
g92
tp1353
a(I548
g92
tp1354
a(I548
g92
tp1355
a(I548
g92
tp1356
a(I548
g92
tp1357
a(I548
g92
tp1358
a(I548
g92
tp1359
a(I548
g92
tp1360
a(I548
g92
tp1361
a(I548
g92
tp1362
a(I548
g92
tp1363
a(I548
g92
tp1364
a(I548
g92
tp1365
a(I548
g92
tp1366
a(I548
g92
tp1367
a(I548
g92
tp1368
a(I548
g92
tp1369
a(I548
g92
tp1370
a(I548
g92
tp1371
a(I548
g92
tp1372
a(I548
g92
tp1373
a(I548
g92
tp1374
a(I548
g92
tp1375
a(I548
g92
tp1376
a(I548
g92
tp1377
a(I548
g92
tp1378
a(I548
g92
tp1379
a(I548
g92
tp1380
a(I548
g92
tp1381
a(I548
g92
tp1382
a(I548
g92
tp1383
a(I548
g92
tp1384
a(I548
g92
tp1385
a(I548
g92
tp1386
a(I548
g92
tp1387
a(I548
g92
tp1388
a(I548
g92
tp1389
a(I548
g92
tp1390
a(I548
g92
tp1391
a(I548
g92
tp1392
a(I548
g92
tp1393
a(I548
g92
tp1394
a(I548
g92
tp1395
a(I548
g92
tp1396
a(I548
g92
tp1397
a(I548
g92
tp1398
a(I548
g92
tp1399
a(I548
g92
tp1400
a(I548
g92
tp1401
a(I548
g92
tp1402
a(I548
g92
tp1403
a(I548
g92
tp1404
a(I548
g92
tp1405
a(I548
g92
tp1406
a(I548
g92
tp1407
a(I548
g92
tp1408
a(I548
g92
tp1409
a(I548
g92
tp1410
a(I548
g92
tp1411
a(I548
g92
tp1412
a(I548
g92
tp1413
a(I548
g92
tp1414
a(I548
g92
tp1415
a(I548
g92
tp1416
a(I548
g92
tp1417
a(I548
g92
tp1418
a(I548
g92
tp1419
a(I548
g92
tp1420
a(I548
g92
tp1421
a(I548
g92
tp1422
a(I548
g92
tp1423
a(I548
g92
tp1424
a(I548
g92
tp1425
a(I548
g92
tp1426
a(I548
g92
tp1427
a(I548
g92
tp1428
a(I548
g92
tp1429
a(I548
g92
tp1430
a(I548
g92
tp1431
a(I548
g92
tp1432
a(I548
g92
tp1433
a(I548
g92
tp1434
a(I548
g92
tp1435
a(I548
g92
tp1436
a(I548
g92
tp1437
a(I548
g92
tp1438
a(I548
g92
tp1439
a(I548
g92
tp1440
a(I548
g92
tp1441
a(I548
g92
tp1442
a(I548
g92
tp1443
a(I548
g92
tp1444
a(I548
g92
tp1445
a(I548
g92
tp1446
a(I548
g92
tp1447
a(I548
g92
tp1448
a(I548
g92
tp1449
a(I548
g92
tp1450
a(I548
g92
tp1451
a(I548
g92
tp1452
a(I548
g92
tp1453
a(I548
g92
tp1454
a(I548
g92
tp1455
a(I548
g92
tp1456
a(I548
g92
tp1457
a(I548
g92
tp1458
a(I548
g92
tp1459
a(I548
g92
tp1460
a(I548
g92
tp1461
a(I548
g92
tp1462
a(I548
g92
tp1463
a(I548
g92
tp1464
a(I548
g92
tp1465
a(I548
g92
tp1466
a(I548
g92
tp1467
a(I548
g92
tp1468
a(I548
g92
tp1469
a(I548
g92
tp1470
a(I548
g92
tp1471
a(I548
g92
tp1472
a(I548
g92
tp1473
a(I548
g92
tp1474
a(I548
g92
tp1475
a(I548
g92
tp1476
a(I548
g92
tp1477
a(I548
g92
tp1478
a(I548
g92
tp1479
a(I548
g92
tp1480
a(I548
g92
tp1481
a(I548
g92
tp1482
a(I548
g92
tp1483
a(I548
g92
tp1484
a(I548
g92
tp1485
a(I548
g92
tp1486
a(I548
g92
tp1487
a(I548
g92
tp1488
a(I548
g92
tp1489
a(I548
g92
tp1490
a(I548
g92
tp1491
a(I548
g92
tp1492
a(I548
g92
tp1493
a(I548
g92
tp1494
a(I548
g92
tp1495
a(I548
g92
tp1496
a(I548
g92
tp1497
a(I548
g92
tp1498
a(I548
g92
tp1499
a(I548
g92
tp1500
a(I548
g92
tp1501
a(I548
g92
tp1502
a(I548
g92
tp1503
a(I548
g92
tp1504
a(I548
g92
tp1505
a(I548
g92
tp1506
a(I548
g92
tp1507
a(I548
g92
tp1508
a(I548
g92
tp1509
a(I548
g92
tp1510
a(I548
g92
tp1511
a(I548
g92
tp1512
a(I548
g92
tp1513
a(I548
g92
tp1514
a(I548
g92
tp1515
a(I548
g92
tp1516
a(I548
g92
tp1517
a(I548
g92
tp1518
a(I548
g92
tp1519
a(I548
g92
tp1520
a(I548
g92
tp1521
a(I548
g92
tp1522
a(I548
g92
tp1523
a(I548
g92
tp1524
a(I548
g92
tp1525
a(I548
g92
tp1526
a(I548
g92
tp1527
a(I548
g92
tp1528
a(I548
g92
tp1529
a(I548
g92
tp1530
a(I548
g92
tp1531
a(I548
g92
tp1532
a(I548
g92
tp1533
a(I548
g92
tp1534
a(I548
g92
tp1535
a(I548
g92
tp1536
a(I548
g92
tp1537
a(I548
g92
tp1538
a(I548
g92
tp1539
a(I548
g92
tp1540
a(I548
g92
tp1541
a(I548
g92
tp1542
a(I548
g92
tp1543
a(I548
g92
tp1544
a(I548
g92
tp1545
a(I548
g92
tp1546
a(I548
g92
tp1547
a(I548
g92
tp1548
a(I548
g92
tp1549
a(I548
g92
tp1550
a(I548
g92
tp1551
a(I548
g92
tp1552
a(I548
g92
tp1553
a(I548
g92
tp1554
a(I548
g92
tp1555
a(I548
g92
tp1556
a(I548
g92
tp1557
a(I548
g92
tp1558
a(I548
g92
tp1559
a(I548
g92
tp1560
a(I548
g92
tp1561
a(I548
g92
tp1562
a(I548
g92
tp1563
a(I548
g92
tp1564
a(I548
g92
tp1565
a(I548
g92
tp1566
a(I548
g92
tp1567
a(I548
g92
tp1568
a(I548
g92
tp1569
a(I548
g92
tp1570
a(I548
g92
tp1571
a(I548
g92
tp1572
a(I548
g92
tp1573
a(I548
g92
tp1574
a(I548
g92
tp1575
a(I548
g92
tp1576
a(I548
g92
tp1577
a(I548
g92
tp1578
a(I548
g92
tp1579
a(I548
g92
tp1580
a(I548
g92
tp1581
a(I548
g92
tp1582
a(I548
g92
tp1583
a(I548
g92
tp1584
a(I548
g92
tp1585
a(I548
g92
tp1586
a(I548
g92
tp1587
a(I548
g92
tp1588
a(I548
g92
tp1589
a(I548
g92
tp1590
a(I548
g92
tp1591
a(I548
g92
tp1592
a(I548
g92
tp1593
a(I548
g92
tp1594
a(I548
g92
tp1595
a(I548
g92
tp1596
a(I548
g92
tp1597
a(I548
g92
tp1598
a(I548
g92
tp1599
a(I548
g92
tp1600
a(I548
g92
tp1601
a(I548
g92
tp1602
a(I548
g92
tp1603
a(I548
g92
tp1604
a(I548
g92
tp1605
a(I548
g92
tp1606
a(I548
g92
tp1607
a(I548
g92
tp1608
a(I548
g92
tp1609
a(I548
g92
tp1610
a(I548
g92
tp1611
a(I548
g92
tp1612
a(I548
g92
tp1613
a(I548
g92
tp1614
a(I548
g92
tp1615
a(I548
g92
tp1616
a(I548
g92
tp1617
a(I548
g92
tp1618
a(I548
g92
tp1619
a(I548
g92
tp1620
a(I548
g92
tp1621
a(I548
g92
tp1622
a(I548
g92
tp1623
a(I548
g92
tp1624
a(I548
g92
tp1625
a(I548
g92
tp1626
a(I548
g92
tp1627
a(I548
g92
tp1628
a(I548
g92
tp1629
a(I548
g92
tp1630
a(I548
g92
tp1631
a(I548
g92
tp1632
a(I548
g92
tp1633
a(I548
g92
tp1634
a(I548
g92
tp1635
a(I548
g92
tp1636
a(I548
g92
tp1637
a(I548
g92
tp1638
a(I548
g92
tp1639
a(I548
g92
tp1640
a(I548
g92
tp1641
a(I548
g92
tp1642
a(I548
g92
tp1643
a(I548
g92
tp1644
a(I548
g92
tp1645
a(I548
g92
tp1646
a(I548
g92
tp1647
a(I548
g92
tp1648
a(I548
g92
tp1649
a(I548
g92
tp1650
a(I548
g92
tp1651
a(I548
g92
tp1652
a(I548
g92
tp1653
a(I548
g92
tp1654
a(I548
g92
tp1655
a(I548
g92
tp1656
a(I548
g92
tp1657
a(I548
g92
tp1658
a(I548
g92
tp1659
a(I548
g92
tp1660
a(I548
g92
tp1661
a(I548
g92
tp1662
a(I548
g92
tp1663
a(I548
g92
tp1664
a(I548
g92
tp1665
a(I548
g92
tp1666
a(I548
g92
tp1667
a(I548
g92
tp1668
a(I548
g92
tp1669
a(I548
g92
tp1670
a(I548
g92
tp1671
a(I548
g92
tp1672
a(I548
g92
tp1673
a(I548
g92
tp1674
a(I548
g92
tp1675
a(I548
g92
tp1676
a(I548
g92
tp1677
a(I548
g92
tp1678
a(I548
g92
tp1679
a(I548
g92
tp1680
a(I548
g92
tp1681
a(I548
g92
tp1682
a(I548
g92
tp1683
a(I548
g92
tp1684
a(I548
g92
tp1685
a(I548
g92
tp1686
a(I548
g92
tp1687
a(I548
g92
tp1688
a(I548
g92
tp1689
a(I548
g92
tp1690
a(I548
g92
tp1691
a(I548
g92
tp1692
a(I548
g92
tp1693
a(I548
g92
tp1694
a(I548
g92
tp1695
a(I548
g92
tp1696
a(I548
g92
tp1697
a(I548
g92
tp1698
a(I548
g92
tp1699
a(I548
g92
tp1700
a(I548
g92
tp1701
a(I548
g92
tp1702
a(I548
g92
tp1703
a(I548
g92
tp1704
a(I548
g92
tp1705
a(I548
g92
tp1706
a(I548
g92
tp1707
a(I548
g92
tp1708
a(I548
g92
tp1709
a(I548
g92
tp1710
a(I548
g92
tp1711
a(I548
g92
tp1712
a(I548
g92
tp1713
a(I548
g92
tp1714
a(I548
g92
tp1715
a(I548
g92
tp1716
a(I548
g92
tp1717
a(I548
g92
tp1718
a(I548
g92
tp1719
a(I548
g92
tp1720
a(I548
g92
tp1721
a(I548
g92
tp1722
a(I548
g92
tp1723
a(I548
g92
tp1724
a(I548
g92
tp1725
a(I548
g92
tp1726
a(I548
g92
tp1727
a(I548
g92
tp1728
a(I548
g92
tp1729
a(I548
g92
tp1730
a(I548
g92
tp1731
a(I548
g92
tp1732
a(I548
g92
tp1733
a(I548
g92
tp1734
a(I548
g92
tp1735
a(I548
g92
tp1736
a(I548
g92
tp1737
a(I548
g92
tp1738
a(I548
g92
tp1739
a(I548
g92
tp1740
a(I548
g92
tp1741
a(I548
g92
tp1742
a(I548
g92
tp1743
a(I548
g92
tp1744
a(I548
g92
tp1745
a(I548
g92
tp1746
a(I548
g92
tp1747
a(I548
g92
tp1748
a(I548
g92
tp1749
a(I548
g92
tp1750
a(I548
g92
tp1751
a(I548
g92
tp1752
a(I548
g92
tp1753
a(I548
g92
tp1754
a(I548
g92
tp1755
a(I548
g92
tp1756
a(I548
g92
tp1757
a(I548
g92
tp1758
a(I548
g92
tp1759
a(I548
g92
tp1760
a(I548
g92
tp1761
a(I548
g92
tp1762
a(I548
g92
tp1763
a(I548
g92
tp1764
a(I548
g92
tp1765
a(I548
g92
tp1766
a(I548
g92
tp1767
a(I548
g92
tp1768
a(I548
g92
tp1769
a(I548
g92
tp1770
a(I548
g92
tp1771
a(I548
g92
tp1772
a(I548
g92
tp1773
a(I548
g92
tp1774
a(I548
g92
tp1775
a(I548
g92
tp1776
a(I548
g92
tp1777
a(I548
g92
tp1778
a(I548
g92
tp1779
a(I548
g92
tp1780
a(I548
g92
tp1781
a(I548
g92
tp1782
a(I548
g92
tp1783
a(I548
g92
tp1784
a(I548
g92
tp1785
a(I548
g92
tp1786
a(I548
g92
tp1787
a(I548
g92
tp1788
a(I548
g92
tp1789
a(I548
g92
tp1790
a(I548
g92
tp1791
a(I548
g92
tp1792
a(I548
g92
tp1793
a(I548
g92
tp1794
a(I548
g92
tp1795
a(I548
g92
tp1796
a(I548
g92
tp1797
a(I548
g92
tp1798
a(I548
g92
tp1799
a(I548
g92
tp1800
a(I548
g92
tp1801
a(I548
g92
tp1802
a(I548
g92
tp1803
a(I548
g92
tp1804
a(I548
g92
tp1805
a(I548
g92
tp1806
a(I548
g92
tp1807
a(I548
g92
tp1808
a(I548
g92
tp1809
a(I548
g92
tp1810
a(I548
g92
tp1811
a(I548
g92
tp1812
a(I548
g92
tp1813
a(I548
g92
tp1814
a(I548
g92
tp1815
a(I548
g92
tp1816
a(I548
g92
tp1817
a(I548
g92
tp1818
a(I548
g92
tp1819
a(I548
g92
tp1820
a(I548
g92
tp1821
a(I548
g92
tp1822
a(I548
g92
tp1823
a(I548
g92
tp1824
a(I548
g92
tp1825
a(I548
g92
tp1826
a(I548
g92
tp1827
a(I548
g92
tp1828
a(I548
g92
tp1829
a(I548
g92
tp1830
a(I548
g92
tp1831
a(I548
g92
tp1832
a(I548
g92
tp1833
a(I548
g92
tp1834
a(I548
g92
tp1835
a(I548
g92
tp1836
a(I548
g92
tp1837
a(I548
g92
tp1838
a(I548
g92
tp1839
a(I548
g92
tp1840
a(I548
g92
tp1841
a(I548
g92
tp1842
a(I548
g92
tp1843
a(I548
g92
tp1844
a(I548
g92
tp1845
a(I548
g92
tp1846
a(I548
g92
tp1847
a(I548
g92
tp1848
a(I548
g92
tp1849
a(I548
g92
tp1850
a(I548
g92
tp1851
a(I548
g92
tp1852
a(I548
g92
tp1853
a(I548
g92
tp1854
a(I548
g92
tp1855
a(I548
g92
tp1856
a(I548
g92
tp1857
a(I548
g92
tp1858
a(I548
g92
tp1859
a(I548
g92
tp1860
a(I548
g92
tp1861
a(I548
g92
tp1862
a(I548
g92
tp1863
a(I548
g92
tp1864
a(I548
g92
tp1865
a(I548
g92
tp1866
a(I548
g92
tp1867
a(I548
g92
tp1868
a(I548
g92
tp1869
a(I548
g92
tp1870
a(I548
g92
tp1871
a(I548
g92
tp1872
a(I548
g92
tp1873
a(I548
g92
tp1874
a(I548
g92
tp1875
a(I548
g92
tp1876
a(I548
g92
tp1877
a(I548
g92
tp1878
a(I548
g92
tp1879
a(I548
g92
tp1880
a(I548
g92
tp1881
a(I548
g92
tp1882
a(I548
g92
tp1883
a(I548
g92
tp1884
a(I548
g92
tp1885
a(I548
g92
tp1886
a(I548
g92
tp1887
a(I548
g92
tp1888
a(I548
g92
tp1889
a(I548
g92
tp1890
a(I548
g92
tp1891
a(I548
g92
tp1892
a(I548
g92
tp1893
a(I548
g92
tp1894
a(I548
g92
tp1895
a(I548
g92
tp1896
a(I548
g92
tp1897
a(I548
g92
tp1898
a(I548
g92
tp1899
a(I548
g92
tp1900
a(I548
g92
tp1901
a(I548
g92
tp1902
a(I548
g92
tp1903
a(I548
g92
tp1904
a(I548
g92
tp1905
a(I548
g92
tp1906
a(I548
g92
tp1907
a(I548
g92
tp1908
a(I548
g92
tp1909
a(I548
g92
tp1910
a(I548
g92
tp1911
a(I548
g92
tp1912
a(I548
g92
tp1913
a(I548
g92
tp1914
a(I548
g92
tp1915
a(I548
g92
tp1916
a(I548
g92
tp1917
a(I548
g92
tp1918
a(I548
g92
tp1919
a(I548
g92
tp1920
a(I548
g92
tp1921
a(I548
g92
tp1922
a(I548
g92
tp1923
a(I548
g92
tp1924
a(I548
g92
tp1925
a(I548
g92
tp1926
a(I548
g92
tp1927
a(I548
g92
tp1928
a(I548
g92
tp1929
a(I548
g92
tp1930
a(I548
g92
tp1931
a(I548
g92
tp1932
a(I548
g92
tp1933
a(I548
g92
tp1934
a(I548
g92
tp1935
a(I548
g92
tp1936
a(I548
g92
tp1937
a(I548
g92
tp1938
a(I548
g92
tp1939
a(I548
g92
tp1940
a(I548
g92
tp1941
a(I548
g92
tp1942
a(I548
g92
tp1943
a(I548
g92
tp1944
a(I548
g92
tp1945
a(I548
g92
tp1946
a(I548
g92
tp1947
a(I548
g92
tp1948
a(I548
g92
tp1949
a(I548
g92
tp1950
a(I548
g92
tp1951
a(I548
g92
tp1952
a(I548
g92
tp1953
a(I548
g92
tp1954
a(I548
g92
tp1955
a(I548
g92
tp1956
a(I548
g92
tp1957
a(I548
g92
tp1958
a(I548
g92
tp1959
a(I548
g92
tp1960
a(I548
g92
tp1961
a(I548
g92
tp1962
a(I548
g92
tp1963
a(I548
g92
tp1964
a(I548
g92
tp1965
a(I548
g92
tp1966
a(I548
g92
tp1967
a(I548
g92
tp1968
a(I548
g92
tp1969
a(I548
g92
tp1970
a(I548
g92
tp1971
a(I548
g92
tp1972
a(I548
g92
tp1973
a(I548
g92
tp1974
a(I548
g92
tp1975
a(I548
g92
tp1976
a(I548
g92
tp1977
a(I548
g92
tp1978
a(I548
g92
tp1979
a(I548
g92
tp1980
a(I548
g92
tp1981
a(I548
g92
tp1982
a(I548
g92
tp1983
a(I548
g92
tp1984
a(I548
g92
tp1985
a(I548
g92
tp1986
a(I548
g92
tp1987
a(I548
g92
tp1988
a(I548
g92
tp1989
a(I548
g92
tp1990
a(I548
g92
tp1991
a(I548
g92
tp1992
a(I548
g92
tp1993
a(I548
g92
tp1994
a(I548
g92
tp1995
a(I548
g92
tp1996
a(I548
g92
tp1997
a(I548
g92
tp1998
a(I548
g92
tp1999
a(I548
g92
tp2000
a(I548
g92
tp2001
a(I548
g92
tp2002
a(I548
g92
tp2003
a(I548
g92
tp2004
a(I548
g92
tp2005
a(I548
g92
tp2006
a(I548
g92
tp2007
a(I548
g92
tp2008
a(I548
g92
tp2009
a(I548
g92
tp2010
a(I548
g92
tp2011
a(I548
g92
tp2012
a(I548
g92
tp2013
a(I548
g92
tp2014
a(I548
g92
tp2015
a(I548
g92
tp2016
a(I548
g92
tp2017
a(I548
g92
tp2018
a(I548
g92
tp2019
a(I548
g92
tp2020
a(I548
g92
tp2021
a(I548
g92
tp2022
a(I548
g92
tp2023
a(I548
g92
tp2024
a(I548
g92
tp2025
a(I548
g92
tp2026
a(I548
g92
tp2027
a(I548
g92
tp2028
a(I548
g92
tp2029
a(I548
g92
tp2030
a(I548
g92
tp2031
a(I548
g92
tp2032
a(I548
g92
tp2033
a(I548
g92
tp2034
a(I548
g92
tp2035
a(I548
g92
tp2036
a(I548
g92
tp2037
a(I548
g92
tp2038
a(I548
g92
tp2039
a(I548
g92
tp2040
a(I548
g92
tp2041
a(I548
g92
tp2042
a(I548
g92
tp2043
a(I548
g92
tp2044
a(I548
g92
tp2045
a(I548
g92
tp2046
a(I548
g92
tp2047
a(I548
g92
tp2048
a(I548
g92
tp2049
a(I548
g92
tp2050
a(I548
g92
tp2051
a(I548
g92
tp2052
a(I548
g92
tp2053
a(I548
g92
tp2054
a(I548
g92
tp2055
a(I548
g92
tp2056
a(I548
g92
tp2057
a(I548
g92
tp2058
a(I548
g92
tp2059
a(I548
g92
tp2060
a(I548
g92
tp2061
a(I548
g92
tp2062
a(I548
g92
tp2063
a(I548
g92
tp2064
a(I548
g92
tp2065
a(I548
g92
tp2066
a(I548
g92
tp2067
a(I548
g92
tp2068
a(I548
g92
tp2069
a(I548
g92
tp2070
a(I548
g92
tp2071
a(I548
g92
tp2072
a(I548
g92
tp2073
a(I548
g92
tp2074
a(I548
g92
tp2075
a(I548
g92
tp2076
a(I548
g92
tp2077
a(I548
g92
tp2078
a(I548
g92
tp2079
a(I548
g92
tp2080
a(I548
g92
tp2081
a(I548
g92
tp2082
a(I548
g92
tp2083
a(I548
g92
tp2084
a(I548
g92
tp2085
a(I548
g92
tp2086
a(I548
g92
tp2087
a(I548
g92
tp2088
a(I548
g92
tp2089
a(I548
g92
tp2090
a(I548
g92
tp2091
a(I548
g92
tp2092
a(I548
g92
tp2093
a(I548
g92
tp2094
a(I548
g92
tp2095
a(I548
g92
tp2096
a(I548
g92
tp2097
a(I548
g92
tp2098
a(I548
g92
tp2099
a(I548
g92
tp2100
a(I548
g92
tp2101
a(I548
g92
tp2102
a(I548
g92
tp2103
a(I548
g92
tp2104
a(I548
g92
tp2105
a(I548
g92
tp2106
a(I548
g92
tp2107
a(I548
g92
tp2108
a(I548
g92
tp2109
a(I548
g92
tp2110
a(I548
g92
tp2111
a(I548
g92
tp2112
a(I548
g92
tp2113
a(I548
g92
tp2114
a(I548
g92
tp2115
a(I548
g92
tp2116
a(I548
g92
tp2117
a(I548
g92
tp2118
a(I548
g92
tp2119
a(I548
g92
tp2120
a(I548
g92
tp2121
a(I548
g92
tp2122
a(I548
g92
tp2123
a(I548
g92
tp2124
a(I548
g92
tp2125
a(I548
g92
tp2126
a(I548
g92
tp2127
a(I548
g92
tp2128
a(I548
g92
tp2129
a(I548
g92
tp2130
a(I548
g92
tp2131
a(I548
g92
tp2132
a(I548
g92
tp2133
a(I548
g92
tp2134
a(I548
g92
tp2135
a(I548
g92
tp2136
a(I548
g92
tp2137
a(I548
g92
tp2138
a(I548
g92
tp2139
a(I548
g92
tp2140
a(I548
g92
tp2141
a(I548
g92
tp2142
a(I548
g92
tp2143
a(I548
g92
tp2144
a(I548
g92
tp2145
a(I548
g92
tp2146
a(I548
g92
tp2147
a(I548
g92
tp2148
a(I548
g92
tp2149
a(I548
g92
tp2150
a(I548
g92
tp2151
a(I548
g92
tp2152
a(I548
g92
tp2153
a(I548
g92
tp2154
a(I548
g92
tp2155
a(I548
g92
tp2156
a(I548
g92
tp2157
a(I548
g92
tp2158
a(I548
g92
tp2159
a(I548
g92
tp2160
a(I548
g92
tp2161
a(I548
g92
tp2162
a(I548
g92
tp2163
a(I548
g92
tp2164
a(I548
g92
tp2165
a(I548
g92
tp2166
a(I548
g92
tp2167
a(I548
g92
tp2168
a(I548
g92
tp2169
a(I548
g92
tp2170
a(I548
g92
tp2171
a(I548
g92
tp2172
a(I548
g92
tp2173
a(I548
g92
tp2174
a(I548
g92
tp2175
a(I548
g92
tp2176
a(I548
g92
tp2177
a(I548
g92
tp2178
a(I548
g92
tp2179
a(I548
g92
tp2180
a(I548
g92
tp2181
a(I548
g92
tp2182
a(I548
g92
tp2183
a(I548
g92
tp2184
a(I548
g92
tp2185
a(I548
g92
tp2186
a(I548
g92
tp2187
a(I548
g92
tp2188
a(I548
g92
tp2189
a(I548
g92
tp2190
a(I548
g92
tp2191
a(I548
g92
tp2192
a(I548
g92
tp2193
a(I548
g92
tp2194
a(I548
g92
tp2195
a(I548
g92
tp2196
a(I548
g92
tp2197
a(I548
g92
tp2198
a(I548
g92
tp2199
a(I548
g92
tp2200
a(I548
g92
tp2201
a(I548
g92
tp2202
a(I548
g92
tp2203
a(I548
g92
tp2204
a(I548
g92
tp2205
a(I548
g92
tp2206
a(I548
g92
tp2207
a(I548
g92
tp2208
a(I548
g92
tp2209
a(I548
g92
tp2210
a(I548
g92
tp2211
a(I548
g92
tp2212
a(I548
g92
tp2213
a(I548
g92
tp2214
a(I548
g92
tp2215
a(I548
g92
tp2216
a(I548
g92
tp2217
a(I548
g92
tp2218
a(I548
g92
tp2219
a(I548
g92
tp2220
a(I548
g92
tp2221
a(I548
g92
tp2222
a(I548
g92
tp2223
a(I548
g92
tp2224
a(I548
g92
tp2225
a(I548
g92
tp2226
a(I548
g92
tp2227
a(I548
g92
tp2228
a(I548
g92
tp2229
a(I548
g92
tp2230
a(I548
g92
tp2231
a(I548
g92
tp2232
a(I548
g92
tp2233
a(I548
g92
tp2234
a(I548
g92
tp2235
a(I548
g92
tp2236
a(I548
g92
tp2237
a(I548
g92
tp2238
a(I548
g92
tp2239
a(I548
g92
tp2240
a(I548
g92
tp2241
a(I548
g92
tp2242
a(I548
g92
tp2243
a(I548
g92
tp2244
a(I548
g92
tp2245
a(I548
g92
tp2246
a(I548
g92
tp2247
a(I548
g92
tp2248
a(I548
g92
tp2249
a(I548
g92
tp2250
a(I548
g92
tp2251
a(I548
g92
tp2252
a(I548
g92
tp2253
a(I548
g92
tp2254
a(I548
g92
tp2255
a(I548
g92
tp2256
a(I548
g92
tp2257
a(I548
g92
tp2258
a(I548
g92
tp2259
a(I548
g92
tp2260
a(I548
g92
tp2261
a(I548
g92
tp2262
a(I548
g92
tp2263
a(I548
g92
tp2264
a(I548
g92
tp2265
a(I548
g92
tp2266
a(I548
g92
tp2267
a(I548
g92
tp2268
a(I548
g92
tp2269
a(I548
g92
tp2270
a(I548
g92
tp2271
a(I548
g92
tp2272
a(I548
g92
tp2273
a(I548
g92
tp2274
a(I548
g92
tp2275
a(I548
g92
tp2276
a(I548
g92
tp2277
a(I548
g92
tp2278
a(I548
g92
tp2279
a(I548
g92
tp2280
a(I548
g92
tp2281
a(I548
g92
tp2282
a(I548
g92
tp2283
a(I548
g92
tp2284
a(I548
g92
tp2285
a(I548
g92
tp2286
a(I548
g92
tp2287
a(I548
g92
tp2288
a(I548
g92
tp2289
a(I548
g92
tp2290
a(I548
g92
tp2291
a(I548
g92
tp2292
a(I548
g92
tp2293
a(I548
g92
tp2294
a(I548
g92
tp2295
a(I548
g92
tp2296
a(I548
g92
tp2297
a(I548
g92
tp2298
a(I548
g92
tp2299
a(I548
g92
tp2300
a(I548
g92
tp2301
a(I548
g92
tp2302
a(I548
g92
tp2303
a(I548
g92
tp2304
a(I548
g92
tp2305
a(I548
g92
tp2306
a(I548
g92
tp2307
a(I548
g92
tp2308
a(I548
g92
tp2309
a(I548
g92
tp2310
a(I548
g92
tp2311
a(I548
g92
tp2312
a(I548
g92
tp2313
a(I548
g92
tp2314
a(I548
g92
tp2315
a(I548
g92
tp2316
a(I548
g92
tp2317
a(I548
g92
tp2318
a(I548
g92
tp2319
a(I548
g92
tp2320
a(I548
g92
tp2321
a(I548
g92
tp2322
a(I548
g92
tp2323
a(I548
g92
tp2324
a(I548
g92
tp2325
a(I548
g92
tp2326
a(I548
g92
tp2327
a(I548
g92
tp2328
a(I548
g92
tp2329
a(I548
g92
tp2330
a(I548
g92
tp2331
a(I548
g92
tp2332
a(I548
g92
tp2333
a(I548
g92
tp2334
a(I548
g92
tp2335
a(I548
g92
tp2336
a(I548
g92
tp2337
a(I548
g92
tp2338
a(I548
g92
tp2339
a(I548
g92
tp2340
a(I548
g92
tp2341
a(I548
g92
tp2342
a(I548
g92
tp2343
a(I548
g92
tp2344
a(I548
g92
tp2345
a(I548
g92
tp2346
a(I548
g92
tp2347
a(I548
g92
tp2348
a(I548
g92
tp2349
a(I548
g92
tp2350
a(I548
g92
tp2351
a(I548
g92
tp2352
a(I548
g92
tp2353
a(I548
g92
tp2354
a(I548
g92
tp2355
a(I548
g92
tp2356
a(I548
g92
tp2357
a(I548
g92
tp2358
a(I548
g92
tp2359
a(I548
g92
tp2360
a(I548
g92
tp2361
a(I548
g92
tp2362
a(I548
g92
tp2363
a(I548
g92
tp2364
a(I548
g92
tp2365
a(I548
g92
tp2366
a(I548
g92
tp2367
a(I548
g92
tp2368
a(I548
g92
tp2369
a(I548
g92
tp2370
a(I548
g92
tp2371
a(I548
g92
tp2372
a(I548
g92
tp2373
a(I548
g92
tp2374
a(I548
g92
tp2375
a(I548
g92
tp2376
a(I548
g92
tp2377
a(I548
g92
tp2378
a(I548
g92
tp2379
a(I548
g92
tp2380
a(I548
g92
tp2381
a(I548
g92
tp2382
a(I548
g92
tp2383
a(I548
g92
tp2384
a(I548
g92
tp2385
a(I548
g92
tp2386
a(I548
g92
tp2387
a(I548
g92
tp2388
a(I548
g92
tp2389
a(I548
g92
tp2390
a(I548
g92
tp2391
a(I548
g92
tp2392
a(I548
g92
tp2393
a(I548
g92
tp2394
a(I548
g92
tp2395
a(I548
g92
tp2396
a(I548
g92
tp2397
a(I548
g92
tp2398
a(I548
g92
tp2399
a(I548
g92
tp2400
a(I548
g92
tp2401
a(I548
g92
tp2402
a(I548
g92
tp2403
a(I548
g92
tp2404
a(I548
g92
tp2405
a(I548
g92
tp2406
a(I548
g92
tp2407
a(I548
g92
tp2408
a(I548
g92
tp2409
a(I548
g92
tp2410
a(I548
g92
tp2411
a(I548
g92
tp2412
a(I548
g92
tp2413
a(I548
g92
tp2414
a(I548
g92
tp2415
a(I548
g92
tp2416
a(I548
g92
tp2417
a(I548
g92
tp2418
a(I548
g92
tp2419
a(I548
g92
tp2420
a(I548
g92
tp2421
a(I548
g92
tp2422
a(I548
g92
tp2423
a(I548
g92
tp2424
a(I548
g92
tp2425
a(I548
g92
tp2426
a(I548
g92
tp2427
a(I548
g92
tp2428
a(I548
g92
tp2429
a(I548
g92
tp2430
a(I548
g92
tp2431
a(I548
g92
tp2432
a(I548
g92
tp2433
a(I548
g92
tp2434
a(I548
g92
tp2435
a(I548
g92
tp2436
a(I548
g92
tp2437
a(I548
g92
tp2438
a(I548
g92
tp2439
a(I548
g92
tp2440
a(I548
g92
tp2441
a(I548
g92
tp2442
a(I548
g92
tp2443
a(I548
g92
tp2444
a(I548
g92
tp2445
a(I548
g92
tp2446
a(I548
g92
tp2447
a(I548
g92
tp2448
a(I548
g92
tp2449
a(I548
g92
tp2450
a(I548
g92
tp2451
a(I548
g92
tp2452
a(I548
g92
tp2453
a(I548
g92
tp2454
a(I548
g92
tp2455
a(I548
g92
tp2456
a(I548
g92
tp2457
a(I548
g92
tp2458
a(I548
g92
tp2459
a(I548
g92
tp2460
a(I548
g92
tp2461
a(I548
g92
tp2462
a(I548
g92
tp2463
a(I548
g92
tp2464
a(I548
g92
tp2465
a(I548
g92
tp2466
a(I548
g92
tp2467
a(I548
g92
tp2468
a(I548
g92
tp2469
a(I548
g92
tp2470
a(I548
g92
tp2471
a(I548
g92
tp2472
a(I548
g92
tp2473
a(I548
g92
tp2474
a(I548
g92
tp2475
a(I548
g92
tp2476
a(I548
g92
tp2477
a(I548
g92
tp2478
a(I548
g92
tp2479
a(I548
g92
tp2480
a(I548
g92
tp2481
a(I548
g92
tp2482
a(I548
g92
tp2483
a(I548
g92
tp2484
a(I548
g92
tp2485
a(I548
g92
tp2486
a(I548
g92
tp2487
a(I548
g92
tp2488
a(I548
g92
tp2489
a(I548
g92
tp2490
a(I548
g92
tp2491
a(I548
g92
tp2492
a(I548
g92
tp2493
a(I548
g92
tp2494
a(I548
g92
tp2495
a(I548
g92
tp2496
a(I548
g92
tp2497
a(I548
g92
tp2498
a(I548
g92
tp2499
a(I548
g92
tp2500
a(I548
g92
tp2501
a(I548
g92
tp2502
a(I548
g92
tp2503
a(I548
g92
tp2504
a(I548
g92
tp2505
a(I548
g92
tp2506
a(I548
g92
tp2507
a(I548
g92
tp2508
a(I548
g92
tp2509
a(I548
g92
tp2510
a(I548
g92
tp2511
a(I548
g92
tp2512
a(I548
g92
tp2513
a(I548
g92
tp2514
a(I548
g92
tp2515
a(I548
g92
tp2516
a(I548
g92
tp2517
a(I548
g92
tp2518
a(I548
g92
tp2519
a(I548
g92
tp2520
a(I548
g92
tp2521
a(I548
g92
tp2522
a(I548
g92
tp2523
a(I548
g92
tp2524
a(I548
g92
tp2525
a(I548
g92
tp2526
a(I548
g92
tp2527
a(I548
g92
tp2528
a(I548
g92
tp2529
a(I548
g92
tp2530
a(I548
g92
tp2531
a(I548
g92
tp2532
a(I548
g92
tp2533
a(I548
g92
tp2534
a(I548
g92
tp2535
a(I548
g92
tp2536
a(I548
g92
tp2537
a(I548
g92
tp2538
a(I548
g92
tp2539
a(I548
g92
tp2540
a(I548
g92
tp2541
a(I548
g92
tp2542
a(I548
g92
tp2543
a(I548
g92
tp2544
a(I548
g92
tp2545
a(I548
g92
tp2546
a(I548
g92
tp2547
a(I548
g92
tp2548
a(I548
g92
tp2549
a(I548
g92
tp2550
a(I548
g92
tp2551
a(I548
g92
tp2552
a(I548
g92
tp2553
a(I548
g92
tp2554
a(I548
g92
tp2555
a(I548
g92
tp2556
a(I548
g92
tp2557
a(I548
g92
tp2558
a(I548
g92
tp2559
a(I548
g92
tp2560
a(I548
g92
tp2561
a(I548
g92
tp2562
a(I548
g92
tp2563
a(I548
g92
tp2564
a(I548
g92
tp2565
a(I548
g92
tp2566
a(I548
g92
tp2567
a(I548
g92
tp2568
a(I548
g92
tp2569
a(I548
g92
tp2570
a(I548
g92
tp2571
a(I548
g92
tp2572
a(I548
g92
tp2573
a(I548
g92
tp2574
a(I548
g92
tp2575
a(I548
g92
tp2576
a(I548
g92
tp2577
a(I548
g92
tp2578
a(I548
g92
tp2579
a(I548
g92
tp2580
a(I548
g92
tp2581
a(I548
g92
tp2582
a(I548
g92
tp2583
a(I548
g92
tp2584
a(I548
g92
tp2585
a(I548
g92
tp2586
a(I548
g92
tp2587
a(I548
g92
tp2588
a(I548
g92
tp2589
a(I548
g92
tp2590
a(I548
g92
tp2591
a(I548
g92
tp2592
a(I548
g92
tp2593
a(I548
g92
tp2594
a(I548
g92
tp2595
a(I548
g92
tp2596
a(I548
g92
tp2597
a(I548
g92
tp2598
a(I548
g92
tp2599
a(I548
g92
tp2600
a(I548
g92
tp2601
a(I548
g92
tp2602
a(I548
g92
tp2603
a(I548
g92
tp2604
a(I548
g92
tp2605
a(I548
g92
tp2606
a(I548
g92
tp2607
a(I548
g92
tp2608
a(I548
g92
tp2609
a(I548
g92
tp2610
a(I548
g92
tp2611
a(I548
g92
tp2612
a(I548
g92
tp2613
a(I548
g92
tp2614
a(I548
g92
tp2615
a(I548
g92
tp2616
a(I548
g92
tp2617
a(I548
g92
tp2618
a(I548
g92
tp2619
a(I548
g92
tp2620
a(I548
g92
tp2621
a(I548
g92
tp2622
a(I548
g92
tp2623
a(I548
g92
tp2624
a(I548
g92
tp2625
a(I548
g92
tp2626
a(I548
g92
tp2627
a(I548
g92
tp2628
a(I548
g92
tp2629
a(I548
g92
tp2630
a(I548
g92
tp2631
a(I548
g92
tp2632
a(I548
g92
tp2633
a(I548
g92
tp2634
a(I548
g92
tp2635
a(I548
g92
tp2636
a(I548
g92
tp2637
a(I548
g92
tp2638
a(I548
g92
tp2639
a(I548
g92
tp2640
a(I548
g92
tp2641
a(I548
g92
tp2642
a(I548
g92
tp2643
a(I548
g92
tp2644
a(I548
g92
tp2645
a(I548
g92
tp2646
a(I548
g92
tp2647
a(I548
g92
tp2648
a(I548
g92
tp2649
a(I548
g92
tp2650
a(I548
g92
tp2651
a(I548
g92
tp2652
a(I548
g92
tp2653
a(I548
g92
tp2654
a(I548
g92
tp2655
a(I548
g92
tp2656
a(I548
g92
tp2657
a(I548
g92
tp2658
a(I548
g92
tp2659
a(I548
g92
tp2660
a(I548
g92
tp2661
a(I548
g92
tp2662
a(I548
g92
tp2663
a(I548
g92
tp2664
a(I548
g92
tp2665
a(I548
g92
tp2666
a(I548
g92
tp2667
a(I548
g92
tp2668
a(I548
g92
tp2669
a(I548
g92
tp2670
a(I548
g92
tp2671
a(I548
g92
tp2672
a(I548
g92
tp2673
a(I548
g92
tp2674
a(I548
g92
tp2675
a(I548
g92
tp2676
a(I548
g92
tp2677
a(I548
g92
tp2678
a(I548
g92
tp2679
a(I548
g92
tp2680
a(I548
g92
tp2681
a(I548
g92
tp2682
a(I548
g92
tp2683
a(I548
g92
tp2684
a(I548
g92
tp2685
a(I548
g92
tp2686
a(I548
g92
tp2687
a(I548
g92
tp2688
a(I548
g92
tp2689
a(I548
g92
tp2690
a(I548
g92
tp2691
a(I548
g92
tp2692
a(I548
g92
tp2693
a(I548
g92
tp2694
a(I548
g92
tp2695
a(I548
g92
tp2696
a(I548
g92
tp2697
a(I548
g92
tp2698
a(I548
g92
tp2699
a(I548
g92
tp2700
a(I548
g92
tp2701
a(I548
g92
tp2702
a(I548
g92
tp2703
a(I548
g92
tp2704
a(I548
g92
tp2705
a(I548
g92
tp2706
a(I548
g92
tp2707
a(I548
g92
tp2708
a(I548
g92
tp2709
a(I548
g92
tp2710
a(I548
g92
tp2711
a(I548
g92
tp2712
a(I548
g92
tp2713
a(I548
g92
tp2714
a(I548
g92
tp2715
a(I548
g92
tp2716
a(I548
g92
tp2717
a(I548
g92
tp2718
a(I548
g92
tp2719
a(I548
g92
tp2720
a(I548
g92
tp2721
a(I548
g92
tp2722
a(I548
g92
tp2723
a(I548
g92
tp2724
a(I548
g92
tp2725
a(I548
g92
tp2726
a(I548
g92
tp2727
a(I548
g92
tp2728
a(I548
g92
tp2729
a(I548
g92
tp2730
a(I548
g92
tp2731
a(I548
g92
tp2732
a(I548
g92
tp2733
a(I548
g92
tp2734
a(I548
g92
tp2735
a(I548
g92
tp2736
a(I548
g92
tp2737
a(I548
g92
tp2738
a(I548
g92
tp2739
a(I548
g92
tp2740
a(I548
g92
tp2741
a(I548
g92
tp2742
a(I548
g92
tp2743
a(I548
g92
tp2744
a(I548
g92
tp2745
a(I548
g92
tp2746
a(I548
g92
tp2747
a(I548
g92
tp2748
a(I548
g92
tp2749
a(I548
g92
tp2750
a(I548
g92
tp2751
a(I548
g92
tp2752
a(I548
g92
tp2753
a(I548
g92
tp2754
a(I548
g92
tp2755
a(I548
g92
tp2756
a(I548
g92
tp2757
a(I548
g92
tp2758
a(I548
g92
tp2759
a(I548
g92
tp2760
a(I548
g92
tp2761
a(I548
g92
tp2762
a(I548
g92
tp2763
a(I548
g92
tp2764
a(I548
g92
tp2765
a(I548
g92
tp2766
a(I548
g92
tp2767
a(I548
g92
tp2768
a(I548
g92
tp2769
a(I548
g92
tp2770
a(I548
g92
tp2771
a(I548
g92
tp2772
a(I548
g92
tp2773
a(I548
g92
tp2774
a(I548
g92
tp2775
a(I548
g92
tp2776
a(I548
g92
tp2777
a(I548
g92
tp2778
a(I548
g92
tp2779
a(I548
g92
tp2780
a(I548
g92
tp2781
a(I548
g92
tp2782
a(I548
g92
tp2783
a(I548
g92
tp2784
a(I548
g92
tp2785
a(I548
g92
tp2786
a(I548
g92
tp2787
a(I548
g92
tp2788
a(I548
g92
tp2789
a(I548
g92
tp2790
a(I548
g92
tp2791
a(I548
g92
tp2792
a(I548
g92
tp2793
a(I548
g92
tp2794
a(I548
g92
tp2795
a(I548
g92
tp2796
a(I548
g92
tp2797
a(I548
g92
tp2798
a(I548
g92
tp2799
a(I548
g92
tp2800
a(I548
g92
tp2801
a(I548
g92
tp2802
a(I548
g92
tp2803
a(I548
g92
tp2804
a(I548
g92
tp2805
a(I548
g92
tp2806
a(I548
g92
tp2807
a(I548
g92
tp2808
a(I548
g92
tp2809
a(I548
g92
tp2810
a(I548
g92
tp2811
a(I548
g92
tp2812
a(I548
g92
tp2813
a(I548
g92
tp2814
a(I548
g92
tp2815
a(I548
g92
tp2816
a(I548
g92
tp2817
a(I548
g92
tp2818
a(I548
g92
tp2819
a(I548
g92
tp2820
a(I548
g92
tp2821
a(I548
g92
tp2822
a(I548
g92
tp2823
a(I548
g92
tp2824
a(I548
g92
tp2825
a(I548
g92
tp2826
a(I548
g92
tp2827
a(I548
g92
tp2828
a(I548
g92
tp2829
a(I548
g92
tp2830
a(I548
g92
tp2831
a(I548
g92
tp2832
a(I548
g92
tp2833
a(I548
g92
tp2834
a(I548
g92
tp2835
a(I548
g92
tp2836
a(I548
g92
tp2837
a(I548
g92
tp2838
a(I548
g92
tp2839
a(I548
g92
tp2840
a(I548
g92
tp2841
a(I548
g92
tp2842
a(I548
g92
tp2843
a(I548
g92
tp2844
a(I548
g92
tp2845
a(I548
g92
tp2846
a(I548
g92
tp2847
a(I548
g92
tp2848
a(I548
g92
tp2849
a(I548
g92
tp2850
a(I548
g92
tp2851
a(I548
g92
tp2852
a(I548
g92
tp2853
a(I548
g92
tp2854
a(I548
g92
tp2855
a(I548
g92
tp2856
a(I548
g92
tp2857
a(I548
g92
tp2858
a(I548
g92
tp2859
a(I548
g92
tp2860
a(I548
g92
tp2861
a(I548
g92
tp2862
a(I548
g92
tp2863
a(I548
g92
tp2864
a(I548
g92
tp2865
a(I548
g92
tp2866
a(I548
g92
tp2867
a(I548
g92
tp2868
a(I548
g92
tp2869
a(I548
g92
tp2870
a(I548
g92
tp2871
a(I548
g92
tp2872
a(I548
g92
tp2873
a(I548
g92
tp2874
a(I548
g92
tp2875
a(I548
g92
tp2876
a(I548
g92
tp2877
a(I548
g92
tp2878
a(I548
g92
tp2879
a(I548
g92
tp2880
a(I548
g92
tp2881
a(I548
g92
tp2882
a(I548
g92
tp2883
a(I548
g92
tp2884
a(I548
g92
tp2885
a(I548
g92
tp2886
a(I548
g92
tp2887
a(I548
g92
tp2888
a(I548
g92
tp2889
a(I548
g92
tp2890
a(I548
g92
tp2891
a(I548
g92
tp2892
a(I548
g92
tp2893
a(I548
g92
tp2894
a(I548
g92
tp2895
a(I548
g92
tp2896
a(I548
g92
tp2897
a(I548
g92
tp2898
a(I548
g92
tp2899
a(I548
g92
tp2900
a(I548
g92
tp2901
a(I548
g92
tp2902
a(I548
g92
tp2903
a(I548
g92
tp2904
a(I548
g92
tp2905
a(I548
g92
tp2906
a(I548
g92
tp2907
a(I548
g92
tp2908
a(I548
g92
tp2909
a(I548
g92
tp2910
a(I548
g92
tp2911
a(I548
g92
tp2912
a(I548
g92
tp2913
a(I548
g92
tp2914
a(I548
g92
tp2915
a(I548
g92
tp2916
a(I548
g92
tp2917
a(I548
g92
tp2918
a(I548
g92
tp2919
a(I548
g92
tp2920
a(I548
g92
tp2921
a(I548
g92
tp2922
a(I548
g92
tp2923
a(I548
g92
tp2924
a(I548
g92
tp2925
a(I548
g92
tp2926
a(I548
g92
tp2927
a(I548
g92
tp2928
a(I548
g92
tp2929
a(I548
g92
tp2930
a(I548
g92
tp2931
a(I548
g92
tp2932
a(I548
g92
tp2933
a(I548
g92
tp2934
a(I548
g92
tp2935
a(I548
g92
tp2936
a(I548
g92
tp2937
a(I548
g92
tp2938
a(I548
g92
tp2939
a(I548
g92
tp2940
a(I548
g92
tp2941
a(I548
g92
tp2942
a(I548
g92
tp2943
a(I548
g92
tp2944
a(I548
g92
tp2945
a(I548
g92
tp2946
a(I548
g92
tp2947
a(I548
g92
tp2948
a(I548
g92
tp2949
a(I548
g92
tp2950
a(I548
g92
tp2951
a(I548
g92
tp2952
a(I548
g92
tp2953
a(I548
g92
tp2954
a(I548
g92
tp2955
a(I548
g92
tp2956
a(I548
g92
tp2957
a(I548
g92
tp2958
a(I548
g92
tp2959
a(I548
g92
tp2960
a(I548
g92
tp2961
a(I548
g92
tp2962
a(I548
g92
tp2963
a(I548
g92
tp2964
a(I548
g92
tp2965
a(I548
g92
tp2966
a(I548
g92
tp2967
a(I548
g92
tp2968
a(I548
g92
tp2969
a(I548
g92
tp2970
a(I548
g92
tp2971
a(I548
g92
tp2972
a(I548
g92
tp2973
a(I548
g92
tp2974
a(I548
g92
tp2975
a(I548
g92
tp2976
a(I548
g92
tp2977
a(I548
g92
tp2978
a(I548
g92
tp2979
a(I548
g92
tp2980
a(I548
g92
tp2981
a(I548
g92
tp2982
a(I548
g92
tp2983
a(I548
g92
tp2984
a(I548
g92
tp2985
a(I548
g92
tp2986
a(I548
g92
tp2987
a(I548
g92
tp2988
a(I548
g92
tp2989
a(I548
g92
tp2990
a(I548
g92
tp2991
a(I548
g92
tp2992
a(I548
g92
tp2993
a(I548
g92
tp2994
a(I548
g92
tp2995
a(I548
g92
tp2996
a(I548
g92
tp2997
a(I548
g92
tp2998
a(I548
g92
tp2999
a(I548
g92
tp3000
a(I548
g92
tp3001
a(I548
g92
tp3002
a(I548
g92
tp3003
a(I548
g92
tp3004
a(I548
g92
tp3005
a(I548
g92
tp3006
a(I548
g92
tp3007
a(I548
g92
tp3008
a(I548
g92
tp3009
a(I548
g92
tp3010
a(I548
g92
tp3011
a(I548
g92
tp3012
a(I548
g92
tp3013
a(I548
g92
tp3014
a(I548
g92
tp3015
a(I548
g92
tp3016
a(I548
g92
tp3017
a(I548
g92
tp3018
a(I548
g92
tp3019
a(I548
g92
tp3020
a(I548
g92
tp3021
a(I548
g92
tp3022
a(I548
g92
tp3023
a(I548
g92
tp3024
a(I548
g92
tp3025
a(I548
g92
tp3026
a(I548
g92
tp3027
a(I548
g92
tp3028
a(I548
g92
tp3029
a(I548
g92
tp3030
a(I548
g92
tp3031
a(I548
g92
tp3032
a(I548
g92
tp3033
a(I548
g92
tp3034
a(I548
g92
tp3035
a(I548
g92
tp3036
a(I548
g92
tp3037
a(I548
g92
tp3038
a(I548
g92
tp3039
a(I548
g92
tp3040
a(I548
g92
tp3041
a(I548
g92
tp3042
a(I548
g92
tp3043
a(I548
g92
tp3044
a(I548
g92
tp3045
a(I548
g92
tp3046
a(I548
g92
tp3047
a(I548
g92
tp3048
a(I548
g92
tp3049
a(I548
g92
tp3050
a(I548
g92
tp3051
a(I548
g92
tp3052
a(I548
g92
tp3053
a(I548
g92
tp3054
a(I548
g92
tp3055
a(I548
g92
tp3056
a(I548
g92
tp3057
a(I548
g92
tp3058
a(I548
g92
tp3059
a(I548
g92
tp3060
a(I548
g92
tp3061
a(I548
g92
tp3062
a(I548
g92
tp3063
a(I548
g92
tp3064
a(I548
g92
tp3065
a(I548
g92
tp3066
a(I548
g92
tp3067
a(I548
g92
tp3068
a(I548
g92
tp3069
a(I548
g92
tp3070
a(I548
g92
tp3071
a(I548
g92
tp3072
a(I548
g92
tp3073
a(I548
g92
tp3074
a(I548
g92
tp3075
a(I548
g92
tp3076
a(I548
g92
tp3077
a(I548
g92
tp3078
a(I548
g92
tp3079
a(I548
g92
tp3080
a(I548
g92
tp3081
a(I548
g92
tp3082
a(I548
g92
tp3083
a(I548
g92
tp3084
a(I548
g92
tp3085
a(I548
g92
tp3086
a(I548
g92
tp3087
a(I548
g92
tp3088
a(I548
g92
tp3089
a(I548
g92
tp3090
a(I548
g92
tp3091
a(I548
g92
tp3092
a(I548
g92
tp3093
a(I548
g92
tp3094
a(I548
g92
tp3095
a(I548
g92
tp3096
a(I548
g92
tp3097
a(I548
g92
tp3098
a(I548
g92
tp3099
a(I548
g92
tp3100
a(I548
g92
tp3101
a(I548
g92
tp3102
a(I548
g92
tp3103
a(I548
g92
tp3104
a(I548
g92
tp3105
a(I548
g92
tp3106
a(I548
g92
tp3107
a(I548
g92
tp3108
a(I548
g92
tp3109
a(I548
g92
tp3110
a(I548
g92
tp3111
a(I548
g92
tp3112
a(I548
g92
tp3113
a(I548
g92
tp3114
a(I548
g92
tp3115
a(I548
g92
tp3116
a(I548
g92
tp3117
a(I548
g92
tp3118
a(I548
g92
tp3119
a(I548
g92
tp3120
a(I548
g92
tp3121
a(I548
g92
tp3122
a(I548
g92
tp3123
a(I548
g92
tp3124
a(I548
g92
tp3125
a(I548
g92
tp3126
a(I548
g92
tp3127
a(I548
g92
tp3128
a(I548
g92
tp3129
a(I548
g92
tp3130
a(I548
g92
tp3131
a(I548
g92
tp3132
a(I548
g92
tp3133
a(I548
g92
tp3134
a(I548
g92
tp3135
a(I548
g92
tp3136
a(I548
g92
tp3137
a(I548
g92
tp3138
a(I548
g92
tp3139
a(I548
g92
tp3140
a(I548
g92
tp3141
a(I548
g92
tp3142
a(I548
g92
tp3143
a(I548
g92
tp3144
a(I548
g92
tp3145
a(I548
g92
tp3146
a(I548
g92
tp3147
a(I548
g92
tp3148
a(I548
g92
tp3149
a(I548
g92
tp3150
a(I548
g92
tp3151
a(I548
g92
tp3152
a(I548
g92
tp3153
a(I548
g92
tp3154
a(I548
g92
tp3155
a(I548
g92
tp3156
a(I548
g92
tp3157
a(I548
g92
tp3158
a(I548
g92
tp3159
a(I548
g92
tp3160
a(I548
g92
tp3161
a(I548
g92
tp3162
a(I548
g92
tp3163
a(I548
g92
tp3164
a(I548
g92
tp3165
a(I548
g92
tp3166
a(I548
g92
tp3167
a(I548
g92
tp3168
a(I548
g92
tp3169
a(I548
g92
tp3170
a(I548
g92
tp3171
a(I548
g92
tp3172
a(I548
g92
tp3173
a(I548
g92
tp3174
a(I548
g92
tp3175
a(I548
g92
tp3176
a(I548
g92
tp3177
a(I548
g92
tp3178
a(I548
g92
tp3179
a(I548
g92
tp3180
a(I548
g92
tp3181
a(I548
g92
tp3182
a(I548
g92
tp3183
a(I548
g92
tp3184
a(I548
g92
tp3185
a(I548
g92
tp3186
a(I548
g92
tp3187
a(I548
g92
tp3188
a(I548
g92
tp3189
a(I548
g92
tp3190
a(I548
g92
tp3191
a(I548
g92
tp3192
a(I548
g92
tp3193
a(I548
g92
tp3194
a(I548
g92
tp3195
a(I548
g92
tp3196
a(I548
g92
tp3197
a(I548
g92
tp3198
a(I548
g92
tp3199
a(I548
g92
tp3200
a(I548
g92
tp3201
a(I548
g92
tp3202
a(I548
g92
tp3203
a(I548
g92
tp3204
a(I548
g92
tp3205
a(I548
g92
tp3206
a(I548
g92
tp3207
a(I548
g92
tp3208
a(I548
g92
tp3209
a(I548
g92
tp3210
a(I548
g92
tp3211
a(I548
g92
tp3212
a(I548
g92
tp3213
a(I548
g92
tp3214
a(I548
g92
tp3215
a(I548
g92
tp3216
a(I548
g92
tp3217
a(I548
g92
tp3218
a(I548
g92
tp3219
a(I548
g92
tp3220
a(I548
g92
tp3221
a(I548
g92
tp3222
a(I548
g92
tp3223
a(I548
g92
tp3224
a(I548
g92
tp3225
a(I548
g92
tp3226
a(I548
g92
tp3227
a(I548
g92
tp3228
a(I548
g92
tp3229
a(I548
g92
tp3230
a(I548
g92
tp3231
a(I548
g92
tp3232
a(I548
g92
tp3233
a(I548
g92
tp3234
a(I548
g92
tp3235
a(I548
g92
tp3236
a(I548
g92
tp3237
a(I548
g92
tp3238
a(I548
g92
tp3239
a(I548
g92
tp3240
a(I548
g92
tp3241
a(I548
g92
tp3242
a(I548
g92
tp3243
a(I548
g92
tp3244
a(I548
g92
tp3245
a(I548
g92
tp3246
a(I548
g92
tp3247
a(I548
g92
tp3248
a(I548
g92
tp3249
a(I548
g92
tp3250
a(I548
g92
tp3251
a(I548
g92
tp3252
a(I548
g92
tp3253
a(I548
g92
tp3254
a(I548
g92
tp3255
a(I548
g92
tp3256
a(I548
g92
tp3257
a(I548
g92
tp3258
a(I548
g92
tp3259
a(I548
g92
tp3260
a(I548
g92
tp3261
a(I548
g92
tp3262
a(I548
g92
tp3263
a(I548
g92
tp3264
a(I548
g92
tp3265
a(I548
g92
tp3266
a(I548
g92
tp3267
a(I548
g92
tp3268
a(I548
g92
tp3269
a(I548
g92
tp3270
a(I548
g92
tp3271
a(I548
g92
tp3272
a(I548
g92
tp3273
a(I548
g92
tp3274
a(I548
g92
tp3275
a(I548
g92
tp3276
a(I548
g92
tp3277
a(I548
g92
tp3278
a(I548
g92
tp3279
a(I548
g92
tp3280
a(I548
g92
tp3281
a(I548
g92
tp3282
a(I548
g92
tp3283
a(I548
g92
tp3284
a(I548
g92
tp3285
a(I548
g92
tp3286
a(I548
g92
tp3287
a(I548
g92
tp3288
a(I548
g92
tp3289
a(I548
g92
tp3290
a(I548
g92
tp3291
a(I548
g92
tp3292
a(I548
g92
tp3293
a(I548
g92
tp3294
a(I548
g92
tp3295
a(I548
g92
tp3296
a(I548
g92
tp3297
a(I548
g92
tp3298
a(I548
g92
tp3299
a(I548
g92
tp3300
a(I548
g92
tp3301
a(I548
g92
tp3302
a(I548
g92
tp3303
a(I548
g92
tp3304
a(I548
g92
tp3305
a(I548
g92
tp3306
a(I548
g92
tp3307
a(I548
g92
tp3308
a(I548
g92
tp3309
a(I548
g92
tp3310
a(I548
g92
tp3311
a(I548
g92
tp3312
a(I548
g92
tp3313
a(I548
g92
tp3314
a(I548
g92
tp3315
a(I548
g92
tp3316
a(I548
g92
tp3317
a(I548
g92
tp3318
a(I548
g92
tp3319
a(I548
g92
tp3320
a(I548
g92
tp3321
a(I548
g92
tp3322
a(I548
g92
tp3323
a(I548
g92
tp3324
a(I548
g92
tp3325
a(I548
g92
tp3326
a(I548
g92
tp3327
a(I548
g92
tp3328
a(I548
g92
tp3329
a(I548
g92
tp3330
a(I548
g92
tp3331
a(I548
g92
tp3332
a(I548
g92
tp3333
a(I548
g92
tp3334
a(I548
g92
tp3335
a(I548
g92
tp3336
a(I548
g92
tp3337
a(I548
g92
tp3338
a(I548
g92
tp3339
a(I548
g92
tp3340
a(I548
g92
tp3341
a(I548
g92
tp3342
a(I548
g92
tp3343
a(I548
g92
tp3344
a(I548
g92
tp3345
a(I548
g92
tp3346
a(I548
g92
tp3347
a(I548
g92
tp3348
a(I548
g92
tp3349
a(I548
g92
tp3350
a(I548
g92
tp3351
a(I548
g92
tp3352
a(I548
g92
tp3353
a(I548
g92
tp3354
a(I548
g92
tp3355
a(I548
g92
tp3356
a(I548
g92
tp3357
a(I548
g92
tp3358
a(I548
g92
tp3359
a(I548
g92
tp3360
a(I548
g92
tp3361
a(I548
g92
tp3362
a(I548
g92
tp3363
a(I548
g92
tp3364
a(I548
g92
tp3365
a(I548
g92
tp3366
a(I548
g92
tp3367
a(I548
g92
tp3368
a(I548
g92
tp3369
a(I548
g92
tp3370
a(I548
g92
tp3371
a(I548
g92
tp3372
a(I548
g92
tp3373
a(I548
g92
tp3374
a(I548
g92
tp3375
a(I548
g92
tp3376
a(I548
g92
tp3377
a(I548
g92
tp3378
a(I548
g92
tp3379
a(I548
g92
tp3380
a(I548
g92
tp3381
a(I548
g92
tp3382
a(I548
g92
tp3383
a(I548
g92
tp3384
a(I548
g92
tp3385
a(I548
g92
tp3386
a(I548
g92
tp3387
a(I548
g92
tp3388
a(I548
g92
tp3389
a(I548
g92
tp3390
a(I548
g92
tp3391
a(I548
g92
tp3392
a(I548
g92
tp3393
a(I548
g92
tp3394
a(I548
g92
tp3395
a(I548
g92
tp3396
a(I548
g92
tp3397
a(I548
g92
tp3398
a(I548
g92
tp3399
a(I548
g92
tp3400
a(I548
g92
tp3401
a(I548
g92
tp3402
a(I548
g92
tp3403
a(I548
g92
tp3404
a(I548
g92
tp3405
a(I548
g92
tp3406
a(I548
g92
tp3407
a(I548
g92
tp3408
a(I548
g92
tp3409
a(I548
g92
tp3410
a(I548
g92
tp3411
a(I548
g92
tp3412
a(I548
g92
tp3413
a(I548
g92
tp3414
a(I548
g92
tp3415
a(I548
g92
tp3416
a(I548
g92
tp3417
a(I548
g92
tp3418
a(I548
g92
tp3419
a(I548
g92
tp3420
a(I548
g92
tp3421
a(I548
g92
tp3422
a(I548
g92
tp3423
a(I548
g92
tp3424
a(I548
g92
tp3425
a(I548
g92
tp3426
a(I548
g92
tp3427
a(I548
g92
tp3428
a(I548
g92
tp3429
a(I548
g92
tp3430
a(I548
g92
tp3431
a(I548
g92
tp3432
a(I548
g92
tp3433
a(I548
g92
tp3434
a(I548
g92
tp3435
a(I548
g92
tp3436
a(I548
g92
tp3437
a(I548
g92
tp3438
a(I548
g92
tp3439
a(I548
g92
tp3440
a(I548
g92
tp3441
a(I548
g92
tp3442
a(I548
g92
tp3443
a(I548
g92
tp3444
a(I548
g92
tp3445
a(I548
g92
tp3446
a(I548
g92
tp3447
a(I548
g92
tp3448
a(I548
g92
tp3449
a(I548
g92
tp3450
a(I548
g92
tp3451
a(I548
g92
tp3452
a(I548
g92
tp3453
a(I548
g92
tp3454
a(I548
g92
tp3455
a(I548
g92
tp3456
a(I548
g92
tp3457
a(I548
g92
tp3458
a(I548
g92
tp3459
a(I548
g92
tp3460
a(I548
g92
tp3461
a(I548
g92
tp3462
a(I548
g92
tp3463
a(I548
g92
tp3464
a(I548
g92
tp3465
a(I548
g92
tp3466
a(I548
g92
tp3467
a(I548
g92
tp3468
a(I548
g92
tp3469
a(I548
g92
tp3470
a(I548
g92
tp3471
a(I548
g92
tp3472
a(I548
g92
tp3473
a(I548
g92
tp3474
a(I548
g92
tp3475
a(I548
g92
tp3476
a(I548
g92
tp3477
a(I548
g92
tp3478
a(I548
g92
tp3479
a(I548
g92
tp3480
a(I548
g92
tp3481
a(I548
g92
tp3482
a(I548
g92
tp3483
a(I548
g92
tp3484
a(I548
g92
tp3485
a(I548
g92
tp3486
a(I548
g92
tp3487
a(I548
g92
tp3488
a(I548
g92
tp3489
a(I548
g92
tp3490
a(I548
g92
tp3491
a(I548
g92
tp3492
a(I548
g92
tp3493
a(I548
g92
tp3494
a(I548
g92
tp3495
a(I548
g92
tp3496
a(I548
g92
tp3497
a(I548
g92
tp3498
a(I548
g92
tp3499
a(I548
g92
tp3500
a(I548
g92
tp3501
a(I548
g92
tp3502
a(I548
g92
tp3503
a(I548
g92
tp3504
a(I548
g92
tp3505
a(I548
g92
tp3506
a(I548
g92
tp3507
a(I548
g92
tp3508
a(I548
g92
tp3509
a(I548
g92
tp3510
a(I548
g92
tp3511
a(I548
g92
tp3512
a(I548
g92
tp3513
a(I548
g92
tp3514
a(I548
g92
tp3515
a(I548
g92
tp3516
a(I548
g92
tp3517
a(I548
g92
tp3518
a(I548
g92
tp3519
a(I548
g92
tp3520
a(I548
g92
tp3521
a(I548
g92
tp3522
a(I548
g92
tp3523
a(I548
g92
tp3524
a(I548
g92
tp3525
a(I548
g92
tp3526
a(I548
g92
tp3527
a(I548
g92
tp3528
a(I548
g92
tp3529
a(I548
g92
tp3530
a(I548
g92
tp3531
a(I548
g92
tp3532
a(I548
g92
tp3533
a(I548
g92
tp3534
a(I548
g92
tp3535
a(I548
g92
tp3536
a(I548
g92
tp3537
a(I548
g92
tp3538
a(I548
g92
tp3539
a(I548
g92
tp3540
a(I548
g92
tp3541
a(I548
g92
tp3542
a(I548
g92
tp3543
a(I548
g92
tp3544
a(I548
g92
tp3545
a(I548
g92
tp3546
a(I548
g92
tp3547
a(I548
g92
tp3548
a(I548
g92
tp3549
a(I548
g92
tp3550
a(I548
g92
tp3551
a(I548
g92
tp3552
a(I548
g92
tp3553
a(I548
g92
tp3554
a(I548
g92
tp3555
a(I548
g92
tp3556
a(I548
g92
tp3557
a(I548
g92
tp3558
a(I548
g92
tp3559
a(I548
g92
tp3560
a(I548
g92
tp3561
a(I548
g92
tp3562
a(I548
g92
tp3563
a(I548
g92
tp3564
a(I548
g92
tp3565
a(I548
g92
tp3566
a(I548
g92
tp3567
a(I548
g92
tp3568
a(I548
g92
tp3569
a(I548
g92
tp3570
a(I548
g92
tp3571
a(I548
g92
tp3572
a(I548
g92
tp3573
a(I548
g92
tp3574
a(I548
g92
tp3575
a(I548
g92
tp3576
a(I548
g92
tp3577
a(I548
g92
tp3578
a(I548
g92
tp3579
a(I548
g92
tp3580
a(I548
g92
tp3581
a(I548
g92
tp3582
a(I548
g92
tp3583
a(I548
g92
tp3584
a(I548
g92
tp3585
a(I548
g92
tp3586
a(I548
g92
tp3587
a(I548
g92
tp3588
a(I548
g92
tp3589
a(I548
g92
tp3590
a(I548
g92
tp3591
a(I548
g92
tp3592
a(I548
g92
tp3593
a(I548
g92
tp3594
a(I548
g92
tp3595
a(I548
g92
tp3596
a(I548
g92
tp3597
a(I548
g92
tp3598
a(I548
g92
tp3599
a(I548
g92
tp3600
a(I548
g92
tp3601
a(I548
g92
tp3602
a(I548
g92
tp3603
a(I548
g92
tp3604
a(I548
g92
tp3605
a(I548
g92
tp3606
a(I548
g92
tp3607
a(I548
g92
tp3608
a(I548
g92
tp3609
a(I548
g92
tp3610
a(I548
g92
tp3611
a(I548
g92
tp3612
a(I548
g92
tp3613
a(I548
g92
tp3614
a(I548
g92
tp3615
a(I548
g92
tp3616
a(I548
g92
tp3617
a(I548
g92
tp3618
a(I548
g92
tp3619
a(I548
g92
tp3620
a(I548
g92
tp3621
a(I548
g92
tp3622
a(I548
g92
tp3623
a(I548
g92
tp3624
a(I548
g92
tp3625
a(I548
g92
tp3626
a(I548
g92
tp3627
a(I548
g92
tp3628
a(I548
g92
tp3629
a(I548
g92
tp3630
a(I548
g92
tp3631
a(I548
g92
tp3632
a(I548
g92
tp3633
a(I548
g92
tp3634
a(I548
g92
tp3635
a(I548
g92
tp3636
a(I548
g92
tp3637
a(I548
g92
tp3638
a(I548
g92
tp3639
a(I548
g92
tp3640
a(I548
g92
tp3641
a(I548
g92
tp3642
a(I548
g92
tp3643
a(I548
g92
tp3644
a(I548
g92
tp3645
a(I548
g92
tp3646
a(I548
g92
tp3647
a(I548
g92
tp3648
a(I548
g92
tp3649
a(I548
g92
tp3650
a(I548
g92
tp3651
a(I548
g92
tp3652
a(I548
g92
tp3653
a(I548
g92
tp3654
a(I548
g92
tp3655
a(I548
g92
tp3656
a(I548
g92
tp3657
a(I548
g92
tp3658
a(I548
g92
tp3659
a(I548
g92
tp3660
a(I548
g92
tp3661
a(I548
g92
tp3662
a(I548
g92
tp3663
a(I548
g92
tp3664
a(I548
g92
tp3665
a(I548
g92
tp3666
a(I548
g92
tp3667
a(I548
g92
tp3668
a(I548
g92
tp3669
a(I548
g92
tp3670
a(I548
g92
tp3671
a(I548
g92
tp3672
a(I548
g92
tp3673
a(I548
g92
tp3674
a(I548
g92
tp3675
a(I548
g92
tp3676
a(I548
g92
tp3677
a(I548
g92
tp3678
a(I548
g92
tp3679
a(I548
g92
tp3680
a(I548
g92
tp3681
a(I548
g92
tp3682
a(I548
g92
tp3683
a(I548
g92
tp3684
a(I548
g92
tp3685
a(I548
g92
tp3686
a(I548
g92
tp3687
a(I548
g92
tp3688
a(I548
g92
tp3689
a(I548
g92
tp3690
a(I548
g92
tp3691
a(I548
g92
tp3692
a(I548
g92
tp3693
a(I548
g92
tp3694
a(I548
g92
tp3695
a(I548
g92
tp3696
a(I548
g92
tp3697
a(I548
g92
tp3698
a(I548
g92
tp3699
a(I548
g92
tp3700
a(I548
g92
tp3701
a(I548
g92
tp3702
a(I548
g92
tp3703
a(I548
g92
tp3704
a(I548
g92
tp3705
a(I548
g92
tp3706
a(I548
g92
tp3707
a(I548
g92
tp3708
a(I548
g92
tp3709
a(I548
g92
tp3710
a(I548
g92
tp3711
a(I548
g92
tp3712
a(I548
g92
tp3713
a(I548
g92
tp3714
a(I548
g92
tp3715
a(I548
g92
tp3716
a(I548
g92
tp3717
a(I548
g92
tp3718
a(I548
g92
tp3719
a(I548
g92
tp3720
a(I548
g92
tp3721
a(I548
g92
tp3722
a(I548
g92
tp3723
a(I548
g92
tp3724
a(I548
g92
tp3725
a(I548
g92
tp3726
a(I548
g92
tp3727
a(I548
g92
tp3728
a(I548
g92
tp3729
a(I548
g92
tp3730
a(I548
g92
tp3731
a(I548
g92
tp3732
a(I548
g92
tp3733
a(I548
g92
tp3734
a(I548
g92
tp3735
a(I548
g92
tp3736
a(I548
g92
tp3737
a(I548
g92
tp3738
a(I548
g92
tp3739
a(I548
g92
tp3740
a(I548
g92
tp3741
a(I548
g92
tp3742
a(I548
g92
tp3743
a(I548
g92
tp3744
a(I548
g92
tp3745
a(I548
g92
tp3746
a(I548
g92
tp3747
a(I548
g92
tp3748
a(I548
g92
tp3749
a(I548
g92
tp3750
a(I548
g92
tp3751
a(I548
g92
tp3752
a(I548
g92
tp3753
a(I548
g92
tp3754
a(I548
g92
tp3755
a(I548
g92
tp3756
a(I548
g92
tp3757
a(I548
g92
tp3758
a(I548
g92
tp3759
a(I548
g92
tp3760
a(I548
g92
tp3761
a(I548
g92
tp3762
a(I548
g92
tp3763
a(I548
g92
tp3764
a(I548
g92
tp3765
a(I548
g92
tp3766
a(I548
g92
tp3767
a(I548
g92
tp3768
a(I548
g92
tp3769
a(I548
g92
tp3770
a(I548
g92
tp3771
a(I548
g92
tp3772
a(I548
g92
tp3773
a(I548
g92
tp3774
a(I548
g92
tp3775
a(I548
g92
tp3776
a(I548
g92
tp3777
a(I548
g92
tp3778
a(I548
g92
tp3779
a(I548
g92
tp3780
a(I548
g92
tp3781
a(I548
g92
tp3782
a(I548
g92
tp3783
a(I548
g92
tp3784
a(I548
g92
tp3785
a(I548
g92
tp3786
a(I548
g92
tp3787
a(I548
g92
tp3788
a(I548
g92
tp3789
a(I548
g92
tp3790
a(I548
g92
tp3791
a(I548
g92
tp3792
a(I548
g92
tp3793
a(I548
g92
tp3794
a(I548
g92
tp3795
a(I548
g92
tp3796
a(I548
g92
tp3797
a(I548
g92
tp3798
a(I548
g92
tp3799
a(I548
g92
tp3800
a(I548
g92
tp3801
a(I548
g92
tp3802
a(I548
g92
tp3803
a(I548
g92
tp3804
a(I548
g92
tp3805
a(I548
g92
tp3806
a(I548
g92
tp3807
a(I548
g92
tp3808
a(I548
g92
tp3809
a(I548
g92
tp3810
a(I548
g92
tp3811
a(I548
g92
tp3812
a(I548
g92
tp3813
a(I548
g92
tp3814
a(I548
g92
tp3815
a(I548
g92
tp3816
a(I548
g92
tp3817
a(I548
g92
tp3818
a(I548
g92
tp3819
a(I548
g92
tp3820
a(I548
g92
tp3821
a(I548
g92
tp3822
a(I548
g92
tp3823
a(I548
g92
tp3824
a(I548
g92
tp3825
a(I548
g92
tp3826
a(I548
g92
tp3827
a(I548
g92
tp3828
a(I548
g92
tp3829
a(I548
g92
tp3830
a(I548
g92
tp3831
a(I548
g92
tp3832
a(I548
g92
tp3833
a(I548
g92
tp3834
a(I548
g92
tp3835
a(I548
g92
tp3836
a(I548
g92
tp3837
a(I548
g92
tp3838
a(I548
g92
tp3839
a(I548
g92
tp3840
a(I548
g92
tp3841
a(I548
g92
tp3842
a(I548
g92
tp3843
a(I548
g92
tp3844
a(I548
g92
tp3845
a(I548
g92
tp3846
a(I548
g92
tp3847
a(I548
g92
tp3848
a(I548
g92
tp3849
a(I548
g92
tp3850
a(I548
g92
tp3851
a(I548
g92
tp3852
a(I548
g92
tp3853
a(I548
g92
tp3854
a(I548
g92
tp3855
a(I548
g92
tp3856
a(I548
g92
tp3857
a(I548
g92
tp3858
a(I548
g92
tp3859
a(I548
g92
tp3860
a(I548
g92
tp3861
a(I548
g92
tp3862
a(I548
g92
tp3863
a(I548
g92
tp3864
a(I548
g92
tp3865
a(I548
g92
tp3866
a(I548
g92
tp3867
a(I548
g92
tp3868
a(I548
g92
tp3869
a(I548
g92
tp3870
a(I548
g92
tp3871
a(I548
g92
tp3872
a(I548
g92
tp3873
a(I548
g92
tp3874
a(I548
g92
tp3875
a(I548
g92
tp3876
a(I548
g92
tp3877
a(I548
g92
tp3878
a(I548
g92
tp3879
a(I548
g92
tp3880
a(I548
g92
tp3881
a(I548
g92
tp3882
a(I548
g92
tp3883
a(I548
g92
tp3884
a(I548
g92
tp3885
a(I548
g92
tp3886
a(I548
g92
tp3887
a(I548
g92
tp3888
a(I548
g92
tp3889
a(I548
g92
tp3890
a(I548
g92
tp3891
a(I548
g92
tp3892
a(I548
g92
tp3893
a(I548
g92
tp3894
a(I548
g92
tp3895
a(I548
g92
tp3896
a(I548
g92
tp3897
a(I548
g92
tp3898
a(I548
g92
tp3899
a(I548
g92
tp3900
a(I548
g92
tp3901
a(I548
g92
tp3902
a(I548
g92
tp3903
a(I548
g92
tp3904
a(I548
g92
tp3905
a(I548
g92
tp3906
a(I548
g92
tp3907
a(I548
g92
tp3908
a(I548
g92
tp3909
a(I548
g92
tp3910
a(I548
g92
tp3911
a(I548
g92
tp3912
a(I548
g92
tp3913
a(I548
g92
tp3914
a(I548
g92
tp3915
a(I548
g92
tp3916
a(I548
g92
tp3917
a(I548
g92
tp3918
a(I548
g92
tp3919
a(I548
g92
tp3920
a(I548
g92
tp3921
a(I548
g92
tp3922
a(I548
g92
tp3923
a(I548
g92
tp3924
a(I548
g92
tp3925
a(I548
g92
tp3926
a(I548
g92
tp3927
a(I548
g92
tp3928
a(I548
g92
tp3929
a(I548
g92
tp3930
a(I548
g92
tp3931
a(I548
g92
tp3932
a(I548
g92
tp3933
a(I548
g92
tp3934
a(I548
g92
tp3935
a(I548
g92
tp3936
a(I548
g92
tp3937
a(I548
g92
tp3938
a(I548
g92
tp3939
a(I548
g92
tp3940
a(I548
g92
tp3941
a(I548
g92
tp3942
a(I548
g92
tp3943
a(I548
g92
tp3944
a(I548
g92
tp3945
a(I548
g92
tp3946
a(I548
g92
tp3947
a(I548
g92
tp3948
a(I548
g92
tp3949
a(I548
g92
tp3950
a(I548
g92
tp3951
a(I548
g92
tp3952
a(I548
g92
tp3953
a(I548
g92
tp3954
a(I548
g92
tp3955
a(I548
g92
tp3956
a(I548
g92
tp3957
a(I548
g92
tp3958
a(I548
g92
tp3959
a(I548
g92
tp3960
a(I548
g92
tp3961
a(I548
g92
tp3962
a(I548
g92
tp3963
a(I548
g92
tp3964
a(I548
g92
tp3965
a(I548
g92
tp3966
a(I548
g92
tp3967
a(I548
g92
tp3968
a(I548
g92
tp3969
a(I548
g92
tp3970
a(I548
g92
tp3971
a(I548
g92
tp3972
a(I548
g92
tp3973
a(I548
g92
tp3974
a(I548
g92
tp3975
a(I548
g92
tp3976
a(I548
g92
tp3977
a(I548
g92
tp3978
a(I548
g92
tp3979
a(I548
g92
tp3980
a(I548
g92
tp3981
a(I548
g92
tp3982
a(I548
g92
tp3983
a(I548
g92
tp3984
a(I548
g92
tp3985
a(I548
g92
tp3986
a(I548
g92
tp3987
a(I548
g92
tp3988
a(I548
g92
tp3989
a(I548
g92
tp3990
a(I548
g92
tp3991
a(I548
g92
tp3992
a(I548
g92
tp3993
a(I548
g92
tp3994
a(I548
g92
tp3995
a(I548
g92
tp3996
a(I548
g92
tp3997
a(I548
g92
tp3998
a(I548
g92
tp3999
a(I548
g92
tp4000
a(I548
g92
tp4001
a(I548
g92
tp4002
a(I548
g92
tp4003
a(I548
g92
tp4004
a(I548
g92
tp4005
a(I548
g92
tp4006
a(I548
g92
tp4007
a(I548
g92
tp4008
a(I548
g92
tp4009
a(I548
g92
tp4010
a(I548
g92
tp4011
a(I548
g92
tp4012
a(I548
g92
tp4013
a(I548
g92
tp4014
a(I548
g92
tp4015
a(I548
g92
tp4016
a(I548
g92
tp4017
a(I548
g92
tp4018
a(I548
g92
tp4019
a(I548
g92
tp4020
a(I548
g92
tp4021
a(I548
g92
tp4022
a(I548
g92
tp4023
a(I548
g92
tp4024
a(I548
g92
tp4025
a(I548
g92
tp4026
a(I548
g92
tp4027
a(I548
g92
tp4028
a(I548
g92
tp4029
a(I548
g92
tp4030
a(I548
g92
tp4031
a(I548
g92
tp4032
a(I548
g92
tp4033
a(I548
g92
tp4034
a(I548
g92
tp4035
a(I548
g92
tp4036
a(I548
g92
tp4037
a(I548
g92
tp4038
a(I548
g92
tp4039
a(I548
g92
tp4040
a(I548
g92
tp4041
a(I548
g92
tp4042
a(I548
g92
tp4043
a(I548
g92
tp4044
a(I548
g92
tp4045
a(I548
g92
tp4046
a(I548
g92
tp4047
a(I548
g92
tp4048
a(I548
g92
tp4049
a(I548
g92
tp4050
a(I548
g92
tp4051
a(I548
g92
tp4052
a(I548
g92
tp4053
a(I548
g92
tp4054
a(I548
g92
tp4055
a(I548
g92
tp4056
a(I548
g92
tp4057
a(I548
g92
tp4058
a(I548
g92
tp4059
a(I548
g92
tp4060
a(I548
g92
tp4061
a(I548
g92
tp4062
a(I548
g92
tp4063
a(I548
g92
tp4064
a(I548
g92
tp4065
a(I548
g92
tp4066
a(I548
g92
tp4067
a(I548
g92
tp4068
a(I548
g92
tp4069
a(I548
g92
tp4070
a(I548
g92
tp4071
a(I548
g92
tp4072
a(I548
g92
tp4073
a(I548
g92
tp4074
a(I548
g92
tp4075
a(I548
g92
tp4076
a(I548
g92
tp4077
a(I548
g92
tp4078
a(I548
g92
tp4079
a(I548
g92
tp4080
a(I548
g92
tp4081
a(I548
g92
tp4082
a(I548
g92
tp4083
a(I548
g92
tp4084
a(I548
g92
tp4085
a(I548
g92
tp4086
a(I548
g92
tp4087
a(I548
g92
tp4088
a(I548
g92
tp4089
a(I548
g92
tp4090
a(I548
g92
tp4091
a(I548
g92
tp4092
a(I548
g92
tp4093
a(I548
g92
tp4094
a(I548
g92
tp4095
a(I548
g92
tp4096
a(I548
g92
tp4097
a(I548
g92
tp4098
a(I548
g92
tp4099
a(I548
g92
tp4100
a(I548
g92
tp4101
a(I548
g92
tp4102
a(I548
g92
tp4103
a(I548
g92
tp4104
a(I548
g92
tp4105
a(I548
g92
tp4106
a(I548
g92
tp4107
a(I548
g92
tp4108
a(I548
g92
tp4109
a(I548
g92
tp4110
a(I548
g92
tp4111
a(I548
g92
tp4112
a(I548
g92
tp4113
a(I548
g92
tp4114
a(I548
g92
tp4115
a(I548
g92
tp4116
a(I548
g92
tp4117
a(I548
g92
tp4118
a(I548
g92
tp4119
a(I548
g92
tp4120
a(I548
g92
tp4121
a(I548
g92
tp4122
a(I548
g92
tp4123
a(I548
g92
tp4124
a(I548
g92
tp4125
a(I548
g92
tp4126
a(I548
g92
tp4127
a(I548
g92
tp4128
a(I548
g92
tp4129
a(I548
g92
tp4130
a(I548
g92
tp4131
a(I548
g92
tp4132
a(I548
g92
tp4133
a(I548
g92
tp4134
a(I548
g92
tp4135
a(I548
g92
tp4136
a(I548
g92
tp4137
a(I548
g92
tp4138
a(I548
g92
tp4139
a(I548
g92
tp4140
a(I548
g92
tp4141
a(I548
g92
tp4142
a(I548
g92
tp4143
a(I548
g92
tp4144
a(I548
g92
tp4145
a(I548
g92
tp4146
a(I548
g92
tp4147
a(I548
g92
tp4148
a(I548
g92
tp4149
a(I548
g92
tp4150
a(I548
g92
tp4151
a(I548
g92
tp4152
a(I548
g92
tp4153
a(I548
g92
tp4154
a(I548
g92
tp4155
a(I548
g92
tp4156
a(I548
g92
tp4157
a(I548
g92
tp4158
a(I548
g92
tp4159
a(I548
g92
tp4160
a(I548
g92
tp4161
a(I548
g92
tp4162
a(I548
g92
tp4163
a(I548
g92
tp4164
a(I548
g92
tp4165
a(I548
g92
tp4166
a(I548
g92
tp4167
a(I548
g92
tp4168
a(I548
g92
tp4169
a(I548
g92
tp4170
a(I548
g92
tp4171
a(I548
g92
tp4172
a(I548
g92
tp4173
a(I548
g92
tp4174
a(I548
g92
tp4175
a(I548
g92
tp4176
a(I548
g92
tp4177
a(I548
g92
tp4178
a(I548
g92
tp4179
a(I548
g92
tp4180
a(I548
g92
tp4181
a(I548
g92
tp4182
a(I548
g92
tp4183
a(I548
g92
tp4184
a(I548
g92
tp4185
a(I548
g92
tp4186
a(I548
g92
tp4187
a(I548
g92
tp4188
a(I548
g92
tp4189
a(I548
g92
tp4190
a(I548
g92
tp4191
a(I548
g92
tp4192
a(I548
g92
tp4193
a(I548
g92
tp4194
a(I548
g92
tp4195
a(I548
g92
tp4196
a(I548
g92
tp4197
a(I548
g92
tp4198
a(I548
g92
tp4199
a(I548
g92
tp4200
a(I548
g92
tp4201
a(I548
g92
tp4202
a(I548
g92
tp4203
a(I548
g92
tp4204
a(I548
g92
tp4205
a(I548
g92
tp4206
a(I548
g92
tp4207
a(I548
g92
tp4208
a(I548
g92
tp4209
a(I548
g92
tp4210
a(I548
g92
tp4211
a(I548
g92
tp4212
a(I548
g92
tp4213
a(I548
g92
tp4214
a(I548
g92
tp4215
a(I548
g92
tp4216
a(I548
g92
tp4217
a(I548
g92
tp4218
a(I548
g92
tp4219
a(I548
g92
tp4220
a(I548
g92
tp4221
a(I548
g92
tp4222
a(I548
g92
tp4223
a(I548
g92
tp4224
a(I548
g92
tp4225
a(I548
g92
tp4226
a(I548
g92
tp4227
a(I548
g92
tp4228
a(I548
g92
tp4229
a(I548
g92
tp4230
a(I548
g92
tp4231
a(I548
g92
tp4232
a(I548
g92
tp4233
a(I548
g92
tp4234
a(I548
g92
tp4235
a(I548
g92
tp4236
a(I548
g92
tp4237
a(I548
g92
tp4238
a(I548
g92
tp4239
a(I548
g92
tp4240
a(I548
g92
tp4241
a(I548
g92
tp4242
a(I548
g92
tp4243
a(I548
g92
tp4244
a(I548
g92
tp4245
a(I548
g92
tp4246
a(I548
g92
tp4247
a(I548
g92
tp4248
a(I548
g92
tp4249
a(I548
g92
tp4250
a(I548
g92
tp4251
a(I548
g92
tp4252
a(I548
g92
tp4253
a(I548
g92
tp4254
a(I548
g92
tp4255
a(I548
g92
tp4256
a(I548
g92
tp4257
a(I548
g92
tp4258
a(I548
g92
tp4259
a(I548
g92
tp4260
a(I548
g92
tp4261
a(I548
g92
tp4262
a(I548
g92
tp4263
a(I548
g92
tp4264
a(I548
g92
tp4265
a(I548
g92
tp4266
a(I548
g92
tp4267
a(I548
g92
tp4268
a(I548
g92
tp4269
a(I548
g92
tp4270
a(I548
g92
tp4271
a(I548
g92
tp4272
a(I548
g92
tp4273
a(I548
g92
tp4274
a(I548
g92
tp4275
a(I548
g92
tp4276
a(I548
g92
tp4277
a(I548
g92
tp4278
a(I548
g92
tp4279
a(I548
g92
tp4280
a(I548
g92
tp4281
a(I548
g92
tp4282
a(I548
g92
tp4283
a(I548
g92
tp4284
a(I548
g92
tp4285
a(I548
g92
tp4286
a(I548
g92
tp4287
a(I548
g92
tp4288
a(I548
g92
tp4289
a(I548
g92
tp4290
a(I548
g92
tp4291
a(I548
g92
tp4292
a(I548
g92
tp4293
a(I548
g92
tp4294
a(I548
g92
tp4295
a(I548
g92
tp4296
a(I548
g92
tp4297
a(I548
g92
tp4298
a(I548
g92
tp4299
a(I548
g92
tp4300
a(I548
g92
tp4301
a(I548
g92
tp4302
a(I548
g92
tp4303
a(I548
g92
tp4304
a(I548
g92
tp4305
a(I548
g92
tp4306
a(I548
g92
tp4307
a(I548
g92
tp4308
a(I548
g92
tp4309
a(I548
g92
tp4310
a(I548
g92
tp4311
a(I548
g92
tp4312
a(I548
g92
tp4313
a(I548
g92
tp4314
a(I548
g92
tp4315
a(I548
g92
tp4316
a(I548
g92
tp4317
a(I548
g92
tp4318
a(I548
g92
tp4319
a(I548
g92
tp4320
a(I548
g92
tp4321
a(I548
g92
tp4322
a(I548
g92
tp4323
a(I548
g92
tp4324
a(I548
g92
tp4325
a(I548
g92
tp4326
a(I548
g92
tp4327
a(I548
g92
tp4328
a(I548
g92
tp4329
a(I548
g92
tp4330
a(I548
g92
tp4331
a(I548
g92
tp4332
a(I548
g92
tp4333
a(I548
g92
tp4334
a(I548
g92
tp4335
a(I548
g92
tp4336
a(I548
g92
tp4337
a(I548
g92
tp4338
a(I548
g92
tp4339
a(I548
g92
tp4340
a(I548
g92
tp4341
a(I548
g92
tp4342
a(I548
g92
tp4343
a(I548
g92
tp4344
a(I548
g92
tp4345
a(I548
g92
tp4346
a(I548
g92
tp4347
a(I548
g92
tp4348
a(I548
g92
tp4349
a(I548
g92
tp4350
a(I548
g92
tp4351
a(I548
g92
tp4352
a(I548
g92
tp4353
a(I548
g92
tp4354
a(I548
g92
tp4355
a(I548
g92
tp4356
a(I548
g92
tp4357
a(I548
g92
tp4358
a(I548
g92
tp4359
a(I548
g92
tp4360
a(I548
g92
tp4361
a(I548
g92
tp4362
a(I548
g92
tp4363
a(I548
g92
tp4364
a(I548
g92
tp4365
a(I548
g92
tp4366
a(I548
g92
tp4367
a(I548
g92
tp4368
a(I548
g92
tp4369
a(I548
g92
tp4370
a(I548
g92
tp4371
a(I548
g92
tp4372
a(I548
g92
tp4373
a(I548
g92
tp4374
a(I548
g92
tp4375
a(I548
g92
tp4376
a(I548
g92
tp4377
a(I548
g92
tp4378
a(I548
g92
tp4379
a(I548
g92
tp4380
a(I548
g92
tp4381
a(I548
g92
tp4382
a(I548
g92
tp4383
a(I548
g92
tp4384
a(I548
g92
tp4385
a(I548
g92
tp4386
a(I548
g92
tp4387
a(I548
g92
tp4388
a(I548
g92
tp4389
a(I548
g92
tp4390
a(I548
g92
tp4391
a(I548
g92
tp4392
a(I548
g92
tp4393
a(I548
g92
tp4394
a(I548
g92
tp4395
a(I548
g92
tp4396
a(I548
g92
tp4397
a(I548
g92
tp4398
a(I548
g92
tp4399
a(I548
g92
tp4400
a(I548
g92
tp4401
a(I548
g92
tp4402
a(I548
g92
tp4403
a(I548
g92
tp4404
a(I548
g92
tp4405
a(I548
g92
tp4406
a(I548
g92
tp4407
a(I548
g92
tp4408
a(I548
g92
tp4409
a(I548
g92
tp4410
a(I548
g92
tp4411
a(I548
g92
tp4412
a(I548
g92
tp4413
a(I548
g92
tp4414
a(I548
g92
tp4415
a(I548
g92
tp4416
a(I548
g92
tp4417
a(I548
g92
tp4418
a(I548
g92
tp4419
a(I548
g92
tp4420
a(I548
g92
tp4421
a(I548
g92
tp4422
a(I548
g92
tp4423
a(I548
g92
tp4424
a(I548
g92
tp4425
a(I548
g92
tp4426
a(I548
g92
tp4427
a(I548
g92
tp4428
a(I548
g92
tp4429
a(I548
g92
tp4430
a(I548
g92
tp4431
a(I548
g92
tp4432
a(I548
g92
tp4433
a(I548
g92
tp4434
a(I548
g92
tp4435
a(I548
g92
tp4436
a(I548
g92
tp4437
a(I548
g92
tp4438
a(I548
g92
tp4439
a(I548
g92
tp4440
a(I548
g92
tp4441
a(I548
g92
tp4442
a(I548
g92
tp4443
a(I548
g92
tp4444
a(I548
g92
tp4445
a(I548
g92
tp4446
a(I548
g92
tp4447
a(I548
g92
tp4448
a(I548
g92
tp4449
a(I548
g92
tp4450
a(I548
g92
tp4451
a(I548
g92
tp4452
a(I548
g92
tp4453
a(I548
g92
tp4454
a(I548
g92
tp4455
a(I548
g92
tp4456
a(I548
g92
tp4457
a(I548
g92
tp4458
a(I548
g92
tp4459
a(I548
g92
tp4460
a(I548
g92
tp4461
a(I548
g92
tp4462
a(I548
g92
tp4463
a(I548
g92
tp4464
a(I548
g92
tp4465
a(I548
g92
tp4466
a(I548
g92
tp4467
a(I548
g92
tp4468
a(I548
g92
tp4469
a(I548
g92
tp4470
a(I548
g92
tp4471
a(I548
g92
tp4472
a(I548
g92
tp4473
a(I548
g92
tp4474
a(I548
g92
tp4475
a(I548
g92
tp4476
a(I548
g92
tp4477
a(I548
g92
tp4478
a(I548
g92
tp4479
a(I548
g92
tp4480
a(I548
g92
tp4481
a(I548
g92
tp4482
a(I548
g92
tp4483
a(I548
g92
tp4484
a(I548
g92
tp4485
a(I548
g92
tp4486
a(I548
g92
tp4487
a(I548
g92
tp4488
a(I548
g92
tp4489
a(I548
g92
tp4490
a(I548
g92
tp4491
a(I548
g92
tp4492
a(I548
g92
tp4493
a(I548
g92
tp4494
a(I548
g92
tp4495
a(I548
g92
tp4496
a(I548
g92
tp4497
a(I548
g92
tp4498
a(I548
g92
tp4499
a(I548
g92
tp4500
a(I548
g92
tp4501
a(I548
g92
tp4502
a(I548
g92
tp4503
a(I548
g92
tp4504
a(I548
g92
tp4505
a(I548
g92
tp4506
a(I548
g92
tp4507
a(I548
g92
tp4508
a(I548
g92
tp4509
a(I548
g92
tp4510
a(I548
g92
tp4511
a(I548
g92
tp4512
a(I548
g92
tp4513
a(I548
g92
tp4514
a(I548
g92
tp4515
a(I548
g92
tp4516
a(I548
g92
tp4517
a(I548
g92
tp4518
a(I548
g92
tp4519
a(I548
g92
tp4520
a(I548
g92
tp4521
a(I548
g92
tp4522
a(I548
g92
tp4523
a(I548
g92
tp4524
a(I548
g92
tp4525
a(I548
g92
tp4526
a(I548
g92
tp4527
a(I548
g92
tp4528
a(I548
g92
tp4529
a(I548
g92
tp4530
a(I548
g92
tp4531
a(I548
g92
tp4532
a(I548
g92
tp4533
a(I548
g92
tp4534
a(I548
g92
tp4535
a(I548
g92
tp4536
a(I548
g92
tp4537
a(I548
g92
tp4538
a(I548
g92
tp4539
a(I548
g92
tp4540
a(I548
g92
tp4541
a(I548
g92
tp4542
a(I548
g92
tp4543
a(I548
g92
tp4544
a(I548
g92
tp4545
a(I548
g92
tp4546
a(I548
g92
tp4547
a(I548
g92
tp4548
a(I548
g92
tp4549
a(I548
g92
tp4550
a(I548
g92
tp4551
a(I548
g92
tp4552
a(I548
g92
tp4553
a(I548
g92
tp4554
a(I548
g92
tp4555
a(I548
g92
tp4556
a(I548
g92
tp4557
a(I548
g92
tp4558
a(I548
g92
tp4559
a(I548
g92
tp4560
a(I548
g92
tp4561
a(I548
g92
tp4562
a(I548
g92
tp4563
a(I548
g92
tp4564
a(I548
g92
tp4565
a(I548
g92
tp4566
a(I548
g92
tp4567
a(I548
g92
tp4568
a(I548
g92
tp4569
a(I548
g92
tp4570
a(I548
g92
tp4571
a(I548
g92
tp4572
a(I548
g92
tp4573
a(I548
g92
tp4574
a(I548
g92
tp4575
a(I548
g92
tp4576
a(I548
g92
tp4577
a(I548
g92
tp4578
a(I548
g92
tp4579
a(I548
g92
tp4580
a(I548
g92
tp4581
a(I548
g92
tp4582
a(I548
g92
tp4583
a(I548
g92
tp4584
a(I548
g92
tp4585
a(I548
g92
tp4586
a(I548
g92
tp4587
a(I548
g92
tp4588
a(I548
g92
tp4589
a(I548
g92
tp4590
a(I548
g92
tp4591
a(I548
g92
tp4592
a(I548
g92
tp4593
a(I548
g92
tp4594
a(I548
g92
tp4595
a(I548
g92
tp4596
a(I548
g92
tp4597
a(I548
g92
tp4598
a(I548
g92
tp4599
a(I548
g92
tp4600
a(I548
g92
tp4601
a(I548
g92
tp4602
a(I548
g92
tp4603
a(I548
g92
tp4604
a(I548
g92
tp4605
a(I548
g92
tp4606
a(I548
g92
tp4607
a(I548
g92
tp4608
a(I548
g92
tp4609
a(I548
g92
tp4610
a(I548
g92
tp4611
a(I548
g92
tp4612
a(I548
g92
tp4613
a(I548
g92
tp4614
a(I548
g92
tp4615
a(I548
g92
tp4616
a(I548
g92
tp4617
a(I548
g92
tp4618
a(I548
g92
tp4619
a(I548
g92
tp4620
a(I548
g92
tp4621
a(I548
g92
tp4622
a(I548
g92
tp4623
a(I548
g92
tp4624
a(I548
g92
tp4625
a(I548
g92
tp4626
a(I548
g92
tp4627
a(I548
g92
tp4628
a(I548
g92
tp4629
a(I548
g92
tp4630
a(I548
g92
tp4631
a(I548
g92
tp4632
a(I548
g92
tp4633
a(I548
g92
tp4634
a(I548
g92
tp4635
a(I548
g92
tp4636
a(I548
g92
tp4637
a(I548
g92
tp4638
a(I548
g92
tp4639
a(I548
g92
tp4640
a(I548
g92
tp4641
a(I548
g92
tp4642
a(I548
g92
tp4643
a(I548
g92
tp4644
a(I548
g92
tp4645
a(I548
g92
tp4646
a(I548
g92
tp4647
a(I548
g92
tp4648
a(I548
g92
tp4649
a(I548
g92
tp4650
a(I548
g92
tp4651
a(I548
g92
tp4652
a(I548
g92
tp4653
a(I548
g92
tp4654
a(I548
g92
tp4655
a(I548
g92
tp4656
a(I548
g92
tp4657
a(I548
g92
tp4658
a(I548
g92
tp4659
a(I548
g92
tp4660
a(I548
g92
tp4661
a(I548
g92
tp4662
a(I548
g92
tp4663
a(I548
g92
tp4664
a(I548
g92
tp4665
a(I548
g92
tp4666
a(I548
g92
tp4667
a(I548
g92
tp4668
a(I548
g92
tp4669
a(I548
g92
tp4670
a(I548
g92
tp4671
a(I548
g92
tp4672
a(I548
g92
tp4673
a(I548
g92
tp4674
a(I548
g92
tp4675
a(I548
g92
tp4676
a(I548
g92
tp4677
a(I548
g92
tp4678
a(I548
g92
tp4679
a(I548
g92
tp4680
a(I548
g92
tp4681
a(I548
g92
tp4682
a(I548
g92
tp4683
a(I548
g92
tp4684
a(I548
g92
tp4685
a(I548
g92
tp4686
a(I548
g92
tp4687
a(I548
g92
tp4688
a(I548
g92
tp4689
a(I548
g92
tp4690
a(I548
g92
tp4691
a(I548
g92
tp4692
a(I548
g92
tp4693
a(I548
g92
tp4694
a(I548
g92
tp4695
a(I548
g92
tp4696
a(I548
g92
tp4697
a(I548
g92
tp4698
a(I548
g92
tp4699
a(I548
g92
tp4700
a(I548
g92
tp4701
a(I548
g92
tp4702
a(I548
g92
tp4703
a(I548
g92
tp4704
a(I548
g92
tp4705
a(I548
g92
tp4706
a(I548
g92
tp4707
a(I548
g92
tp4708
a(I548
g92
tp4709
a(I548
g92
tp4710
a(I548
g92
tp4711
a(I548
g92
tp4712
a(I548
g92
tp4713
a(I548
g92
tp4714
a(I548
g92
tp4715
a(I548
g92
tp4716
a(I548
g92
tp4717
a(I548
g92
tp4718
a(I548
g92
tp4719
a(I548
g92
tp4720
a(I548
g92
tp4721
a(I548
g92
tp4722
a(I548
g92
tp4723
a(I548
g92
tp4724
a(I548
g92
tp4725
a(I548
g92
tp4726
a(I548
g92
tp4727
a(I548
g92
tp4728
a(I548
g92
tp4729
a(I548
g92
tp4730
a(I548
g92
tp4731
a(I548
g92
tp4732
a(I548
g92
tp4733
a(I548
g92
tp4734
a(I548
g92
tp4735
a(I548
g92
tp4736
a(I548
g92
tp4737
a(I548
g92
tp4738
a(I548
g92
tp4739
a(I548
g92
tp4740
a(I548
g92
tp4741
a(I548
g92
tp4742
a(I548
g92
tp4743
a(I548
g92
tp4744
a(I548
g92
tp4745
a(I548
g92
tp4746
a(I548
g92
tp4747
a(I548
g92
tp4748
a(I548
g92
tp4749
a(I548
g92
tp4750
a(I548
g92
tp4751
a(I548
g92
tp4752
a(I548
g92
tp4753
a(I548
g92
tp4754
a(I548
g92
tp4755
a(I548
g92
tp4756
a(I548
g92
tp4757
a(I548
g92
tp4758
a(I548
g92
tp4759
a(I548
g92
tp4760
a(I548
g92
tp4761
a(I548
g92
tp4762
a(I548
g92
tp4763
a(I548
g92
tp4764
a(I548
g92
tp4765
a(I548
g92
tp4766
a(I548
g92
tp4767
a(I548
g92
tp4768
a(I548
g92
tp4769
a(I548
g92
tp4770
a(I548
g92
tp4771
a(I548
g92
tp4772
a(I548
g92
tp4773
a(I548
g92
tp4774
a(I548
g92
tp4775
a(I548
g92
tp4776
a(I548
g92
tp4777
a(I548
g92
tp4778
a(I548
g92
tp4779
a(I548
g92
tp4780
a(I548
g92
tp4781
a(I548
g92
tp4782
a(I548
g92
tp4783
a(I548
g92
tp4784
a(I548
g92
tp4785
a(I548
g92
tp4786
a(I548
g92
tp4787
a(I548
g92
tp4788
a(I548
g92
tp4789
a(I548
g92
tp4790
a(I548
g92
tp4791
a(I548
g92
tp4792
a(I548
g92
tp4793
a(I548
g92
tp4794
a(I548
g92
tp4795
a(I548
g92
tp4796
a(I548
g92
tp4797
a(I548
g92
tp4798
a(I548
g92
tp4799
a(I548
g92
tp4800
a(I548
g92
tp4801
a(I548
g92
tp4802
a(I548
g92
tp4803
a(I548
g92
tp4804
a(I548
g92
tp4805
a(I548
g92
tp4806
a(I548
g92
tp4807
a(I548
g92
tp4808
a(I548
g92
tp4809
a(I548
g92
tp4810
a(I548
g92
tp4811
a(I548
g92
tp4812
a(I548
g92
tp4813
a(I548
g92
tp4814
a(I548
g92
tp4815
a(I548
g92
tp4816
a(I548
g92
tp4817
a(I548
g92
tp4818
a(I548
g92
tp4819
a(I548
g92
tp4820
a(I548
g92
tp4821
a(I548
g92
tp4822
a(I548
g92
tp4823
a(I548
g92
tp4824
a(I548
g92
tp4825
a(I548
g92
tp4826
a(I548
g92
tp4827
a(I548
g92
tp4828
a(I548
g92
tp4829
a(I548
g92
tp4830
a(I548
g92
tp4831
a(I548
g92
tp4832
a(I548
g92
tp4833
a(I548
g92
tp4834
a(I548
g92
tp4835
a(I548
g92
tp4836
a(I548
g92
tp4837
a(I548
g92
tp4838
a(I548
g92
tp4839
a(I548
g92
tp4840
a(I548
g92
tp4841
a(I548
g92
tp4842
a(I548
g92
tp4843
a(I548
g92
tp4844
a(I548
g92
tp4845
a(I548
g92
tp4846
a(I548
g92
tp4847
a(I548
g92
tp4848
a(I548
g92
tp4849
a(I548
g92
tp4850
a(I548
g92
tp4851
a(I548
g92
tp4852
a(I548
g92
tp4853
a(I548
g92
tp4854
a(I548
g92
tp4855
a(I548
g92
tp4856
a(I548
g92
tp4857
a(I548
g92
tp4858
a(I548
g92
tp4859
a(I548
g92
tp4860
a(I548
g92
tp4861
a(I548
g92
tp4862
a(I548
g92
tp4863
a(I548
g92
tp4864
a(I548
g92
tp4865
a(I548
g92
tp4866
a(I548
g92
tp4867
a(I548
g92
tp4868
a(I548
g92
tp4869
a(I548
g92
tp4870
a(I548
g92
tp4871
a(I548
g92
tp4872
a(I548
g92
tp4873
a(I548
g92
tp4874
a(I548
g92
tp4875
a(I548
g92
tp4876
a(I548
g92
tp4877
a(I548
g92
tp4878
a(I548
g92
tp4879
a(I548
g92
tp4880
a(I548
g92
tp4881
a(I548
g92
tp4882
a(I548
g92
tp4883
a(I548
g92
tp4884
a(I548
g92
tp4885
a(I548
g92
tp4886
a(I548
g92
tp4887
a(I548
g92
tp4888
a(I548
g92
tp4889
a(I548
g92
tp4890
a(I548
g92
tp4891
a(I548
g92
tp4892
a(I548
g92
tp4893
a(I548
g92
tp4894
a(I548
g92
tp4895
a(I548
g92
tp4896
a(I548
g92
tp4897
a(I548
g92
tp4898
a(I548
g92
tp4899
a(I548
g92
tp4900
a(I548
g92
tp4901
a(I548
g92
tp4902
a(I548
g92
tp4903
a(I548
g92
tp4904
a(I548
g92
tp4905
a(I548
g92
tp4906
a(I548
g92
tp4907
a(I548
g92
tp4908
a(I548
g92
tp4909
a(I548
g92
tp4910
a(I548
g92
tp4911
a(I548
g92
tp4912
a(I548
g92
tp4913
a(I548
g92
tp4914
a(I548
g92
tp4915
a(I548
g92
tp4916
a(I548
g92
tp4917
a(I548
g92
tp4918
a(I548
g92
tp4919
a(I548
g92
tp4920
a(I548
g92
tp4921
a(I548
g92
tp4922
a(I548
g92
tp4923
a(I548
g92
tp4924
a(I548
g92
tp4925
a(I548
g92
tp4926
a(I548
g92
tp4927
a(I548
g92
tp4928
a(I548
g92
tp4929
a(I548
g92
tp4930
a(I548
g92
tp4931
a(I548
g92
tp4932
a(I548
g92
tp4933
a(I548
g92
tp4934
a(I548
g92
tp4935
a(I548
g92
tp4936
a(I548
g92
tp4937
a(I548
g92
tp4938
a(I548
g92
tp4939
a(I548
g92
tp4940
a(I548
g92
tp4941
a(I548
g92
tp4942
a(I548
g92
tp4943
a(I548
g92
tp4944
a(I548
g92
tp4945
a(I548
g92
tp4946
a(I548
g92
tp4947
a(I548
g92
tp4948
a(I548
g92
tp4949
a(I548
g92
tp4950
a(I548
g92
tp4951
a(I548
g92
tp4952
a(I548
g92
tp4953
a(I548
g92
tp4954
a(I548
g92
tp4955
a(I548
g92
tp4956
a(I548
g92
tp4957
a(I548
g92
tp4958
a(I548
g92
tp4959
a(I548
g92
tp4960
a(I548
g92
tp4961
a(I548
g92
tp4962
a(I548
g92
tp4963
a(I548
g92
tp4964
a(I548
g92
tp4965
a(I548
g92
tp4966
a(I548
g92
tp4967
a(I548
g92
tp4968
a(I548
g92
tp4969
a(I548
g92
tp4970
a(I548
g92
tp4971
a(I548
g92
tp4972
a(I548
g92
tp4973
a(I548
g92
tp4974
a(I548
g92
tp4975
a(I548
g92
tp4976
a(I548
g92
tp4977
a(I548
g92
tp4978
a(I548
g92
tp4979
a(I548
g92
tp4980
a(I548
g92
tp4981
a(I548
g92
tp4982
a(I548
g92
tp4983
a(I548
g92
tp4984
a(I548
g92
tp4985
a(I548
g92
tp4986
a(I548
g92
tp4987
a(I548
g92
tp4988
a(I548
g92
tp4989
a(I548
g92
tp4990
a(I548
g92
tp4991
a(I548
g92
tp4992
a(I548
g92
tp4993
a(I548
g92
tp4994
a(I548
g92
tp4995
a(I548
g92
tp4996
a(I548
g92
tp4997
a(I548
g92
tp4998
a(I548
g92
tp4999
a(I548
g92
tp5000
a(I548
g92
tp5001
a(I548
g92
tp5002
a(I548
g92
tp5003
a(I548
g92
tp5004
a(I548
g92
tp5005
a(I548
g92
tp5006
a(I548
g92
tp5007
a(I548
g92
tp5008
a(I548
g92
tp5009
a(I548
g92
tp5010
a(I548
g92
tp5011
a(I548
g92
tp5012
a(I548
g92
tp5013
a(I548
g92
tp5014
a(I548
g92
tp5015
a(I548
g92
tp5016
a(I548
g92
tp5017
a(I548
g92
tp5018
a(I548
g92
tp5019
a(I548
g92
tp5020
a(I548
g92
tp5021
a(I548
g92
tp5022
a(I548
g92
tp5023
a(I548
g92
tp5024
a(I548
g92
tp5025
a(I548
g92
tp5026
a(I548
g92
tp5027
a(I548
g92
tp5028
a(I548
g92
tp5029
a(I548
g92
tp5030
a(I548
g92
tp5031
a(I548
g92
tp5032
a(I548
g92
tp5033
a(I548
g92
tp5034
a(I548
g92
tp5035
a(I548
g92
tp5036
a(I548
g92
tp5037
a(I548
g92
tp5038
a(I548
g92
tp5039
a(I548
g92
tp5040
a(I548
g92
tp5041
a(I548
g92
tp5042
a(I548
g92
tp5043
a(I548
g92
tp5044
a(I548
g92
tp5045
a(I548
g92
tp5046
a(I548
g92
tp5047
a(I548
g92
tp5048
a(I548
g92
tp5049
a(I548
g92
tp5050
a(I548
g92
tp5051
a(I548
g92
tp5052
a(I548
g92
tp5053
a(I548
g92
tp5054
a(I548
g92
tp5055
a(I548
g92
tp5056
a(I548
g92
tp5057
a(I548
g92
tp5058
a(I548
g92
tp5059
a(I548
g92
tp5060
a(I548
g92
tp5061
a(I548
g92
tp5062
a(I548
g92
tp5063
a(I548
g92
tp5064
a(I548
g92
tp5065
a(I548
g92
tp5066
a(I548
g92
tp5067
a(I548
g92
tp5068
a(I548
g92
tp5069
a(I548
g92
tp5070
a(I548
g92
tp5071
a(I548
g92
tp5072
a(I548
g92
tp5073
a(I548
g92
tp5074
a(I548
g92
tp5075
a(I548
g92
tp5076
a(I548
g92
tp5077
a(I548
g92
tp5078
a(I548
g92
tp5079
a(I548
g92
tp5080
a(I548
g92
tp5081
a(I548
g92
tp5082
a(I548
g92
tp5083
a(I548
g92
tp5084
a(I548
g92
tp5085
a(I548
g92
tp5086
a(I548
g92
tp5087
a(I548
g92
tp5088
a(I548
g92
tp5089
a(I548
g92
tp5090
a(I548
g92
tp5091
a(I548
g92
tp5092
a(I548
g92
tp5093
a(I548
g92
tp5094
a(I548
g92
tp5095
a(I548
g92
tp5096
a(I548
g92
tp5097
a(I548
g92
tp5098
a(I548
g92
tp5099
a(I548
g92
tp5100
a(I548
g92
tp5101
a(I548
g92
tp5102
a(I548
g92
tp5103
a(I548
g92
tp5104
a(I548
g92
tp5105
a(I548
g92
tp5106
a(I548
g92
tp5107
a(I548
g92
tp5108
a(I548
g92
tp5109
a(I548
g92
tp5110
a(I548
g92
tp5111
a(I548
g92
tp5112
a(I548
g92
tp5113
a(I548
g92
tp5114
a(I548
g92
tp5115
a(I548
g92
tp5116
a(I548
g92
tp5117
a(I548
g92
tp5118
a(I548
g92
tp5119
a(I548
g92
tp5120
a(I548
g92
tp5121
a(I548
g92
tp5122
a(I548
g92
tp5123
a(I548
g92
tp5124
a(I548
g92
tp5125
a(I548
g92
tp5126
a(I548
g92
tp5127
a(I548
g92
tp5128
a(I548
g92
tp5129
a(I548
g92
tp5130
a(I548
g92
tp5131
a(I548
g92
tp5132
a(I548
g92
tp5133
a(I548
g92
tp5134
a(I548
g92
tp5135
a(I548
g92
tp5136
a(I548
g92
tp5137
a(I548
g92
tp5138
a(I548
g92
tp5139
a(I548
g92
tp5140
a(I548
g92
tp5141
a(I548
g92
tp5142
a(I548
g92
tp5143
a(I548
g92
tp5144
a(I548
g92
tp5145
a(I548
g92
tp5146
a(I548
g92
tp5147
a(I548
g92
tp5148
a(I548
g92
tp5149
a(I548
g92
tp5150
a(I548
g92
tp5151
a(I548
g92
tp5152
a(I548
g92
tp5153
a(I548
g92
tp5154
a(I548
g92
tp5155
a(I548
g92
tp5156
a(I548
g92
tp5157
a(I548
g92
tp5158
a(I548
g92
tp5159
a(I548
g92
tp5160
a(I548
g92
tp5161
a(I548
g92
tp5162
a(I548
g92
tp5163
a(I548
g92
tp5164
a(I548
g92
tp5165
a(I548
g92
tp5166
a(I548
g92
tp5167
a(I548
g92
tp5168
a(I548
g92
tp5169
a(I548
g92
tp5170
a(I548
g92
tp5171
a(I548
g92
tp5172
a(I548
g92
tp5173
a(I548
g92
tp5174
a(I548
g92
tp5175
a(I548
g92
tp5176
a(I548
g92
tp5177
a(I548
g92
tp5178
a(I548
g92
tp5179
a(I548
g92
tp5180
a(I548
g92
tp5181
a(I548
g92
tp5182
a(I548
g92
tp5183
a(I548
g92
tp5184
a(I548
g92
tp5185
a(I548
g92
tp5186
a(I548
g92
tp5187
a(I548
g92
tp5188
a(I548
g92
tp5189
a(I548
g92
tp5190
a(I548
g92
tp5191
a(I548
g92
tp5192
a(I548
g92
tp5193
a(I548
g92
tp5194
a(I548
g92
tp5195
a(I548
g92
tp5196
a(I548
g92
tp5197
a(I548
g92
tp5198
a(I548
g92
tp5199
a(I548
g92
tp5200
a(I548
g92
tp5201
a(I548
g92
tp5202
a(I548
g92
tp5203
a(I548
g92
tp5204
a(I548
g92
tp5205
a(I548
g92
tp5206
a(I548
g92
tp5207
a(I548
g92
tp5208
a(I548
g92
tp5209
a(I548
g92
tp5210
a(I548
g92
tp5211
a(I548
g92
tp5212
a(I548
g92
tp5213
a(I548
g92
tp5214
a(I548
g92
tp5215
a(I548
g92
tp5216
a(I548
g92
tp5217
a(I548
g92
tp5218
a(I548
g92
tp5219
a(I548
g92
tp5220
a(I548
g92
tp5221
a(I548
g92
tp5222
a(I548
g92
tp5223
a(I548
g92
tp5224
a(I548
g92
tp5225
a(I548
g92
tp5226
a(I548
g92
tp5227
a(I548
g92
tp5228
a(I548
g92
tp5229
a(I548
g92
tp5230
a(I548
g92
tp5231
a(I548
g92
tp5232
a(I548
g92
tp5233
a(I548
g92
tp5234
a(I548
g92
tp5235
a(I548
g92
tp5236
a(I548
g92
tp5237
a(I548
g92
tp5238
a(I548
g92
tp5239
a(I548
g92
tp5240
a(I548
g92
tp5241
a(I548
g92
tp5242
a(I548
g92
tp5243
a(I548
g92
tp5244
a(I548
g92
tp5245
a(I548
g92
tp5246
a(I548
g92
tp5247
a(I548
g92
tp5248
a(I548
g92
tp5249
a(I548
g92
tp5250
a(I548
g92
tp5251
a(I548
g92
tp5252
a(I548
g92
tp5253
a(I548
g92
tp5254
a(I548
g92
tp5255
a(I548
g92
tp5256
a(I548
g92
tp5257
a(I548
g92
tp5258
a(I548
g92
tp5259
a(I548
g92
tp5260
a(I548
g92
tp5261
a(I548
g92
tp5262
a(I548
g92
tp5263
a(I548
g92
tp5264
a(I548
g92
tp5265
a(I548
g92
tp5266
a(I548
g92
tp5267
a(I548
g92
tp5268
a(I548
g92
tp5269
a(I548
g92
tp5270
a(I548
g92
tp5271
a(I548
g92
tp5272
a(I548
g92
tp5273
a(I548
g92
tp5274
a(I548
g92
tp5275
a(I548
g92
tp5276
a(I548
g92
tp5277
a(I548
g92
tp5278
a(I548
g92
tp5279
a(I548
g92
tp5280
a(I548
g92
tp5281
a(I548
g92
tp5282
a(I548
g92
tp5283
a(I548
g92
tp5284
a(I548
g92
tp5285
a(I548
g92
tp5286
a(I548
g92
tp5287
a(I548
g92
tp5288
a(I548
g92
tp5289
a(I548
g92
tp5290
a(I548
g92
tp5291
a(I548
g92
tp5292
a(I548
g92
tp5293
a(I548
g92
tp5294
a(I548
g92
tp5295
a(I548
g92
tp5296
a(I548
g92
tp5297
a(I548
g92
tp5298
a(I548
g92
tp5299
a(I548
g92
tp5300
a(I548
g92
tp5301
a(I548
g92
tp5302
a(I548
g92
tp5303
a(I548
g92
tp5304
a(I548
g92
tp5305
a(I548
g92
tp5306
a(I548
g92
tp5307
a(I548
g92
tp5308
a(I548
g92
tp5309
a(I548
g92
tp5310
a(I548
g92
tp5311
a(I548
g92
tp5312
a(I548
g92
tp5313
a(I548
g92
tp5314
a(I548
g92
tp5315
a(I548
g92
tp5316
a(I548
g92
tp5317
a(I548
g92
tp5318
a(I548
g92
tp5319
a(I548
g92
tp5320
a(I548
g92
tp5321
a(I548
g92
tp5322
a(I548
g92
tp5323
a(I548
g92
tp5324
a(I548
g92
tp5325
a(I548
g92
tp5326
a(I548
g92
tp5327
a(I548
g92
tp5328
a(I548
g92
tp5329
a(I548
g92
tp5330
a(I548
g92
tp5331
a(I548
g92
tp5332
a(I548
g92
tp5333
a(I548
g92
tp5334
a(I548
g92
tp5335
a(I548
g92
tp5336
a(I548
g92
tp5337
a(I548
g92
tp5338
a(I548
g92
tp5339
a(I548
g92
tp5340
a(I548
g92
tp5341
a(I548
g92
tp5342
a(I548
g92
tp5343
a(I548
g92
tp5344
a(I548
g92
tp5345
a(I548
g92
tp5346
a(I548
g92
tp5347
a(I548
g92
tp5348
a(I548
g92
tp5349
a(I548
g92
tp5350
a(I548
g92
tp5351
a(I548
g92
tp5352
a(I548
g92
tp5353
a(I548
g92
tp5354
a(I548
g92
tp5355
a(I548
g92
tp5356
a(I548
g92
tp5357
a(I548
g92
tp5358
a(I548
g92
tp5359
a(I548
g92
tp5360
a(I548
g92
tp5361
a(I548
g92
tp5362
a(I548
g92
tp5363
a(I548
g92
tp5364
a(I548
g92
tp5365
a(I548
g92
tp5366
a(I548
g92
tp5367
a(I548
g92
tp5368
a(I548
g92
tp5369
a(I548
g92
tp5370
a(I548
g92
tp5371
a(I548
g92
tp5372
a(I548
g92
tp5373
a(I548
g92
tp5374
a(I548
g92
tp5375
a(I548
g92
tp5376
a(I548
g92
tp5377
a(I548
g92
tp5378
a(I548
g92
tp5379
a(I548
g92
tp5380
a(I548
g92
tp5381
a(I548
g92
tp5382
a(I548
g92
tp5383
a(I548
g92
tp5384
a(I548
g92
tp5385
a(I548
g92
tp5386
a(I548
g92
tp5387
a(I548
g92
tp5388
a(I548
g92
tp5389
a(I548
g92
tp5390
a(I548
g92
tp5391
a(I548
g92
tp5392
a(I548
g92
tp5393
a(I548
g92
tp5394
a(I548
g92
tp5395
a(I548
g92
tp5396
a(I548
g92
tp5397
a(I548
g92
tp5398
a(I548
g92
tp5399
a(I548
g92
tp5400
a(I548
g92
tp5401
a(I548
g92
tp5402
a(I548
g92
tp5403
a(I548
g92
tp5404
a(I548
g92
tp5405
a(I548
g92
tp5406
a(I548
g92
tp5407
a(I548
g92
tp5408
a(I548
g92
tp5409
a(I548
g92
tp5410
a(I548
g92
tp5411
a(I548
g92
tp5412
a(I548
g92
tp5413
a(I548
g92
tp5414
a(I548
g92
tp5415
a(I548
g92
tp5416
a(I548
g92
tp5417
a(I548
g92
tp5418
a(I548
g92
tp5419
a(I548
g92
tp5420
a(I548
g92
tp5421
a(I548
g92
tp5422
a(I548
g92
tp5423
a(I548
g92
tp5424
a(I548
g92
tp5425
a(I548
g92
tp5426
a(I548
g92
tp5427
a(I548
g92
tp5428
a(I548
g92
tp5429
a(I548
g92
tp5430
a(I548
g92
tp5431
a(I548
g92
tp5432
a(I548
g92
tp5433
a(I548
g92
tp5434
a(I548
g92
tp5435
a(I548
g92
tp5436
a(I548
g92
tp5437
a(I548
g92
tp5438
a(I548
g92
tp5439
a(I548
g92
tp5440
a(I548
g92
tp5441
a(I548
g92
tp5442
a(I548
g92
tp5443
a(I548
g92
tp5444
a(I548
g92
tp5445
a(I548
g92
tp5446
a(I548
g92
tp5447
a(I548
g92
tp5448
a(I548
g92
tp5449
a(I548
g92
tp5450
a(I548
g92
tp5451
a(I548
g92
tp5452
a(I548
g92
tp5453
a(I548
g92
tp5454
a(I548
g92
tp5455
a(I548
g92
tp5456
a(I548
g92
tp5457
a(I548
g92
tp5458
a(I548
g92
tp5459
a(I548
g92
tp5460
a(I548
g92
tp5461
a(I548
g92
tp5462
a(I548
g92
tp5463
a(I548
g92
tp5464
a(I548
g92
tp5465
a(I548
g92
tp5466
a(I548
g92
tp5467
a(I548
g92
tp5468
a(I548
g92
tp5469
a(I548
g92
tp5470
a(I548
g92
tp5471
a(I548
g92
tp5472
a(I548
g92
tp5473
a(I548
g92
tp5474
a(I548
g92
tp5475
a(I548
g92
tp5476
a(I548
g92
tp5477
a(I548
g92
tp5478
a(I548
g92
tp5479
a(I548
g92
tp5480
a(I548
g92
tp5481
a(I548
g92
tp5482
a(I548
g92
tp5483
a(I548
g92
tp5484
a(I548
g92
tp5485
a(I548
g92
tp5486
a(I548
g92
tp5487
a(I548
g92
tp5488
a(I548
g92
tp5489
a(I548
g92
tp5490
a(I548
g92
tp5491
a(I548
g92
tp5492
a(I548
g92
tp5493
a(I548
g92
tp5494
a(I548
g92
tp5495
a(I548
g92
tp5496
a(I548
g92
tp5497
a(I548
g92
tp5498
a(I548
g92
tp5499
a(I548
g92
tp5500
a(I548
g92
tp5501
a(I548
g92
tp5502
a(I548
g92
tp5503
a(I548
g92
tp5504
a(I548
g92
tp5505
a(I548
g92
tp5506
a(I548
g92
tp5507
a(I548
g92
tp5508
a(I548
g92
tp5509
a(I548
g92
tp5510
a(I548
g92
tp5511
a(I548
g92
tp5512
a(I548
g92
tp5513
a(I548
g92
tp5514
a(I548
g92
tp5515
a(I548
g92
tp5516
a(I548
g92
tp5517
a(I548
g92
tp5518
a(I548
g92
tp5519
a(I548
g92
tp5520
a(I548
g92
tp5521
a(I548
g92
tp5522
a(I548
g92
tp5523
a(I548
g92
tp5524
a(I548
g92
tp5525
a(I548
g92
tp5526
a(I548
g92
tp5527
a(I548
g92
tp5528
a(I548
g92
tp5529
a(I548
g92
tp5530
a(I548
g92
tp5531
a(I548
g92
tp5532
a(I548
g92
tp5533
a(I548
g92
tp5534
a(I548
g92
tp5535
a(I548
g92
tp5536
a(I548
g92
tp5537
a(I548
g92
tp5538
a(I548
g92
tp5539
a(I548
g92
tp5540
a(I548
g92
tp5541
a(I548
g92
tp5542
a(I548
g92
tp5543
a(I548
g92
tp5544
a(I548
g92
tp5545
a(I548
g92
tp5546
a(I548
g92
tp5547
a(I548
g92
tp5548
a(I548
g92
tp5549
a(I548
g92
tp5550
a(I548
g92
tp5551
a(I548
g92
tp5552
a(I548
g92
tp5553
a(I548
g92
tp5554
a(I548
g92
tp5555
a(I548
g92
tp5556
a(I548
g92
tp5557
a(I548
g92
tp5558
a(I548
g92
tp5559
a(I548
g92
tp5560
a(I548
g92
tp5561
a(I548
g92
tp5562
a(I548
g92
tp5563
a(I548
g92
tp5564
a(I548
g92
tp5565
a(I548
g92
tp5566
a(I548
g92
tp5567
a(I548
g92
tp5568
a(I548
g92
tp5569
a(I548
g92
tp5570
a(I548
g92
tp5571
a(I548
g92
tp5572
a(I548
g92
tp5573
a(I548
g92
tp5574
a(I548
g92
tp5575
a(I548
g92
tp5576
a(I548
g92
tp5577
a(I548
g92
tp5578
a(I548
g92
tp5579
a(I548
g92
tp5580
a(I548
g92
tp5581
a(I548
g92
tp5582
a(I548
g92
tp5583
a(I548
g92
tp5584
a(I548
g92
tp5585
a(I548
g92
tp5586
a(I548
g92
tp5587
a(I548
g92
tp5588
a(I548
g92
tp5589
a(I548
g92
tp5590
a(I548
g92
tp5591
a(I548
g92
tp5592
a(I548
g92
tp5593
a(I548
g92
tp5594
a(I548
g92
tp5595
a(I548
g92
tp5596
a(I548
g92
tp5597
a(I548
g92
tp5598
a(I548
g92
tp5599
a(I548
g92
tp5600
a(I548
g92
tp5601
a(I548
g92
tp5602
a(I548
g92
tp5603
a(I548
g92
tp5604
a(I548
g92
tp5605
a(I548
g92
tp5606
a(I548
g92
tp5607
a(I548
g92
tp5608
a(I548
g92
tp5609
a(I548
g92
tp5610
a(I548
g92
tp5611
a(I548
g92
tp5612
a(I548
g92
tp5613
a(I548
g92
tp5614
a(I548
g92
tp5615
a(I548
g92
tp5616
a(I548
g92
tp5617
a(I548
g92
tp5618
a(I548
g92
tp5619
a(I548
g92
tp5620
a(I548
g92
tp5621
a(I548
g92
tp5622
a(I548
g92
tp5623
a(I548
g92
tp5624
a(I548
g92
tp5625
a(I548
g92
tp5626
a(I548
g92
tp5627
a(I548
g92
tp5628
a(I548
g92
tp5629
a(I548
g92
tp5630
a(I548
g92
tp5631
a(I548
g92
tp5632
a(I548
g92
tp5633
a(I548
g92
tp5634
a(I548
g92
tp5635
a(I548
g92
tp5636
a(I548
g92
tp5637
a(I548
g92
tp5638
a(I548
g92
tp5639
a(I548
g92
tp5640
a(I548
g92
tp5641
a(I548
g92
tp5642
a(I548
g92
tp5643
a(I548
g92
tp5644
a(I548
g92
tp5645
a(I548
g92
tp5646
a(I548
g92
tp5647
a(I548
g92
tp5648
a(I548
g92
tp5649
a(I548
g92
tp5650
a(I548
g92
tp5651
a(I548
g92
tp5652
a(I548
g92
tp5653
a(I548
g92
tp5654
a(I548
g92
tp5655
a(I548
g92
tp5656
a(I548
g92
tp5657
a(I548
g92
tp5658
a(I548
g92
tp5659
a(I548
g92
tp5660
a(I548
g92
tp5661
a(I548
g92
tp5662
a(I548
g92
tp5663
a(I548
g92
tp5664
a(I548
g92
tp5665
a(I548
g92
tp5666
a(I548
g92
tp5667
a(I548
g92
tp5668
a(I548
g92
tp5669
a(I548
g92
tp5670
a(I548
g92
tp5671
a(I548
g92
tp5672
a(I548
g92
tp5673
a(I548
g92
tp5674
a(I548
g92
tp5675
a(I548
g92
tp5676
a(I548
g92
tp5677
a(I548
g92
tp5678
a(I548
g92
tp5679
a(I548
g92
tp5680
a(I548
g92
tp5681
a(I548
g92
tp5682
a(I548
g92
tp5683
a(I548
g92
tp5684
a(I548
g92
tp5685
a(I548
g92
tp5686
a(I548
g92
tp5687
a(I548
g92
tp5688
a(I548
g92
tp5689
a(I548
g92
tp5690
a(I548
g92
tp5691
a(I548
g92
tp5692
a(I548
g92
tp5693
a(I548
g92
tp5694
a(I548
g92
tp5695
a(I548
g92
tp5696
a(I548
g92
tp5697
a(I548
g92
tp5698
a(I548
g92
tp5699
a(I548
g92
tp5700
a(I548
g92
tp5701
a(I548
g92
tp5702
a(I548
g92
tp5703
a(I548
g92
tp5704
a(I548
g92
tp5705
a(I548
g92
tp5706
a(I548
g92
tp5707
a(I548
g92
tp5708
a(I548
g92
tp5709
a(I548
g92
tp5710
a(I548
g92
tp5711
a(I548
g92
tp5712
a(I548
g92
tp5713
a(I548
g92
tp5714
a(I548
g92
tp5715
a(I548
g92
tp5716
a(I548
g92
tp5717
a(I548
g92
tp5718
a(I548
g92
tp5719
a(I548
g92
tp5720
a(I548
g92
tp5721
a(I548
g92
tp5722
a(I548
g92
tp5723
a(I548
g92
tp5724
a(I548
g92
tp5725
a(I548
g92
tp5726
a(I548
g92
tp5727
a(I548
g92
tp5728
a(I548
g92
tp5729
a(I548
g92
tp5730
a(I548
g92
tp5731
a(I548
g92
tp5732
a(I548
g92
tp5733
a(I548
g92
tp5734
a(I548
g92
tp5735
a(I548
g92
tp5736
a(I548
g92
tp5737
a(I548
g92
tp5738
a(I548
g92
tp5739
a(I548
g92
tp5740
a(I548
g92
tp5741
a(I548
g92
tp5742
a(I548
g92
tp5743
a(I548
g92
tp5744
a(I548
g92
tp5745
a(I548
g92
tp5746
a(I548
g92
tp5747
a(I548
g92
tp5748
a(I548
g92
tp5749
a(I548
g92
tp5750
a(I548
g92
tp5751
a(I548
g92
tp5752
a(I548
g92
tp5753
a(I548
g92
tp5754
a(I548
g92
tp5755
a(I548
g92
tp5756
a(I548
g92
tp5757
a(I548
g92
tp5758
a(I548
g92
tp5759
a(I548
g92
tp5760
a(I548
g92
tp5761
a(I548
g92
tp5762
a(I548
g92
tp5763
a(I548
g92
tp5764
a(I548
g92
tp5765
a(I548
g92
tp5766
a(I548
g92
tp5767
a(I548
g92
tp5768
a(I548
g92
tp5769
a(I548
g92
tp5770
a(I548
g92
tp5771
a(I548
g92
tp5772
a(I548
g92
tp5773
a(I548
g92
tp5774
a(I548
g92
tp5775
a(I548
g92
tp5776
a(I548
g92
tp5777
a(I548
g92
tp5778
a(I548
g92
tp5779
a(I548
g92
tp5780
a(I548
g92
tp5781
a(I548
g92
tp5782
a(I548
g92
tp5783
a(I548
g92
tp5784
a(I548
g92
tp5785
a(I548
g92
tp5786
a(I548
g92
tp5787
a(I548
g92
tp5788
a(I548
g92
tp5789
a(I548
g92
tp5790
a(I548
g92
tp5791
a(I548
g92
tp5792
a(I548
g92
tp5793
a(I548
g92
tp5794
a(I548
g92
tp5795
a(I548
g92
tp5796
a(I548
g92
tp5797
a(I548
g92
tp5798
a(I548
g92
tp5799
a(I548
g92
tp5800
a(I548
g92
tp5801
a(I548
g92
tp5802
a(I548
g92
tp5803
a(I548
g92
tp5804
a(I548
g92
tp5805
a(I548
g92
tp5806
a(I548
g92
tp5807
a(I548
g92
tp5808
a(I548
g92
tp5809
a(I548
g92
tp5810
a(I548
g92
tp5811
a(I548
g92
tp5812
a(I548
g92
tp5813
a(I548
g92
tp5814
a(I548
g92
tp5815
a(I548
g92
tp5816
a(I548
g92
tp5817
a(I548
g92
tp5818
a(I548
g92
tp5819
a(I548
g92
tp5820
a(I548
g92
tp5821
a(I548
g92
tp5822
a(I548
g92
tp5823
a(I548
g92
tp5824
a(I548
g92
tp5825
a(I548
g92
tp5826
a(I548
g92
tp5827
a(I548
g92
tp5828
a(I548
g92
tp5829
a(I548
g92
tp5830
a(I548
g92
tp5831
a(I548
g92
tp5832
a(I548
g92
tp5833
a(I548
g92
tp5834
a(I548
g92
tp5835
a(I548
g92
tp5836
a(I548
g92
tp5837
a(I548
g92
tp5838
a(I548
g92
tp5839
a(I548
g92
tp5840
a(I548
g92
tp5841
a(I548
g92
tp5842
a(I548
g92
tp5843
a(I548
g92
tp5844
a(I548
g92
tp5845
a(I548
g92
tp5846
a(I548
g92
tp5847
a(I548
g92
tp5848
a(I548
g92
tp5849
a(I548
g92
tp5850
a(I548
g92
tp5851
a(I548
g92
tp5852
a(I548
g92
tp5853
a(I548
g92
tp5854
a(I548
g92
tp5855
a(I548
g92
tp5856
a(I548
g92
tp5857
a(I548
g92
tp5858
a(I548
g92
tp5859
a(I548
g92
tp5860
a(I548
g92
tp5861
a(I548
g92
tp5862
a(I548
g92
tp5863
a(I548
g92
tp5864
a(I548
g92
tp5865
a(I548
g92
tp5866
a(I548
g92
tp5867
a(I548
g92
tp5868
a(I548
g92
tp5869
a(I548
g92
tp5870
a(I548
g92
tp5871
a(I548
g92
tp5872
a(I548
g92
tp5873
a(I548
g92
tp5874
a(I548
g92
tp5875
a(I548
g92
tp5876
a(I548
g92
tp5877
a(I548
g92
tp5878
a(I548
g92
tp5879
a(I548
g92
tp5880
a(I548
g92
tp5881
a(I548
g92
tp5882
a(I548
g92
tp5883
a(I548
g92
tp5884
a(I548
g92
tp5885
a(I548
g92
tp5886
a(I548
g92
tp5887
a(I548
g92
tp5888
a(I548
g92
tp5889
a(I548
g92
tp5890
a(I548
g92
tp5891
a(I548
g92
tp5892
a(I548
g92
tp5893
a(I548
g92
tp5894
a(I548
g92
tp5895
a(I548
g92
tp5896
a(I548
g92
tp5897
a(I548
g92
tp5898
a(I548
g92
tp5899
a(I548
g92
tp5900
a(I548
g92
tp5901
a(I548
g92
tp5902
a(I548
g92
tp5903
a(I548
g92
tp5904
a(I548
g92
tp5905
a(I548
g92
tp5906
a(I548
g92
tp5907
a(I548
g92
tp5908
a(I548
g92
tp5909
a(I548
g92
tp5910
a(I548
g92
tp5911
a(I548
g92
tp5912
a(I548
g92
tp5913
a(I548
g92
tp5914
a(I548
g92
tp5915
a(I548
g92
tp5916
a(I548
g92
tp5917
a(I548
g92
tp5918
a(I548
g92
tp5919
a(I548
g92
tp5920
a(I548
g92
tp5921
a(I548
g92
tp5922
a(I548
g92
tp5923
a(I548
g92
tp5924
a(I548
g92
tp5925
a(I548
g92
tp5926
a(I548
g92
tp5927
a(I548
g92
tp5928
a(I548
g92
tp5929
a(I548
g92
tp5930
a(I548
g92
tp5931
a(I548
g92
tp5932
a(I548
g92
tp5933
a(I548
g92
tp5934
a(I548
g92
tp5935
a(I548
g92
tp5936
a(I548
g92
tp5937
a(I548
g92
tp5938
a(I548
g92
tp5939
a(I548
g92
tp5940
a(I548
g92
tp5941
a(I548
g92
tp5942
a(I548
g92
tp5943
a(I548
g92
tp5944
a(I548
g92
tp5945
a(I548
g92
tp5946
a(I548
g92
tp5947
a(I548
g92
tp5948
a(I548
g92
tp5949
a(I548
g92
tp5950
a(I548
g92
tp5951
a(I548
g92
tp5952
a(I548
g92
tp5953
a(I548
g92
tp5954
a(I548
g92
tp5955
a(I548
g92
tp5956
a(I548
g92
tp5957
a(I548
g92
tp5958
a(I548
g92
tp5959
a(I548
g92
tp5960
a(I548
g92
tp5961
a(I548
g92
tp5962
a(I548
g92
tp5963
a(I548
g92
tp5964
a(I548
g92
tp5965
a(I548
g92
tp5966
a(I548
g92
tp5967
a(I548
g92
tp5968
a(I548
g92
tp5969
a(I548
g92
tp5970
a(I548
g92
tp5971
a(I548
g92
tp5972
a(I548
g92
tp5973
a(I548
g92
tp5974
a(I548
g92
tp5975
a(I548
g92
tp5976
a(I548
g92
tp5977
a(I548
g92
tp5978
a(I548
g92
tp5979
a(I548
g92
tp5980
a(I548
g92
tp5981
a(I548
g92
tp5982
a(I548
g92
tp5983
a(I548
g92
tp5984
a(I548
g92
tp5985
a(I548
g92
tp5986
a(I548
g92
tp5987
a(I548
g92
tp5988
a(I548
g92
tp5989
a(I548
g92
tp5990
a(I548
g92
tp5991
a(I548
g92
tp5992
a(I548
g92
tp5993
a(I548
g92
tp5994
a(I548
g92
tp5995
a(I548
g92
tp5996
a(I548
g92
tp5997
a(I548
g92
tp5998
a(I548
g92
tp5999
a(I548
g92
tp6000
a(I548
g92
tp6001
a(I548
g92
tp6002
a(I548
g92
tp6003
a(I548
g92
tp6004
a(I548
g92
tp6005
a(I548
g92
tp6006
a(I548
g92
tp6007
a(I548
g92
tp6008
a(I548
g92
tp6009
a(I548
g92
tp6010
a(I548
g92
tp6011
a(I548
g92
tp6012
a(I548
g92
tp6013
a(I548
g92
tp6014
a(I548
g92
tp6015
a(I548
g92
tp6016
a(I548
g92
tp6017
a(I548
g92
tp6018
a(I548
g92
tp6019
a(I548
g92
tp6020
a(I548
g92
tp6021
a(I548
g92
tp6022
a(I548
g92
tp6023
a(I548
g92
tp6024
a(I548
g92
tp6025
a(I548
g92
tp6026
a(I548
g92
tp6027
a(I548
g92
tp6028
a(I548
g92
tp6029
a(I548
g92
tp6030
a(I548
g92
tp6031
a(I548
g92
tp6032
a(I548
g92
tp6033
a(I548
g92
tp6034
a(I548
g92
tp6035
a(I548
g92
tp6036
a(I548
g92
tp6037
a(I548
g92
tp6038
a(I548
g92
tp6039
a(I548
g92
tp6040
a(I548
g92
tp6041
a(I548
g92
tp6042
a(I548
g92
tp6043
a(I548
g92
tp6044
a(I548
g92
tp6045
a(I548
g92
tp6046
a(I548
g92
tp6047
a(I548
g92
tp6048
a(I548
g92
tp6049
a(I548
g92
tp6050
a(I548
g92
tp6051
a(I548
g92
tp6052
a(I548
g92
tp6053
a(I548
g92
tp6054
a(I548
g92
tp6055
a(I548
g92
tp6056
a(I548
g92
tp6057
a(I548
g92
tp6058
a(I548
g92
tp6059
a(I548
g92
tp6060
a(I548
g92
tp6061
a(I548
g92
tp6062
a(I548
g92
tp6063
a(I548
g92
tp6064
a(I548
g92
tp6065
a(I548
g92
tp6066
a(I548
g92
tp6067
a(I548
g92
tp6068
a(I548
g92
tp6069
a(I548
g92
tp6070
a(I548
g92
tp6071
a(I548
g92
tp6072
a(I548
g92
tp6073
a(I548
g92
tp6074
a(I548
g92
tp6075
a(I548
g92
tp6076
a(I548
g92
tp6077
a(I548
g92
tp6078
a(I548
g92
tp6079
a(I548
g92
tp6080
a(I548
g92
tp6081
a(I548
g92
tp6082
a(I548
g92
tp6083
a(I548
g92
tp6084
a(I548
g92
tp6085
a(I548
g92
tp6086
a(I548
g92
tp6087
a(I548
g92
tp6088
a(I548
g92
tp6089
a(I548
g92
tp6090
a(I548
g92
tp6091
a(I548
g92
tp6092
a(I548
g92
tp6093
a(I548
g92
tp6094
a(I548
g92
tp6095
a(I548
g92
tp6096
a(I548
g92
tp6097
a(I548
g92
tp6098
a(I548
g92
tp6099
a(I548
g92
tp6100
a(I548
g92
tp6101
a(I548
g92
tp6102
a(I548
g92
tp6103
a(I548
g92
tp6104
a(I548
g92
tp6105
a(I548
g92
tp6106
a(I548
g92
tp6107
a(I548
g92
tp6108
a(I548
g92
tp6109
a(I548
g92
tp6110
a(I548
g92
tp6111
a(I548
g92
tp6112
a(I548
g92
tp6113
a(I548
g92
tp6114
a(I548
g92
tp6115
a(I548
g92
tp6116
a(I548
g92
tp6117
a(I548
g92
tp6118
a(I548
g92
tp6119
a(I548
g92
tp6120
a(I548
g92
tp6121
a(I548
g92
tp6122
a(I548
g92
tp6123
a(I548
g92
tp6124
a(I548
g92
tp6125
a(I548
g92
tp6126
a(I548
g92
tp6127
a(I548
g92
tp6128
a(I548
g92
tp6129
a(I548
g92
tp6130
a(I548
g92
tp6131
a(I548
g92
tp6132
a(I548
g92
tp6133
a(I548
g92
tp6134
a(I548
g92
tp6135
a(I548
g92
tp6136
a(I548
g92
tp6137
a(I548
g92
tp6138
a(I548
g92
tp6139
a(I548
g92
tp6140
a(I548
g92
tp6141
a(I548
g92
tp6142
a(I548
g92
tp6143
a(I548
g92
tp6144
a(I548
g92
tp6145
a(I548
g92
tp6146
a(I548
g92
tp6147
a(I548
g92
tp6148
a(I548
g92
tp6149
a(I548
g92
tp6150
a(I548
g92
tp6151
a(I548
g92
tp6152
a(I548
g92
tp6153
a(I548
g92
tp6154
a(I548
g92
tp6155
a(I548
g92
tp6156
a(I548
g92
tp6157
a(I548
g92
tp6158
a(I548
g92
tp6159
a(I548
g92
tp6160
a(I548
g92
tp6161
a(I548
g92
tp6162
a(I548
g92
tp6163
a(I548
g92
tp6164
a(I548
g92
tp6165
a(I548
g92
tp6166
a(I548
g92
tp6167
a(I548
g92
tp6168
a(I548
g92
tp6169
a(I548
g92
tp6170
a(I548
g92
tp6171
a(I548
g92
tp6172
a(I548
g92
tp6173
a(I548
g92
tp6174
a(I548
g92
tp6175
a(I548
g92
tp6176
a(I548
g92
tp6177
a(I548
g92
tp6178
a(I548
g92
tp6179
a(I548
g92
tp6180
a(I548
g92
tp6181
a(I548
g92
tp6182
a(I548
g92
tp6183
a(I548
g92
tp6184
a(I548
g92
tp6185
a(I548
g92
tp6186
a(I548
g92
tp6187
a(I548
g92
tp6188
a(I548
g92
tp6189
a(I548
g92
tp6190
a(I548
g92
tp6191
a(I548
g92
tp6192
a(I548
g92
tp6193
a(I548
g92
tp6194
a(I548
g92
tp6195
a(I548
g92
tp6196
a(I548
g92
tp6197
a(I548
g92
tp6198
a(I548
g92
tp6199
a(I548
g92
tp6200
a(I548
g92
tp6201
a(I548
g92
tp6202
a(I548
g92
tp6203
a(I548
g92
tp6204
a(I548
g92
tp6205
a(I548
g92
tp6206
a(I548
g92
tp6207
a(I548
g92
tp6208
a(I548
g92
tp6209
a(I548
g92
tp6210
a(I548
g92
tp6211
a(I548
g92
tp6212
a(I548
g92
tp6213
a(I548
g92
tp6214
a(I548
g92
tp6215
a(I548
g92
tp6216
a(I548
g92
tp6217
a(I548
g92
tp6218
a(I548
g92
tp6219
a(I548
g92
tp6220
a(I548
g92
tp6221
a(I548
g92
tp6222
a(I548
g92
tp6223
a(I548
g92
tp6224
a(I548
g92
tp6225
a(I548
g92
tp6226
a(I548
g92
tp6227
a(I548
g92
tp6228
a(I548
g92
tp6229
a(I548
g92
tp6230
a(I548
g92
tp6231
a(I548
g92
tp6232
a(I548
g92
tp6233
a(I548
g92
tp6234
a(I548
g92
tp6235
a(I548
g92
tp6236
a(I548
g92
tp6237
a(I548
g92
tp6238
a(I548
g92
tp6239
a(I548
g92
tp6240
a(I548
g92
tp6241
a(I548
g92
tp6242
a(I548
g92
tp6243
a(I548
g92
tp6244
a(I548
g92
tp6245
a(I548
g92
tp6246
a(I548
g92
tp6247
a(I548
g92
tp6248
a(I548
g92
tp6249
a(I548
g92
tp6250
a(I548
g92
tp6251
a(I548
g92
tp6252
a(I548
g92
tp6253
a(I548
g92
tp6254
a(I548
g92
tp6255
a(I548
g92
tp6256
a(I548
g92
tp6257
a(I548
g92
tp6258
a(I548
g92
tp6259
a(I548
g92
tp6260
a(I548
g92
tp6261
a(I548
g92
tp6262
a(I548
g92
tp6263
a(I548
g92
tp6264
a(I548
g92
tp6265
a(I548
g92
tp6266
a(I548
g92
tp6267
a(I548
g92
tp6268
a(I548
g92
tp6269
a(I548
g92
tp6270
a(I548
g92
tp6271
a(I548
g92
tp6272
a(I548
g92
tp6273
a(I548
g92
tp6274
a(I548
g92
tp6275
a(I548
g92
tp6276
a(I548
g92
tp6277
a(I548
g92
tp6278
a(I548
g92
tp6279
a(I548
g92
tp6280
a(I548
g92
tp6281
a(I548
g92
tp6282
a(I548
g92
tp6283
a(I548
g92
tp6284
a(I548
g92
tp6285
a(I548
g92
tp6286
a(I548
g92
tp6287
a(I548
g92
tp6288
a(I548
g92
tp6289
a(I548
g92
tp6290
a(I548
g92
tp6291
a(I548
g92
tp6292
a(I548
g92
tp6293
a(I548
g92
tp6294
a(I548
g92
tp6295
a(I548
g92
tp6296
a(I548
g92
tp6297
a(I548
g92
tp6298
a(I548
g92
tp6299
a(I548
g92
tp6300
a(I548
g92
tp6301
a(I548
g92
tp6302
a(I548
g92
tp6303
a(I548
g92
tp6304
a(I548
g92
tp6305
a(I548
g92
tp6306
a(I548
g92
tp6307
a(I548
g92
tp6308
a(I548
g92
tp6309
a(I548
g92
tp6310
a(I548
g92
tp6311
a(I548
g92
tp6312
a(I548
g92
tp6313
a(I548
g92
tp6314
a(I548
g92
tp6315
a(I548
g92
tp6316
a(I548
g92
tp6317
a(I548
g92
tp6318
a(I548
g92
tp6319
a(I548
g92
tp6320
a(I548
g92
tp6321
a(I548
g92
tp6322
a(I548
g92
tp6323
a(I548
g92
tp6324
a(I548
g92
tp6325
a(I548
g92
tp6326
a(I548
g92
tp6327
a(I548
g92
tp6328
a(I548
g92
tp6329
a(I548
g92
tp6330
a(I548
g92
tp6331
a(I548
g92
tp6332
a(I548
g92
tp6333
a(I548
g92
tp6334
a(I548
g92
tp6335
a(I548
g92
tp6336
a(I548
g92
tp6337
a(I548
g92
tp6338
a(I548
g92
tp6339
a(I548
g92
tp6340
a(I548
g92
tp6341
a(I548
g92
tp6342
a(I548
g92
tp6343
a(I548
g92
tp6344
a(I548
g92
tp6345
a(I548
g92
tp6346
a(I548
g92
tp6347
a(I548
g92
tp6348
a(I548
g92
tp6349
a(I548
g92
tp6350
a(I548
g92
tp6351
a(I548
g92
tp6352
a(I548
g92
tp6353
a(I548
g92
tp6354
a(I548
g92
tp6355
a(I548
g92
tp6356
a(I548
g92
tp6357
a(I548
g92
tp6358
a(I548
g92
tp6359
a(I548
g92
tp6360
a(I548
g92
tp6361
a(I548
g92
tp6362
a(I548
g92
tp6363
a(I548
g92
tp6364
a(I548
g92
tp6365
a(I548
g92
tp6366
a(I548
g92
tp6367
a(I548
g92
tp6368
a(I548
g92
tp6369
a(I548
g92
tp6370
a(I548
g92
tp6371
a(I548
g92
tp6372
a(I548
g92
tp6373
a(I548
g92
tp6374
a(I548
g92
tp6375
a(I548
g92
tp6376
a(I548
g92
tp6377
a(I548
g92
tp6378
a(I548
g92
tp6379
a(I548
g92
tp6380
a(I548
g92
tp6381
a(I548
g92
tp6382
a(I548
g92
tp6383
a(I548
g92
tp6384
a(I548
g92
tp6385
a(I548
g92
tp6386
a(I548
g92
tp6387
a(I548
g92
tp6388
a(I548
g92
tp6389
a(I548
g92
tp6390
a(I548
g92
tp6391
a(I548
g92
tp6392
a(I548
g92
tp6393
a(I548
g92
tp6394
a(I548
g92
tp6395
a(I548
g92
tp6396
a(I548
g92
tp6397
a(I548
g92
tp6398
a(I548
g92
tp6399
a(I548
g92
tp6400
a(I548
g92
tp6401
a(I548
g92
tp6402
a(I548
g92
tp6403
a(I548
g92
tp6404
a(I548
g92
tp6405
a(I548
g92
tp6406
a(I548
g92
tp6407
a(I548
g92
tp6408
a(I548
g92
tp6409
a(I548
g92
tp6410
a(I548
g92
tp6411
a(I548
g92
tp6412
a(I548
g92
tp6413
a(I548
g92
tp6414
a(I548
g92
tp6415
a(I548
g92
tp6416
a(I548
g92
tp6417
a(I548
g92
tp6418
a(I548
g92
tp6419
a(I548
g92
tp6420
a(I548
g92
tp6421
a(I548
g92
tp6422
a(I548
g92
tp6423
a(I548
g92
tp6424
a(I548
g92
tp6425
a(I548
g92
tp6426
a(I548
g92
tp6427
a(I548
g92
tp6428
a(I548
g92
tp6429
a(I548
g92
tp6430
a(I548
g92
tp6431
a(I548
g92
tp6432
a(I548
g92
tp6433
a(I548
g92
tp6434
a(I548
g92
tp6435
a(I548
g92
tp6436
a(I548
g92
tp6437
a(I548
g92
tp6438
a(I548
g92
tp6439
a(I548
g92
tp6440
a(I548
g92
tp6441
a(I548
g92
tp6442
a(I548
g92
tp6443
a(I548
g92
tp6444
a(I548
g92
tp6445
a(I548
g92
tp6446
a(I548
g92
tp6447
a(I548
g92
tp6448
a(I548
g92
tp6449
a(I548
g92
tp6450
a(I548
g92
tp6451
a(I548
g92
tp6452
a(I548
g92
tp6453
a(I548
g92
tp6454
a(I548
g92
tp6455
a(I548
g92
tp6456
a(I548
g92
tp6457
a(I548
g92
tp6458
a(I548
g92
tp6459
a(I548
g92
tp6460
a(I548
g92
tp6461
a(I548
g92
tp6462
a(I548
g92
tp6463
a(I548
g92
tp6464
a(I548
g92
tp6465
a(I548
g92
tp6466
a(I548
g92
tp6467
a(I548
g92
tp6468
a(I548
g92
tp6469
a(I548
g92
tp6470
a(I548
g92
tp6471
a(I548
g92
tp6472
a(I548
g92
tp6473
a(I548
g92
tp6474
a(I548
g92
tp6475
a(I548
g92
tp6476
a(I548
g92
tp6477
a(I548
g92
tp6478
a(I548
g92
tp6479
a(I548
g92
tp6480
a(I548
g92
tp6481
a(I548
g92
tp6482
a(I548
g92
tp6483
a(I548
g92
tp6484
a(I548
g92
tp6485
a(I548
g92
tp6486
a(I548
g92
tp6487
a(I548
g92
tp6488
a(I548
g92
tp6489
a(I548
g92
tp6490
a(I548
g92
tp6491
a(I548
g92
tp6492
a(I548
g92
tp6493
a(I548
g92
tp6494
a(I548
g92
tp6495
a(I548
g92
tp6496
a(I548
g92
tp6497
a(I548
g92
tp6498
a(I548
g92
tp6499
a(I548
g92
tp6500
a(I548
g92
tp6501
a(I548
g92
tp6502
a(I548
g92
tp6503
a(I548
g92
tp6504
a(I548
g92
tp6505
a(I548
g92
tp6506
a(I548
g92
tp6507
a(I548
g92
tp6508
a(I548
g92
tp6509
a(I548
g92
tp6510
a(I548
g92
tp6511
a(I548
g92
tp6512
a(I548
g92
tp6513
a(I548
g92
tp6514
a(I548
g92
tp6515
a(I548
g92
tp6516
a(I548
g92
tp6517
a(I548
g92
tp6518
a(I548
g92
tp6519
a(I548
g92
tp6520
a(I548
g92
tp6521
a(I548
g92
tp6522
a(I548
g92
tp6523
a(I548
g92
tp6524
a(I548
g92
tp6525
a(I548
g92
tp6526
a(I548
g92
tp6527
a(I548
g92
tp6528
a(I548
g92
tp6529
a(I548
g92
tp6530
a(I548
g92
tp6531
a(I548
g92
tp6532
a(I548
g92
tp6533
a(I548
g92
tp6534
a(I548
g92
tp6535
a(I548
g92
tp6536
a(I548
g92
tp6537
a(I548
g92
tp6538
a(I548
g92
tp6539
a(I548
g92
tp6540
a(I548
g92
tp6541
a(I548
g92
tp6542
a(I548
g92
tp6543
a(I548
g92
tp6544
a(I548
g92
tp6545
a(I548
g92
tp6546
a(I548
g92
tp6547
a(I548
g92
tp6548
a(I548
g92
tp6549
a(I548
g92
tp6550
a(I548
g92
tp6551
a(I548
g92
tp6552
a(I548
g92
tp6553
a(I548
g92
tp6554
a(I548
g92
tp6555
a(I548
g92
tp6556
a(I548
g92
tp6557
a(I548
g92
tp6558
a(I548
g92
tp6559
a(I548
g92
tp6560
a(I548
g92
tp6561
a(I548
g92
tp6562
a(I548
g92
tp6563
a(I548
g92
tp6564
a(I548
g92
tp6565
a(I548
g92
tp6566
a(I548
g92
tp6567
a(I548
g92
tp6568
a(I548
g92
tp6569
a(I548
g92
tp6570
a(I548
g92
tp6571
a(I548
g92
tp6572
a(I548
g92
tp6573
a(I548
g92
tp6574
a(I548
g92
tp6575
a(I548
g92
tp6576
a(I548
g92
tp6577
a(I548
g92
tp6578
a(I548
g92
tp6579
a(I548
g92
tp6580
a(I548
g92
tp6581
a(I548
g92
tp6582
a(I548
g92
tp6583
a(I548
g92
tp6584
a(I548
g92
tp6585
a(I548
g92
tp6586
a(I548
g92
tp6587
a(I548
g92
tp6588
a(I548
g92
tp6589
a(I548
g92
tp6590
a(I548
g92
tp6591
a(I548
g92
tp6592
a(I548
g92
tp6593
a(I548
g92
tp6594
a(I548
g92
tp6595
a(I548
g92
tp6596
a(I548
g92
tp6597
a(I548
g92
tp6598
a(I548
g92
tp6599
a(I548
g92
tp6600
a(I548
g92
tp6601
a(I548
g92
tp6602
a(I548
g92
tp6603
a(I548
g92
tp6604
a(I548
g92
tp6605
a(I548
g92
tp6606
a(I548
g92
tp6607
a(I548
g92
tp6608
a(I548
g92
tp6609
a(I548
g92
tp6610
a(I548
g92
tp6611
a(I548
g92
tp6612
a(I548
g92
tp6613
a(I548
g92
tp6614
a(I548
g92
tp6615
a(I548
g92
tp6616
a(I548
g92
tp6617
a(I548
g92
tp6618
a(I548
g92
tp6619
a(I548
g92
tp6620
a(I548
g92
tp6621
a(I548
g92
tp6622
a(I548
g92
tp6623
a(I548
g92
tp6624
a(I548
g92
tp6625
a(I548
g92
tp6626
a(I548
g92
tp6627
a(I548
g92
tp6628
a(I548
g92
tp6629
a(I548
g92
tp6630
a(I548
g92
tp6631
a(I548
g92
tp6632
a(I548
g92
tp6633
a(I548
g92
tp6634
a(I548
g92
tp6635
a(I548
g92
tp6636
a(I548
g92
tp6637
a(I548
g92
tp6638
a(I548
g92
tp6639
a(I548
g92
tp6640
a(I548
g92
tp6641
a(I548
g92
tp6642
a(I548
g92
tp6643
a(I548
g92
tp6644
a(I548
g92
tp6645
a(I548
g92
tp6646
a(I548
g92
tp6647
a(I548
g92
tp6648
a(I548
g92
tp6649
a(I548
g92
tp6650
a(I548
g92
tp6651
a(I548
g92
tp6652
a(I548
g92
tp6653
a(I548
g92
tp6654
a(I548
g92
tp6655
a(I548
g92
tp6656
a(I548
g92
tp6657
a(I548
g92
tp6658
a(I548
g92
tp6659
a(I548
g92
tp6660
a(I548
g92
tp6661
a(I548
g92
tp6662
a(I548
g92
tp6663
a(I548
g92
tp6664
a(I548
g92
tp6665
a(I548
g92
tp6666
a(I548
g92
tp6667
a(I548
g92
tp6668
a(I548
g92
tp6669
a(I548
g92
tp6670
a(I548
g92
tp6671
a(I548
g92
tp6672
a(I548
g92
tp6673
a(I548
g92
tp6674
a(I548
g92
tp6675
a(I548
g92
tp6676
a(I548
g92
tp6677
a(I548
g92
tp6678
a(I548
g92
tp6679
a(I548
g92
tp6680
a(I548
g92
tp6681
a(I548
g92
tp6682
a(I548
g92
tp6683
a(I548
g92
tp6684
a(I548
g92
tp6685
a(I548
g92
tp6686
a(I548
g92
tp6687
a(I548
g92
tp6688
a(I548
g92
tp6689
a(I548
g92
tp6690
a(I548
g92
tp6691
a(I548
g92
tp6692
a(I548
g92
tp6693
a(I548
g92
tp6694
a(I548
g92
tp6695
a(I548
g92
tp6696
a(I548
g92
tp6697
a(I548
g92
tp6698
a(I548
g92
tp6699
a(I548
g92
tp6700
a(I548
g92
tp6701
a(I548
g92
tp6702
a(I548
g92
tp6703
a(I548
g92
tp6704
a(I548
g92
tp6705
a(I548
g92
tp6706
a(I548
g92
tp6707
a(I548
g92
tp6708
a(I548
g92
tp6709
a(I548
g92
tp6710
a(I548
g92
tp6711
a(I548
g92
tp6712
a(I548
g92
tp6713
a(I548
g92
tp6714
a(I548
g92
tp6715
a(I548
g92
tp6716
a(I548
g92
tp6717
a(I548
g92
tp6718
a(I548
g92
tp6719
a(I548
g92
tp6720
a(I548
g92
tp6721
a(I548
g92
tp6722
a(I548
g92
tp6723
a(I548
g92
tp6724
a(I548
g92
tp6725
a(I548
g92
tp6726
a(I548
g92
tp6727
a(I548
g92
tp6728
a(I548
g92
tp6729
a(I548
g92
tp6730
a(I548
g92
tp6731
a(I548
g92
tp6732
a(I548
g92
tp6733
a(I548
g92
tp6734
a(I548
g92
tp6735
a(I548
g92
tp6736
a(I548
g92
tp6737
a(I548
g92
tp6738
a(I548
g92
tp6739
a(I548
g92
tp6740
a(I548
g92
tp6741
a(I548
g92
tp6742
a(I548
g92
tp6743
a(I548
g92
tp6744
a(I548
g92
tp6745
a(I548
g92
tp6746
a(I548
g92
tp6747
a(I548
g92
tp6748
a(I548
g92
tp6749
a(I548
g92
tp6750
a(I548
g92
tp6751
a(I548
g92
tp6752
a(I548
g92
tp6753
a(I548
g92
tp6754
a(I548
g92
tp6755
a(I548
g92
tp6756
a(I548
g92
tp6757
a(I548
g92
tp6758
a(I548
g92
tp6759
a(I548
g92
tp6760
a(I548
g92
tp6761
a(I548
g92
tp6762
a(I548
g92
tp6763
a(I548
g92
tp6764
a(I548
g92
tp6765
a(I548
g92
tp6766
a(I548
g92
tp6767
a(I548
g92
tp6768
a(I548
g92
tp6769
a(I548
g92
tp6770
a(I548
g92
tp6771
a(I548
g92
tp6772
a(I548
g92
tp6773
a(I548
g92
tp6774
a(I548
g92
tp6775
a(I548
g92
tp6776
a(I548
g92
tp6777
a(I548
g92
tp6778
a(I548
g92
tp6779
a(I548
g92
tp6780
a(I548
g92
tp6781
a(I548
g92
tp6782
a(I548
g92
tp6783
a(I548
g92
tp6784
a(I548
g92
tp6785
a(I548
g92
tp6786
a(I548
g92
tp6787
a(I548
g92
tp6788
a(I548
g92
tp6789
a(I548
g92
tp6790
a(I548
g92
tp6791
a(I548
g92
tp6792
a(I548
g92
tp6793
a(I548
g92
tp6794
a(I548
g92
tp6795
a(I548
g92
tp6796
a(I548
g92
tp6797
a(I548
g92
tp6798
a(I548
g92
tp6799
a(I548
g92
tp6800
a(I548
g92
tp6801
a(I548
g92
tp6802
a(I548
g92
tp6803
a(I548
g92
tp6804
a(I548
g92
tp6805
a(I548
g92
tp6806
a(I548
g92
tp6807
a(I548
g92
tp6808
a(I548
g92
tp6809
a(I548
g92
tp6810
a(I548
g92
tp6811
a(I548
g92
tp6812
a(I548
g92
tp6813
a(I548
g92
tp6814
a(I548
g92
tp6815
a(I548
g92
tp6816
a(I548
g92
tp6817
a(I548
g92
tp6818
a(I548
g92
tp6819
a(I548
g92
tp6820
a(I548
g92
tp6821
a(I548
g92
tp6822
a(I548
g92
tp6823
a(I548
g92
tp6824
a(I548
g92
tp6825
a(I548
g92
tp6826
a(I548
g92
tp6827
a(I548
g92
tp6828
a(I548
g92
tp6829
a(I548
g92
tp6830
a(I548
g92
tp6831
a(I548
g92
tp6832
a(I548
g92
tp6833
a(I548
g92
tp6834
a(I548
g92
tp6835
a(I548
g92
tp6836
a(I548
g92
tp6837
a(I548
g92
tp6838
a(I548
g92
tp6839
a(I548
g92
tp6840
a(I548
g92
tp6841
a(I548
g92
tp6842
a(I548
g92
tp6843
a(I548
g92
tp6844
a(I548
g92
tp6845
a(I548
g92
tp6846
a(I548
g92
tp6847
a(I548
g92
tp6848
a(I548
g92
tp6849
a(I548
g92
tp6850
a(I548
g92
tp6851
a(I548
g92
tp6852
a(I548
g92
tp6853
a(I548
g92
tp6854
a(I548
g92
tp6855
a(I548
g92
tp6856
a(I548
g92
tp6857
a(I548
g92
tp6858
a(I548
g92
tp6859
a(I548
g92
tp6860
a(I548
g92
tp6861
a(I548
g92
tp6862
a(I548
g92
tp6863
a(I548
g92
tp6864
a(I548
g92
tp6865
a(I548
g92
tp6866
a(I548
g92
tp6867
a(I548
g92
tp6868
a(I548
g92
tp6869
a(I548
g92
tp6870
a(I548
g92
tp6871
a(I548
g92
tp6872
a(I548
g92
tp6873
a(I548
g92
tp6874
a(I548
g92
tp6875
a(I548
g92
tp6876
a(I548
g92
tp6877
a(I548
g92
tp6878
a(I548
g92
tp6879
a(I548
g92
tp6880
a(I548
g92
tp6881
a(I548
g92
tp6882
a(I548
g92
tp6883
a(I548
g92
tp6884
a(I548
g92
tp6885
a(I548
g92
tp6886
a(I548
g92
tp6887
a(I548
g92
tp6888
a(I548
g92
tp6889
a(I548
g92
tp6890
a(I548
g92
tp6891
a(I548
g92
tp6892
a(I548
g92
tp6893
a(I548
g92
tp6894
a(I548
g92
tp6895
a(I548
g92
tp6896
a(I548
g92
tp6897
a(I548
g92
tp6898
a(I548
g92
tp6899
a(I548
g92
tp6900
a(I548
g92
tp6901
a(I548
g92
tp6902
a(I548
g92
tp6903
a(I548
g92
tp6904
a(I548
g92
tp6905
a(I548
g92
tp6906
a(I548
g92
tp6907
a(I548
g92
tp6908
a(I548
g92
tp6909
a(I548
g92
tp6910
a(I548
g92
tp6911
a(I548
g92
tp6912
a(I548
g92
tp6913
a(I548
g92
tp6914
a(I548
g92
tp6915
a(I548
g92
tp6916
a(I548
g92
tp6917
a(I548
g92
tp6918
a(I548
g92
tp6919
a(I548
g92
tp6920
a(I548
g92
tp6921
a(I548
g92
tp6922
a(I548
g92
tp6923
a(I548
g92
tp6924
a(I548
g92
tp6925
a(I548
g92
tp6926
a(I548
g92
tp6927
a(I548
g92
tp6928
a(I548
g92
tp6929
a(I548
g92
tp6930
a(I548
g92
tp6931
a(I548
g92
tp6932
a(I548
g92
tp6933
a(I548
g92
tp6934
a(I548
g92
tp6935
a(I548
g92
tp6936
a(I548
g92
tp6937
a(I548
g92
tp6938
a(I548
g92
tp6939
a(I548
g92
tp6940
a(I548
g92
tp6941
a(I548
g92
tp6942
a(I548
g92
tp6943
a(I548
g92
tp6944
a(I548
g92
tp6945
a(I548
g92
tp6946
a(I548
g92
tp6947
a(I548
g92
tp6948
a(I548
g92
tp6949
a(I548
g92
tp6950
a(I548
g92
tp6951
a(I548
g92
tp6952
a(I548
g92
tp6953
a(I548
g92
tp6954
a(I548
g92
tp6955
a(I548
g92
tp6956
a(I548
g92
tp6957
a(I548
g92
tp6958
a(I548
g92
tp6959
a(I548
g92
tp6960
a(I548
g92
tp6961
a(I548
g92
tp6962
a(I548
g92
tp6963
a(I548
g92
tp6964
a(I548
g92
tp6965
a(I548
g92
tp6966
a(I548
g92
tp6967
a(I548
g92
tp6968
a(I548
g92
tp6969
a(I548
g92
tp6970
a(I548
g92
tp6971
a(I548
g92
tp6972
a(I548
g92
tp6973
a(I548
g92
tp6974
a(I548
g92
tp6975
a(I548
g92
tp6976
a(I548
g92
tp6977
a(I548
g92
tp6978
a(I548
g92
tp6979
a(I548
g92
tp6980
a(I548
g92
tp6981
a(I548
g92
tp6982
a(I548
g92
tp6983
a(I548
g92
tp6984
a(I548
g92
tp6985
a(I548
g92
tp6986
a(I548
g92
tp6987
a(I548
g92
tp6988
a(I548
g92
tp6989
a(I548
g92
tp6990
a(I548
g92
tp6991
a(I548
g92
tp6992
a(I548
g92
tp6993
a(I548
g92
tp6994
a(I548
g92
tp6995
a(I548
g92
tp6996
a(I548
g92
tp6997
a(I548
g92
tp6998
a(I548
g92
tp6999
a(I548
g92
tp7000
a(I548
g92
tp7001
a(I548
g92
tp7002
a(I548
g92
tp7003
a(I548
g92
tp7004
a(I548
g92
tp7005
a(I548
g92
tp7006
a(I548
g92
tp7007
a(I548
g92
tp7008
a(I548
g92
tp7009
a(I548
g92
tp7010
a(I548
g92
tp7011
a(I548
g92
tp7012
a(I548
g92
tp7013
a(I548
g92
tp7014
a(I548
g92
tp7015
a(I548
g92
tp7016
a(I548
g92
tp7017
a(I548
g92
tp7018
a(I548
g92
tp7019
a(I548
g92
tp7020
a(I548
g92
tp7021
a(I548
g92
tp7022
a(I548
g92
tp7023
a(I548
g92
tp7024
a(I548
g92
tp7025
a(I548
g92
tp7026
a(I548
g92
tp7027
a(I548
g92
tp7028
a(I548
g92
tp7029
a(I548
g92
tp7030
a(I548
g92
tp7031
a(I548
g92
tp7032
a(I548
g92
tp7033
a(I548
g92
tp7034
a(I548
g92
tp7035
a(I548
g92
tp7036
a(I548
g92
tp7037
a(I548
g92
tp7038
a(I548
g92
tp7039
a(I548
g92
tp7040
a(I548
g92
tp7041
a(I548
g92
tp7042
a(I548
g92
tp7043
a(I548
g92
tp7044
a(I548
g92
tp7045
a(I548
g92
tp7046
a(I548
g92
tp7047
a(I548
g92
tp7048
a(I548
g92
tp7049
a(I548
g92
tp7050
a(I548
g92
tp7051
a(I548
g92
tp7052
a(I548
g92
tp7053
a(I548
g92
tp7054
a(I548
g92
tp7055
a(I548
g92
tp7056
a(I548
g92
tp7057
a(I548
g92
tp7058
a(I548
g92
tp7059
a(I548
g92
tp7060
a(I548
g92
tp7061
a(I548
g92
tp7062
a(I548
g92
tp7063
a(I548
g92
tp7064
a(I548
g92
tp7065
a(I548
g92
tp7066
a(I548
g92
tp7067
a(I548
g92
tp7068
a(I548
g92
tp7069
a(I548
g92
tp7070
a(I548
g92
tp7071
a(I548
g92
tp7072
a(I548
g92
tp7073
a(I548
g92
tp7074
a(I548
g92
tp7075
a(I548
g92
tp7076
a(I548
g92
tp7077
a(I548
g92
tp7078
a(I548
g92
tp7079
a(I548
g92
tp7080
a(I548
g92
tp7081
a(I548
g92
tp7082
a(I548
g92
tp7083
a(I548
g92
tp7084
a(I548
g92
tp7085
a(I548
g92
tp7086
a(I548
g92
tp7087
a(I548
g92
tp7088
a(I548
g92
tp7089
a(I548
g92
tp7090
a(I548
g92
tp7091
a(I548
g92
tp7092
a(I548
g92
tp7093
a(I548
g92
tp7094
a(I548
g92
tp7095
a(I548
g92
tp7096
a(I548
g92
tp7097
a(I548
g92
tp7098
a(I548
g92
tp7099
a(I548
g92
tp7100
a(I548
g92
tp7101
a(I548
g92
tp7102
a(I548
g92
tp7103
a(I548
g92
tp7104
a(I548
g92
tp7105
a(I548
g92
tp7106
a(I548
g92
tp7107
a(I548
g92
tp7108
a(I548
g92
tp7109
a(I548
g92
tp7110
a(I548
g92
tp7111
a(I548
g92
tp7112
a(I548
g92
tp7113
a(I548
g92
tp7114
a(I548
g92
tp7115
a(I548
g92
tp7116
a(I548
g92
tp7117
a(I548
g92
tp7118
a(I548
g92
tp7119
a(I548
g92
tp7120
a(I548
g92
tp7121
a(I548
g92
tp7122
a(I548
g92
tp7123
a(I548
g92
tp7124
a(I548
g92
tp7125
a(I548
g92
tp7126
a(I548
g92
tp7127
a(I548
g92
tp7128
a(I548
g92
tp7129
a(I548
g92
tp7130
a(I548
g92
tp7131
a(I548
g92
tp7132
a(I548
g92
tp7133
a(I548
g92
tp7134
a(I548
g92
tp7135
a(I548
g92
tp7136
a(I548
g92
tp7137
a(I548
g92
tp7138
a(I548
g92
tp7139
a(I548
g92
tp7140
a(I548
g92
tp7141
a(I548
g92
tp7142
a(I548
g92
tp7143
a(I548
g92
tp7144
a(I548
g92
tp7145
a(I548
g92
tp7146
a(I548
g92
tp7147
a(I548
g92
tp7148
a(I548
g92
tp7149
a(I548
g92
tp7150
a(I548
g92
tp7151
a(I548
g92
tp7152
a(I548
g92
tp7153
a(I548
g92
tp7154
a(I548
g92
tp7155
a(I548
g92
tp7156
a(I548
g92
tp7157
a(I548
g92
tp7158
a(I548
g92
tp7159
a(I548
g92
tp7160
a(I548
g92
tp7161
a(I548
g92
tp7162
a(I548
g92
tp7163
a(I548
g92
tp7164
a(I548
g92
tp7165
a(I548
g92
tp7166
a(I548
g92
tp7167
a(I548
g92
tp7168
a(I548
g92
tp7169
a(I548
g92
tp7170
a(I548
g92
tp7171
a(I548
g92
tp7172
a(I548
g92
tp7173
a(I548
g92
tp7174
a(I548
g92
tp7175
a(I548
g92
tp7176
a(I548
g92
tp7177
a(I548
g92
tp7178
a(I548
g92
tp7179
a(I548
g92
tp7180
a(I548
g92
tp7181
a(I548
g92
tp7182
a(I548
g92
tp7183
a(I548
g92
tp7184
a(I548
g92
tp7185
a(I548
g92
tp7186
a(I548
g92
tp7187
a(I548
g92
tp7188
a(I548
g92
tp7189
a(I548
g92
tp7190
a(I548
g92
tp7191
a(I548
g92
tp7192
a(I548
g92
tp7193
a(I548
g92
tp7194
a(I548
g92
tp7195
a(I548
g92
tp7196
a(I548
g92
tp7197
a(I548
g92
tp7198
a(I548
g92
tp7199
a(I548
g92
tp7200
a(I548
g92
tp7201
a(I548
g92
tp7202
a(I548
g92
tp7203
a(I548
g92
tp7204
a(I548
g92
tp7205
a(I548
g92
tp7206
a(I548
g92
tp7207
a(I548
g92
tp7208
a(I548
g92
tp7209
a(I548
g92
tp7210
a(I548
g92
tp7211
a(I548
g92
tp7212
a(I548
g92
tp7213
a(I548
g92
tp7214
a(I548
g92
tp7215
a(I548
g92
tp7216
a(I548
g92
tp7217
a(I548
g92
tp7218
a(I548
g92
tp7219
a(I548
g92
tp7220
a(I548
g92
tp7221
a(I548
g92
tp7222
a(I548
g92
tp7223
a(I548
g92
tp7224
a(I548
g92
tp7225
a(I548
g92
tp7226
a(I548
g92
tp7227
a(I548
g92
tp7228
a(I548
g92
tp7229
a(I548
g92
tp7230
a(I548
g92
tp7231
a(I548
g92
tp7232
a(I548
g92
tp7233
a(I548
g92
tp7234
a(I548
g92
tp7235
a(I548
g92
tp7236
a(I548
g92
tp7237
a(I548
g92
tp7238
a(I548
g92
tp7239
a(I548
g92
tp7240
a(I548
g92
tp7241
a(I548
g92
tp7242
a(I548
g92
tp7243
a(I548
g92
tp7244
a(I548
g92
tp7245
a(I548
g92
tp7246
a(I548
g92
tp7247
a(I548
g92
tp7248
a(I548
g92
tp7249
a(I548
g92
tp7250
a(I548
g92
tp7251
a(I548
g92
tp7252
a(I548
g92
tp7253
a(I548
g92
tp7254
a(I548
g92
tp7255
a(I548
g92
tp7256
a(I548
g92
tp7257
a(I548
g92
tp7258
a(I548
g92
tp7259
a(I548
g92
tp7260
a(I548
g92
tp7261
a(I548
g92
tp7262
a(I548
g92
tp7263
a(I548
g92
tp7264
a(I548
g92
tp7265
a(I548
g92
tp7266
a(I548
g92
tp7267
a(I548
g92
tp7268
a(I548
g92
tp7269
a(I548
g92
tp7270
a(I548
g92
tp7271
a(I548
g92
tp7272
a(I548
g92
tp7273
a(I548
g92
tp7274
a(I548
g92
tp7275
a(I548
g92
tp7276
a(I548
g92
tp7277
a(I548
g92
tp7278
a(I548
g92
tp7279
a(I548
g92
tp7280
a(I548
g92
tp7281
a(I548
g92
tp7282
a(I548
g92
tp7283
a(I548
g92
tp7284
a(I548
g92
tp7285
a(I548
g92
tp7286
a(I548
g92
tp7287
a(I548
g92
tp7288
a(I548
g92
tp7289
a(I548
g92
tp7290
a(I548
g92
tp7291
a(I548
g92
tp7292
a(I548
g92
tp7293
a(I548
g92
tp7294
a(I548
g92
tp7295
a(I548
g92
tp7296
a(I548
g92
tp7297
a(I548
g92
tp7298
a(I548
g92
tp7299
a(I548
g92
tp7300
a(I548
g92
tp7301
a(I548
g92
tp7302
a(I548
g92
tp7303
a(I548
g92
tp7304
a(I548
g92
tp7305
a(I548
g92
tp7306
a(I548
g92
tp7307
a(I548
g92
tp7308
a(I548
g92
tp7309
a(I548
g92
tp7310
a(I548
g92
tp7311
a(I548
g92
tp7312
a(I548
g92
tp7313
a(I548
g92
tp7314
a(I548
g92
tp7315
a(I548
g92
tp7316
a(I548
g92
tp7317
a(I548
g92
tp7318
a(I548
g92
tp7319
a(I548
g92
tp7320
a(I548
g92
tp7321
a(I548
g92
tp7322
a(I548
g92
tp7323
a(I548
g92
tp7324
a(I548
g92
tp7325
a(I548
g92
tp7326
a(I548
g92
tp7327
a(I548
g92
tp7328
a(I548
g92
tp7329
a(I548
g92
tp7330
a(I548
g92
tp7331
a(I548
g92
tp7332
a(I548
g92
tp7333
a(I548
g92
tp7334
a(I548
g92
tp7335
a(I548
g92
tp7336
a(I548
g92
tp7337
a(I548
g92
tp7338
a(I548
g92
tp7339
a(I548
g92
tp7340
a(I548
g92
tp7341
a(I548
g92
tp7342
a(I548
g92
tp7343
a(I548
g92
tp7344
a(I548
g92
tp7345
a(I548
g92
tp7346
a(I548
g92
tp7347
a(I548
g92
tp7348
a(I548
g92
tp7349
a(I548
g92
tp7350
a(I548
g92
tp7351
a(I548
g92
tp7352
a(I548
g92
tp7353
a(I548
g92
tp7354
a(I548
g92
tp7355
a(I548
g92
tp7356
a(I548
g92
tp7357
a(I548
g92
tp7358
a(I548
g92
tp7359
a(I548
g92
tp7360
a(I548
g92
tp7361
a(I548
g92
tp7362
a(I548
g92
tp7363
a(I548
g92
tp7364
a(I548
g92
tp7365
a(I548
g92
tp7366
a(I548
g92
tp7367
a(I548
g92
tp7368
a(I548
g92
tp7369
a(I548
g92
tp7370
a(I548
g92
tp7371
a(I548
g92
tp7372
a(I548
g92
tp7373
a(I548
g92
tp7374
a(I548
g92
tp7375
a(I548
g92
tp7376
a(I548
g92
tp7377
a(I548
g92
tp7378
a(I548
g92
tp7379
a(I548
g92
tp7380
a(I548
g92
tp7381
a(I548
g92
tp7382
a(I548
g92
tp7383
a(I548
g92
tp7384
a(I548
g92
tp7385
a(I548
g92
tp7386
a(I548
g92
tp7387
a(I548
g92
tp7388
a(I548
g92
tp7389
a(I548
g92
tp7390
a(I548
g92
tp7391
a(I548
g92
tp7392
a(I548
g92
tp7393
a(I548
g92
tp7394
a(I548
g92
tp7395
a(I548
g92
tp7396
a(I548
g92
tp7397
a(I548
g92
tp7398
a(I548
g92
tp7399
a(I548
g92
tp7400
a(I548
g92
tp7401
a(I548
g92
tp7402
a(I548
g92
tp7403
a(I548
g92
tp7404
a(I548
g92
tp7405
a(I548
g92
tp7406
a(I548
g92
tp7407
a(I548
g92
tp7408
a(I548
g92
tp7409
a(I548
g92
tp7410
a(I548
g92
tp7411
a(I548
g92
tp7412
a(I548
g92
tp7413
a(I548
g92
tp7414
a(I548
g92
tp7415
a(I548
g92
tp7416
a(I548
g92
tp7417
a(I548
g92
tp7418
a(I548
g92
tp7419
a(I548
g92
tp7420
a(I548
g92
tp7421
a(I548
g92
tp7422
a(I548
g92
tp7423
a(I548
g92
tp7424
a(I548
g92
tp7425
a(I548
g92
tp7426
a(I548
g92
tp7427
a(I548
g92
tp7428
a(I548
g92
tp7429
a(I548
g92
tp7430
a(I548
g92
tp7431
a(I548
g92
tp7432
a(I548
g92
tp7433
a(I548
g92
tp7434
a(I548
g92
tp7435
a(I548
g92
tp7436
a(I548
g92
tp7437
a(I548
g92
tp7438
a(I548
g92
tp7439
a(I548
g92
tp7440
a(I548
g92
tp7441
a(I548
g92
tp7442
a(I548
g92
tp7443
a(I548
g92
tp7444
a(I548
g92
tp7445
a(I548
g92
tp7446
a(I548
g92
tp7447
a(I548
g92
tp7448
a(I548
g92
tp7449
a(I548
g92
tp7450
a(I548
g92
tp7451
a(I548
g92
tp7452
a(I548
g92
tp7453
a(I548
g92
tp7454
a(I548
g92
tp7455
a(I548
g92
tp7456
a(I548
g92
tp7457
a(I548
g92
tp7458
a(I548
g92
tp7459
a(I548
g92
tp7460
a(I548
g92
tp7461
a(I548
g92
tp7462
a(I548
g92
tp7463
a(I548
g92
tp7464
a(I548
g92
tp7465
a(I548
g92
tp7466
a(I548
g92
tp7467
a(I548
g92
tp7468
a(I548
g92
tp7469
a(I548
g92
tp7470
a(I548
g92
tp7471
a(I548
g92
tp7472
a(I548
g92
tp7473
a(I548
g92
tp7474
a(I548
g92
tp7475
a(I548
g92
tp7476
a(I548
g92
tp7477
a(I548
g92
tp7478
a(I548
g92
tp7479
a(I548
g92
tp7480
a(I548
g92
tp7481
a(I548
g92
tp7482
a(I548
g92
tp7483
a(I548
g92
tp7484
a(I548
g92
tp7485
a(I548
g92
tp7486
a(I548
g92
tp7487
a(I548
g92
tp7488
a(I548
g92
tp7489
a(I548
g92
tp7490
a(I548
g92
tp7491
a(I548
g92
tp7492
a(I548
g92
tp7493
a(I548
g92
tp7494
a(I548
g92
tp7495
a(I548
g92
tp7496
a(I548
g92
tp7497
a(I548
g92
tp7498
a(I548
g92
tp7499
a(I548
g92
tp7500
a(I548
g92
tp7501
a(I548
g92
tp7502
a(I548
g92
tp7503
a(I548
g92
tp7504
a(I548
g92
tp7505
a(I548
g92
tp7506
a(I548
g92
tp7507
a(I548
g92
tp7508
a(I548
g92
tp7509
a(I548
g92
tp7510
a(I548
g92
tp7511
a(I548
g92
tp7512
a(I548
g92
tp7513
a(I548
g92
tp7514
a(I548
g92
tp7515
a(I548
g92
tp7516
a(I548
g92
tp7517
a(I548
g92
tp7518
a(I548
g92
tp7519
a(I548
g92
tp7520
a(I548
g92
tp7521
a(I548
g92
tp7522
a(I548
g92
tp7523
a(I548
g92
tp7524
a(I548
g92
tp7525
a(I548
g92
tp7526
a(I548
g92
tp7527
a(I548
g92
tp7528
a(I548
g92
tp7529
a(I548
g92
tp7530
a(I548
g92
tp7531
a(I548
g92
tp7532
a(I548
g92
tp7533
a(I548
g92
tp7534
a(I548
g92
tp7535
a(I548
g92
tp7536
a(I548
g92
tp7537
a(I548
g92
tp7538
a(I548
g92
tp7539
a(I548
g92
tp7540
a(I548
g92
tp7541
a(I548
g92
tp7542
a(I548
g92
tp7543
a(I548
g92
tp7544
a(I548
g92
tp7545
a(I548
g92
tp7546
a(I548
g92
tp7547
a(I548
g92
tp7548
a(I548
g92
tp7549
a(I548
g92
tp7550
a(I548
g92
tp7551
a(I548
g92
tp7552
a(I548
g92
tp7553
a(I548
g92
tp7554
a(I548
g92
tp7555
a(I548
g92
tp7556
a(I548
g92
tp7557
a(I548
g92
tp7558
a(I548
g92
tp7559
a(I548
g92
tp7560
a(I548
g92
tp7561
a(I548
g92
tp7562
a(I548
g92
tp7563
a(I548
g92
tp7564
a(I548
g92
tp7565
a(I548
g92
tp7566
a(I548
g92
tp7567
a(I548
g92
tp7568
a(I548
g92
tp7569
a(I548
g92
tp7570
a(I548
g92
tp7571
a(I548
g92
tp7572
a(I548
g92
tp7573
a(I548
g92
tp7574
a(I548
g92
tp7575
a(I548
g92
tp7576
a(I548
g92
tp7577
a(I548
g92
tp7578
a(I548
g92
tp7579
a(I548
g92
tp7580
a(I548
g92
tp7581
a(I548
g92
tp7582
a(I548
g92
tp7583
a(I548
g92
tp7584
a(I548
g92
tp7585
a(I548
g92
tp7586
a(I548
g92
tp7587
a(I548
g92
tp7588
a(I548
g92
tp7589
a(I548
g92
tp7590
a(I548
g92
tp7591
a(I548
g92
tp7592
a(I548
g92
tp7593
a(I548
g92
tp7594
a(I548
g92
tp7595
a(I548
g92
tp7596
a(I548
g92
tp7597
a(I548
g92
tp7598
a(I548
g92
tp7599
a(I548
g92
tp7600
a(I548
g92
tp7601
a(I548
g92
tp7602
a(I548
g92
tp7603
a(I548
g92
tp7604
a(I548
g92
tp7605
a(I548
g92
tp7606
a(I548
g92
tp7607
a(I548
g92
tp7608
a(I548
g92
tp7609
a(I548
g92
tp7610
a(I548
g92
tp7611
a(I548
g92
tp7612
a(I548
g92
tp7613
a(I548
g92
tp7614
a(I548
g92
tp7615
a(I548
g92
tp7616
a(I548
g92
tp7617
a(I548
g92
tp7618
a(I548
g92
tp7619
a(I548
g92
tp7620
a(I548
g92
tp7621
a(I548
g92
tp7622
a(I548
g92
tp7623
a(I548
g92
tp7624
a(I548
g92
tp7625
a(I548
g92
tp7626
a(I548
g92
tp7627
a(I548
g92
tp7628
a(I548
g92
tp7629
a(I548
g92
tp7630
a(I548
g92
tp7631
a(I548
g92
tp7632
a(I548
g92
tp7633
a(I548
g92
tp7634
a(I548
g92
tp7635
a(I548
g92
tp7636
a(I548
g92
tp7637
a(I548
g92
tp7638
a(I548
g92
tp7639
a(I548
g92
tp7640
a(I548
g92
tp7641
a(I548
g92
tp7642
a(I548
g92
tp7643
a(I548
g92
tp7644
a(I548
g92
tp7645
a(I548
g92
tp7646
a(I548
g92
tp7647
a(I548
g92
tp7648
a(I548
g92
tp7649
a(I548
g92
tp7650
a(I548
g92
tp7651
a(I548
g92
tp7652
a(I548
g92
tp7653
a(I548
g92
tp7654
a(I548
g92
tp7655
a(I548
g92
tp7656
a(I548
g92
tp7657
a(I548
g92
tp7658
a(I548
g92
tp7659
a(I548
g92
tp7660
a(I548
g92
tp7661
a(I548
g92
tp7662
a(I548
g92
tp7663
a(I548
g92
tp7664
a(I548
g92
tp7665
a(I548
g92
tp7666
a(I548
g92
tp7667
a(I548
g92
tp7668
a(I548
g92
tp7669
a(I548
g92
tp7670
a(I548
g92
tp7671
a(I548
g92
tp7672
a(I548
g92
tp7673
a(I548
g92
tp7674
a(I548
g92
tp7675
a(I548
g92
tp7676
a(I548
g92
tp7677
a(I548
g92
tp7678
a(I548
g92
tp7679
a(I548
g92
tp7680
a(I548
g92
tp7681
a(I548
g92
tp7682
a(I548
g92
tp7683
a(I548
g92
tp7684
a(I548
g92
tp7685
a(I548
g92
tp7686
a(I548
g92
tp7687
a(I548
g92
tp7688
a(I548
g92
tp7689
a(I548
g92
tp7690
a(I548
g92
tp7691
a(I548
g92
tp7692
a(I548
g92
tp7693
a(I548
g92
tp7694
a(I548
g92
tp7695
a(I548
g92
tp7696
a(I548
g92
tp7697
a(I548
g92
tp7698
a(I548
g92
tp7699
a(I548
g92
tp7700
a(I548
g92
tp7701
a(I548
g92
tp7702
a(I548
g92
tp7703
a(I548
g92
tp7704
a(I548
g92
tp7705
a(I548
g92
tp7706
a(I548
g92
tp7707
a(I548
g92
tp7708
a(I548
g92
tp7709
a(I548
g92
tp7710
a(I548
g92
tp7711
a(I548
g92
tp7712
a(I548
g92
tp7713
a(I548
g92
tp7714
a(I548
g92
tp7715
a(I548
g92
tp7716
a(I548
g92
tp7717
a(I548
g92
tp7718
a(I548
g92
tp7719
a(I548
g92
tp7720
a(I548
g92
tp7721
a(I548
g92
tp7722
a(I548
g92
tp7723
a(I548
g92
tp7724
a(I548
g92
tp7725
a(I548
g92
tp7726
a(I548
g92
tp7727
a(I548
g92
tp7728
a(I548
g92
tp7729
a(I548
g92
tp7730
a(I548
g92
tp7731
a(I548
g92
tp7732
a(I548
g92
tp7733
a(I548
g92
tp7734
a(I548
g92
tp7735
a(I548
g92
tp7736
a(I548
g92
tp7737
a(I548
g92
tp7738
a(I548
g92
tp7739
a(I548
g92
tp7740
a(I548
g92
tp7741
a(I548
g92
tp7742
a(I548
g92
tp7743
a(I548
g92
tp7744
a(I548
g92
tp7745
a(I548
g92
tp7746
a(I548
g92
tp7747
a(I548
g92
tp7748
a(I548
g92
tp7749
a(I548
g92
tp7750
a(I548
g92
tp7751
a(I548
g92
tp7752
a(I548
g92
tp7753
a(I548
g92
tp7754
a(I548
g92
tp7755
a(I548
g92
tp7756
a(I548
g92
tp7757
a(I548
g92
tp7758
a(I548
g92
tp7759
a(I548
g92
tp7760
a(I548
g92
tp7761
a(I548
g92
tp7762
a(I548
g92
tp7763
a(I548
g92
tp7764
a(I548
g92
tp7765
a(I548
g92
tp7766
a(I548
g92
tp7767
a(I548
g92
tp7768
a(I548
g92
tp7769
a(I548
g92
tp7770
a(I548
g92
tp7771
a(I548
g92
tp7772
a(I548
g92
tp7773
a(I548
g92
tp7774
a(I548
g92
tp7775
a(I548
g92
tp7776
a(I548
g92
tp7777
a(I548
g92
tp7778
a(I548
g92
tp7779
a(I548
g92
tp7780
a(I548
g92
tp7781
a(I548
g92
tp7782
a(I548
g92
tp7783
a(I548
g92
tp7784
a(I548
g92
tp7785
a(I548
g92
tp7786
a(I548
g92
tp7787
a(I548
g92
tp7788
a(I548
g92
tp7789
a(I548
g92
tp7790
a(I548
g92
tp7791
a(I548
g92
tp7792
a(I548
g92
tp7793
a(I548
g92
tp7794
a(I548
g92
tp7795
a(I548
g92
tp7796
a(I548
g92
tp7797
a(I548
g92
tp7798
a(I548
g92
tp7799
a(I548
g92
tp7800
a(I548
g92
tp7801
a(I548
g92
tp7802
a(I548
g92
tp7803
a(I548
g92
tp7804
a(I548
g92
tp7805
a(I548
g92
tp7806
a(I548
g92
tp7807
a(I548
g92
tp7808
a(I548
g92
tp7809
a(I548
g92
tp7810
a(I548
g92
tp7811
a(I548
g92
tp7812
a(I548
g92
tp7813
a(I548
g92
tp7814
a(I548
g92
tp7815
a(I548
g92
tp7816
a(I548
g92
tp7817
a(I548
g92
tp7818
a(I548
g92
tp7819
a(I548
g92
tp7820
a(I548
g92
tp7821
a(I548
g92
tp7822
a(I548
g92
tp7823
a(I548
g92
tp7824
a(I548
g92
tp7825
a(I548
g92
tp7826
a(I548
g92
tp7827
a(I548
g92
tp7828
a(I548
g92
tp7829
a(I548
g92
tp7830
a(I548
g92
tp7831
a(I548
g92
tp7832
a(I548
g92
tp7833
a(I548
g92
tp7834
a(I548
g92
tp7835
a(I548
g92
tp7836
a(I548
g92
tp7837
a(I548
g92
tp7838
a(I548
g92
tp7839
a(I548
g92
tp7840
a(I548
g92
tp7841
a(I548
g92
tp7842
a(I548
g92
tp7843
a(I548
g92
tp7844
a(I548
g92
tp7845
a(I548
g92
tp7846
a(I548
g92
tp7847
a(I548
g92
tp7848
a(I548
g92
tp7849
a(I548
g92
tp7850
a(I548
g92
tp7851
a(I548
g92
tp7852
a(I548
g92
tp7853
a(I548
g92
tp7854
a(I548
g92
tp7855
a(I548
g92
tp7856
a(I548
g92
tp7857
a(I548
g92
tp7858
a(I548
g92
tp7859
a(I548
g92
tp7860
a(I548
g92
tp7861
a(I548
g92
tp7862
a(I548
g92
tp7863
a(I548
g92
tp7864
a(I548
g92
tp7865
a(I548
g92
tp7866
a(I548
g92
tp7867
a(I548
g92
tp7868
a(I548
g92
tp7869
a(I548
g92
tp7870
a(I548
g92
tp7871
a(I548
g92
tp7872
a(I548
g92
tp7873
a(I548
g92
tp7874
a(I548
g92
tp7875
a(I548
g92
tp7876
a(I548
g92
tp7877
a(I548
g92
tp7878
a(I548
g92
tp7879
a(I548
g92
tp7880
a(I548
g92
tp7881
a(I548
g92
tp7882
a(I548
g92
tp7883
a(I548
g92
tp7884
a(I548
g92
tp7885
a(I548
g92
tp7886
a(I548
g92
tp7887
a(I548
g92
tp7888
a(I548
g92
tp7889
a(I548
g92
tp7890
a(I548
g92
tp7891
a(I548
g92
tp7892
a(I548
g92
tp7893
a(I548
g92
tp7894
a(I548
g92
tp7895
a(I548
g92
tp7896
a(I548
g92
tp7897
a(I548
g92
tp7898
a(I548
g92
tp7899
a(I548
g92
tp7900
a(I548
g92
tp7901
a(I548
g92
tp7902
a(I548
g92
tp7903
a(I548
g92
tp7904
a(I548
g92
tp7905
a(I548
g92
tp7906
a(I548
g92
tp7907
a(I548
g92
tp7908
a(I548
g92
tp7909
a(I548
g92
tp7910
a(I548
g92
tp7911
a(I548
g92
tp7912
a(I548
g92
tp7913
a(I548
g92
tp7914
a(I548
g92
tp7915
a(I548
g92
tp7916
a(I548
g92
tp7917
a(I548
g92
tp7918
a(I548
g92
tp7919
a(I548
g92
tp7920
a(I548
g92
tp7921
a(I548
g92
tp7922
a(I548
g92
tp7923
a(I548
g92
tp7924
a(I548
g92
tp7925
a(I548
g92
tp7926
a(I548
g92
tp7927
a(I548
g92
tp7928
a(I548
g92
tp7929
a(I548
g92
tp7930
a(I548
g92
tp7931
a(I548
g92
tp7932
a(I548
g92
tp7933
a(I548
g92
tp7934
a(I548
g92
tp7935
a(I548
g92
tp7936
a(I548
g92
tp7937
a(I548
g92
tp7938
a(I548
g92
tp7939
a(I548
g92
tp7940
a(I548
g92
tp7941
a(I548
g92
tp7942
a(I548
g92
tp7943
a(I548
g92
tp7944
a(I548
g92
tp7945
a(I548
g92
tp7946
a(I548
g92
tp7947
a(I548
g92
tp7948
a(I548
g92
tp7949
a(I548
g92
tp7950
a(I548
g92
tp7951
a(I548
g92
tp7952
a(I548
g92
tp7953
a(I548
g92
tp7954
a(I548
g92
tp7955
a(I548
g92
tp7956
a(I548
g92
tp7957
a(I548
g92
tp7958
a(I548
g92
tp7959
a(I548
g92
tp7960
a(I548
g92
tp7961
a(I548
g92
tp7962
a(I548
g92
tp7963
a(I548
g92
tp7964
a(I548
g92
tp7965
a(I548
g92
tp7966
a(I548
g92
tp7967
a(I548
g92
tp7968
a(I548
g92
tp7969
a(I548
g92
tp7970
a(I548
g92
tp7971
a(I548
g92
tp7972
a(I548
g92
tp7973
a(I548
g92
tp7974
a(I548
g92
tp7975
a(I548
g92
tp7976
a(I548
g92
tp7977
a(I548
g92
tp7978
a(I548
g92
tp7979
a(I548
g92
tp7980
a(I548
g92
tp7981
a(I548
g92
tp7982
a(I548
g92
tp7983
a(I548
g92
tp7984
a(I548
g92
tp7985
a(I548
g92
tp7986
a(I548
g92
tp7987
a(I548
g92
tp7988
a(I548
g92
tp7989
a(I548
g92
tp7990
a(I548
g92
tp7991
a(I548
g92
tp7992
a(I548
g92
tp7993
a(I548
g92
tp7994
a(I548
g92
tp7995
a(I548
g92
tp7996
a(I548
g92
tp7997
a(I548
g92
tp7998
a(I548
g92
tp7999
a(I548
g92
tp8000
a(I548
g92
tp8001
a(I548
g92
tp8002
a(I548
g92
tp8003
a(I548
g92
tp8004
a(I548
g92
tp8005
a(I548
g92
tp8006
a(I548
g92
tp8007
a(I548
g92
tp8008
a(I548
g92
tp8009
a(I548
g92
tp8010
a(I548
g92
tp8011
a(I548
g92
tp8012
a(I548
g92
tp8013
a(I548
g92
tp8014
a(I548
g92
tp8015
a(I548
g92
tp8016
a(I548
g92
tp8017
a(I548
g92
tp8018
a(I548
g92
tp8019
a(I548
g92
tp8020
a(I548
g92
tp8021
a(I548
g92
tp8022
a(I548
g92
tp8023
a(I548
g92
tp8024
a(I548
g92
tp8025
a(I548
g92
tp8026
a(I548
g92
tp8027
a(I548
g92
tp8028
a(I548
g92
tp8029
a(I548
g92
tp8030
a(I548
g92
tp8031
a(I548
g92
tp8032
a(I548
g92
tp8033
a(I548
g92
tp8034
a(I548
g92
tp8035
a(I548
g92
tp8036
a(I548
g92
tp8037
a(I548
g92
tp8038
a(I548
g92
tp8039
a(I548
g92
tp8040
a(I548
g92
tp8041
a(I548
g92
tp8042
a(I548
g92
tp8043
a(I548
g92
tp8044
a(I548
g92
tp8045
a(I548
g92
tp8046
a(I548
g92
tp8047
a(I548
g92
tp8048
a(I548
g92
tp8049
a(I548
g92
tp8050
a(I548
g92
tp8051
a(I548
g92
tp8052
a(I548
g92
tp8053
a(I548
g92
tp8054
a(I548
g92
tp8055
a(I548
g92
tp8056
a(I548
g92
tp8057
a(I548
g92
tp8058
a(I548
g92
tp8059
a(I548
g92
tp8060
a(I548
g92
tp8061
a(I548
g92
tp8062
a(I548
g92
tp8063
a(I548
g92
tp8064
a(I548
g92
tp8065
a(I548
g92
tp8066
a(I548
g92
tp8067
a(I548
g92
tp8068
a(I548
g92
tp8069
a(I548
g92
tp8070
a(I548
g92
tp8071
a(I548
g92
tp8072
a(I548
g92
tp8073
a(I548
g92
tp8074
a(I548
g92
tp8075
a(I548
g92
tp8076
a(I548
g92
tp8077
a(I548
g92
tp8078
a(I548
g92
tp8079
a(I548
g92
tp8080
a(I548
g92
tp8081
a(I548
g92
tp8082
a(I548
g92
tp8083
a(I548
g92
tp8084
a(I548
g92
tp8085
a(I548
g92
tp8086
a(I548
g92
tp8087
a(I548
g92
tp8088
a(I548
g92
tp8089
a(I548
g92
tp8090
a(I548
g92
tp8091
a(I548
g92
tp8092
a(I548
g92
tp8093
a(I548
g92
tp8094
a(I548
g92
tp8095
a(I548
g92
tp8096
a(I548
g92
tp8097
a(I548
g92
tp8098
a(I548
g92
tp8099
a(I548
g92
tp8100
a(I548
g92
tp8101
a(I548
g92
tp8102
a(I548
g92
tp8103
a(I548
g92
tp8104
a(I548
g92
tp8105
a(I548
g92
tp8106
a(I548
g92
tp8107
a(I548
g92
tp8108
a(I548
g92
tp8109
a(I548
g92
tp8110
a(I548
g92
tp8111
a(I548
g92
tp8112
a(I548
g92
tp8113
a(I548
g92
tp8114
a(I548
g92
tp8115
a(I548
g92
tp8116
a(I548
g92
tp8117
a(I548
g92
tp8118
a(I548
g92
tp8119
a(I548
g92
tp8120
a(I548
g92
tp8121
a(I548
g92
tp8122
a(I548
g92
tp8123
a(I548
g92
tp8124
a(I548
g92
tp8125
a(I548
g92
tp8126
a(I548
g92
tp8127
a(I548
g92
tp8128
a(I548
g92
tp8129
a(I548
g92
tp8130
a(I548
g92
tp8131
a(I548
g92
tp8132
a(I548
g92
tp8133
a(I548
g92
tp8134
a(I548
g92
tp8135
a(I548
g92
tp8136
a(I548
g92
tp8137
a(I548
g92
tp8138
a(I548
g92
tp8139
a(I548
g92
tp8140
a(I548
g92
tp8141
a(I548
g92
tp8142
a(I548
g92
tp8143
a(I548
g92
tp8144
a(I548
g92
tp8145
a(I548
g92
tp8146
a(I548
g92
tp8147
a(I548
g92
tp8148
a(I548
g92
tp8149
a(I548
g92
tp8150
a(I548
g92
tp8151
a(I548
g92
tp8152
a(I548
g92
tp8153
a(I548
g92
tp8154
a(I548
g92
tp8155
a(I548
g92
tp8156
a(I548
g92
tp8157
a(I548
g92
tp8158
a(I548
g92
tp8159
a(I548
g92
tp8160
a(I548
g92
tp8161
a(I548
g92
tp8162
a(I548
g92
tp8163
a(I548
g92
tp8164
a(I548
g92
tp8165
a(I548
g92
tp8166
a(I548
g92
tp8167
a(I548
g92
tp8168
a(I548
g92
tp8169
a(I548
g92
tp8170
a(I548
g92
tp8171
a(I548
g92
tp8172
a(I548
g92
tp8173
a(I548
g92
tp8174
a(I548
g92
tp8175
a(I548
g92
tp8176
a(I548
g92
tp8177
a(I548
g92
tp8178
a(I548
g92
tp8179
a(I548
g92
tp8180
a(I548
g92
tp8181
a(I548
g92
tp8182
a(I548
g92
tp8183
a(I548
g92
tp8184
a(I548
g92
tp8185
a(I548
g92
tp8186
a(I548
g92
tp8187
a(I548
g92
tp8188
a(I548
g92
tp8189
a(I548
g92
tp8190
a(I548
g92
tp8191
a(I548
g92
tp8192
a(I548
g92
tp8193
a(I548
g92
tp8194
a(I548
g92
tp8195
a(I548
g92
tp8196
a(I548
g92
tp8197
a(I548
g92
tp8198
a(I548
g92
tp8199
a(I548
g92
tp8200
a(I548
g92
tp8201
a(I548
g92
tp8202
a(I548
g92
tp8203
a(I548
g92
tp8204
a(I548
g92
tp8205
a(I548
g92
tp8206
a(I548
g92
tp8207
a(I548
g92
tp8208
a(I548
g92
tp8209
a(I548
g92
tp8210
a(I548
g92
tp8211
a(I548
g92
tp8212
a(I548
g92
tp8213
a(I548
g92
tp8214
a(I548
g92
tp8215
a(I548
g92
tp8216
a(I548
g92
tp8217
a(I548
g92
tp8218
a(I548
g92
tp8219
a(I548
g92
tp8220
a(I548
g92
tp8221
a(I548
g92
tp8222
a(I548
g92
tp8223
a(I548
g92
tp8224
a(I548
g92
tp8225
a(I548
g92
tp8226
a(I548
g92
tp8227
a(I548
g92
tp8228
a(I548
g92
tp8229
a(I548
g92
tp8230
a(I548
g92
tp8231
a(I548
g92
tp8232
a(I548
g92
tp8233
a(I548
g92
tp8234
a(I548
g92
tp8235
a(I548
g92
tp8236
a(I548
g92
tp8237
a(I548
g92
tp8238
a(I548
g92
tp8239
a(I548
g92
tp8240
a(I548
g92
tp8241
a(I548
g92
tp8242
a(I548
g92
tp8243
a(I548
g92
tp8244
a(I548
g92
tp8245
a(I548
g92
tp8246
a(I548
g92
tp8247
a(I548
g92
tp8248
a(I548
g92
tp8249
a(I548
g92
tp8250
a(I548
g92
tp8251
a(I548
g92
tp8252
a(I548
g92
tp8253
a(I548
g92
tp8254
a(I548
g92
tp8255
a(I548
g92
tp8256
a(I548
g92
tp8257
a(I548
g92
tp8258
a(I548
g92
tp8259
a(I548
g92
tp8260
a(I548
g92
tp8261
a(I548
g92
tp8262
a(I548
g92
tp8263
a(I548
g92
tp8264
a(I548
g92
tp8265
a(I548
g92
tp8266
a(I548
g92
tp8267
a(I548
g92
tp8268
a(I548
g92
tp8269
a(I548
g92
tp8270
a(I548
g92
tp8271
a(I548
g92
tp8272
a(I548
g92
tp8273
a(I548
g92
tp8274
a(I548
g92
tp8275
a(I548
g92
tp8276
a(I548
g92
tp8277
a(I548
g92
tp8278
a(I548
g92
tp8279
a(I548
g92
tp8280
a(I548
g92
tp8281
a(I548
g92
tp8282
a(I548
g92
tp8283
a(I548
g92
tp8284
a(I548
g92
tp8285
a(I548
g92
tp8286
a(I548
g92
tp8287
a(I548
g92
tp8288
a(I548
g92
tp8289
a(I548
g92
tp8290
a(I548
g92
tp8291
a(I548
g92
tp8292
a(I548
g92
tp8293
a(I548
g92
tp8294
a(I548
g92
tp8295
a(I548
g92
tp8296
a(I548
g92
tp8297
a(I548
g92
tp8298
a(I548
g92
tp8299
a(I548
g92
tp8300
a(I548
g92
tp8301
a(I548
g92
tp8302
a(I548
g92
tp8303
a(I548
g92
tp8304
a(I548
g92
tp8305
a(I548
g92
tp8306
a(I548
g92
tp8307
a(I548
g92
tp8308
a(I548
g92
tp8309
a(I548
g92
tp8310
a(I548
g92
tp8311
a(I548
g92
tp8312
a(I548
g92
tp8313
a(I548
g92
tp8314
a(I548
g92
tp8315
a(I548
g92
tp8316
a(I548
g92
tp8317
a(I548
g92
tp8318
a(I548
g92
tp8319
a(I548
g92
tp8320
a(I548
g92
tp8321
a(I548
g92
tp8322
a(I548
g92
tp8323
a(I548
g92
tp8324
a(I548
g92
tp8325
a(I548
g92
tp8326
a(I548
g92
tp8327
a(I548
g92
tp8328
a(I548
g92
tp8329
a(I548
g92
tp8330
a(I548
g92
tp8331
a(I548
g92
tp8332
a(I548
g92
tp8333
a(I548
g92
tp8334
a(I548
g92
tp8335
a(I548
g92
tp8336
a(I548
g92
tp8337
a(I548
g92
tp8338
a(I548
g92
tp8339
a(I548
g92
tp8340
a(I548
g92
tp8341
a(I548
g92
tp8342
a(I548
g92
tp8343
a(I548
g92
tp8344
a(I548
g92
tp8345
a(I548
g92
tp8346
a(I548
g92
tp8347
a(I548
g92
tp8348
a(I548
g92
tp8349
a(I548
g92
tp8350
a(I548
g92
tp8351
a(I548
g92
tp8352
a(I548
g92
tp8353
a(I548
g92
tp8354
a(I548
g92
tp8355
a(I548
g92
tp8356
a(I548
g92
tp8357
a(I548
g92
tp8358
a(I548
g92
tp8359
a(I548
g92
tp8360
a(I548
g92
tp8361
a(I548
g92
tp8362
a(I548
g92
tp8363
a(I548
g92
tp8364
a(I548
g92
tp8365
a(I548
g92
tp8366
a(I548
g92
tp8367
a(I548
g92
tp8368
a(I548
g92
tp8369
a(I548
g92
tp8370
a(I548
g92
tp8371
a(I548
g92
tp8372
a(I548
g92
tp8373
a(I548
g92
tp8374
a(I548
g92
tp8375
a(I548
g92
tp8376
a(I548
g92
tp8377
a(I548
g92
tp8378
a(I548
g92
tp8379
a(I548
g92
tp8380
a(I548
g92
tp8381
a(I548
g92
tp8382
a(I548
g92
tp8383
a(I548
g92
tp8384
a(I548
g92
tp8385
a(I548
g92
tp8386
a(I548
g92
tp8387
a(I548
g92
tp8388
a(I548
g92
tp8389
a(I548
g92
tp8390
a(I548
g92
tp8391
a(I548
g92
tp8392
a(I548
g92
tp8393
a(I548
g92
tp8394
a(I548
g92
tp8395
a(I548
g92
tp8396
a(I548
g92
tp8397
a(I548
g92
tp8398
a(I548
g92
tp8399
a(I548
g92
tp8400
a(I548
g92
tp8401
a(I548
g92
tp8402
a(I548
g92
tp8403
a(I548
g92
tp8404
a(I548
g92
tp8405
a(I548
g92
tp8406
a(I548
g92
tp8407
a(I548
g92
tp8408
a(I548
g92
tp8409
a(I548
g92
tp8410
a(I548
g92
tp8411
a(I548
g92
tp8412
a(I548
g92
tp8413
a(I548
g92
tp8414
a(I548
g92
tp8415
a(I548
g92
tp8416
a(I548
g92
tp8417
a(I548
g92
tp8418
a(I548
g92
tp8419
a(I548
g92
tp8420
a(I548
g92
tp8421
a(I548
g92
tp8422
a(I548
g92
tp8423
a(I548
g92
tp8424
a(I548
g92
tp8425
a(I548
g92
tp8426
a(I548
g92
tp8427
a(I548
g92
tp8428
a(I548
g92
tp8429
a(I548
g92
tp8430
a(I548
g92
tp8431
a(I548
g92
tp8432
a(I548
g92
tp8433
a(I548
g92
tp8434
a(I548
g92
tp8435
a(I548
g92
tp8436
a(I548
g92
tp8437
a(I548
g92
tp8438
a(I548
g92
tp8439
a(I548
g92
tp8440
a(I548
g92
tp8441
a(I548
g92
tp8442
a(I548
g92
tp8443
a(I548
g92
tp8444
a(I548
g92
tp8445
a(I548
g92
tp8446
a(I548
g92
tp8447
a(I548
g92
tp8448
a(I548
g92
tp8449
a(I548
g92
tp8450
a(I548
g92
tp8451
a(I548
g92
tp8452
a(I548
g92
tp8453
a(I548
g92
tp8454
a(I548
g92
tp8455
a(I548
g92
tp8456
a(I548
g92
tp8457
a(I548
g92
tp8458
a(I548
g92
tp8459
a(I548
g92
tp8460
a(I548
g92
tp8461
a(I548
g92
tp8462
a(I548
g92
tp8463
a(I548
g92
tp8464
a(I548
g92
tp8465
a(I548
g92
tp8466
a(I548
g92
tp8467
a(I548
g92
tp8468
a(I548
g92
tp8469
a(I548
g92
tp8470
a(I548
g92
tp8471
a(I548
g92
tp8472
a(I548
g92
tp8473
a(I548
g92
tp8474
a(I548
g92
tp8475
a(I548
g92
tp8476
a(I548
g92
tp8477
a(I548
g92
tp8478
a(I548
g92
tp8479
a(I548
g92
tp8480
a(I548
g92
tp8481
a(I548
g92
tp8482
a(I548
g92
tp8483
a(I548
g92
tp8484
a(I548
g92
tp8485
a(I548
g92
tp8486
a(I548
g92
tp8487
a(I548
g92
tp8488
a(I548
g92
tp8489
a(I548
g92
tp8490
a(I548
g92
tp8491
a(I548
g92
tp8492
a(I548
g92
tp8493
a(I548
g92
tp8494
a(I548
g92
tp8495
a(I548
g92
tp8496
a(I548
g92
tp8497
a(I548
g92
tp8498
a(I548
g92
tp8499
a(I548
g92
tp8500
a(I548
g92
tp8501
a(I548
g92
tp8502
a(I548
g92
tp8503
a(I548
g92
tp8504
a(I548
g92
tp8505
a(I548
g92
tp8506
a(I548
g92
tp8507
a(I548
g92
tp8508
a(I548
g92
tp8509
a(I548
g92
tp8510
a(I548
g92
tp8511
a(I548
g92
tp8512
a(I548
g92
tp8513
a(I548
g92
tp8514
a(I548
g92
tp8515
a(I548
g92
tp8516
a(I548
g92
tp8517
a(I548
g92
tp8518
a(I548
g92
tp8519
a(I548
g92
tp8520
a(I548
g92
tp8521
a(I548
g92
tp8522
a(I548
g92
tp8523
a(I548
g92
tp8524
a(I548
g92
tp8525
a(I548
g92
tp8526
a(I548
g92
tp8527
a(I548
g92
tp8528
a(I548
g92
tp8529
a(I548
g92
tp8530
a(I548
g92
tp8531
a(I548
g92
tp8532
a(I548
g92
tp8533
a(I548
g92
tp8534
a(I548
g92
tp8535
a(I548
g92
tp8536
a(I548
g92
tp8537
a(I548
g92
tp8538
a(I548
g92
tp8539
a(I548
g92
tp8540
a(I548
g92
tp8541
a(I548
g92
tp8542
a(I548
g92
tp8543
a(I548
g92
tp8544
a(I548
g92
tp8545
a(I548
g92
tp8546
a(I548
g92
tp8547
a(I548
g92
tp8548
a(I548
g92
tp8549
a(I548
g92
tp8550
a(I548
g92
tp8551
a(I548
g92
tp8552
a(I548
g92
tp8553
a(I548
g92
tp8554
a(I548
g92
tp8555
a(I548
g92
tp8556
a(I548
g92
tp8557
a(I548
g92
tp8558
a(I548
g92
tp8559
a(I548
g92
tp8560
a(I548
g92
tp8561
a(I548
g92
tp8562
a(I548
g92
tp8563
a(I548
g92
tp8564
a(I548
g92
tp8565
a(I548
g92
tp8566
a(I548
g92
tp8567
a(I548
g92
tp8568
a(I548
g92
tp8569
a(I548
g92
tp8570
a(I548
g92
tp8571
a(I548
g92
tp8572
a(I548
g92
tp8573
a(I548
g92
tp8574
a(I548
g92
tp8575
a(I548
g92
tp8576
a(I548
g92
tp8577
a(I548
g92
tp8578
a(I548
g92
tp8579
a(I548
g92
tp8580
a(I548
g92
tp8581
a(I548
g92
tp8582
a(I548
g92
tp8583
a(I548
g92
tp8584
a(I548
g92
tp8585
a(I548
g92
tp8586
a(I548
g92
tp8587
a(I548
g92
tp8588
a(I548
g92
tp8589
a(I548
g92
tp8590
a(I548
g92
tp8591
a(I548
g92
tp8592
a(I548
g92
tp8593
a(I548
g92
tp8594
a(I548
g92
tp8595
a(I548
g92
tp8596
a(I548
g92
tp8597
a(I548
g92
tp8598
a(I548
g92
tp8599
a(I548
g92
tp8600
a(I548
g92
tp8601
a(I548
g92
tp8602
a(I548
g92
tp8603
a(I548
g92
tp8604
a(I548
g92
tp8605
a(I548
g92
tp8606
a(I548
g92
tp8607
a(I548
g92
tp8608
a(I548
g92
tp8609
a(I548
g92
tp8610
a(I548
g92
tp8611
a(I548
g92
tp8612
a(I548
g92
tp8613
a(I548
g92
tp8614
a(I548
g92
tp8615
a(I548
g92
tp8616
a(I548
g92
tp8617
a(I548
g92
tp8618
a(I548
g92
tp8619
a(I548
g92
tp8620
a(I548
g92
tp8621
a(I548
g92
tp8622
a(I548
g92
tp8623
a(I548
g92
tp8624
a(I548
g92
tp8625
a(I548
g92
tp8626
a(I548
g92
tp8627
a(I548
g92
tp8628
a(I548
g92
tp8629
a(I548
g92
tp8630
a(I548
g92
tp8631
a(I548
g92
tp8632
a(I548
g92
tp8633
a(I548
g92
tp8634
a(I548
g92
tp8635
a(I548
g92
tp8636
a(I548
g92
tp8637
a(I548
g92
tp8638
a(I548
g92
tp8639
a(I548
g92
tp8640
a(I548
g92
tp8641
a(I548
g92
tp8642
a(I548
g92
tp8643
a(I548
g92
tp8644
a(I548
g92
tp8645
a(I548
g92
tp8646
a(I548
g92
tp8647
a(I548
g92
tp8648
a(I548
g92
tp8649
a(I548
g92
tp8650
a(I548
g92
tp8651
a(I548
g92
tp8652
a(I548
g92
tp8653
a(I548
g92
tp8654
a(I548
g92
tp8655
a(I548
g92
tp8656
a(I548
g92
tp8657
a(I548
g92
tp8658
a(I548
g92
tp8659
a(I548
g92
tp8660
a(I548
g92
tp8661
a(I548
g92
tp8662
a(I548
g92
tp8663
a(I548
g92
tp8664
a(I548
g92
tp8665
a(I548
g92
tp8666
a(I548
g92
tp8667
a(I548
g92
tp8668
a(I548
g92
tp8669
a(I548
g92
tp8670
a(I548
g92
tp8671
a(I548
g92
tp8672
a(I548
g92
tp8673
a(I548
g92
tp8674
a(I548
g92
tp8675
a(I548
g92
tp8676
a(I548
g92
tp8677
a(I548
g92
tp8678
a(I548
g92
tp8679
a(I548
g92
tp8680
a(I548
g92
tp8681
a(I548
g92
tp8682
a(I548
g92
tp8683
a(I548
g92
tp8684
a(I548
g92
tp8685
a(I548
g92
tp8686
a(I548
g92
tp8687
a(I548
g92
tp8688
a(I548
g92
tp8689
a(I548
g92
tp8690
a(I548
g92
tp8691
a(I548
g92
tp8692
a(I548
g92
tp8693
a(I548
g92
tp8694
a(I548
g92
tp8695
a(I548
g92
tp8696
a(I548
g92
tp8697
a(I548
g92
tp8698
a(I548
g92
tp8699
a(I548
g92
tp8700
a(I548
g92
tp8701
a(I548
g92
tp8702
a(I548
g92
tp8703
a(I548
g92
tp8704
a(I548
g92
tp8705
a(I548
g92
tp8706
a(I548
g92
tp8707
a(I548
g92
tp8708
a(I548
g92
tp8709
a(I548
g92
tp8710
a(I548
g92
tp8711
a(I548
g92
tp8712
a(I548
g92
tp8713
a(I548
g92
tp8714
a(I548
g92
tp8715
a(I548
g92
tp8716
a(I548
g92
tp8717
a(I548
g92
tp8718
a(I548
g92
tp8719
a(I548
g92
tp8720
a(I548
g92
tp8721
a(I548
g92
tp8722
a(I548
g92
tp8723
a(I548
g92
tp8724
a(I548
g92
tp8725
a(I548
g92
tp8726
a(I548
g92
tp8727
a(I548
g92
tp8728
a(I548
g92
tp8729
a(I548
g92
tp8730
a(I548
g92
tp8731
a(I548
g92
tp8732
a(I548
g92
tp8733
a(I548
g92
tp8734
a(I548
g92
tp8735
a(I548
g92
tp8736
a(I548
g92
tp8737
a(I548
g92
tp8738
a(I548
g92
tp8739
a(I548
g92
tp8740
a(I548
g92
tp8741
a(I548
g92
tp8742
a(I548
g92
tp8743
a(I548
g92
tp8744
a(I548
g92
tp8745
a(I548
g92
tp8746
a(I548
g92
tp8747
a(I548
g92
tp8748
a(I548
g92
tp8749
a(I548
g92
tp8750
a(I548
g92
tp8751
a(I548
g92
tp8752
a(I548
g92
tp8753
a(I548
g92
tp8754
a(I548
g92
tp8755
a(I548
g92
tp8756
a(I548
g92
tp8757
a(I548
g92
tp8758
a(I548
g92
tp8759
a(I548
g92
tp8760
a(I548
g92
tp8761
a(I548
g92
tp8762
a(I548
g92
tp8763
a(I548
g92
tp8764
a(I548
g92
tp8765
a(I548
g92
tp8766
a(I548
g92
tp8767
a(I548
g92
tp8768
a(I548
g92
tp8769
a(I548
g92
tp8770
a(I548
g92
tp8771
a(I548
g92
tp8772
a(I548
g92
tp8773
a(I548
g92
tp8774
a(I548
g92
tp8775
a(I548
g92
tp8776
a(I548
g92
tp8777
a(I548
g92
tp8778
a(I548
g92
tp8779
a(I548
g92
tp8780
a(I548
g92
tp8781
a(I548
g92
tp8782
a(I548
g92
tp8783
a(I548
g92
tp8784
a(I548
g92
tp8785
a(I548
g92
tp8786
a(I548
g92
tp8787
a(I548
g92
tp8788
a(I548
g92
tp8789
a(I548
g92
tp8790
a(I548
g92
tp8791
a(I548
g92
tp8792
a(I548
g92
tp8793
a(I548
g92
tp8794
a(I548
g92
tp8795
a(I548
g92
tp8796
a(I548
g92
tp8797
a(I548
g92
tp8798
a(I548
g92
tp8799
a(I548
g92
tp8800
a(I548
g92
tp8801
a(I548
g92
tp8802
a(I548
g92
tp8803
a(I548
g92
tp8804
a(I548
g92
tp8805
a(I548
g92
tp8806
a(I548
g92
tp8807
a(I548
g92
tp8808
a(I548
g92
tp8809
a(I548
g92
tp8810
a(I548
g92
tp8811
a(I548
g92
tp8812
a(I548
g92
tp8813
a(I548
g92
tp8814
a(I548
g92
tp8815
a(I548
g92
tp8816
a(I548
g92
tp8817
a(I548
g92
tp8818
a(I548
g92
tp8819
a(I548
g92
tp8820
a(I548
g92
tp8821
a(I548
g92
tp8822
a(I548
g92
tp8823
a(I548
g92
tp8824
a(I548
g92
tp8825
a(I548
g92
tp8826
a(I548
g92
tp8827
a(I548
g92
tp8828
a(I548
g92
tp8829
a(I548
g92
tp8830
a(I548
g92
tp8831
a(I548
g92
tp8832
a(I548
g92
tp8833
a(I548
g92
tp8834
a(I548
g92
tp8835
a(I548
g92
tp8836
a(I548
g92
tp8837
a(I548
g92
tp8838
a(I548
g92
tp8839
a(I548
g92
tp8840
a(I548
g92
tp8841
a(I548
g92
tp8842
a(I548
g92
tp8843
a(I548
g92
tp8844
a(I548
g92
tp8845
a(I548
g92
tp8846
a(I548
g92
tp8847
a(I548
g92
tp8848
a(I548
g92
tp8849
a(I548
g92
tp8850
a(I548
g92
tp8851
a(I548
g92
tp8852
a(I548
g92
tp8853
a(I548
g92
tp8854
a(I548
g92
tp8855
a(I548
g92
tp8856
a(I548
g92
tp8857
a(I548
g92
tp8858
a(I548
g92
tp8859
a(I548
g92
tp8860
a(I548
g92
tp8861
a(I548
g92
tp8862
a(I548
g92
tp8863
a(I548
g92
tp8864
a(I548
g92
tp8865
a(I548
g92
tp8866
a(I548
g92
tp8867
a(I548
g92
tp8868
a(I548
g92
tp8869
a(I548
g92
tp8870
a(I548
g92
tp8871
a(I548
g92
tp8872
a(I548
g92
tp8873
a(I548
g92
tp8874
a(I548
g92
tp8875
a(I548
g92
tp8876
a(I548
g92
tp8877
a(I548
g92
tp8878
a(I548
g92
tp8879
a(I548
g92
tp8880
a(I548
g92
tp8881
a(I548
g92
tp8882
a(I548
g92
tp8883
a(I548
g92
tp8884
a(I548
g92
tp8885
a(I548
g92
tp8886
a(I548
g92
tp8887
a(I548
g92
tp8888
a(I548
g92
tp8889
a(I548
g92
tp8890
a(I548
g92
tp8891
a(I548
g92
tp8892
a(I548
g92
tp8893
a(I548
g92
tp8894
a(I548
g92
tp8895
a(I548
g92
tp8896
a(I548
g92
tp8897
a(I548
g92
tp8898
a(I548
g92
tp8899
a(I548
g92
tp8900
a(I548
g92
tp8901
a(I548
g92
tp8902
a(I548
g92
tp8903
a(I548
g92
tp8904
a(I548
g92
tp8905
a(I548
g92
tp8906
a(I548
g92
tp8907
a(I548
g92
tp8908
a(I548
g92
tp8909
a(I548
g92
tp8910
a(I548
g92
tp8911
a(I548
g92
tp8912
a(I548
g92
tp8913
a(I548
g92
tp8914
a(I548
g92
tp8915
a(I548
g92
tp8916
a(I548
g92
tp8917
a(I548
g92
tp8918
a(I548
g92
tp8919
a(I548
g92
tp8920
a(I548
g92
tp8921
a(I548
g92
tp8922
a(I548
g92
tp8923
a(I548
g92
tp8924
a(I548
g92
tp8925
a(I548
g92
tp8926
a(I548
g92
tp8927
a(I548
g92
tp8928
a(I548
g92
tp8929
a(I548
g92
tp8930
a(I548
g92
tp8931
a(I548
g92
tp8932
a(I548
g92
tp8933
a(I548
g92
tp8934
a(I548
g92
tp8935
a(I548
g92
tp8936
a(I548
g92
tp8937
a(I548
g92
tp8938
a(I548
g92
tp8939
a(I548
g92
tp8940
a(I548
g92
tp8941
a(I548
g92
tp8942
a(I548
g92
tp8943
a(I548
g92
tp8944
a(I548
g92
tp8945
a(I548
g92
tp8946
a(I548
g92
tp8947
a(I548
g92
tp8948
a(I548
g92
tp8949
a(I548
g92
tp8950
a(I548
g92
tp8951
a(I548
g92
tp8952
a(I548
g92
tp8953
a(I548
g92
tp8954
a(I548
g92
tp8955
a(I548
g92
tp8956
a(I548
g92
tp8957
a(I548
g92
tp8958
a(I548
g92
tp8959
a(I548
g92
tp8960
a(I548
g92
tp8961
a(I548
g92
tp8962
a(I548
g92
tp8963
a(I548
g92
tp8964
a(I548
g92
tp8965
a(I548
g92
tp8966
a(I548
g92
tp8967
a(I548
g92
tp8968
a(I548
g92
tp8969
a(I548
g92
tp8970
a(I548
g92
tp8971
a(I548
g92
tp8972
a(I548
g92
tp8973
a(I548
g92
tp8974
a(I548
g92
tp8975
a(I548
g92
tp8976
a(I548
g92
tp8977
a(I548
g92
tp8978
a(I548
g92
tp8979
a(I548
g92
tp8980
a(I548
g92
tp8981
a(I548
g92
tp8982
a(I548
g92
tp8983
a(I548
g92
tp8984
a(I548
g92
tp8985
a(I548
g92
tp8986
a(I548
g92
tp8987
a(I548
g92
tp8988
a(I548
g92
tp8989
a(I548
g92
tp8990
a(I548
g92
tp8991
a(I548
g92
tp8992
a(I548
g92
tp8993
a(I548
g92
tp8994
a(I548
g92
tp8995
a(I548
g92
tp8996
a(I548
g92
tp8997
a(I548
g92
tp8998
a(I548
g92
tp8999
a(I548
g92
tp9000
a(I548
g92
tp9001
a(I548
g92
tp9002
a(I548
g92
tp9003
a(I548
g92
tp9004
a(I548
g92
tp9005
a(I548
g92
tp9006
a(I548
g92
tp9007
a(I548
g92
tp9008
a(I548
g92
tp9009
a(I548
g92
tp9010
a(I548
g92
tp9011
a(I548
g92
tp9012
a(I548
g92
tp9013
a(I548
g92
tp9014
a(I548
g92
tp9015
a(I548
g92
tp9016
a(I548
g92
tp9017
a(I548
g92
tp9018
a(I548
g92
tp9019
a(I548
g92
tp9020
a(I548
g92
tp9021
a(I548
g92
tp9022
a(I548
g92
tp9023
a(I548
g92
tp9024
a(I548
g92
tp9025
a(I548
g92
tp9026
a(I548
g92
tp9027
a(I548
g92
tp9028
a(I548
g92
tp9029
a(I548
g92
tp9030
a(I548
g92
tp9031
a(I548
g92
tp9032
a(I548
g92
tp9033
a(I548
g92
tp9034
a(I548
g92
tp9035
a(I548
g92
tp9036
a(I548
g92
tp9037
a(I548
g92
tp9038
a(I548
g92
tp9039
a(I548
g92
tp9040
a(I548
g92
tp9041
a(I548
g92
tp9042
a(I548
g92
tp9043
a(I548
g92
tp9044
a(I548
g92
tp9045
a(I548
g92
tp9046
a(I548
g92
tp9047
a(I548
g92
tp9048
a(I548
g92
tp9049
a(I548
g92
tp9050
a(I548
g92
tp9051
a(I548
g92
tp9052
a(I548
g92
tp9053
a(I548
g92
tp9054
a(I548
g92
tp9055
a(I548
g92
tp9056
a(I548
g92
tp9057
a(I548
g92
tp9058
a(I548
g92
tp9059
a(I548
g92
tp9060
a(I548
g92
tp9061
a(I548
g92
tp9062
a(I548
g92
tp9063
a(I548
g92
tp9064
a(I548
g92
tp9065
a(I548
g92
tp9066
a(I548
g92
tp9067
a(I548
g92
tp9068
a(I548
g92
tp9069
a(I548
g92
tp9070
a(I548
g92
tp9071
a(I548
g92
tp9072
a(I548
g92
tp9073
a(I548
g92
tp9074
a(I548
g92
tp9075
a(I548
g92
tp9076
a(I548
g92
tp9077
a(I548
g92
tp9078
a(I548
g92
tp9079
a(I548
g92
tp9080
a(I548
g92
tp9081
a(I548
g92
tp9082
a(I548
g92
tp9083
a(I548
g92
tp9084
a(I548
g92
tp9085
a(I548
g92
tp9086
a(I548
g92
tp9087
a(I548
g92
tp9088
a(I548
g92
tp9089
a(I548
g92
tp9090
a(I548
g92
tp9091
a(I548
g92
tp9092
a(I548
g92
tp9093
a(I548
g92
tp9094
a(I548
g92
tp9095
a(I548
g92
tp9096
a(I548
g92
tp9097
a(I548
g92
tp9098
a(I548
g92
tp9099
a(I548
g92
tp9100
a(I548
g92
tp9101
a(I548
g92
tp9102
a(I548
g92
tp9103
a(I548
g92
tp9104
a(I548
g92
tp9105
a(I548
g92
tp9106
a(I548
g92
tp9107
a(I548
g92
tp9108
a(I548
g92
tp9109
a(I548
g92
tp9110
a(I548
g92
tp9111
a(I548
g92
tp9112
a(I548
g92
tp9113
a(I548
g92
tp9114
a(I548
g92
tp9115
a(I548
g92
tp9116
a(I548
g92
tp9117
a(I548
g92
tp9118
a(I548
g92
tp9119
a(I548
g92
tp9120
a(I548
g92
tp9121
a(I548
g92
tp9122
a(I548
g92
tp9123
a(I548
g92
tp9124
a(I548
g92
tp9125
a(I548
g92
tp9126
a(I548
g92
tp9127
a(I548
g92
tp9128
a(I548
g92
tp9129
a(I548
g92
tp9130
a(I548
g92
tp9131
a(I548
g92
tp9132
a(I548
g92
tp9133
a(I548
g92
tp9134
a(I548
g92
tp9135
a(I548
g92
tp9136
a(I548
g92
tp9137
a(I548
g92
tp9138
a(I548
g92
tp9139
a(I548
g92
tp9140
a(I548
g92
tp9141
a(I548
g92
tp9142
a(I548
g92
tp9143
a(I548
g92
tp9144
a(I548
g92
tp9145
a(I548
g92
tp9146
a(I548
g92
tp9147
a(I548
g92
tp9148
a(I548
g92
tp9149
a(I548
g92
tp9150
a(I548
g92
tp9151
a(I548
g92
tp9152
a(I548
g92
tp9153
a(I548
g92
tp9154
a(I548
g92
tp9155
a(I548
g92
tp9156
a(I548
g92
tp9157
a(I548
g92
tp9158
a(I548
g92
tp9159
a(I548
g92
tp9160
a(I548
g92
tp9161
a(I548
g92
tp9162
a(I548
g92
tp9163
a(I548
g92
tp9164
a(I548
g92
tp9165
a(I548
g92
tp9166
a(I548
g92
tp9167
a(I548
g92
tp9168
a(I548
g92
tp9169
a(I548
g92
tp9170
a(I548
g92
tp9171
a(I548
g92
tp9172
a(I548
g92
tp9173
a(I548
g92
tp9174
a(I548
g92
tp9175
a(I548
g92
tp9176
a(I548
g92
tp9177
a(I548
g92
tp9178
a(I548
g92
tp9179
a(I548
g92
tp9180
a(I548
g92
tp9181
a(I548
g92
tp9182
a(I548
g92
tp9183
a(I548
g92
tp9184
a(I548
g92
tp9185
a(I548
g92
tp9186
a(I548
g92
tp9187
a(I548
g92
tp9188
a(I548
g92
tp9189
a(I548
g92
tp9190
a(I548
g92
tp9191
a(I548
g92
tp9192
a(I548
g92
tp9193
a(I548
g92
tp9194
a(I548
g92
tp9195
a(I548
g92
tp9196
a(I548
g92
tp9197
a(I548
g92
tp9198
a(I548
g92
tp9199
a(I548
g92
tp9200
a(I548
g92
tp9201
a(I548
g92
tp9202
a(I548
g92
tp9203
a(I548
g92
tp9204
a(I548
g92
tp9205
a(I548
g92
tp9206
a(I548
g92
tp9207
a(I548
g92
tp9208
a(I548
g92
tp9209
a(I548
g92
tp9210
a(I548
g92
tp9211
a(I548
g92
tp9212
a(I548
g92
tp9213
a(I548
g92
tp9214
a(I548
g92
tp9215
a(I548
g92
tp9216
a(I548
g92
tp9217
a(I548
g92
tp9218
a(I548
g92
tp9219
a(I548
g92
tp9220
a(I548
g92
tp9221
a(I548
g92
tp9222
a(I548
g92
tp9223
a(I548
g92
tp9224
a(I548
g92
tp9225
a(I548
g92
tp9226
a(I548
g92
tp9227
a(I548
g92
tp9228
a(I548
g92
tp9229
a(I548
g92
tp9230
a(I548
g92
tp9231
a(I548
g92
tp9232
a(I548
g92
tp9233
a(I548
g92
tp9234
a(I548
g92
tp9235
a(I548
g92
tp9236
a(I548
g92
tp9237
a(I548
g92
tp9238
a(I548
g92
tp9239
a(I548
g92
tp9240
a(I548
g92
tp9241
a(I548
g92
tp9242
a(I548
g92
tp9243
a(I548
g92
tp9244
a(I548
g92
tp9245
a(I548
g92
tp9246
a(I548
g92
tp9247
a(I548
g92
tp9248
a(I548
g92
tp9249
a(I548
g92
tp9250
a(I548
g92
tp9251
a(I548
g92
tp9252
a(I548
g92
tp9253
a(I548
g92
tp9254
a(I548
g92
tp9255
a(I548
g92
tp9256
a(I548
g92
tp9257
a(I548
g92
tp9258
a(I548
g92
tp9259
a(I548
g92
tp9260
a(I548
g92
tp9261
a(I548
g92
tp9262
a(I548
g92
tp9263
a(I548
g92
tp9264
a(I548
g92
tp9265
a(I548
g92
tp9266
a(I548
g92
tp9267
a(I548
g92
tp9268
a(I548
g92
tp9269
a(I548
g92
tp9270
a(I548
g92
tp9271
a(I548
g92
tp9272
a(I548
g92
tp9273
a(I548
g92
tp9274
a(I548
g92
tp9275
a(I548
g92
tp9276
a(I548
g92
tp9277
a(I548
g92
tp9278
a(I548
g92
tp9279
a(I548
g92
tp9280
a(I548
g92
tp9281
a(I548
g92
tp9282
a(I548
g92
tp9283
a(I548
g92
tp9284
a(I548
g92
tp9285
a(I548
g92
tp9286
a(I548
g92
tp9287
a(I548
g92
tp9288
a(I548
g92
tp9289
a(I548
g92
tp9290
a(I548
g92
tp9291
a(I548
g92
tp9292
a(I548
g92
tp9293
a(I548
g92
tp9294
a(I548
g92
tp9295
a(I548
g92
tp9296
a(I548
g92
tp9297
a(I548
g92
tp9298
a(I548
g92
tp9299
a(I548
g92
tp9300
a(I548
g92
tp9301
a(I548
g92
tp9302
a(I548
g92
tp9303
a(I548
g92
tp9304
a(I548
g92
tp9305
a(I548
g92
tp9306
a(I548
g92
tp9307
a(I548
g92
tp9308
a(I548
g92
tp9309
a(I548
g92
tp9310
a(I548
g92
tp9311
a(I548
g92
tp9312
a(I548
g92
tp9313
a(I548
g92
tp9314
a(I548
g92
tp9315
a(I548
g92
tp9316
a(I548
g92
tp9317
a(I548
g92
tp9318
a(I548
g92
tp9319
a(I548
g92
tp9320
a(I548
g92
tp9321
a(I548
g92
tp9322
a(I548
g92
tp9323
a(I548
g92
tp9324
a(I548
g92
tp9325
a(I548
g92
tp9326
a(I548
g92
tp9327
a(I548
g92
tp9328
a(I548
g92
tp9329
a(I548
g92
tp9330
a(I548
g92
tp9331
a(I548
g92
tp9332
a(I548
g92
tp9333
a(I548
g92
tp9334
a(I548
g92
tp9335
a(I548
g92
tp9336
a(I548
g92
tp9337
a(I548
g92
tp9338
a(I548
g92
tp9339
a(I548
g92
tp9340
a(I548
g92
tp9341
a(I548
g92
tp9342
a(I548
g92
tp9343
a(I548
g92
tp9344
a(I548
g92
tp9345
a(I548
g92
tp9346
a(I548
g92
tp9347
a(I548
g92
tp9348
a(I548
g92
tp9349
a(I548
g92
tp9350
a(I548
g92
tp9351
a(I548
g92
tp9352
a(I548
g92
tp9353
a(I548
g92
tp9354
a(I548
g92
tp9355
a(I548
g92
tp9356
a(I548
g92
tp9357
a(I548
g92
tp9358
a(I548
g92
tp9359
a(I548
g92
tp9360
a(I548
g92
tp9361
a(I548
g92
tp9362
a(I548
g92
tp9363
a(I548
g92
tp9364
a(I548
g92
tp9365
a(I548
g92
tp9366
a(I548
g92
tp9367
a(I548
g92
tp9368
a(I548
g92
tp9369
a(I548
g92
tp9370
a(I548
g92
tp9371
a(I548
g92
tp9372
a(I548
g92
tp9373
a(I548
g92
tp9374
a(I548
g92
tp9375
a(I548
g92
tp9376
a(I548
g92
tp9377
a(I548
g92
tp9378
a(I548
g92
tp9379
a(I548
g92
tp9380
a(I548
g92
tp9381
a(I548
g92
tp9382
a(I548
g92
tp9383
a(I548
g92
tp9384
a(I548
g92
tp9385
a(I548
g92
tp9386
a(I548
g92
tp9387
a(I548
g92
tp9388
a(I548
g92
tp9389
a(I548
g92
tp9390
a(I548
g92
tp9391
a(I548
g92
tp9392
a(I548
g92
tp9393
a(I548
g92
tp9394
a(I548
g92
tp9395
a(I548
g92
tp9396
a(I548
g92
tp9397
a(I548
g92
tp9398
a(I548
g92
tp9399
a(I548
g92
tp9400
a(I548
g92
tp9401
a(I548
g92
tp9402
a(I548
g92
tp9403
a(I548
g92
tp9404
a(I548
g92
tp9405
a(I548
g92
tp9406
a(I548
g92
tp9407
a(I548
g92
tp9408
a(I548
g92
tp9409
a(I548
g92
tp9410
a(I548
g92
tp9411
a(I548
g92
tp9412
a(I548
g92
tp9413
a(I548
g92
tp9414
a(I548
g92
tp9415
a(I548
g92
tp9416
a(I548
g92
tp9417
a(I548
g92
tp9418
a(I548
g92
tp9419
a(I548
g92
tp9420
a(I548
g92
tp9421
a(I548
g92
tp9422
a(I548
g92
tp9423
a(I548
g92
tp9424
a(I548
g92
tp9425
a(I548
g92
tp9426
a(I548
g92
tp9427
a(I548
g92
tp9428
a(I548
g92
tp9429
a(I548
g92
tp9430
a(I548
g92
tp9431
a(I548
g92
tp9432
a(I548
g92
tp9433
a(I548
g92
tp9434
a(I548
g92
tp9435
a(I548
g92
tp9436
a(I548
g92
tp9437
a(I548
g92
tp9438
a(I548
g92
tp9439
a(I548
g92
tp9440
a(I548
g92
tp9441
a(I548
g92
tp9442
a(I548
g92
tp9443
a(I548
g92
tp9444
a(I548
g92
tp9445
a(I548
g92
tp9446
a(I548
g92
tp9447
a(I548
g92
tp9448
a(I548
g92
tp9449
a(I548
g92
tp9450
a(I548
g92
tp9451
a(I548
g92
tp9452
a(I548
g92
tp9453
a(I548
g92
tp9454
a(I548
g92
tp9455
a(I548
g92
tp9456
a(I548
g92
tp9457
a(I548
g92
tp9458
a(I548
g92
tp9459
a(I548
g92
tp9460
a(I548
g92
tp9461
a(I548
g92
tp9462
a(I548
g92
tp9463
a(I548
g92
tp9464
a(I548
g92
tp9465
a(I548
g92
tp9466
a(I548
g92
tp9467
a(I548
g92
tp9468
a(I548
g92
tp9469
a(I548
g92
tp9470
a(I548
g92
tp9471
a(I548
g92
tp9472
a(I548
g92
tp9473
a(I548
g92
tp9474
a(I548
g92
tp9475
a(I548
g92
tp9476
a(I548
g92
tp9477
a(I548
g92
tp9478
a(I548
g92
tp9479
a(I548
g92
tp9480
a(I548
g92
tp9481
a(I548
g92
tp9482
a(I548
g92
tp9483
a(I548
g92
tp9484
a(I548
g92
tp9485
a(I548
g92
tp9486
a(I548
g92
tp9487
a(I548
g92
tp9488
a(I548
g92
tp9489
a(I548
g92
tp9490
a(I548
g92
tp9491
a(I548
g92
tp9492
a(I548
g92
tp9493
a(I548
g92
tp9494
a(I548
g92
tp9495
a(I548
g92
tp9496
a(I548
g92
tp9497
a(I548
g92
tp9498
a(I548
g92
tp9499
a(I548
g92
tp9500
a(I548
g92
tp9501
a(I548
g92
tp9502
a(I548
g92
tp9503
a(I548
g92
tp9504
a(I548
g92
tp9505
a(I548
g92
tp9506
a(I548
g92
tp9507
a(I548
g92
tp9508
a(I548
g92
tp9509
a(I548
g92
tp9510
a(I548
g92
tp9511
a(I548
g92
tp9512
a(I548
g92
tp9513
a(I548
g92
tp9514
a(I548
g92
tp9515
a(I548
g92
tp9516
a(I548
g92
tp9517
a(I548
g92
tp9518
a(I548
g92
tp9519
a(I548
g92
tp9520
a(I548
g92
tp9521
a(I548
g92
tp9522
a(I548
g92
tp9523
a(I548
g92
tp9524
a(I548
g92
tp9525
a(I548
g92
tp9526
a(I548
g92
tp9527
a(I548
g92
tp9528
a(I548
g92
tp9529
a(I548
g92
tp9530
a(I548
g92
tp9531
a(I548
g92
tp9532
a(I548
g92
tp9533
a(I548
g92
tp9534
a(I548
g92
tp9535
a(I548
g92
tp9536
a(I548
g92
tp9537
a(I548
g92
tp9538
a(I548
g92
tp9539
a(I548
g92
tp9540
a(I548
g92
tp9541
a(I548
g92
tp9542
a(I548
g92
tp9543
a(I548
g92
tp9544
a(I548
g92
tp9545
a(I548
g92
tp9546
a(I548
g92
tp9547
a(I548
g92
tp9548
a(I548
g92
tp9549
a(I548
g92
tp9550
a(I548
g92
tp9551
a(I548
g92
tp9552
a(I548
g92
tp9553
a(I548
g92
tp9554
a(I548
g92
tp9555
a(I548
g92
tp9556
a(I548
g92
tp9557
a(I548
g92
tp9558
a(I548
g92
tp9559
a(I548
g92
tp9560
a(I548
g92
tp9561
a(I548
g92
tp9562
a(I548
g92
tp9563
a(I548
g92
tp9564
a(I548
g92
tp9565
a(I548
g92
tp9566
a(I548
g92
tp9567
a(I548
g92
tp9568
a(I548
g92
tp9569
a(I548
g92
tp9570
a(I548
g92
tp9571
a(I548
g92
tp9572
a(I548
g92
tp9573
a(I548
g92
tp9574
a(I548
g92
tp9575
a(I548
g92
tp9576
a(I548
g92
tp9577
a(I548
g92
tp9578
a(I548
g92
tp9579
a(I548
g92
tp9580
a(I548
g92
tp9581
a(I548
g92
tp9582
a(I548
g92
tp9583
a(I548
g92
tp9584
a(I548
g92
tp9585
a(I548
g92
tp9586
a(I548
g92
tp9587
a(I548
g92
tp9588
a(I548
g92
tp9589
a(I548
g92
tp9590
a(I548
g92
tp9591
a(I548
g92
tp9592
a(I548
g92
tp9593
a(I548
g92
tp9594
a(I548
g92
tp9595
a(I548
g92
tp9596
a(I548
g92
tp9597
a(I548
g92
tp9598
a(I548
g92
tp9599
a(I548
g92
tp9600
a(I548
g92
tp9601
a(I548
g92
tp9602
a(I548
g92
tp9603
a(I548
g92
tp9604
a(I548
g92
tp9605
a(I548
g92
tp9606
a(I548
g92
tp9607
a(I548
g92
tp9608
a(I548
g92
tp9609
a(I548
g92
tp9610
a(I548
g92
tp9611
a(I548
g92
tp9612
a(I548
g92
tp9613
a(I548
g92
tp9614
a(I548
g92
tp9615
a(I548
g92
tp9616
a(I548
g92
tp9617
a(I548
g92
tp9618
a(I548
g92
tp9619
a(I548
g92
tp9620
a(I548
g92
tp9621
a(I548
g92
tp9622
a(I548
g92
tp9623
a(I548
g92
tp9624
a(I548
g92
tp9625
a(I548
g92
tp9626
a(I548
g92
tp9627
a(I548
g92
tp9628
a(I548
g92
tp9629
a(I548
g92
tp9630
a(I548
g92
tp9631
a(I548
g92
tp9632
a(I548
g92
tp9633
a(I548
g92
tp9634
a(I548
g92
tp9635
a(I548
g92
tp9636
a(I548
g92
tp9637
a(I548
g92
tp9638
a(I548
g92
tp9639
a(I548
g92
tp9640
a(I548
g92
tp9641
a(I548
g92
tp9642
a(I548
g92
tp9643
a(I548
g92
tp9644
a(I548
g92
tp9645
a(I548
g92
tp9646
a(I548
g92
tp9647
a(I548
g92
tp9648
a(I548
g92
tp9649
a(I548
g92
tp9650
a(I548
g92
tp9651
a(I548
g92
tp9652
a(I548
g92
tp9653
a(I548
g92
tp9654
a(I548
g92
tp9655
a(I548
g92
tp9656
a(I548
g92
tp9657
a(I548
g92
tp9658
a(I548
g92
tp9659
a(I548
g92
tp9660
a(I548
g92
tp9661
a(I548
g92
tp9662
a(I548
g92
tp9663
a(I548
g92
tp9664
a(I548
g92
tp9665
a(I548
g92
tp9666
a(I548
g92
tp9667
a(I548
g92
tp9668
a(I548
g92
tp9669
a(I548
g92
tp9670
a(I548
g92
tp9671
a(I548
g92
tp9672
a(I548
g92
tp9673
a(I548
g92
tp9674
a(I548
g92
tp9675
a(I548
g92
tp9676
a(I548
g92
tp9677
a(I548
g92
tp9678
a(I548
g92
tp9679
a(I548
g92
tp9680
a(I548
g92
tp9681
a(I548
g92
tp9682
a(I548
g92
tp9683
a(I548
g92
tp9684
a(I548
g92
tp9685
a(I548
g92
tp9686
a(I548
g92
tp9687
a(I548
g92
tp9688
a(I548
g92
tp9689
a(I548
g92
tp9690
a(I548
g92
tp9691
a(I548
g92
tp9692
a(I548
g92
tp9693
a(I548
g92
tp9694
a(I548
g92
tp9695
a(I548
g92
tp9696
a(I548
g92
tp9697
a(I548
g92
tp9698
a(I548
g92
tp9699
a(I548
g92
tp9700
a(I548
g92
tp9701
a(I548
g92
tp9702
a(I548
g92
tp9703
a(I548
g92
tp9704
a(I548
g92
tp9705
a(I548
g92
tp9706
a(I548
g92
tp9707
a(I548
g92
tp9708
a(I548
g92
tp9709
a(I548
g92
tp9710
a(I548
g92
tp9711
a(I548
g92
tp9712
a(I548
g92
tp9713
a(I548
g92
tp9714
a(I548
g92
tp9715
a(I548
g92
tp9716
a(I548
g92
tp9717
a(I548
g92
tp9718
a(I548
g92
tp9719
a(I548
g92
tp9720
a(I548
g92
tp9721
a(I548
g92
tp9722
a(I548
g92
tp9723
a(I548
g92
tp9724
a(I548
g92
tp9725
a(I548
g92
tp9726
a(I548
g92
tp9727
a(I548
g92
tp9728
a(I548
g92
tp9729
a(I548
g92
tp9730
a(I548
g92
tp9731
a(I548
g92
tp9732
a(I548
g92
tp9733
a(I548
g92
tp9734
a(I548
g92
tp9735
a(I548
g92
tp9736
a(I548
g92
tp9737
a(I548
g92
tp9738
a(I548
g92
tp9739
a(I548
g92
tp9740
a(I548
g92
tp9741
a(I548
g92
tp9742
a(I548
g92
tp9743
a(I548
g92
tp9744
a(I548
g92
tp9745
a(I548
g92
tp9746
a(I548
g92
tp9747
a(I548
g92
tp9748
a(I548
g92
tp9749
a(I548
g92
tp9750
a(I548
g92
tp9751
a(I548
g92
tp9752
a(I548
g92
tp9753
a(I548
g92
tp9754
a(I548
g92
tp9755
a(I548
g92
tp9756
a(I548
g92
tp9757
a(I548
g92
tp9758
a(I548
g92
tp9759
a(I548
g92
tp9760
a(I548
g92
tp9761
a(I548
g92
tp9762
a(I548
g92
tp9763
a(I548
g92
tp9764
a(I548
g92
tp9765
a(I548
g92
tp9766
a(I548
g92
tp9767
a(I548
g92
tp9768
a(I548
g92
tp9769
a(I548
g92
tp9770
a(I548
g92
tp9771
a(I548
g92
tp9772
a(I548
g92
tp9773
a(I548
g92
tp9774
a(I548
g92
tp9775
a(I548
g92
tp9776
a(I548
g92
tp9777
a(I548
g92
tp9778
a(I548
g92
tp9779
a(I548
g92
tp9780
a(I548
g92
tp9781
a(I548
g92
tp9782
a(I548
g92
tp9783
a(I548
g92
tp9784
a(I548
g92
tp9785
a(I548
g92
tp9786
a(I548
g92
tp9787
a(I548
g92
tp9788
a(I548
g92
tp9789
a(I548
g92
tp9790
a(I548
g92
tp9791
a(I548
g92
tp9792
a(I548
g92
tp9793
a(I548
g92
tp9794
a(I548
g92
tp9795
a(I548
g92
tp9796
a(I548
g92
tp9797
a(I548
g92
tp9798
a(I548
g92
tp9799
a(I548
g92
tp9800
a(I548
g92
tp9801
a(I548
g92
tp9802
a(I548
g92
tp9803
a(I548
g92
tp9804
a(I548
g92
tp9805
a(I548
g92
tp9806
a(I548
g92
tp9807
a(I548
g92
tp9808
a(I548
g92
tp9809
a(I548
g92
tp9810
a(I548
g92
tp9811
a(I548
g92
tp9812
a(I548
g92
tp9813
a(I548
g92
tp9814
a(I548
g92
tp9815
a(I548
g92
tp9816
a(I548
g92
tp9817
a(I548
g92
tp9818
a(I548
g92
tp9819
a(I548
g92
tp9820
a(I548
g92
tp9821
a(I548
g92
tp9822
a(I548
g92
tp9823
a(I548
g92
tp9824
a(I548
g92
tp9825
a(I548
g92
tp9826
a(I548
g92
tp9827
a(I548
g92
tp9828
a(I548
g92
tp9829
a(I548
g92
tp9830
a(I548
g92
tp9831
a(I548
g92
tp9832
a(I548
g92
tp9833
a(I548
g92
tp9834
a(I548
g92
tp9835
a(I548
g92
tp9836
a(I548
g92
tp9837
a(I548
g92
tp9838
a(I548
g92
tp9839
a(I548
g92
tp9840
a(I548
g92
tp9841
a(I548
g92
tp9842
a(I548
g92
tp9843
a(I548
g92
tp9844
a(I548
g92
tp9845
a(I548
g92
tp9846
a(I548
g92
tp9847
a(I548
g92
tp9848
a(I548
g92
tp9849
a(I548
g92
tp9850
a(I548
g92
tp9851
a(I548
g92
tp9852
a(I548
g92
tp9853
a(I548
g92
tp9854
a(I548
g92
tp9855
a(I548
g92
tp9856
a(I548
g92
tp9857
a(I548
g92
tp9858
a(I548
g92
tp9859
a(I548
g92
tp9860
a(I548
g92
tp9861
a(I548
g92
tp9862
a(I548
g92
tp9863
a(I548
g92
tp9864
a(I548
g92
tp9865
a(I548
g92
tp9866
a(I548
g92
tp9867
a(I548
g92
tp9868
a(I548
g92
tp9869
a(I548
g92
tp9870
a(I548
g92
tp9871
a(I548
g92
tp9872
a(I548
g92
tp9873
a(I548
g92
tp9874
a(I548
g92
tp9875
a(I548
g92
tp9876
a(I548
g92
tp9877
a(I548
g92
tp9878
a(I548
g92
tp9879
a(I548
g92
tp9880
a(I548
g92
tp9881
a(I548
g92
tp9882
a(I548
g92
tp9883
a(I548
g92
tp9884
a(I548
g92
tp9885
a(I548
g92
tp9886
a(I548
g92
tp9887
a(I548
g92
tp9888
a(I548
g92
tp9889
a(I548
g92
tp9890
a(I548
g92
tp9891
a(I548
g92
tp9892
a(I548
g92
tp9893
a(I548
g92
tp9894
a(I548
g92
tp9895
a(I548
g92
tp9896
a(I548
g92
tp9897
a(I548
g92
tp9898
a(I548
g92
tp9899
a(I548
g92
tp9900
a(I548
g92
tp9901
a(I548
g92
tp9902
a(I548
g92
tp9903
a(I548
g92
tp9904
a(I548
g92
tp9905
a(I548
g92
tp9906
a(I548
g92
tp9907
a(I548
g92
tp9908
a(I548
g92
tp9909
a(I548
g92
tp9910
a(I548
g92
tp9911
a.