(lp0
(istructures.sensor
Sensor
p1
(dp2
S'rhs'
p3
(istructures.sensor
Sensor
p4
(dp5
g3
(istructures.sensor
Sensor
p6
(dp7
g3
(istructures.sensor
Sensor
p8
(dp9
g3
NsS'lhs'
p10
S'ready-to-load-goods3-market1-level1'
p11
sS'op'
p12
Nsbsg10
(istructures.sensor
Sensor
p13
(dp14
g3
Nsg10
S'on-sale-goods3-market1-level1'
p15
sg12
Nsbsg12
S'^'
p16
sbsg10
(istructures.sensor
Sensor
p17
(dp18
g3
Nsg10
(S'ready-to-load-goods1-market1-level1'
p19
tp20
sg12
Nsbsg12
g16
sbsg10
(istructures.sensor
Sensor
p21
(dp22
g3
Nsg10
(S'ready-to-load-goods2-market1-level0'
p23
tp24
sg12
Nsbsg12
I8
sba(istructures.sensor
Sensor
p25
(dp26
g3
(istructures.sensor
Sensor
p27
(dp28
g3
(istructures.sensor
Sensor
p29
(dp30
g3
(istructures.sensor
Sensor
p31
(dp32
g3
Nsg10
S'stored-goods2-level0'
p33
sg12
Nsbsg10
(istructures.sensor
Sensor
p34
(dp35
g3
Nsg10
S'stored-goods2-level1'
p36
sg12
Nsbsg12
g16
sbsg10
(istructures.sensor
Sensor
p37
(dp38
g3
(istructures.sensor
Sensor
p39
(dp40
g3
Nsg10
S'on-sale-goods2-market1-level1'
p41
sg12
Nsbsg10
(istructures.sensor
Sensor
p42
(dp43
g3
Nsg10
S'stored-goods3-level0'
p44
sg12
Nsbsg12
g16
sbsg12
g16
sbsg10
(istructures.sensor
Sensor
p45
(dp46
g3
Nsg10
(istructures.sensor
Sensor
p47
(dp48
g3
Nsg10
(S'loaded-goods2-truck1-level1'
p49
tp50
sg12
Nsbsg12
S'-'
p51
sbsg12
S'v'
p52
sba(istructures.sensor
Sensor
p53
(dp54
g3
(istructures.sensor
Sensor
p55
(dp56
g3
(istructures.sensor
Sensor
p57
(dp58
g3
(istructures.sensor
Sensor
p59
(dp60
g3
Nsg10
S'at-truck1-market1'
p61
sg12
Nsbsg10
(istructures.sensor
Sensor
p62
(dp63
g3
Nsg10
S'at-truck1-depot1'
p64
sg12
Nsbsg12
g16
sbsg10
(istructures.sensor
Sensor
p65
(dp66
g3
(istructures.sensor
Sensor
p67
(dp68
g3
Nsg10
g44
sg12
Nsbsg10
(istructures.sensor
Sensor
p69
(dp70
g3
Nsg10
g15
sg12
Nsbsg12
I8
sbsg12
g16
sbsg10
(istructures.sensor
Sensor
p71
(dp72
g3
(istructures.sensor
Sensor
p73
(dp74
g3
(istructures.sensor
Sensor
p75
(dp76
g3
Nsg10
g15
sg12
Nsbsg10
(istructures.sensor
Sensor
p77
(dp78
g3
Nsg10
S'loaded-goods2-truck1-level0'
p79
sg12
Nsbsg12
g16
sbsg10
(istructures.sensor
Sensor
p80
(dp81
g3
Nsg10
(istructures.sensor
Sensor
p82
(dp83
g3
Nsg10
S'ready-to-load-goods3-market1-level0'
p84
sg12
Nsbsg12
g51
sbsg12
g52
sbsg12
g52
sba(istructures.sensor
Sensor
p85
(dp86
g3
Nsg10
(g84
tp87
sg12
Nsba(istructures.sensor
Sensor
p88
(dp89
g3
Nsg10
(g11
tp90
sg12
Nsba(istructures.sensor
Sensor
p91
(dp92
g3
Nsg10
(istructures.sensor
Sensor
p93
(dp94
g3
(istructures.sensor
Sensor
p95
(dp96
g3
Nsg10
(istructures.sensor
Sensor
p97
(dp98
g3
Nsg10
S'ready-to-load-goods2-market1-level1'
p99
sg12
Nsbsg12
g51
sbsg10
(istructures.sensor
Sensor
p100
(dp101
g3
(istructures.sensor
Sensor
p102
(dp103
g3
Nsg10
S'on-sale-goods3-market1-level0'
p104
sg12
Nsbsg10
(istructures.sensor
Sensor
p105
(dp106
g3
Nsg10
g49
sg12
Nsbsg12
g16
sbsg12
g52
sbsg12
g51
sba(istructures.sensor
Sensor
p107
(dp108
g3
Nsg10
(istructures.sensor
Sensor
p109
(dp110
g3
Nsg10
(g33
tp111
sg12
Nsbsg12
g51
sba(istructures.sensor
Sensor
p112
(dp113
g3
Nsg10
(g44
tp114
sg12
Nsba(istructures.sensor
Sensor
p115
(dp116
g3
Nsg10
(istructures.sensor
Sensor
p117
(dp118
g3
Nsg10
(g79
tp119
sg12
Nsbsg12
g51
sba(istructures.sensor
Sensor
p120
(dp121
g3
(istructures.sensor
Sensor
p122
(dp123
g3
(istructures.sensor
Sensor
p124
(dp125
g3
(istructures.sensor
Sensor
p126
(dp127
g3
Nsg10
g15
sg12
Nsbsg10
(istructures.sensor
Sensor
p128
(dp129
g3
Nsg10
S'on-sale-goods1-market1-level1'
p130
sg12
Nsbsg12
I7
sbsg10
(istructures.sensor
Sensor
p131
(dp132
g3
(istructures.sensor
Sensor
p133
(dp134
g3
Nsg10
g23
sg12
Nsbsg10
(istructures.sensor
Sensor
p135
(dp136
g3
Nsg10
g19
sg12
Nsbsg12
I4
sbsg12
g52
sbsg10
(istructures.sensor
Sensor
p137
(dp138
g3
Nsg10
(g104
tp139
sg12
Nsbsg12
I2
sba(istructures.sensor
Sensor
p140
(dp141
g3
(istructures.sensor
Sensor
p142
(dp143
g3
(istructures.sensor
Sensor
p144
(dp145
g3
(istructures.sensor
Sensor
p146
(dp147
g3
Nsg10
g11
sg12
Nsbsg10
(istructures.sensor
Sensor
p148
(dp149
g3
Nsg10
g33
sg12
Nsbsg12
g52
sbsg10
(istructures.sensor
Sensor
p150
(dp151
g3
Nsg10
(g61
tp152
sg12
Nsbsg12
g52
sbsg10
(istructures.sensor
Sensor
p153
(dp154
g3
Nsg10
(istructures.sensor
Sensor
p155
(dp156
g3
(istructures.sensor
Sensor
p157
(dp158
g3
Nsg10
g99
sg12
Nsbsg10
(istructures.sensor
Sensor
p159
(dp160
g3
Nsg10
g11
sg12
Nsbsg12
g16
sbsg12
g51
sbsg12
g16
sba(istructures.sensor
Sensor
p161
(dp162
g3
(istructures.sensor
Sensor
p163
(dp164
g3
(istructures.sensor
Sensor
p165
(dp166
g3
(istructures.sensor
Sensor
p167
(dp168
g3
Nsg10
g64
sg12
Nsbsg10
(istructures.sensor
Sensor
p169
(dp170
g3
Nsg10
g44
sg12
Nsbsg12
g16
sbsg10
(istructures.sensor
Sensor
p171
(dp172
g3
Nsg10
(S'stored-goods3-level1'
p173
tp174
sg12
Nsbsg12
g52
sbsg10
(istructures.sensor
Sensor
p175
(dp176
g3
Nsg10
(g15
tp177
sg12
Nsbsg12
g52
sba(istructures.sensor
Sensor
p178
(dp179
g3
Nsg10
(g44
tp180
sg12
Nsba(istructures.sensor
Sensor
p181
(dp182
g3
(istructures.sensor
Sensor
p183
(dp184
g3
(istructures.sensor
Sensor
p185
(dp186
g3
(istructures.sensor
Sensor
p187
(dp188
g3
Nsg10
g15
sg12
Nsbsg10
(istructures.sensor
Sensor
p189
(dp190
g3
Nsg10
S'loaded-goods3-truck1-level0'
p191
sg12
Nsbsg12
g16
sbsg10
(istructures.sensor
Sensor
p192
(dp193
g3
(istructures.sensor
Sensor
p194
(dp195
g3
Nsg10
g130
sg12
Nsbsg10
(istructures.sensor
Sensor
p196
(dp197
g3
Nsg10
g41
sg12
Nsbsg12
I7
sbsg12
g52
sbsg10
(istructures.sensor
Sensor
p198
(dp199
g3
(istructures.sensor
Sensor
p200
(dp201
g3
(istructures.sensor
Sensor
p202
(dp203
g3
Nsg10
g33
sg12
Nsbsg10
(istructures.sensor
Sensor
p204
(dp205
g3
Nsg10
S'ready-to-load-goods1-market1-level0'
p206
sg12
Nsbsg12
g16
sbsg10
(istructures.sensor
Sensor
p207
(dp208
g3
(istructures.sensor
Sensor
p209
(dp210
g3
Nsg10
g130
sg12
Nsbsg10
(istructures.sensor
Sensor
p211
(dp212
g3
Nsg10
S'on-sale-goods1-market1-level0'
p213
sg12
Nsbsg12
g52
sbsg12
g52
sbsg12
g52
sba(istructures.sensor
Sensor
p214
(dp215
g3
(istructures.sensor
Sensor
p216
(dp217
g3
(istructures.sensor
Sensor
p218
(dp219
g3
(istructures.sensor
Sensor
p220
(dp221
g3
Nsg10
S'loaded-goods3-truck1-level1'
p222
sg12
Nsbsg10
(istructures.sensor
Sensor
p223
(dp224
g3
Nsg10
g64
sg12
Nsbsg12
g52
sbsg10
(istructures.sensor
Sensor
p225
(dp226
g3
Nsg10
(g104
tp227
sg12
Nsbsg12
g16
sbsg10
(istructures.sensor
Sensor
p228
(dp229
g3
(istructures.sensor
Sensor
p230
(dp231
g3
Nsg10
(istructures.sensor
Sensor
p232
(dp233
g3
Nsg10
g130
sg12
Nsbsg12
g51
sbsg10
(istructures.sensor
Sensor
p234
(dp235
g3
Nsg10
(istructures.sensor
Sensor
p236
(dp237
g3
Nsg10
g61
sg12
Nsbsg12
g51
sbsg12
g16
sbsg12
I3
sba.