(lp0
(istructures.sensor
Sensor
p1
(dp2
S'rhs'
p3
(istructures.sensor
Sensor
p4
(dp5
g3
(istructures.sensor
Sensor
p6
(dp7
g3
(istructures.sensor
Sensor
p8
(dp9
g3
NsS'lhs'
p10
S'at_x3'
p11
sS'op'
p12
Nsbsg10
(istructures.sensor
Sensor
p13
(dp14
g3
Nsg10
S'at_x2'
p15
sg12
Nsbsg12
S'v'
p16
sbsg10
(istructures.sensor
Sensor
p17
(dp18
g3
Nsg10
(g11
tp19
sg12
Nsbsg12
g16
sbsg10
(istructures.sensor
Sensor
p20
(dp21
g3
(istructures.sensor
Sensor
p22
(dp23
g3
(istructures.sensor
Sensor
p24
(dp25
g3
Nsg10
g11
sg12
Nsbsg10
(istructures.sensor
Sensor
p26
(dp27
g3
Nsg10
S'at_y1'
p28
sg12
Nsbsg12
g16
sbsg10
(istructures.sensor
Sensor
p29
(dp30
g3
(istructures.sensor
Sensor
p31
(dp32
g3
Nsg10
S'at_x0'
p33
sg12
Nsbsg10
(istructures.sensor
Sensor
p34
(dp35
g3
Nsg10
g28
sg12
Nsbsg12
g16
sbsg12
S'^'
p36
sbsg12
g36
sba(istructures.sensor
Sensor
p37
(dp38
g3
Nsg10
(istructures.sensor
Sensor
p39
(dp40
g3
Nsg10
(g15
tp41
sg12
Nsbsg12
S'-'
p42
sba(istructures.sensor
Sensor
p43
(dp44
g3
(istructures.sensor
Sensor
p45
(dp46
g3
Nsg10
(g33
tp47
sg12
Nsbsg10
(istructures.sensor
Sensor
p48
(dp49
g3
(istructures.sensor
Sensor
p50
(dp51
g3
(istructures.sensor
Sensor
p52
(dp53
g3
Nsg10
S'at_x1'
p54
sg12
Nsbsg10
(istructures.sensor
Sensor
p55
(dp56
g3
Nsg10
g33
sg12
Nsbsg12
g36
sbsg10
(istructures.sensor
Sensor
p57
(dp58
g3
Nsg10
(S'holding_treasure_3'
p59
tp60
sg12
Nsbsg12
g36
sbsg12
I1
sba(istructures.sensor
Sensor
p61
(dp62
g3
(istructures.sensor
Sensor
p63
(dp64
g3
(istructures.sensor
Sensor
p65
(dp66
g3
(istructures.sensor
Sensor
p67
(dp68
g3
Nsg10
g15
sg12
Nsbsg10
(istructures.sensor
Sensor
p69
(dp70
g3
Nsg10
g28
sg12
Nsbsg12
g16
sbsg10
(istructures.sensor
Sensor
p71
(dp72
g3
(istructures.sensor
Sensor
p73
(dp74
g3
Nsg10
g11
sg12
Nsbsg10
(istructures.sensor
Sensor
p75
(dp76
g3
Nsg10
g59
sg12
Nsbsg12
I9
sbsg12
I4
sbsg10
(istructures.sensor
Sensor
p77
(dp78
g3
(istructures.sensor
Sensor
p79
(dp80
g3
Nsg10
(istructures.sensor
Sensor
p81
(dp82
g3
Nsg10
S'holding_treasure_2'
p83
sg12
Nsbsg12
g42
sbsg10
(istructures.sensor
Sensor
p84
(dp85
g3
(istructures.sensor
Sensor
p86
(dp87
g3
Nsg10
g15
sg12
Nsbsg10
(istructures.sensor
Sensor
p88
(dp89
g3
Nsg10
g83
sg12
Nsbsg12
g36
sbsg12
g16
sbsg12
I2
sba(istructures.sensor
Sensor
p90
(dp91
g3
Nsg10
(istructures.sensor
Sensor
p92
(dp93
g3
Nsg10
(g15
tp94
sg12
Nsbsg12
g42
sba(istructures.sensor
Sensor
p95
(dp96
g3
(istructures.sensor
Sensor
p97
(dp98
g3
Nsg10
(istructures.sensor
Sensor
p99
(dp100
g3
Nsg10
(istructures.sensor
Sensor
p101
(dp102
g3
Nsg10
g11
sg12
Nsbsg12
g42
sbsg12
g42
sbsg10
(istructures.sensor
Sensor
p103
(dp104
g3
Nsg10
(g15
tp105
sg12
Nsbsg12
I7
sba(istructures.sensor
Sensor
p106
(dp107
g3
Nsg10
(istructures.sensor
Sensor
p108
(dp109
g3
Nsg10
(g11
tp110
sg12
Nsbsg12
g42
sba(istructures.sensor
Sensor
p111
(dp112
g3
Nsg10
(g33
tp113
sg12
Nsba(istructures.sensor
Sensor
p114
(dp115
g3
Nsg10
(S'at_y2'
p116
tp117
sg12
Nsba(istructures.sensor
Sensor
p118
(dp119
g3
(istructures.sensor
Sensor
p120
(dp121
g3
Nsg10
(istructures.sensor
Sensor
p122
(dp123
g3
(istructures.sensor
Sensor
p124
(dp125
g3
Nsg10
S'holding_treasure_1'
p126
sg12
Nsbsg10
(istructures.sensor
Sensor
p127
(dp128
g3
Nsg10
g28
sg12
Nsbsg12
g36
sbsg12
g42
sbsg10
(istructures.sensor
Sensor
p129
(dp130
g3
Nsg10
(istructures.sensor
Sensor
p131
(dp132
g3
(istructures.sensor
Sensor
p133
(dp134
g3
Nsg10
g15
sg12
Nsbsg10
(istructures.sensor
Sensor
p135
(dp136
g3
Nsg10
g59
sg12
Nsbsg12
g36
sbsg12
g42
sbsg12
I6
sba(istructures.sensor
Sensor
p137
(dp138
g3
(istructures.sensor
Sensor
p139
(dp140
g3
Nsg10
(g54
tp141
sg12
Nsbsg10
(istructures.sensor
Sensor
p142
(dp143
g3
Nsg10
(istructures.sensor
Sensor
p144
(dp145
g3
(istructures.sensor
Sensor
p146
(dp147
g3
Nsg10
g83
sg12
Nsbsg10
(istructures.sensor
Sensor
p148
(dp149
g3
Nsg10
g54
sg12
Nsbsg12
g16
sbsg12
g42
sbsg12
I9
sba(istructures.sensor
Sensor
p150
(dp151
g3
Nsg10
(istructures.sensor
Sensor
p152
(dp153
g3
(istructures.sensor
Sensor
p154
(dp155
g3
(istructures.sensor
Sensor
p156
(dp157
g3
Nsg10
g15
sg12
Nsbsg10
(istructures.sensor
Sensor
p158
(dp159
g3
Nsg10
g126
sg12
Nsbsg12
I3
sbsg10
(istructures.sensor
Sensor
p160
(dp161
g3
(istructures.sensor
Sensor
p162
(dp163
g3
Nsg10
S'at_y0'
p164
sg12
Nsbsg10
(istructures.sensor
Sensor
p165
(dp166
g3
Nsg10
g164
sg12
Nsbsg12
I10
sbsg12
I9
sbsg12
g42
sba(istructures.sensor
Sensor
p167
(dp168
g3
(istructures.sensor
Sensor
p169
(dp170
g3
(istructures.sensor
Sensor
p171
(dp172
g3
(istructures.sensor
Sensor
p173
(dp174
g3
Nsg10
g28
sg12
Nsbsg10
(istructures.sensor
Sensor
p175
(dp176
g3
Nsg10
g164
sg12
Nsbsg12
I1
sbsg10
(istructures.sensor
Sensor
p177
(dp178
g3
Nsg10
(istructures.sensor
Sensor
p179
(dp180
g3
Nsg10
g126
sg12
Nsbsg12
g42
sbsg12
g16
sbsg10
(istructures.sensor
Sensor
p181
(dp182
g3
Nsg10
(g11
tp183
sg12
Nsbsg12
I3
sba(istructures.sensor
Sensor
p184
(dp185
g3
Nsg10
(g116
tp186
sg12
Nsba(istructures.sensor
Sensor
p187
(dp188
g3
(istructures.sensor
Sensor
p189
(dp190
g3
Nsg10
(istructures.sensor
Sensor
p191
(dp192
g3
Nsg10
(g126
tp193
sg12
Nsbsg12
g42
sbsg10
(istructures.sensor
Sensor
p194
(dp195
g3
Nsg10
(g59
tp196
sg12
Nsbsg12
I6
sba.