(lp0
(istructures.sensor
Sensor
p1
(dp2
S'rhs'
p3
NsS'lhs'
p4
(S'not-closed-sd5'
p5
tp6
sS'op'
p7
Nsba(istructures.sensor
Sensor
p8
(dp9
g3
Nsg4
(istructures.sensor
Sensor
p10
(dp11
g3
Nsg4
(istructures.sensor
Sensor
p12
(dp13
g3
Nsg4
(istructures.sensor
Sensor
p14
(dp15
g3
Nsg4
S'done-0'
p16
sg7
Nsbsg7
S'-'
p17
sbsg7
g17
sbsg7
g17
sba(istructures.sensor
Sensor
p18
(dp19
g3
Nsg4
(istructures.sensor
Sensor
p20
(dp21
g3
(istructures.sensor
Sensor
p22
(dp23
g3
Nsg4
(S'closed-sd1'
p24
tp25
sg7
Nsbsg4
(istructures.sensor
Sensor
p26
(dp27
g3
Nsg4
(S'do-close_sd3-condeffs'
p28
tp29
sg7
Nsbsg7
S'^'
p30
sbsg7
g17
sba(istructures.sensor
Sensor
p31
(dp32
g3
Nsg4
(istructures.sensor
Sensor
p33
(dp34
g3
Nsg4
(istructures.sensor
Sensor
p35
(dp36
g3
Nsg4
(istructures.sensor
Sensor
p37
(dp38
g3
Nsg4
S'not-closed-sd4'
p39
sg7
Nsbsg7
g17
sbsg7
g17
sbsg7
g17
sba(istructures.sensor
Sensor
p40
(dp41
g3
(istructures.sensor
Sensor
p42
(dp43
g3
(istructures.sensor
Sensor
p44
(dp45
g3
(istructures.sensor
Sensor
p46
(dp47
g3
Nsg4
S'not-closed-sd3'
p48
sg7
Nsbsg4
(istructures.sensor
Sensor
p49
(dp50
g3
Nsg4
g5
sg7
Nsbsg7
I7
sbsg4
(istructures.sensor
Sensor
p51
(dp52
g3
Nsg4
(istructures.sensor
Sensor
p53
(dp54
g3
Nsg4
S'not-closed-sd1'
p55
sg7
Nsbsg7
g17
sbsg7
g30
sbsg4
(istructures.sensor
Sensor
p56
(dp57
g3
Nsg4
(istructures.sensor
Sensor
p58
(dp59
g3
Nsg4
(istructures.sensor
Sensor
p60
(dp61
g3
Nsg4
g28
sg7
Nsbsg7
g17
sbsg7
g17
sbsg7
g30
sba(istructures.sensor
Sensor
p62
(dp63
g3
(istructures.sensor
Sensor
p64
(dp65
g3
(istructures.sensor
Sensor
p66
(dp67
g3
(istructures.sensor
Sensor
p68
(dp69
g3
Nsg4
g16
sg7
Nsbsg4
(istructures.sensor
Sensor
p70
(dp71
g3
Nsg4
S'do-close_sd4-condeffs'
p72
sg7
Nsbsg7
g30
sbsg4
(istructures.sensor
Sensor
p73
(dp74
g3
Nsg4
(g72
tp75
sg7
Nsbsg7
S'v'
p76
sbsg4
(istructures.sensor
Sensor
p77
(dp78
g3
(istructures.sensor
Sensor
p79
(dp80
g3
Nsg4
(istructures.sensor
Sensor
p81
(dp82
g3
Nsg4
S'closed-sd5'
p83
sg7
Nsbsg7
g17
sbsg4
(istructures.sensor
Sensor
p84
(dp85
g3
Nsg4
(istructures.sensor
Sensor
p86
(dp87
g3
Nsg4
S'do-wait_cb1-condeffs'
p88
sg7
Nsbsg7
g17
sbsg7
g76
sbsg7
g76
sba(istructures.sensor
Sensor
p89
(dp90
g3
(istructures.sensor
Sensor
p91
(dp92
g3
(istructures.sensor
Sensor
p93
(dp94
g3
(istructures.sensor
Sensor
p95
(dp96
g3
Nsg4
S'closed-sd3'
p97
sg7
Nsbsg4
(istructures.sensor
Sensor
p98
(dp99
g3
Nsg4
g55
sg7
Nsbsg7
g30
sbsg4
(istructures.sensor
Sensor
p100
(dp101
g3
(istructures.sensor
Sensor
p102
(dp103
g3
Nsg4
g28
sg7
Nsbsg4
(istructures.sensor
Sensor
p104
(dp105
g3
Nsg4
g39
sg7
Nsbsg7
g30
sbsg7
g76
sbsg4
(istructures.sensor
Sensor
p106
(dp107
g3
Nsg4
(g24
tp108
sg7
Nsbsg7
g30
sba(istructures.sensor
Sensor
p109
(dp110
g3
(istructures.sensor
Sensor
p111
(dp112
g3
Nsg4
(S'not-closed-sd2'
p113
tp114
sg7
Nsbsg4
(istructures.sensor
Sensor
p115
(dp116
g3
Nsg4
(g113
tp117
sg7
Nsbsg7
g30
sba(istructures.sensor
Sensor
p118
(dp119
g3
(istructures.sensor
Sensor
p120
(dp121
g3
(istructures.sensor
Sensor
p122
(dp123
g3
Nsg4
(g83
tp124
sg7
Nsbsg4
(istructures.sensor
Sensor
p125
(dp126
g3
Nsg4
(istructures.sensor
Sensor
p127
(dp128
g3
Nsg4
S'do-normal'
p129
sg7
Nsbsg7
g17
sbsg7
I1
sbsg4
(istructures.sensor
Sensor
p130
(dp131
g3
(istructures.sensor
Sensor
p132
(dp133
g3
Nsg4
(g83
tp134
sg7
Nsbsg4
(istructures.sensor
Sensor
p135
(dp136
g3
Nsg4
(g48
tp137
sg7
Nsbsg7
I7
sbsg7
g76
sba(istructures.sensor
Sensor
p138
(dp139
g3
(istructures.sensor
Sensor
p140
(dp141
g3
(istructures.sensor
Sensor
p142
(dp143
g3
(istructures.sensor
Sensor
p144
(dp145
g3
Nsg4
S'closed-sd2'
p146
sg7
Nsbsg4
(istructures.sensor
Sensor
p147
(dp148
g3
Nsg4
g55
sg7
Nsbsg7
g76
sbsg4
(istructures.sensor
Sensor
p149
(dp150
g3
Nsg4
(g16
tp151
sg7
Nsbsg7
g76
sbsg4
(istructures.sensor
Sensor
p152
(dp153
g3
(istructures.sensor
Sensor
p154
(dp155
g3
(istructures.sensor
Sensor
p156
(dp157
g3
Nsg4
S'closed-sd6'
p158
sg7
Nsbsg4
(istructures.sensor
Sensor
p159
(dp160
g3
Nsg4
g55
sg7
Nsbsg7
g76
sbsg4
(istructures.sensor
Sensor
p161
(dp162
g3
(istructures.sensor
Sensor
p163
(dp164
g3
Nsg4
g129
sg7
Nsbsg4
(istructures.sensor
Sensor
p165
(dp166
g3
Nsg4
g72
sg7
Nsbsg7
I7
sbsg7
I5
sbsg7
I1
sba(istructures.sensor
Sensor
p167
(dp168
g3
(istructures.sensor
Sensor
p169
(dp170
g3
(istructures.sensor
Sensor
p171
(dp172
g3
Nsg4
(istructures.sensor
Sensor
p173
(dp174
g3
Nsg4
S'updated-cb1'
p175
sg7
Nsbsg7
g17
sbsg4
(istructures.sensor
Sensor
p176
(dp177
g3
Nsg4
(g146
tp178
sg7
Nsbsg7
g76
sbsg4
(istructures.sensor
Sensor
p179
(dp180
g3
Nsg4
(g24
tp181
sg7
Nsbsg7
I6
sba(istructures.sensor
Sensor
p182
(dp183
g3
(istructures.sensor
Sensor
p184
(dp185
g3
(istructures.sensor
Sensor
p186
(dp187
g3
Nsg4
(istructures.sensor
Sensor
p188
(dp189
g3
Nsg4
g129
sg7
Nsbsg7
g17
sbsg4
(istructures.sensor
Sensor
p190
(dp191
g3
(istructures.sensor
Sensor
p192
(dp193
g3
Nsg4
S'not-closed-sd6'
p194
sg7
Nsbsg4
(istructures.sensor
Sensor
p195
(dp196
g3
Nsg4
g113
sg7
Nsbsg7
g30
sbsg7
g30
sbsg4
(istructures.sensor
Sensor
p197
(dp198
g3
Nsg4
(g39
tp199
sg7
Nsbsg7
g30
sba(istructures.sensor
Sensor
p200
(dp201
g3
(istructures.sensor
Sensor
p202
(dp203
g3
(istructures.sensor
Sensor
p204
(dp205
g3
Nsg4
(istructures.sensor
Sensor
p206
(dp207
g3
Nsg4
g39
sg7
Nsbsg7
g17
sbsg4
(istructures.sensor
Sensor
p208
(dp209
g3
Nsg4
(S'do-close_sd5-condeffs'
p210
tp211
sg7
Nsbsg7
g76
sbsg4
(istructures.sensor
Sensor
p212
(dp213
g3
(istructures.sensor
Sensor
p214
(dp215
g3
(istructures.sensor
Sensor
p216
(dp217
g3
Nsg4
g210
sg7
Nsbsg4
(istructures.sensor
Sensor
p218
(dp219
g3
Nsg4
S'closed-cb1'
p220
sg7
Nsbsg7
g76
sbsg4
(istructures.sensor
Sensor
p221
(dp222
g3
(istructures.sensor
Sensor
p223
(dp224
g3
Nsg4
g220
sg7
Nsbsg4
(istructures.sensor
Sensor
p225
(dp226
g3
Nsg4
g194
sg7
Nsbsg7
g30
sbsg7
g30
sbsg7
g30
sba(istructures.sensor
Sensor
p227
(dp228
g3
Nsg4
(istructures.sensor
Sensor
p229
(dp230
g3
(istructures.sensor
Sensor
p231
(dp232
g3
Nsg4
(istructures.sensor
Sensor
p233
(dp234
g3
Nsg4
g24
sg7
Nsbsg7
g17
sbsg4
(istructures.sensor
Sensor
p235
(dp236
g3
Nsg4
(S'not-updated-cb1'
p237
tp238
sg7
Nsbsg7
I4
sbsg7
g17
sba(istructures.sensor
Sensor
p239
(dp240
g3
Nsg4
(istructures.sensor
Sensor
p241
(dp242
g3
(istructures.sensor
Sensor
p243
(dp244
g3
Nsg4
(istructures.sensor
Sensor
p245
(dp246
g3
Nsg4
g48
sg7
Nsbsg7
g17
sbsg4
(istructures.sensor
Sensor
p247
(dp248
g3
Nsg4
(g39
tp249
sg7
Nsbsg7
g30
sbsg7
g17
sba.