(lp0
(istructures.sensor
Sensor
p1
(dp2
S'rhs'
p3
(istructures.sensor
Sensor
p4
(dp5
g3
NsS'lhs'
p6
(istructures.sensor
Sensor
p7
(dp8
g3
(istructures.sensor
Sensor
p9
(dp10
g3
Nsg6
S'have_item2'
p11
sS'op'
p12
Nsbsg6
(istructures.sensor
Sensor
p13
(dp14
g3
Nsg6
S'have_item0'
p15
sg12
Nsbsg12
S'^'
p16
sbsg12
S'-'
p17
sbsg6
(istructures.sensor
Sensor
p18
(dp19
g3
(istructures.sensor
Sensor
p20
(dp21
g3
(istructures.sensor
Sensor
p22
(dp23
g3
Nsg6
S'at_y3'
p24
sg12
Nsbsg6
(istructures.sensor
Sensor
p25
(dp26
g3
Nsg6
S'at_x4'
p27
sg12
Nsbsg12
S'v'
p28
sbsg6
(istructures.sensor
Sensor
p29
(dp30
g3
Nsg6
(g11
tp31
sg12
Nsbsg12
I7
sbsg12
g16
sba(istructures.sensor
Sensor
p32
(dp33
g3
(istructures.sensor
Sensor
p34
(dp35
g3
(istructures.sensor
Sensor
p36
(dp37
g3
(istructures.sensor
Sensor
p38
(dp39
g3
Nsg6
g24
sg12
Nsbsg6
(istructures.sensor
Sensor
p40
(dp41
g3
Nsg6
g24
sg12
Nsbsg12
g16
sbsg6
(istructures.sensor
Sensor
p42
(dp43
g3
(istructures.sensor
Sensor
p44
(dp45
g3
Nsg6
g11
sg12
Nsbsg6
(istructures.sensor
Sensor
p46
(dp47
g3
Nsg6
g24
sg12
Nsbsg12
g28
sbsg12
g16
sbsg6
(istructures.sensor
Sensor
p48
(dp49
g3
Nsg6
(S'have_item3'
p50
tp51
sg12
Nsbsg12
g16
sba(istructures.sensor
Sensor
p52
(dp53
g3
Nsg6
(istructures.sensor
Sensor
p54
(dp55
g3
Nsg6
(istructures.sensor
Sensor
p56
(dp57
g3
Nsg6
(istructures.sensor
Sensor
p58
(dp59
g3
Nsg6
S'at_y5'
p60
sg12
Nsbsg12
g17
sbsg12
g17
sbsg12
g17
sba(istructures.sensor
Sensor
p61
(dp62
g3
(istructures.sensor
Sensor
p63
(dp64
g3
(istructures.sensor
Sensor
p65
(dp66
g3
(istructures.sensor
Sensor
p67
(dp68
g3
Nsg6
g50
sg12
Nsbsg6
(istructures.sensor
Sensor
p69
(dp70
g3
Nsg6
S'at_x2'
p71
sg12
Nsbsg12
g28
sbsg6
(istructures.sensor
Sensor
p72
(dp73
g3
(istructures.sensor
Sensor
p74
(dp75
g3
Nsg6
g71
sg12
Nsbsg6
(istructures.sensor
Sensor
p76
(dp77
g3
Nsg6
g24
sg12
Nsbsg12
g28
sbsg12
g16
sbsg6
(istructures.sensor
Sensor
p78
(dp79
g3
(istructures.sensor
Sensor
p80
(dp81
g3
(istructures.sensor
Sensor
p82
(dp83
g3
Nsg6
S'at_x0'
p84
sg12
Nsbsg6
(istructures.sensor
Sensor
p85
(dp86
g3
Nsg6
S'have_item1'
p87
sg12
Nsbsg12
I10
sbsg6
(istructures.sensor
Sensor
p88
(dp89
g3
Nsg6
(istructures.sensor
Sensor
p90
(dp91
g3
Nsg6
g84
sg12
Nsbsg12
g17
sbsg12
I7
sbsg12
g28
sba(istructures.sensor
Sensor
p92
(dp93
g3
(istructures.sensor
Sensor
p94
(dp95
g3
Nsg6
(S'at_y0'
p96
tp97
sg12
Nsbsg6
(istructures.sensor
Sensor
p98
(dp99
g3
Nsg6
(g96
tp100
sg12
Nsbsg12
g16
sba(istructures.sensor
Sensor
p101
(dp102
g3
(istructures.sensor
Sensor
p103
(dp104
g3
(istructures.sensor
Sensor
p105
(dp106
g3
(istructures.sensor
Sensor
p107
(dp108
g3
Nsg6
S'at_x5'
p109
sg12
Nsbsg6
(istructures.sensor
Sensor
p110
(dp111
g3
Nsg6
g84
sg12
Nsbsg12
I2
sbsg6
(istructures.sensor
Sensor
p112
(dp113
g3
(istructures.sensor
Sensor
p114
(dp115
g3
Nsg6
g87
sg12
Nsbsg6
(istructures.sensor
Sensor
p116
(dp117
g3
Nsg6
g50
sg12
Nsbsg12
g28
sbsg12
g28
sbsg6
(istructures.sensor
Sensor
p118
(dp119
g3
(istructures.sensor
Sensor
p120
(dp121
g3
(istructures.sensor
Sensor
p122
(dp123
g3
Nsg6
g84
sg12
Nsbsg6
(istructures.sensor
Sensor
p124
(dp125
g3
Nsg6
S'at_y2'
p126
sg12
Nsbsg12
I1
sbsg6
(istructures.sensor
Sensor
p127
(dp128
g3
Nsg6
(istructures.sensor
Sensor
p129
(dp130
g3
Nsg6
g15
sg12
Nsbsg12
g17
sbsg12
g16
sbsg12
g16
sba(istructures.sensor
Sensor
p131
(dp132
g3
(istructures.sensor
Sensor
p133
(dp134
g3
Nsg6
(istructures.sensor
Sensor
p135
(dp136
g3
Nsg6
(g87
tp137
sg12
Nsbsg12
g17
sbsg6
(istructures.sensor
Sensor
p138
(dp139
g3
Nsg6
(istructures.sensor
Sensor
p140
(dp141
g3
(istructures.sensor
Sensor
p142
(dp143
g3
Nsg6
g50
sg12
Nsbsg6
(istructures.sensor
Sensor
p144
(dp145
g3
Nsg6
g109
sg12
Nsbsg12
g16
sbsg12
g17
sbsg12
g28
sba(istructures.sensor
Sensor
p146
(dp147
g3
(istructures.sensor
Sensor
p148
(dp149
g3
Nsg6
(g87
tp150
sg12
Nsbsg6
(istructures.sensor
Sensor
p151
(dp152
g3
(istructures.sensor
Sensor
p153
(dp154
g3
Nsg6
(istructures.sensor
Sensor
p155
(dp156
g3
Nsg6
g96
sg12
Nsbsg12
g17
sbsg6
(istructures.sensor
Sensor
p157
(dp158
g3
(istructures.sensor
Sensor
p159
(dp160
g3
Nsg6
S'at_x3'
p161
sg12
Nsbsg6
(istructures.sensor
Sensor
p162
(dp163
g3
Nsg6
S'at_x1'
p164
sg12
Nsbsg12
g28
sbsg12
g28
sbsg12
I2
sba(istructures.sensor
Sensor
p165
(dp166
g3
(istructures.sensor
Sensor
p167
(dp168
g3
Nsg6
(istructures.sensor
Sensor
p169
(dp170
g3
Nsg6
(g164
tp171
sg12
Nsbsg12
g17
sbsg6
(istructures.sensor
Sensor
p172
(dp173
g3
(istructures.sensor
Sensor
p174
(dp175
g3
(istructures.sensor
Sensor
p176
(dp177
g3
Nsg6
g87
sg12
Nsbsg6
(istructures.sensor
Sensor
p178
(dp179
g3
Nsg6
g164
sg12
Nsbsg12
I2
sbsg6
(istructures.sensor
Sensor
p180
(dp181
g3
(istructures.sensor
Sensor
p182
(dp183
g3
Nsg6
g96
sg12
Nsbsg6
(istructures.sensor
Sensor
p184
(dp185
g3
Nsg6
g126
sg12
Nsbsg12
g16
sbsg12
g28
sbsg12
g16
sba(istructures.sensor
Sensor
p186
(dp187
g3
(istructures.sensor
Sensor
p188
(dp189
g3
Nsg6
(istructures.sensor
Sensor
p190
(dp191
g3
(istructures.sensor
Sensor
p192
(dp193
g3
Nsg6
g164
sg12
Nsbsg6
(istructures.sensor
Sensor
p194
(dp195
g3
Nsg6
g24
sg12
Nsbsg12
I3
sbsg12
g17
sbsg6
(istructures.sensor
Sensor
p196
(dp197
g3
(istructures.sensor
Sensor
p198
(dp199
g3
Nsg6
(istructures.sensor
Sensor
p200
(dp201
g3
Nsg6
S'at_y1'
p202
sg12
Nsbsg12
g17
sbsg6
(istructures.sensor
Sensor
p203
(dp204
g3
Nsg6
(istructures.sensor
Sensor
p205
(dp206
g3
Nsg6
g71
sg12
Nsbsg12
g17
sbsg12
g16
sbsg12
I8
sba(istructures.sensor
Sensor
p207
(dp208
g3
Nsg6
(istructures.sensor
Sensor
p209
(dp210
g3
Nsg6
(istructures.sensor
Sensor
p211
(dp212
g3
(istructures.sensor
Sensor
p213
(dp214
g3
Nsg6
g87
sg12
Nsbsg6
(istructures.sensor
Sensor
p215
(dp216
g3
Nsg6
S'at_y4'
p217
sg12
Nsbsg12
I9
sbsg12
g17
sbsg12
g17
sba(istructures.sensor
Sensor
p218
(dp219
g3
Nsg6
(istructures.sensor
Sensor
p220
(dp221
g3
Nsg6
(g71
tp222
sg12
Nsbsg12
g17
sba(istructures.sensor
Sensor
p223
(dp224
g3
(istructures.sensor
Sensor
p225
(dp226
g3
(istructures.sensor
Sensor
p227
(dp228
g3
(istructures.sensor
Sensor
p229
(dp230
g3
Nsg6
g27
sg12
Nsbsg6
(istructures.sensor
Sensor
p231
(dp232
g3
Nsg6
g202
sg12
Nsbsg12
I4
sbsg6
(istructures.sensor
Sensor
p233
(dp234
g3
(istructures.sensor
Sensor
p235
(dp236
g3
Nsg6
g202
sg12
Nsbsg6
(istructures.sensor
Sensor
p237
(dp238
g3
Nsg6
g109
sg12
Nsbsg12
g16
sbsg12
I5
sbsg6
(istructures.sensor
Sensor
p239
(dp240
g3
(istructures.sensor
Sensor
p241
(dp242
g3
(istructures.sensor
Sensor
p243
(dp244
g3
Nsg6
g96
sg12
Nsbsg6
(istructures.sensor
Sensor
p245
(dp246
g3
Nsg6
g15
sg12
Nsbsg12
I1
sbsg6
(istructures.sensor
Sensor
p247
(dp248
g3
Nsg6
(g202
tp249
sg12
Nsbsg12
g16
sbsg12
g28
sba(istructures.sensor
Sensor
p250
(dp251
g3
(istructures.sensor
Sensor
p252
(dp253
g3
(istructures.sensor
Sensor
p254
(dp255
g3
Nsg6
(g84
tp256
sg12
Nsbsg6
(istructures.sensor
Sensor
p257
(dp258
g3
Nsg6
(istructures.sensor
Sensor
p259
(dp260
g3
Nsg6
g24
sg12
Nsbsg12
g17
sbsg12
g16
sbsg6
(istructures.sensor
Sensor
p261
(dp262
g3
Nsg6
(g96
tp263
sg12
Nsbsg12
I8
sba(istructures.sensor
Sensor
p264
(dp265
g3
Nsg6
(istructures.sensor
Sensor
p266
(dp267
g3
Nsg6
(istructures.sensor
Sensor
p268
(dp269
g3
(istructures.sensor
Sensor
p270
(dp271
g3
Nsg6
g96
sg12
Nsbsg6
(istructures.sensor
Sensor
p272
(dp273
g3
Nsg6
g11
sg12
Nsbsg12
g16
sbsg12
g17
sbsg12
g17
sba.