(lp0
(((S'at_x2'
p1
tp2
(S'have_item3'
p3
tp4
(S'at_y3'
p5
tp6
(S'have_item0'
p7
tp8
(S'at_y1'
p9
tp10
(S'at_y2'
p11
tp12
(S'at_x3'
p13
tp14
(S'at_x4'
p15
tp16
tp17
((istructures.domain
Action
p18
(dp19
S'positive_preconditions'
p20
(lp21
(S'at_x2'
p22
tp23
a(S'at_y3'
p24
tp25
asS'add_effects'
p26
(lp27
(S'at_y4'
p28
tp29
asS'parameters'
p30
(tsS'del_effects'
p31
(lp32
(S'at_y3'
p33
tp34
asS'cost'
p35
I0
sS'negative_preconditions'
p36
(lp37
sS'name'
p38
S'move_2_3_2_4'
p39
sb(istructures.domain
Action
p40
(dp41
g20
(lp42
(S'at_x2'
p43
tp44
a(S'at_y2'
p45
tp46
asg26
(lp47
(S'at_y3'
p48
tp49
asg30
(tsg31
(lp50
(S'at_y2'
p51
tp52
asg35
I0
sg36
(lp53
sg38
S'move_2_2_2_3'
p54
sbtp55
(g6
g8
g10
g14
g16
(S'at_y4'
p56
tp57
tp58
tp59
a((g4
(S'at_x0'
p60
tp61
g8
g10
(S'at_x5'
p62
tp63
g12
g14
g16
(S'have_item1'
p64
tp65
g57
tp66
((istructures.domain
Action
p67
(dp68
g20
(lp69
(S'at_x0'
p70
tp71
a(S'at_y2'
p72
tp73
asg26
(lp74
(S'have_item2'
p75
tp76
asg30
(tsg31
(lp77
sg35
I0
sg36
(lp78
sg38
S'easymark_item2_0_2'
p79
sbtp80
((S'have_item2'
p81
tp82
g4
g8
g63
g14
g65
g57
tp83
tp84
a((g82
g2
(S'at_x1'
p85
tp86
(S'at_y0'
p87
tp88
g10
g12
g14
g16
g65
g57
tp89
((istructures.domain
Action
p90
(dp91
g20
(lp92
(S'at_x2'
p93
tp94
a(S'at_y0'
p95
tp96
asg26
(lp97
g4
asg30
(tsg31
(lp98
sg35
I0
sg36
(lp99
sg38
S'easymark_item3_2_0'
p100
sbtp101
(g82
g4
g88
g10
g12
g14
g16
g65
tp102
tp103
a((g4
g61
(S'at_y5'
p104
tp105
g8
g10
g63
g12
g14
g16
g65
tp106
((istructures.domain
Action
p107
(dp108
g20
(lp109
(S'at_x5'
p110
tp111
a(S'at_y2'
p112
tp113
asg26
(lp114
(S'at_y3'
p115
tp116
asg30
(tsg31
(lp117
(S'at_y2'
p118
tp119
asg35
I0
sg36
(lp120
sg38
S'move_5_2_5_3'
p121
sb(istructures.domain
Action
p122
(dp123
g20
(lp124
(S'at_x0'
p125
tp126
a(S'at_y3'
p127
tp128
asg26
(lp129
(S'at_x1'
p130
tp131
asg30
(tsg31
(lp132
(S'at_x0'
p133
tp134
asg35
I0
sg36
(lp135
sg38
S'move_0_3_1_3'
p136
sb(istructures.domain
Action
p137
(dp138
g20
(lp139
g86
ag10
asg26
(lp140
g12
asg30
(tsg31
(lp141
(S'at_y1'
p142
tp143
asg35
I0
sg36
(lp144
sg38
S'move_1_1_1_2'
p145
sbtp146
(g86
g6
g8
g12
g16
g65
tp147
tp148
a((g82
g2
g4
g86
g61
g105
g8
g88
g10
g63
g12
g16
tp149
((istructures.domain
Action
p150
(dp151
g20
(lp152
(S'at_x1'
p153
tp154
a(S'at_y5'
p155
tp156
asg26
(lp157
g65
asg30
(tsg31
(lp158
sg35
I0
sg36
(lp159
sg38
S'easymark_item1_1_5'
p160
sbtp161
(g2
g4
g61
g105
g16
g65
tp162
tp163
a((g82
g2
g4
g86
g61
g6
g105
g10
g63
g12
tp164
((istructures.domain
Action
p165
(dp166
g20
(lp167
(S'at_x5'
p168
tp169
a(S'at_y3'
p170
tp171
asg26
(lp172
(S'at_y4'
p173
tp174
asg30
(tsg31
(lp175
(S'at_y3'
p176
tp177
asg35
I0
sg36
(lp178
sg38
S'move_5_3_5_4'
p179
sbtp180
(g4
g12
g57
tp181
tp182
a((g82
g2
g61
g8
g63
g12
g14
g16
g65
g57
tp183
((istructures.domain
Action
p184
(dp185
g20
(lp186
(S'at_x2'
p187
tp188
a(S'at_y2'
p189
tp190
asg26
(lp191
(S'at_x1'
p192
tp193
asg30
(tsg31
(lp194
(S'at_x2'
p195
tp196
asg35
I0
sg36
(lp197
sg38
S'move_2_2_1_2'
p198
sb(istructures.domain
Action
p199
(dp200
g20
(lp201
(S'at_x3'
p202
tp203
a(S'at_y2'
p204
tp205
asg26
(lp206
(S'at_x2'
p207
tp208
asg30
(tsg31
(lp209
(S'at_x3'
p210
tp211
asg35
I0
sg36
(lp212
sg38
S'move_3_2_2_2'
p213
sbtp214
(g82
g2
g86
g61
g63
g16
g65
g57
tp215
tp216
a((g82
g61
g8
g88
g10
g63
g12
g14
g65
tp217
((istructures.domain
Action
p218
(dp219
g20
(lp220
(S'at_x0'
p221
tp222
a(S'at_y0'
p223
tp224
asg26
(lp225
(S'at_x1'
p226
tp227
asg30
(tsg31
(lp228
(S'at_x0'
p229
tp230
asg35
I0
sg36
(lp231
sg38
S'move_0_0_1_0'
p232
sbtp233
(g86
g8
g65
tp234
tp235
a((g2
g4
g61
g6
g105
g88
g63
g12
g14
g16
g57
tp236
((istructures.domain
Action
p237
(dp238
g20
(lp239
g2
a(S'at_y2'
p240
tp241
asg26
(lp242
(S'at_y1'
p243
tp244
asg30
(tsg31
(lp245
(S'at_y2'
p246
tp247
asg35
I0
sg36
(lp248
sg38
S'move_2_2_2_1'
p249
sb(istructures.domain
Action
p250
(dp251
g20
(lp252
(S'at_x0'
p253
tp254
a(S'at_y0'
p255
tp256
asg26
(lp257
(S'have_item1'
p258
tp259
asg30
(tsg31
(lp260
sg35
I0
sg36
(lp261
sg38
S'easymark_item1_0_0'
p262
sbtp263
(g4
g61
g6
g10
g65
tp264
tp265
a((g82
g61
g105
g8
g88
g63
g12
g14
g16
g65
g57
tp266
(g107
tp267
(g6
g8
g63
g14
g16
g57
tp268
tp269
a((g82
g2
g86
g61
g105
g88
g63
g12
g65
tp270
((istructures.domain
Action
p271
(dp272
g20
(lp273
(S'at_x1'
p274
tp275
ag88
asg26
(lp276
(S'at_y1'
p277
tp278
asg30
(tsg31
(lp279
(S'at_y0'
p280
tp281
asg35
I0
sg36
(lp282
sg38
S'move_1_0_1_1'
p283
sb(istructures.domain
Action
p284
(dp285
g20
(lp286
(S'at_x5'
p287
tp288
a(S'at_y2'
p289
tp290
asg26
(lp291
(S'at_x4'
p292
tp293
asg30
(tsg31
(lp294
(S'at_x5'
p295
tp296
asg35
I0
sg36
(lp297
sg38
S'move_5_2_4_2'
p298
sb(istructures.domain
Action
p299
(dp300
g20
(lp301
(S'at_x4'
p302
tp303
a(S'at_y5'
p304
tp305
asg26
(lp306
(S'have_item3'
p307
tp308
asg30
(tsg31
(lp309
sg35
I0
sg36
(lp310
sg38
S'easymark_item3_4_5'
p311
sbtp312
(g82
g4
g86
g61
g10
g12
g16
g65
tp313
tp314
a((g86
g61
g6
g105
g8
g88
g10
g63
g12
g14
g16
tp315
(g299
tp316
(g4
g86
g6
g105
g10
g63
g12
tp317
tp318
a((g82
g86
g61
g105
g8
g88
g14
g16
g65
g57
tp319
(g299
tp320
(g82
g4
g86
g61
g105
g8
g88
g14
g16
g57
tp321
tp322
a((g82
g2
g4
g6
g105
g8
g88
g63
g12
g14
g16
g57
tp323
((istructures.domain
Action
p324
(dp325
g20
(lp326
(S'at_x2'
p327
tp328
a(S'at_y3'
p329
tp330
asg26
(lp331
(S'at_x1'
p332
tp333
asg30
(tsg31
(lp334
(S'at_x2'
p335
tp336
asg35
I0
sg36
(lp337
sg38
S'move_2_3_1_3'
p338
sbg150
tp339
(g82
g4
g86
g8
g14
g16
g65
tp340
tp341
a((g82
g86
g61
g105
g88
g63
g12
g16
g65
tp342
(g271
g299
(istructures.domain
Action
p343
(dp344
g20
(lp345
(S'at_x4'
p346
tp347
a(S'at_y2'
p348
tp349
asg26
(lp350
(S'at_x3'
p351
tp352
asg30
(tsg31
(lp353
(S'at_x4'
p354
tp355
asg35
I0
sg36
(lp356
sg38
S'move_4_2_3_2'
p357
sbtp358
(g82
g4
g105
g10
g12
g14
g65
tp359
tp360
a((g82
g86
g61
g6
g105
g8
g88
g10
g63
g12
g14
g57
tp361
((istructures.domain
Action
p362
(dp363
g20
(lp364
(S'at_x1'
p365
tp366
a(S'at_y4'
p367
tp368
asg26
(lp369
(S'at_x2'
p370
tp371
asg30
(tsg31
(lp372
(S'at_x1'
p373
tp374
asg35
I0
sg36
(lp375
sg38
S'move_1_4_2_4'
p376
sb(istructures.domain
Action
p377
(dp378
g20
(lp379
(S'at_x5'
p380
tp381
a(S'at_y2'
p382
tp383
asg26
(lp384
(S'have_item1'
p385
tp386
asg30
(tsg31
(lp387
sg35
I0
sg36
(lp388
sg38
S'easymark_item1_5_2'
p389
sbtp390
(g82
g2
g105
g88
g12
g14
g65
g57
tp391
tp392
a((g82
g2
g86
g61
g6
g88
g10
g16
g57
tp393
((istructures.domain
Action
p394
(dp395
g20
(lp396
(S'at_x2'
p397
tp398
a(S'at_y1'
p399
tp400
asg26
(lp401
(S'at_x3'
p402
tp403
asg30
(tsg31
(lp404
(S'at_x2'
p405
tp406
asg35
I0
sg36
(lp407
sg38
S'move_2_1_3_1'
p408
sbg362
tp409
(g2
g61
g88
g14
g16
g57
tp410
tp411
a((g82
g2
g4
g61
g105
g12
g16
tp412
((istructures.domain
Action
p413
(dp414
g20
(lp415
(S'at_x4'
p416
tp417
a(S'at_y2'
p418
tp419
asg26
(lp420
(S'at_x5'
p421
tp422
asg30
(tsg31
(lp423
(S'at_x4'
p424
tp425
asg35
I0
sg36
(lp426
sg38
S'move_4_2_5_2'
p427
sbtp428
(g2
g63
tp429
tp430
a((g4
g86
g61
g6
g105
g8
g63
g14
g65
g57
tp431
((istructures.domain
Action
p432
(dp433
g20
(lp434
g63
ag6
asg26
(lp435
(S'at_y2'
p436
tp437
asg30
(tsg31
(lp438
(S'at_y3'
p439
tp440
asg35
I0
sg36
(lp441
sg38
S'move_5_3_5_2'
p442
sb(istructures.domain
Action
p443
(dp444
g20
(lp445
(S'at_x0'
p446
tp447
a(S'at_y2'
p448
tp449
asg26
(lp450
(S'at_y1'
p451
tp452
asg30
(tsg31
(lp453
(S'at_y2'
p454
tp455
asg35
I0
sg36
(lp456
sg38
S'move_0_2_0_1'
p457
sb(istructures.domain
Action
p458
(dp459
g20
(lp460
(S'at_x1'
p461
tp462
a(S'at_y1'
p463
tp464
asg26
(lp465
(S'at_y0'
p466
tp467
asg30
(tsg31
(lp468
(S'at_y1'
p469
tp470
asg35
I0
sg36
(lp471
sg38
S'move_1_1_1_0'
p472
sbtp473
(g105
g8
g88
g63
g14
g65
tp474
tp475
a((g82
g4
g86
g61
g6
g105
g63
g12
g16
g65
tp476
((istructures.domain
Action
p477
(dp478
g20
(lp479
(S'at_x4'
p480
tp481
a(S'at_y2'
p482
tp483
asg26
(lp484
(S'at_y1'
p485
tp486
asg30
(tsg31
(lp487
(S'at_y2'
p488
tp489
asg35
I0
sg36
(lp490
sg38
S'move_4_2_4_1'
p491
sbg458
tp492
(g86
g88
g63
tp493
tp494
a((g82
g2
g4
g86
g61
g8
g88
g12
g14
g57
tp495
(g250
g271
tp496
(g82
g4
g86
g10
g12
g14
g65
tp497
tp498
a((g82
g2
g61
g6
g105
g10
g12
g65
g57
tp499
((istructures.domain
Action
p500
(dp501
g20
(lp502
(S'at_x2'
p503
tp504
a(S'at_y3'
p505
tp506
asg26
(lp507
(S'have_item0'
p508
tp509
asg30
(tsg31
(lp510
sg35
I0
sg36
(lp511
sg38
S'easymark_item0_2_3'
p512
sbtp513
(g61
g105
g8
g10
tp514
tp515
a((g4
g86
g61
g105
g8
g88
g10
g63
g12
g14
g16
g65
g57
tp516
(g67
(istructures.domain
Action
p517
(dp518
g20
(lp519
(S'at_x5'
p520
tp521
a(S'at_y4'
p522
tp523
asg26
(lp524
(S'at_y3'
p525
tp526
asg30
(tsg31
(lp527
(S'at_y4'
p528
tp529
asg35
I0
sg36
(lp530
sg38
S'move_5_4_5_3'
p531
sbtp532
(g82
g4
g6
g105
g8
g10
g12
g16
tp533
tp534
a((g4
g86
g61
g105
g8
g63
g16
g57
tp535
((istructures.domain
Action
p536
(dp537
g20
(lp538
(S'at_x4'
p539
tp540
a(S'at_y4'
p541
tp542
asg26
(lp543
(S'at_x3'
p544
tp545
asg30
(tsg31
(lp546
(S'at_x4'
p547
tp548
asg35
I0
sg36
(lp549
sg38
S'move_4_4_3_4'
p550
sbg517
tp551
(g6
g105
g63
g14
tp552
tp553
a((g82
g4
g61
g6
g105
g8
g88
g14
g16
g65
tp554
((istructures.domain
Action
p555
(dp556
g20
(lp557
(S'at_x3'
p558
tp559
a(S'at_y0'
p560
tp561
asg26
(lp562
(S'at_y1'
p563
tp564
asg30
(tsg31
(lp565
(S'at_y0'
p566
tp567
asg35
I0
sg36
(lp568
sg38
S'move_3_0_3_1'
p569
sb(istructures.domain
Action
p570
(dp571
g20
(lp572
(S'at_x3'
p573
tp574
a(S'at_y3'
p575
tp576
asg26
(lp577
(S'at_y2'
p578
tp579
asg30
(tsg31
(lp580
(S'at_y3'
p581
tp582
asg35
I0
sg36
(lp583
sg38
S'move_3_3_3_2'
p584
sbg413
tp585
(g4
g61
g10
g63
g12
g14
g65
tp586
tp587
a((g2
g4
g86
g61
g105
g8
g12
g14
g57
tp588
(g237
(istructures.domain
Action
p589
(dp590
g20
(lp591
(S'at_x2'
p592
tp593
a(S'at_y4'
p594
tp595
asg26
(lp596
(S'at_y3'
p597
tp598
asg30
(tsg31
(lp599
(S'at_y4'
p600
tp601
asg35
I0
sg36
(lp602
sg38
S'move_2_4_2_3'
p603
sbg150
tp604
(g2
g4
g86
g6
g105
g10
g65
tp605
tp606
a((g4
g86
g61
g6
g105
g88
g10
g14
g57
tp607
((istructures.domain
Action
p608
(dp609
g20
(lp610
(S'at_x3'
p611
tp612
a(S'at_y0'
p613
tp614
asg26
(lp615
(S'at_x4'
p616
tp617
asg30
(tsg31
(lp618
(S'at_x3'
p619
tp620
asg35
I0
sg36
(lp621
sg38
S'move_3_0_4_0'
p622
sbtp623
(g4
g6
g16
g57
tp624
tp625
a((g82
g61
g105
g88
g63
g14
g65
tp626
(g555
(istructures.domain
Action
p627
(dp628
g20
(lp629
(S'at_x3'
p630
tp631
a(S'at_y1'
p632
tp633
asg26
(lp634
(S'at_x2'
p635
tp636
asg30
(tsg31
(lp637
(S'at_x3'
p638
tp639
asg35
I0
sg36
(lp640
sg38
S'move_3_1_2_1'
p641
sb(istructures.domain
Action
p642
(dp643
g20
(lp644
(S'at_x5'
p645
tp646
a(S'at_y1'
p647
tp648
asg26
(lp649
(S'at_y2'
p650
tp651
asg30
(tsg31
(lp652
(S'at_y1'
p653
tp654
asg35
I0
sg36
(lp655
sg38
S'move_5_1_5_2'
p656
sbtp657
(g82
g2
g105
g12
tp658
tp659
a((g82
g4
g86
g6
g105
g63
g12
g14
g16
g57
tp660
((istructures.domain
Action
p661
(dp662
g20
(lp663
(S'at_x1'
p664
tp665
a(S'at_y4'
p666
tp667
asg26
(lp668
(S'at_x0'
p669
tp670
asg30
(tsg31
(lp671
(S'at_x1'
p672
tp673
asg35
I0
sg36
(lp674
sg38
S'move_1_4_0_4'
p675
sbg199
tp676
(g2
g61
g6
g63
g12
g57
tp677
tp678
a((g82
g2
g61
g12
g14
g16
g57
tp679
((istructures.domain
Action
p680
(dp681
g20
(lp682
(S'at_x2'
p683
tp684
a(S'at_y4'
p685
tp686
asg26
(lp687
(S'at_y5'
p688
tp689
asg30
(tsg31
(lp690
(S'at_y4'
p691
tp692
asg35
I0
sg36
(lp693
sg38
S'move_2_4_2_5'
p694
sbtp695
(g105
g12
g16
tp696
tp697
a((g2
g4
g86
g6
g105
g8
g88
g63
g14
g16
g65
g57
tp698
(g661
tp699
(g4
g61
g6
g105
g63
g14
g65
g57
tp700
tp701
a((g4
g86
g6
g105
g8
g88
g12
g16
tp702
(g271
g150
(istructures.domain
Action
p703
(dp704
g20
(lp705
(S'at_x1'
p706
tp707
a(S'at_y3'
p708
tp709
asg26
(lp710
(S'at_x0'
p711
tp712
asg30
(tsg31
(lp713
(S'at_x1'
p714
tp715
asg35
I0
sg36
(lp716
sg38
S'move_1_3_0_3'
p717
sbtp718
(g61
g6
g105
g10
g12
g16
g65
tp719
tp720
a((g2
g61
g6
g105
g8
g10
g63
g12
g14
g65
tp721
((istructures.domain
Action
p722
(dp723
g20
(lp724
(S'at_x5'
p725
tp726
a(S'at_y1'
p727
tp728
asg26
(lp729
(S'at_y0'
p730
tp731
asg30
(tsg31
(lp732
(S'at_y1'
p733
tp734
asg35
I0
sg36
(lp735
sg38
S'move_5_1_5_0'
p736
sbg237
tp737
(g2
g61
g105
g88
g10
g65
tp738
tp739
a((g4
g86
g61
g6
g88
g10
g63
g14
g16
tp740
(g250
(istructures.domain
Action
p741
(dp742
g20
(lp743
(S'at_x4'
p744
tp745
a(S'at_y1'
p746
tp747
asg26
(lp748
(S'have_item0'
p749
tp750
asg30
(tsg31
(lp751
sg35
I0
sg36
(lp752
sg38
S'easymark_item0_4_1'
p753
sbtp754
(g4
g6
g8
g88
g10
g63
g14
g65
tp755
tp756
a((g82
g2
g4
g86
g61
g88
g12
g16
g65
g57
tp757
(g40
g500
tp758
(g4
g86
g61
g6
g8
g16
g65
g57
tp759
tp760
a((g2
g4
g61
g6
g105
g8
g88
g10
g63
g12
g16
g65
g57
tp761
(g394
tp762
(g61
g6
g105
g10
g14
g16
g65
tp763
tp764
a((g82
g2
g4
g6
g105
g8
g88
g63
g12
g57
tp765
(g324
g150
tp766
(g4
g86
g6
g8
g65
g57
tp767
tp768
a((g2
g4
g61
g6
g105
g88
g10
g12
g65
g57
tp769
(g500
tp770
(g105
g8
g88
g10
g12
g65
g57
tp771
tp772
a((g4
g61
g6
g105
g8
g88
g10
g14
g16
g65
tp773
((istructures.domain
Action
p774
(dp775
g20
(lp776
(S'at_x4'
p777
tp778
a(S'at_y1'
p779
tp780
asg26
(lp781
(S'at_y2'
p782
tp783
asg30
(tsg31
(lp784
(S'at_y1'
p785
tp786
asg35
I0
sg36
(lp787
sg38
S'move_4_1_4_2'
p788
sbg555
g413
tp789
(g6
g105
g10
g63
g12
g65
tp790
tp791
a((g2
g86
g61
g6
g105
g88
g10
g12
g16
g65
tp792
(g90
(istructures.domain
Action
p793
(dp794
g20
(lp795
(S'at_x2'
p796
tp797
a(S'at_y3'
p798
tp799
asg26
(lp800
g82
asg30
(tsg31
(lp801
sg35
I0
sg36
(lp802
sg38
S'easymark_item2_2_3'
p803
sbtp804
(g82
g4
g6
g88
g12
g16
tp805
tp806
a((g2
g86
g61
g6
g105
g8
g88
g63
g12
g14
g65
g57
tp807
(g608
g793
tp808
(g82
g2
g8
g12
g16
g65
tp809
tp810
a((g2
g4
g86
g8
g88
g10
g63
g57
tp811
(g661
(istructures.domain
Action
p812
(dp813
g20
(lp814
(S'at_x5'
p815
tp816
a(S'at_y4'
p817
tp818
asg26
(lp819
(S'at_y5'
p820
tp821
asg30
(tsg31
(lp822
(S'at_y4'
p823
tp824
asg35
I0
sg36
(lp825
sg38
S'move_5_4_5_5'
p826
sbtp827
(g2
g4
g61
g105
g88
tp828
tp829
a((g2
g61
g88
g63
g12
g16
g65
g57
tp830
(g67
(istructures.domain
Action
p831
(dp832
g20
(lp833
(S'at_x4'
p834
tp835
a(S'at_y4'
p836
tp837
asg26
(lp838
(S'have_item0'
p839
tp840
asg30
(tsg31
(lp841
sg35
I0
sg36
(lp842
sg38
S'easymark_item0_4_4'
p843
sbtp844
(g82
g2
g8
g88
g63
g12
g65
g57
tp845
tp846
a((g82
g2
g86
g61
g6
g10
g63
g57
tp847
(g500
g432
tp848
(g82
g86
g8
g10
g63
g12
g57
tp849
tp850
a((g82
g2
g4
g86
g6
g105
g88
g63
g14
g16
g65
g57
tp851
(g661
g500
tp852
(g82
g61
g105
g8
g57
tp853
tp854
a((g82
g2
g4
g86
g61
g6
g88
g12
g57
tp855
(g250
g500
tp856
(g4
g61
g6
g8
g88
g65
g57
tp857
tp858
a((g82
g4
g86
g61
g6
g8
g88
g63
g12
g14
g16
g57
tp859
(g362
g812
tp860
(g2
g61
g105
g88
g63
g12
g14
tp861
tp862
a((g82
g2
g6
g105
g10
g63
g14
g65
g57
tp863
((istructures.domain
Action
p864
(dp865
g20
(lp866
(S'at_x2'
p867
tp868
a(S'at_y4'
p869
tp870
asg26
(lp871
(S'have_item3'
p872
tp873
asg30
(tsg31
(lp874
sg35
I0
sg36
(lp875
sg38
S'easymark_item3_2_4'
p876
sb(istructures.domain
Action
p877
(dp878
g20
(lp879
(S'at_x3'
p880
tp881
a(S'at_y1'
p882
tp883
asg26
(lp884
(S'at_y2'
p885
tp886
asg30
(tsg31
(lp887
(S'at_y1'
p888
tp889
asg35
I0
sg36
(lp890
sg38
S'move_3_1_3_2'
p891
sbtp892
(g4
g6
g12
g14
g57
tp893
tp894
a((g82
g2
g4
g61
g6
g105
g8
g10
g63
g12
g14
g16
g65
tp895
(g165
g40
tp896
(g2
g61
g6
g105
g8
g16
g57
tp897
tp898
a((g2
g4
g86
g61
g6
g63
g12
g14
g16
g65
tp899
(g793
tp900
(g82
g4
g63
tp901
tp902
a((g82
g4
g61
g6
g105
g8
g88
g10
g14
g16
g65
tp903
(g122
(istructures.domain
Action
p904
(dp905
g20
(lp906
(S'at_x4'
p907
tp908
a(S'at_y3'
p909
tp910
asg26
(lp911
(S'at_x5'
p912
tp913
asg30
(tsg31
(lp914
(S'at_x4'
p915
tp916
asg35
I0
sg36
(lp917
sg38
S'move_4_3_5_3'
p918
sbtp919
(g86
g105
g88
g63
g14
g65
tp920
tp921
a((g4
g86
g61
g6
g105
g8
g88
g63
g14
g16
g65
g57
tp922
(g362
g793
tp923
(g82
g2
g88
g14
g16
g57
tp924
tp925
a((g2
g86
g6
g10
g12
g14
g65
g57
tp926
(g864
tp927
(g4
g10
g65
tp928
tp929
a((g82
g4
g86
g8
g88
g10
g12
g14
g16
g65
g57
tp930
(g413
g107
tp931
(g4
g6
g88
g10
g63
g14
tp932
tp933
a((g2
g4
g61
g14
g57
tp934
(g680
(istructures.domain
Action
p935
(dp936
g20
(lp937
(S'at_x2'
p938
tp939
a(S'at_y5'
p940
tp941
asg26
(lp942
(S'at_x1'
p943
tp944
asg30
(tsg31
(lp945
(S'at_x2'
p946
tp947
asg35
I0
sg36
(lp948
sg38
S'move_2_5_1_5'
p949
sb(istructures.domain
Action
p950
(dp951
g20
(lp952
(S'at_x1'
p953
tp954
a(S'at_y5'
p955
tp956
asg26
(lp957
g8
asg30
(tsg31
(lp958
sg35
I0
sg36
(lp959
sg38
S'easymark_item0_1_5'
p960
sb(istructures.domain
Action
p961
(dp962
g20
(lp963
(S'at_x3'
p964
tp965
a(S'at_y5'
p966
tp967
asg26
(lp968
(S'at_x2'
p969
tp970
asg30
(tsg31
(lp971
(S'at_x3'
p972
tp973
asg35
I0
sg36
(lp974
sg38
S'move_3_5_2_5'
p975
sbtp976
(g2
g4
g86
g61
g8
tp977
tp978
a((g4
g86
g61
g105
g8
g88
g10
g63
g12
g16
g57
tp979
(g517
g150
tp980
(g4
g6
g8
g88
g12
g16
g65
tp981
tp982
a((g2
g86
g61
g105
g88
g63
g16
g65
g57
tp983
(g90
g950
tp984
(g2
g4
g86
g8
g63
g57
tp985
tp986
a((g2
g86
g6
g8
g14
g16
g65
tp987
(g793
g18
g680
tp988
(g82
g105
g14
g65
tp989
tp990
a((g82
g4
g86
g61
g105
g88
g10
g12
g14
g65
g57
tp991
(g950
tp992
(g82
g4
g61
g105
g8
g10
g12
g57
tp993
tp994
a((g2
g4
g61
g6
g10
g63
g12
g14
g16
g57
tp995
((istructures.domain
Action
p996
(dp997
g20
(lp998
(S'at_x2'
p999
tp1000
a(S'at_y1'
p1001
tp1002
asg26
(lp1003
(S'at_x1'
p1004
tp1005
asg30
(tsg31
(lp1006
(S'at_x2'
p1007
tp1008
asg35
I0
sg36
(lp1009
sg38
S'move_2_1_1_1'
p1010
sbg67
tp1011
(g82
g86
g61
g10
g57
tp1012
tp1013
a((g82
g2
g61
g6
g105
g8
g12
g16
g57
tp1014
(g299
(istructures.domain
Action
p1015
(dp1016
g20
(lp1017
(S'at_x2'
p1018
tp1019
a(S'at_y3'
p1020
tp1021
asg26
(lp1022
(S'have_item1'
p1023
tp1024
asg30
(tsg31
(lp1025
sg35
I0
sg36
(lp1026
sg38
S'easymark_item1_2_3'
p1027
sbtp1028
(g2
g4
g61
g6
g8
g12
g65
g57
tp1029
tp1030
a((g82
g2
g4
g86
g61
g6
g105
g8
g88
g10
g63
g12
g14
tp1031
(g165
g150
tp1032
(g82
g2
g86
g61
g8
g88
g10
g12
g65
g57
tp1033
tp1034
a((g2
g4
g61
g105
g63
g57
tp1035
((istructures.domain
Action
p1036
(dp1037
g20
(lp1038
g61
a(S'at_y4'
p1039
tp1040
asg26
(lp1041
(S'at_x1'
p1042
tp1043
asg30
(tsg31
(lp1044
(S'at_x0'
p1045
tp1046
asg35
I0
sg36
(lp1047
sg38
S'move_0_4_1_4'
p1048
sb(istructures.domain
Action
p1049
(dp1050
g20
(lp1051
(S'at_x2'
p1052
tp1053
a(S'at_y5'
p1054
tp1055
asg26
(lp1056
(S'at_x3'
p1057
tp1058
asg30
(tsg31
(lp1059
(S'at_x2'
p1060
tp1061
asg35
I0
sg36
(lp1062
sg38
S'move_2_5_3_5'
p1063
sbtp1064
(g4
g86
g105
g14
g57
tp1065
tp1066
a((g2
g4
g86
g61
g6
g8
g63
g14
g16
g57
tp1067
(g432
g67
tp1068
(g82
g2
g61
g8
g12
tp1069
tp1070
a((g2
g4
g86
g6
g105
g12
g16
g57
tp1071
(g661
g536
tp1072
(g61
g6
g14
g57
tp1073
tp1074
a((g82
g2
g4
g6
g105
g8
g88
g10
g63
g12
g16
g65
g57
tp1075
(g394
tp1076
(g105
g88
g10
g12
g14
g16
g65
tp1077
tp1078
a((g82
g2
g4
g86
g61
g6
g105
g8
g88
g10
g63
g12
g14
tp1079
(g608
tp1080
(g82
g61
g105
g88
g10
g63
g12
g16
tp1081
tp1082
a((g4
g61
g6
g88
g10
g16
g65
g57
tp1083
(g1036
g362
g500
tp1084
(g2
g4
g8
g88
g65
g57
tp1085
tp1086
a((g82
g2
g4
g61
g105
g8
g10
g63
g12
g14
g16
g65
g57
tp1087
(g1036
tp1088
(g2
g86
g10
g16
g65
g57
tp1089
tp1090
a((g2
g86
g6
g105
g8
g88
g10
g16
g65
tp1091
((istructures.domain
Action
p1092
(dp1093
g20
(lp1094
(S'at_x4'
p1095
tp1096
a(S'at_y5'
p1097
tp1098
asg26
(lp1099
(S'at_y4'
p1100
tp1101
asg30
(tsg31
(lp1102
(S'at_y5'
p1103
tp1104
asg35
I0
sg36
(lp1105
sg38
S'move_4_5_4_4'
p1106
sbtp1107
(g2
g86
g6
g8
g88
g10
g16
g65
g57
tp1108
tp1109
a((g2
g4
g86
g6
g105
g8
g88
g12
g14
g16
tp1110
(g237
g793
tp1111
(g82
g2
g105
g8
g88
g10
g14
tp1112
tp1113
a((g2
g4
g6
g105
g63
g12
tp1114
(g237
g793
g1015
tp1115
(g82
g10
g65
tp1116
tp1117
a((g82
g2
g86
g61
g6
g105
g8
g88
g63
g14
g65
tp1118
(g271
g432
g284
tp1119
(g82
g2
g86
g105
g10
g12
g14
g16
tp1120
tp1121
a((g4
g61
g6
g8
g88
g10
g12
g14
g16
g65
tp1122
((istructures.domain
Action
p1123
(dp1124
g20
(lp1125
(S'at_x3'
p1126
tp1127
a(S'at_y3'
p1128
tp1129
asg26
(lp1130
(S'at_y4'
p1131
tp1132
asg30
(tsg31
(lp1133
(S'at_y3'
p1134
tp1135
asg35
I0
sg36
(lp1136
sg38
S'move_3_3_3_4'
p1137
sbtp1138
(g4
g61
g8
g16
g57
tp1139
tp1140
a((g4
g86
g61
g6
g105
g8
g10
g63
g16
g65
g57
tp1141
(g458
g536
tp1142
(g4
g105
g8
g88
g14
g65
tp1143
tp1144
a((g2
g86
g61
g88
g10
g63
g12
g14
g16
tp1145
(g741
tp1146
(g2
g61
g8
g10
g63
g12
g14
g16
tp1147
tp1148
a((g82
g61
g6
g63
g14
g65
tp1149
(g432
(istructures.domain
Action
p1150
(dp1151
g20
(lp1152
(S'at_x3'
p1153
tp1154
a(S'at_y2'
p1155
tp1156
asg26
(lp1157
(S'have_item3'
p1158
tp1159
asg30
(tsg31
(lp1160
sg35
I0
sg36
(lp1161
sg38
S'easymark_item3_3_2'
p1162
sbg443
tp1163
(g4
g10
g63
g14
tp1164
tp1165
a((g82
g86
g61
g105
g8
g88
g12
g14
g16
g65
g57
tp1166
(g477
tp1167
(g82
g86
g61
g105
g8
g88
g10
g57
tp1168
tp1169
a((g2
g4
g61
g6
g105
g8
g88
g10
tp1170
(g122
g150
tp1171
(g2
g4
g86
g105
g88
g10
g65
tp1172
tp1173
a((g2
g4
g105
g8
g88
g63
g16
tp1174
((istructures.domain
Action
p1175
(dp1176
g20
(lp1177
(S'at_x4'
p1178
tp1179
a(S'at_y0'
p1180
tp1181
asg26
(lp1182
(S'at_x3'
p1183
tp1184
asg30
(tsg31
(lp1185
(S'at_x4'
p1186
tp1187
asg35
I0
sg36
(lp1188
sg38
S'move_4_0_3_0'
p1189
sb(istructures.domain
Action
p1190
(dp1191
g20
(lp1192
(S'at_x2'
p1193
tp1194
a(S'at_y5'
p1195
tp1196
asg26
(lp1197
(S'have_item1'
p1198
tp1199
asg30
(tsg31
(lp1200
sg35
I0
sg36
(lp1201
sg38
S'easymark_item1_2_5'
p1202
sbtp1203
(g2
g88
g63
g14
g65
tp1204
tp1205
a((g4
g86
g6
g88
g10
g14
g57
tp1206
(g137
(istructures.domain
Action
p1207
(dp1208
g20
(lp1209
(S'at_x3'
p1210
tp1211
a(S'at_y4'
p1212
tp1213
asg26
(lp1214
(S'at_y5'
p1215
tp1216
asg30
(tsg31
(lp1217
(S'at_y4'
p1218
tp1219
asg35
I0
sg36
(lp1220
sg38
S'move_3_4_3_5'
p1221
sbg950
tp1222
(g6
g105
g8
g12
g14
tp1223
tp1224
a((g82
g2
g4
g10
g63
g12
g57
tp1225
(g284
g394
(istructures.domain
Action
p1226
(dp1227
g20
(lp1228
(S'at_x4'
p1229
tp1230
a(S'at_y4'
p1231
tp1232
asg26
(lp1233
(S'at_y3'
p1234
tp1235
asg30
(tsg31
(lp1236
(S'at_y4'
p1237
tp1238
asg35
I0
sg36
(lp1239
sg38
S'move_4_4_4_3'
p1240
sbtp1241
(g82
g4
g6
g12
g14
g16
tp1242
tp1243
a((g82
g2
g61
g105
g8
g88
g10
g63
g12
g14
g16
g65
tp1244
(g40
tp1245
(g6
g10
g63
g16
tp1246
tp1247
a((g2
g4
g105
g63
g12
g16
g65
g57
tp1248
(g1049
g831
tp1249
(g105
g8
g14
g57
tp1250
tp1251
a((g2
g4
g86
g61
g6
g105
g8
g88
g10
g12
g14
g16
g57
tp1252
(g413
g793
tp1253
(g82
g4
g86
g88
g10
g63
g57
tp1254
tp1255
a((g2
g61
g105
g88
g12
g14
g16
tp1256
(g237
(istructures.domain
Action
p1257
(dp1258
g20
(lp1259
(S'at_x2'
p1260
tp1261
a(S'at_y1'
p1262
tp1263
asg26
(lp1264
(S'have_item2'
p1265
tp1266
asg30
(tsg31
(lp1267
sg35
I0
sg36
(lp1268
sg38
S'easymark_item2_2_1'
p1269
sbg741
tp1270
(g82
g2
g8
g10
g16
tp1271
tp1272
a((g82
g61
g6
g8
g88
g10
g12
g16
g65
g57
tp1273
(g536
g1150
tp1274
(g82
g4
g61
g8
g88
g12
g14
g57
tp1275
tp1276
a((g82
g2
g4
g86
g6
g105
g8
g88
g10
g63
g12
tp1277
(g284
tp1278
(g82
g86
g105
g8
g88
g10
g16
tp1279
tp1280
a((g4
g86
g6
g8
g88
g10
g63
g14
g16
g65
g57
tp1281
(g137
tp1282
(g8
g12
g16
tp1283
tp1284
a((g2
g61
g105
g8
g88
g14
tp1285
(g90
g555
(istructures.domain
Action
p1286
(dp1287
g20
(lp1288
(S'at_x3'
p1289
tp1290
a(S'at_y1'
p1291
tp1292
asg26
(lp1293
(S'at_x4'
p1294
tp1295
asg30
(tsg31
(lp1296
(S'at_x3'
p1297
tp1298
asg35
I0
sg36
(lp1299
sg38
S'move_3_1_4_1'
p1300
sbtp1301
(g2
g4
g61
g10
g16
tp1302
tp1303
a((g2
g6
g65
tp1304
(g793
(istructures.domain
Action
p1305
(dp1306
g20
(lp1307
(S'at_x2'
p1308
tp1309
a(S'at_y3'
p1310
tp1311
asg26
(lp1312
(S'at_y2'
p1313
tp1314
asg30
(tsg31
(lp1315
(S'at_y3'
p1316
tp1317
asg35
I0
sg36
(lp1318
sg38
S'move_2_3_2_2'
p1319
sb(istructures.domain
Action
p1320
(dp1321
g20
(lp1322
(S'at_x2'
p1323
tp1324
a(S'at_y2'
p1325
tp1326
asg26
(lp1327
(S'at_x3'
p1328
tp1329
asg30
(tsg31
(lp1330
(S'at_x2'
p1331
tp1332
asg35
I0
sg36
(lp1333
sg38
S'move_2_2_3_2'
p1334
sbg1150
(istructures.domain
Action
p1335
(dp1336
g20
(lp1337
(S'at_x3'
p1338
tp1339
a(S'at_y2'
p1340
tp1341
asg26
(lp1342
(S'at_x4'
p1343
tp1344
asg30
(tsg31
(lp1345
(S'at_x3'
p1346
tp1347
asg35
I0
sg36
(lp1348
sg38
S'move_3_2_4_2'
p1349
sbtp1350
(g82
g4
g12
g16
g65
tp1351
tp1352
a((g2
g86
g105
g8
g88
g63
g12
g14
tp1353
(g150
tp1354
(g86
g8
g88
g12
g65
tp1355
tp1356
a((g2
g4
g86
g6
g105
g8
g88
g14
g16
g65
g57
tp1357
(g271
g137
g413
tp1358
(g4
g86
g6
g63
g12
g14
g65
tp1359
tp1360
a((g82
g61
g6
g105
g8
g10
g12
g16
tp1361
((istructures.domain
Action
p1362
(dp1363
g20
(lp1364
(S'at_x4'
p1365
tp1366
a(S'at_y1'
p1367
tp1368
asg26
(lp1369
(S'at_y0'
p1370
tp1371
asg30
(tsg31
(lp1372
(S'at_y1'
p1373
tp1374
asg35
I0
sg36
(lp1375
sg38
S'move_4_1_4_0'
p1376
sbtp1377
(g61
g105
g88
tp1378
tp1379
a((g2
g4
g61
g8
g63
g12
g14
g65
g57
tp1380
(g1036
g284
tp1381
(g2
g4
g86
g8
g12
g16
g65
g57
tp1382
tp1383
a((g82
g86
g61
g6
g105
g8
g88
g10
g63
g12
g14
g57
tp1384
(g608
tp1385
(g86
g61
g10
g12
g16
g57
tp1386
tp1387
a((g82
g2
g4
g86
g61
g6
g88
g12
g14
g16
g65
g57
tp1388
(g413
tp1389
(g82
g2
g4
g63
g12
g14
g65
g57
tp1390
tp1391
a((g82
g4
g86
g61
g105
g88
g10
g63
g12
g14
tp1392
(g107
tp1393
(g82
g4
g6
g63
g14
tp1394
tp1395
a((g82
g4
g86
g61
g105
g8
g88
g10
g63
g12
tp1396
((istructures.domain
Action
p1397
(dp1398
g20
(lp1399
(S'at_x0'
p1400
tp1401
a(S'at_y5'
p1402
tp1403
asg26
(lp1404
(S'at_y4'
p1405
tp1406
asg30
(tsg31
(lp1407
(S'at_y5'
p1408
tp1409
asg35
I0
sg36
(lp1410
sg38
S'move_0_5_0_4'
p1411
sbg377
tp1412
(g82
g4
g61
g8
g12
g65
g57
tp1413
tp1414
a((g4
g86
g8
g88
g10
g63
g14
g16
g57
tp1415
(g812
g150
tp1416
(g86
g105
g8
g63
g16
g65
tp1417
tp1418
a((g82
g2
g4
g105
g88
g12
tp1419
((istructures.domain
Action
p1420
(dp1421
g20
(lp1422
(S'at_x2'
p1423
tp1424
a(S'at_y0'
p1425
tp1426
asg26
(lp1427
(S'at_y1'
p1428
tp1429
asg30
(tsg31
(lp1430
(S'at_y0'
p1431
tp1432
asg35
I0
sg36
(lp1433
sg38
S'move_2_0_2_1'
p1434
sbg1190
g394
tp1435
(g82
g10
g12
g14
g65
tp1436
tp1437
a((g2
g4
g86
g61
g6
g105
g88
g12
g14
g16
g65
g57
tp1438
(g413
g950
tp1439
(g86
g61
g6
g8
g88
g63
g57
tp1440
tp1441
a((g82
g2
g4
g61
g6
g105
g8
g10
g12
g14
g65
g57
tp1442
((istructures.domain
Action
p1443
(dp1444
g20
(lp1445
(S'at_x0'
p1446
tp1447
a(S'at_y1'
p1448
tp1449
asg26
(lp1450
(S'at_y0'
p1451
tp1452
asg30
(tsg31
(lp1453
(S'at_y1'
p1454
tp1455
asg35
I0
sg36
(lp1456
sg38
S'move_0_1_0_0'
p1457
sbtp1458
(g82
g4
g6
g8
g88
g12
g14
g65
g57
tp1459
tp1460
a((g2
g86
g6
g105
g8
g10
g63
g12
g14
g16
tp1461
(g793
tp1462
(g82
g2
g86
g6
g8
g10
g14
tp1463
tp1464
a((g2
g4
g61
g6
g105
g8
g88
g63
g14
g16
g65
tp1465
(g122
tp1466
(g4
g86
g8
g88
g63
g65
tp1467
tp1468
a((g82
g2
g86
g61
g6
g8
g88
g63
g14
g57
tp1469
(g271
g864
(istructures.domain
Action
p1470
(dp1471
g20
(lp1472
(S'at_x5'
p1473
tp1474
a(S'at_y3'
p1475
tp1476
asg26
(lp1477
(S'at_x4'
p1478
tp1479
asg30
(tsg31
(lp1480
(S'at_x5'
p1481
tp1482
asg35
I0
sg36
(lp1483
sg38
S'move_5_3_4_3'
p1484
sbtp1485
(g82
g2
g4
g10
g14
g16
g57
tp1486
tp1487
a((g82
g2
g4
g86
g61
g6
g105
g8
g88
g10
g63
g16
g65
g57
tp1488
(g432
g536
tp1489
(g2
g4
g86
g61
g8
g88
g10
g63
g12
g14
tp1490
tp1491
a((g2
g4
g86
g6
g105
g8
g88
g10
g12
g14
g16
g57
tp1492
(g150
tp1493
(g4
g86
g6
g12
g16
g65
tp1494
tp1495
a((g2
g61
g88
g63
g12
g14
g16
g65
g57
tp1496
(g237
g90
g741
tp1497
(g4
g8
g10
g63
g65
tp1498
tp1499
a((g2
g86
g61
g6
g105
g88
g10
g63
g14
g16
g57
tp1500
(g793
tp1501
(g82
g86
g61
g88
g14
g57
tp1502
tp1503
a((g82
g2
g61
g105
g88
g12
g14
g16
g65
tp1504
(g413
tp1505
(g63
g65
tp1506
tp1507
a((g82
g2
g86
g61
g8
g88
g63
g12
g14
g65
g57
tp1508
(g271
tp1509
(g82
g61
g10
g14
tp1510
tp1511
a((g2
g4
g6
g10
g16
tp1512
(g774
g793
g500
tp1513
(g82
g2
g4
g8
g12
g16
tp1514
tp1515
a((g61
g105
g8
g63
g12
g14
g16
tp1516
(g199
g377
tp1517
(g2
g12
g65
tp1518
tp1519
a((g82
g2
g61
g105
g8
g10
g12
g14
g16
tp1520
(g40
g122
tp1521
(g82
g86
g6
g105
g8
g16
tp1522
tp1523
a((g82
g86
g61
g6
g105
g8
g88
g63
g12
g16
tp1524
(g477
g299
tp1525
(g4
g86
g105
g8
g88
g10
g16
tp1526
tp1527
a((g2
g4
g86
g61
g105
g88
g63
g12
g14
g65
g57
tp1528
(g284
tp1529
(g4
g61
g105
g12
g14
g16
g57
tp1530
tp1531
a((g82
g2
g4
g86
g63
g12
g14
g65
tp1532
(g1335
tp1533
(g2
g86
g63
g12
g16
tp1534
tp1535
a((g82
g4
g86
g61
g6
g63
g12
g65
g57
tp1536
(g812
g165
tp1537
(g61
g105
g12
g65
g57
tp1538
tp1539
a((g82
g2
g4
g86
g6
g8
g88
g10
g63
tp1540
(g137
g271
g165
tp1541
(g4
g8
g10
g12
g57
tp1542
tp1543
a((g4
g86
g105
g8
g10
g12
g14
g65
g57
tp1544
(g362
g1257
(istructures.domain
Action
p1545
(dp1546
g20
(lp1547
(S'at_x3'
p1548
tp1549
a(S'at_y1'
p1550
tp1551
asg26
(lp1552
(S'at_y0'
p1553
tp1554
asg30
(tsg31
(lp1555
(S'at_y1'
p1556
tp1557
asg35
I0
sg36
(lp1558
sg38
S'move_3_1_3_0'
p1559
sbtp1560
(g82
g2
g8
g88
g14
g57
tp1561
tp1562
a((g82
g2
g4
g86
g61
g105
g8
g88
g10
g63
g12
g16
g57
tp1563
(g394
tp1564
(g86
g105
g14
g16
tp1565
tp1566
a((g82
g2
g61
g6
g105
g8
g10
g12
g14
g65
g57
tp1567
(g1036
g1286
tp1568
(g82
g86
g6
g16
g65
g57
tp1569
tp1570
a((g82
g2
g4
g61
g8
g10
g63
g12
g16
g65
g57
tp1571
(g536
tp1572
(g61
g8
g12
g14
g57
tp1573
tp1574
a((g82
g4
g61
g6
g105
g8
g10
g63
g12
g57
tp1575
(g1036
g362
tp1576
(g2
g105
g63
g12
g57
tp1577
tp1578
a((g82
g2
g61
g105
g88
g10
g63
g14
g65
g57
tp1579
(g996
g950
tp1580
(g86
g61
g8
g10
g14
g57
tp1581
tp1582
a((g82
g4
g86
g6
g10
g63
g12
g16
g57
tp1583
(g377
tp1584
(g86
g12
g16
g65
g57
tp1585
tp1586
a((g82
g2
g4
g86
g61
g105
g88
g63
g12
g14
g57
tp1587
(g271
tp1588
(g2
g86
g61
g10
g63
g12
g14
tp1589
tp1590
a((g86
g6
g105
g8
g88
g63
g14
g16
g65
tp1591
(g271
(istructures.domain
Action
p1592
(dp1593
g20
(lp1594
(S'at_x1'
p1595
tp1596
a(S'at_y3'
p1597
tp1598
asg26
(lp1599
(S'at_x2'
p1600
tp1601
asg30
(tsg31
(lp1602
(S'at_x1'
p1603
tp1604
asg35
I0
sg36
(lp1605
sg38
S'move_1_3_2_3'
p1606
sbg793
tp1607
(g82
g2
g6
g105
g10
g63
g16
tp1608
tp1609
a((g82
g86
g61
g6
g8
g88
g14
g16
g57
tp1610
((istructures.domain
Action
p1611
(dp1612
g20
(lp1613
(S'at_x4'
p1614
tp1615
a(S'at_y4'
p1616
tp1617
asg26
(lp1618
(S'at_x5'
p1619
tp1620
asg30
(tsg31
(lp1621
(S'at_x4'
p1622
tp1623
asg35
I0
sg36
(lp1624
sg38
S'move_4_4_5_4'
p1625
sbg250
tp1626
(g82
g61
g6
g8
g63
g65
tp1627
tp1628
a((g2
g86
g6
g10
g63
g12
g14
g57
tp1629
(g661
tp1630
(g61
g10
g63
g12
tp1631
tp1632
a((g2
g4
g86
g105
g88
g63
g12
g14
g16
g65
tp1633
(g40
g165
tp1634
(g105
g63
g65
g57
tp1635
tp1636
a((g82
g4
g61
g105
g8
g12
g14
g16
g57
tp1637
(g413
g1335
g377
tp1638
(g4
g61
g105
g8
g63
g16
g65
tp1639
tp1640
a((g4
g86
g61
g6
g105
g8
g88
g14
g16
tp1641
(g904
tp1642
(g86
g61
g6
g8
g88
g63
g14
tp1643
tp1644
a((g2
g4
g6
g105
g8
g88
g63
g14
g16
g57
tp1645
(g1015
tp1646
(g2
g4
g6
g8
g88
g14
g16
g65
g57
tp1647
tp1648
a((g82
g2
g4
g86
g61
g88
g10
g63
g12
g14
tp1649
(g40
g250
tp1650
(g82
g2
g4
g86
g6
g63
g14
g65
tp1651
tp1652
a((g82
g2
g4
g105
g63
g12
g16
g57
tp1653
(g831
tp1654
(g4
g8
g12
tp1655
tp1656
a((g10
g63
g12
g14
g65
g57
tp1657
(g1150
g107
tp1658
(g4
g6
g63
g57
tp1659
tp1660
a((g82
g2
g61
g6
g105
g8
g88
g63
g12
g14
tp1661
(g122
g165
tp1662
(g82
g86
g8
g63
g57
tp1663
tp1664
a((g2
g61
g105
g8
g88
g12
g14
g16
g65
g57
tp1665
(g237
g996
tp1666
(g86
g61
g10
g14
g16
g65
g57
tp1667
tp1668
a((g82
g4
g86
g61
g88
g16
g65
g57
tp1669
(g831
g1611
tp1670
(g4
g86
g8
g88
g63
g57
tp1671
tp1672
a((g82
g2
g86
g105
g8
g88
g63
g12
g14
tp1673
(g40
g608
tp1674
(g2
g6
g105
g88
g63
g16
tp1675
tp1676
a((g82
g4
g86
g6
g63
g14
g16
g57
tp1677
(g812
g165
tp1678
(g4
g105
g14
g16
g57
tp1679
tp1680
a((g61
g6
g105
g8
g10
g63
g12
g14
g65
g57
tp1681
(g1036
tp1682
(g86
g10
g63
g65
g57
tp1683
tp1684
a((g82
g2
g4
g86
g61
g105
g8
g10
g63
g14
tp1685
(g1286
tp1686
(g82
g2
g86
g61
g63
g16
tp1687
tp1688
a((g82
g2
g86
g61
g6
g88
g10
g63
g12
g14
g57
tp1689
(g90
g377
tp1690
(g82
g2
g4
g86
g10
g63
g12
g14
g65
g57
tp1691
tp1692
a((g2
g4
g86
g105
g8
g88
g10
g12
g16
g65
g57
tp1693
(g589
tp1694
(g86
g6
g8
g10
g12
g65
tp1695
tp1696
a((g82
g2
g86
g61
g6
g105
g63
g16
g57
tp1697
(g432
g237
g536
tp1698
(g82
g61
g10
g63
g14
tp1699
tp1700
a((g82
g2
g4
g61
g6
g8
g10
g12
g16
g65
g57
tp1701
(g1036
tp1702
(g4
g86
g10
g16
g65
g57
tp1703
tp1704
a((g2
g88
g63
g14
g65
tp1705
((istructures.domain
Action
p1706
(dp1707
g20
(lp1708
(S'at_x2'
p1709
tp1710
a(S'at_y0'
p1711
tp1712
asg26
(lp1713
(S'at_x1'
p1714
tp1715
asg30
(tsg31
(lp1716
(S'at_x2'
p1717
tp1718
asg35
I0
sg36
(lp1719
sg38
S'move_2_0_1_0'
p1720
sb(istructures.domain
Action
p1721
(dp1722
g20
(lp1723
(S'at_x1'
p1724
tp1725
a(S'at_y0'
p1726
tp1727
asg26
(lp1728
(S'at_x0'
p1729
tp1730
asg30
(tsg31
(lp1731
(S'at_x1'
p1732
tp1733
asg35
I0
sg36
(lp1734
sg38
S'move_1_0_0_0'
p1735
sbtp1736
(g61
tp1737
tp1738
a((g4
g8
g88
g10
g63
g12
g14
g16
g57
tp1739
(g107
tp1740
(g4
g6
g8
g88
g10
g63
tp1741
tp1742
a((g82
g86
g6
g105
g8
g88
g10
g12
g14
g65
g57
tp1743
(g661
tp1744
(g61
g105
g88
g14
g57
tp1745
tp1746
a((g2
g4
g86
g6
g105
g88
g10
g14
g16
tp1747
(g137
g793
tp1748
(g82
g6
g105
g88
g12
g16
tp1749
tp1750
a((g82
g2
g86
g88
g10
g63
g14
tp1751
(g90
(istructures.domain
Action
p1752
(dp1753
g20
(lp1754
(S'at_x5'
p1755
tp1756
a(S'at_y1'
p1757
tp1758
asg26
(lp1759
(S'at_x4'
p1760
tp1761
asg30
(tsg31
(lp1762
(S'at_x5'
p1763
tp1764
asg35
I0
sg36
(lp1765
sg38
S'move_5_1_4_1'
p1766
sbtp1767
(g82
g2
g4
g14
g16
tp1768
tp1769
a((g82
g2
g105
g8
g88
g63
g12
g57
tp1770
(g284
tp1771
(g105
g88
g16
g57
tp1772
tp1773
a((g82
g2
g4
g61
g6
g105
g88
g12
g57
tp1774
(g237
g394
g608
tp1775
(g82
g4
g61
g6
g88
g10
g16
tp1776
tp1777
a((g82
g2
g86
g61
g6
g8
g10
g63
g12
g16
g65
g57
tp1778
(g458
g237
tp1779
(g2
g86
g8
g88
g10
g16
g65
g57
tp1780
tp1781
a((g82
g2
g4
g86
g105
g8
g12
g14
g16
g65
g57
tp1782
(g40
tp1783
(g2
g4
g86
g6
tp1784
tp1785
a((g82
g2
g4
g61
g6
g105
g8
g10
g63
g12
g16
g65
tp1786
(g1362
tp1787
(g82
g6
g88
g63
g16
g65
tp1788
tp1789
a((g82
g2
g6
g105
g8
g63
g12
g16
g65
g57
tp1790
(g237
g432
g536
tp1791
(g82
g105
g10
g63
g12
g14
g57
tp1792
tp1793
a((g82
g2
g4
g86
g6
g8
g88
g10
g63
g12
g14
g65
g57
tp1794
(g661
g608
tp1795
(g82
g4
g61
g6
g8
g10
g12
g16
g57
tp1796
tp1797
a((g82
g2
g4
g86
g61
g6
g105
g88
g10
g14
g16
g57
tp1798
(g137
g950
tp1799
(g82
g2
g86
g8
g88
g12
g16
g57
tp1800
tp1801
a((g82
g2
g4
g86
g61
g105
g8
g88
g10
g63
g12
g14
g65
g57
tp1802
(g40
g608
tp1803
(g82
g2
g4
g61
g6
g8
g16
g65
g57
tp1804
tp1805
a((g82
g2
g86
g61
g88
g10
g63
g12
g16
g57
tp1806
(g90
g377
tp1807
(g82
g4
g61
g10
g16
g65
tp1808
tp1809
a((g2
g4
g61
g6
g105
g88
g10
g14
g16
g65
g57
tp1810
(g793
g500
tp1811
(g82
g2
g4
g6
g105
g8
g88
g10
g14
tp1812
tp1813
a((g82
g2
g4
g6
g105
g88
g10
g12
g14
g16
tp1814
(g996
tp1815
(g4
g86
g88
g14
tp1816
tp1817
a((g82
g61
g6
g88
g10
g63
g12
g14
g65
g57
tp1818
(g1036
tp1819
(g86
g6
g10
g12
g14
g57
tp1820
tp1821
a((g82
g86
g61
g6
g105
g8
g88
g12
g16
tp1822
(g299
g413
tp1823
(g4
g61
g105
g8
g88
g63
g12
tp1824
tp1825
a((g82
g2
g4
g6
g12
g16
g65
tp1826
(g237
g996
g458
(istructures.domain
Action
p1827
(dp1828
g20
(lp1829
(S'at_x4'
p1830
tp1831
a(S'at_y3'
p1832
tp1833
asg26
(lp1834
(S'at_y4'
p1835
tp1836
asg30
(tsg31
(lp1837
(S'at_y3'
p1838
tp1839
asg35
I0
sg36
(lp1840
sg38
S'move_4_3_4_4'
p1841
sbtp1842
(g4
g86
g88
g65
g57
tp1843
tp1844
a((g82
g2
g86
g61
g6
g105
g8
g88
g63
g65
tp1845
(g432
g237
g90
tp1846
(g82
g2
g4
g86
g105
g8
g88
g10
g63
g65
tp1847
tp1848
a((g82
g86
g61
g6
g105
g10
g12
g14
g16
g57
tp1849
(g950
tp1850
(g86
g61
g105
g8
g14
g16
tp1851
tp1852
a((g82
g2
g86
g61
g6
g8
g88
g10
g63
g14
g65
g57
tp1853
(g137
g271
g1286
tp1854
(g61
g6
g10
g63
g12
g16
g65
tp1855
tp1856
a((g82
g2
g4
g61
g6
g8
g88
g12
g14
g65
tp1857
(g237
g608
g394
tp1858
(g82
g61
g8
g10
g14
g16
tp1859
tp1860
a((g82
g2
g4
g86
g105
g8
g88
g10
g12
g14
tp1861
(g608
g413
tp1862
(g86
g88
g10
g63
tp1863
tp1864
a((g82
g2
g105
g10
g63
g12
g14
g57
tp1865
(g377
g722
tp1866
(g82
g88
g12
g65
tp1867
tp1868
a((g4
g86
g61
g6
g105
g8
g88
g63
g14
g16
g57
tp1869
(g362
tp1870
(g2
g105
g88
g16
g57
tp1871
tp1872
a((g86
g61
g6
g8
g88
g10
g63
g12
g14
tp1873
(g1150
g608
tp1874
(g4
g61
g6
g8
g63
g16
tp1875
tp1876
a((g4
g86
g6
g105
g8
g88
g10
g12
g14
g16
g57
tp1877
(g413
g150
tp1878
(g4
g86
g105
g8
g88
g63
g65
tp1879
tp1880
a((g82
g2
g86
g61
g6
g105
g8
g88
g10
g14
g65
g57
tp1881
(g137
g271
g864
tp1882
(g82
g2
g4
g61
g6
g10
g12
tp1883
tp1884
a((g2
g86
g61
g105
g8
g88
g10
g63
g14
tp1885
(g608
g150
tp1886
(g105
g8
g63
g16
g65
tp1887
tp1888
a((g82
g86
g8
g63
g14
g16
g57
tp1889
(g362
g864
tp1890
(g2
g4
g8
g14
tp1891
tp1892
a((g82
g2
g4
g86
g61
g88
g10
g63
g12
g14
tp1893
(g40
g500
tp1894
(g86
g8
g10
tp1895
tp1896
a((g4
g86
g61
g6
g105
g12
g14
g16
g65
tp1897
(g950
tp1898
(g61
g105
g8
g12
g65
tp1899
tp1900
a((g82
g2
g4
g105
g8
g10
g63
g14
g16
g65
g57
tp1901
(g517
tp1902
(g2
g6
g105
g10
g63
g14
g16
tp1903
tp1904
a((g82
g2
g4
g86
g63
g12
g14
g65
g57
tp1905
(g812
g950
tp1906
(g86
g105
g8
tp1907
tp1908
a((g82
g86
g61
g105
g88
g10
g12
g14
g16
tp1909
(g413
g1397
tp1910
(g86
g88
g63
g14
g57
tp1911
tp1912
a((g2
g4
g6
g105
g63
g12
g14
g65
g57
tp1913
(g237
g793
g500
tp1914
(g82
g2
g4
g6
g105
g8
g10
g14
g57
tp1915
tp1916
a((g2
g4
g86
g61
g6
g105
g88
g10
g63
g14
g16
g65
tp1917
(g950
tp1918
(g8
g16
g65
tp1919
tp1920
a((g82
g4
g86
g105
g8
g63
g12
g14
g16
g65
g57
tp1921
(g362
g237
tp1922
(g82
g2
g105
g8
g10
g63
g16
g65
tp1923
tp1924
a((g82
g86
g6
g105
g63
g14
g65
g57
tp1925
(g950
(istructures.domain
Action
p1926
(dp1927
g20
(lp1928
(S'at_x3'
p1929
tp1930
a(S'at_y4'
p1931
tp1932
asg26
(lp1933
(S'at_x2'
p1934
tp1935
asg30
(tsg31
(lp1936
(S'at_x3'
p1937
tp1938
asg35
I0
sg36
(lp1939
sg38
S'move_3_4_2_4'
p1940
sbtp1941
(g82
g2
g86
g105
g8
g63
g57
tp1942
tp1943
a((g4
g86
g8
g88
g63
g12
g16
g65
g57
tp1944
(g271
g536
tp1945
(g4
g10
g63
g14
tp1946
tp1947
a((g82
g2
g86
g8
g88
g10
g63
g12
g65
g57
tp1948
(g517
tp1949
(g6
g8
g63
g12
tp1950
tp1951
a((g2
g6
g105
g8
g88
g63
g12
g16
tp1952
(g237
tp1953
(g2
g105
g8
g10
g63
g16
tp1954
tp1955
a((g82
g2
g86
g61
g6
g105
g8
g10
g63
g14
g65
tp1956
(g432
g1150
tp1957
(g82
g4
g105
g8
g10
g63
g12
g65
tp1958
tp1959
a((g82
g2
g4
g86
g6
g88
g63
g14
g16
g57
tp1960
(g812
tp1961
(g82
g2
g6
g105
g88
g63
g14
tp1962
tp1963
a((g86
g61
g6
g8
g88
g63
g14
g16
g65
g57
tp1964
(g362
g812
tp1965
(g2
g6
g105
g8
g88
g63
g14
g16
g65
tp1966
tp1967
a((g2
g4
g86
g6
g105
g88
g63
g12
g65
g57
tp1968
(g271
g661
tp1969
(g4
g61
g6
g105
g10
g12
g65
g57
tp1970
tp1971
a((g2
g4
g86
g61
g105
g88
g10
g63
g12
g14
g57
tp1972
(g40
g950
tp1973
(g2
g6
g105
g8
g57
tp1974
tp1975
a((g82
g2
g4
g61
g6
g105
g88
g10
g63
g16
tp1976
(g774
(istructures.domain
Action
p1977
(dp1978
g20
(lp1979
(S'at_x4'
p1980
tp1981
a(S'at_y3'
p1982
tp1983
asg26
(lp1984
(S'at_x3'
p1985
tp1986
asg30
(tsg31
(lp1987
(S'at_x4'
p1988
tp1989
asg35
I0
sg36
(lp1990
sg38
S'move_4_3_3_3'
p1991
sbtp1992
(g82
g2
g4
g6
g88
g12
g14
tp1993
tp1994
a((g82
g2
g61
g105
g8
g88
g12
g14
g65
g57
tp1995
(g40
g90
tp1996
(g2
g4
g61
g6
g105
g8
g14
g57
tp1997
tp1998
a((g2
g61
g6
g105
g88
g10
g63
g12
g16
g57
tp1999
(g394
tp2000
(g6
g105
g14
g16
tp2001
tp2002
a((g86
g61
g6
g88
g10
g63
g57
tp2003
(g432
g67
tp2004
(g82
g86
g88
g10
g12
tp2005
tp2006
a((g82
g2
g4
g61
g8
g16
g65
g57
tp2007
(g1611
(istructures.domain
Action
p2008
(dp2009
g20
(lp2010
(S'at_x2'
p2011
tp2012
a(S'at_y4'
p2013
tp2014
asg26
(lp2015
(S'at_x3'
p2016
tp2017
asg30
(tsg31
(lp2018
(S'at_x2'
p2019
tp2020
asg35
I0
sg36
(lp2021
sg38
S'move_2_4_3_4'
p2022
sb(istructures.domain
Action
p2023
(dp2024
g20
(lp2025
(S'at_x3'
p2026
tp2027
a(S'at_y4'
p2028
tp2029
asg26
(lp2030
(S'at_x4'
p2031
tp2032
asg30
(tsg31
(lp2033
(S'at_x3'
p2034
tp2035
asg35
I0
sg36
(lp2036
sg38
S'move_3_4_4_4'
p2037
sbtp2038
(g8
g63
g16
g65
g57
tp2039
tp2040
a((g2
g4
g86
g61
g105
g10
g14
g65
g57
tp2041
(g950
tp2042
(g2
g61
g105
g8
g14
g57
tp2043
tp2044
a((g82
g4
g86
g61
g6
g105
g8
g10
g63
g14
g65
tp2045
((istructures.domain
Action
p2046
(dp2047
g20
(lp2048
(S'at_x5'
p2049
tp2050
a(S'at_y5'
p2051
tp2052
asg26
(lp2053
(S'at_x4'
p2054
tp2055
asg30
(tsg31
(lp2056
(S'at_x5'
p2057
tp2058
asg35
I0
sg36
(lp2059
sg38
S'move_5_5_4_5'
p2060
sbtp2061
(g86
g10
g14
g16
g65
tp2062
tp2063
a((g86
g61
g6
g105
g88
g10
g63
g57
tp2064
(g2046
g950
tp2065
(g61
g6
g8
g88
g16
g57
tp2066
tp2067
a((g2
g4
g6
g105
g8
g88
g63
g14
g65
g57
tp2068
(g432
g237
g608
tp2069
(g2
g4
g8
g88
g10
g16
g57
tp2070
tp2071
a((g82
g2
g4
g86
g6
g105
g8
g88
g63
g12
g65
g57
tp2072
(g271
g661
g284
tp2073
(g82
g2
g4
g61
g6
g105
g10
g16
g57
tp2074
tp2075
a((g82
g2
g4
g6
g105
g8
g63
g12
g14
g16
tp2076
(g324
g199
tp2077
(g82
g2
g4
g86
g6
g105
g8
g16
tp2078
tp2079
a((g82
g2
g61
g10
g12
g14
g16
g65
g57
tp2080
(g864
g680
tp2081
(g4
g61
g105
g10
g12
g16
tp2082
tp2083
a((g82
g2
g86
g61
g6
g8
g88
g12
g16
tp2084
((istructures.domain
Action
p2085
(dp2086
g20
(lp2087
(S'at_x2'
p2088
tp2089
a(S'at_y3'
p2090
tp2091
asg26
(lp2092
(S'at_x3'
p2093
tp2094
asg30
(tsg31
(lp2095
(S'at_x2'
p2096
tp2097
asg35
I0
sg36
(lp2098
sg38
S'move_2_3_3_3'
p2099
sbg1592
tp2100
(g2
g88
g14
g16
tp2101
tp2102
a((g82
g2
g4
g86
g6
g105
g8
g10
g63
g14
g16
g65
g57
tp2103
(g137
g661
g324
tp2104
(g82
g86
g61
g6
g8
g12
g14
g16
g65
tp2105
tp2106
a((g4
g86
g61
g105
g12
g16
g57
tp2107
(g413
tp2108
(g86
g63
g57
tp2109
tp2110
a((g4
g86
g88
g10
g63
g14
g16
g57
tp2111
(g137
g661
g831
tp2112
(g4
g61
g8
g88
g12
g16
g57
tp2113
tp2114
a((g2
g4
g61
g105
g8
g88
g14
g57
tp2115
(g589
g250
tp2116
(g2
g6
g8
g88
g14
g65
tp2117
tp2118
a((g82
g2
g86
g6
g88
g10
g63
g57
tp2119
(g432
tp2120
(g2
g10
g63
g12
g57
tp2121
tp2122
a((g2
g61
g6
g105
g88
g10
g63
g14
g16
g65
tp2123
(g90
g500
tp2124
(g2
g4
g8
g10
g63
g16
tp2125
tp2126
a((g82
g4
g86
g105
g8
g88
g63
g16
g65
tp2127
(g1092
g517
tp2128
(g4
g6
g88
g63
g16
g65
tp2129
tp2130
a((g82
g4
g61
g6
g105
g88
g10
g63
g16
g57
tp2131
(g741
g536
tp2132
(g82
g61
g6
g105
g8
g14
g57
tp2133
tp2134
a((g82
g86
g61
g6
g63
g12
g65
g57
tp2135
(g812
g950
tp2136
(g6
g105
g8
g65
tp2137
tp2138
a((g6
g105
g8
g88
g63
g12
g14
g16
g65
g57
tp2139
(g299
tp2140
(g4
g6
g105
g63
g14
g65
g57
tp2141
tp2142
a((g2
g61
g105
g12
g14
g65
tp2143
(g40
g500
tp2144
(g2
g6
g105
g8
g65
tp2145
tp2146
a((g82
g2
g4
g8
g88
g63
g12
g14
g57
tp2147
(g555
g996
tp2148
(g82
g4
g86
g8
g10
g12
tp2149
tp2150
a((g82
g2
g4
g6
g8
g88
g63
g14
g16
g65
g57
tp2151
(g432
g555
g996
tp2152
(g86
g8
g10
g12
g57
tp2153
tp2154
a((g82
g86
g61
g105
g8
g63
g65
tp2155
(g2046
g299
tp2156
(g4
g86
g8
tp2157
tp2158
a((g4
g86
g61
g6
g105
g8
g88
g10
g63
g14
g16
g65
tp2159
(g1092
g627
tp2160
(g2
g4
g86
g61
g8
g88
g16
g65
g57
tp2161
tp2162
a((g82
g2
g4
g86
g61
g10
g12
g14
g16
g65
g57
tp2163
(g458
g413
tp2164
(g86
g88
g63
g12
g14
g65
g57
tp2165
tp2166
a((g82
g2
g86
g6
g63
g14
g16
g65
g57
tp2167
(g432
g237
g864
tp2168
(g4
g86
g10
g65
g57
tp2169
tp2170
a((g82
g4
g61
g6
g88
g12
g16
g65
g57
tp2171
(g831
g536
tp2172
(g4
g6
g8
g88
g12
g14
g57
tp2173
tp2174
a((g82
g2
g86
g105
g8
g88
g10
g63
g16
g57
tp2175
(g536
g150
tp2176
(g82
g105
g8
g14
g65
g57
tp2177
tp2178
a((g82
g2
g105
g8
g88
g10
g12
g16
g65
g57
tp2179
(g40
g774
g1049
tp2180
(g6
g8
g12
g14
g16
g57
tp2181
tp2182
a((g2
g4
g86
g61
g6
g105
g8
g88
g10
g63
g65
tp2183
(g2046
tp2184
(g4
g86
g16
g65
tp2185
tp2186
a((g2
g105
g8
g88
g63
g12
g14
g65
tp2187
(g237
g90
tp2188
(g2
g4
g8
g88
g10
tp2189
tp2190
a((g82
g4
g61
g6
g8
g10
g63
g12
g14
g57
tp2191
(g1036
g362
tp2192
(g2
g4
g6
g8
g14
tp2193
tp2194
a((g82
g2
g86
g61
g105
g8
g88
g10
g63
g14
g65
tp2195
(g137
g1397
tp2196
(g82
g86
g12
g14
g57
tp2197
tp2198
a((g82
g2
g4
g86
g61
g88
g10
g57
tp2199
(g589
g500
tp2200
(g82
g6
g8
tp2201
tp2202
a((g82
g2
g4
g86
g61
g105
g8
g88
g14
g65
tp2203
(g1397
tp2204
(g2
g4
g61
g57
tp2205
tp2206
a((g2
g4
g61
g105
g88
g10
g63
g12
g16
g65
g57
tp2207
(g1036
g1257
tp2208
(g82
g2
g4
g86
g105
g63
g16
g65
tp2209
tp2210
a((g82
g4
g86
g61
g105
g8
g88
g10
g63
g14
g16
g57
tp2211
(g362
g1036
tp2212
(g2
g4
g86
g105
g8
g88
g10
g14
g16
g57
tp2213
tp2214
a((g82
g86
g61
g6
g105
g8
g88
g63
g14
g57
tp2215
(g362
tp2216
(g2
g6
g105
g88
g63
g14
g57
tp2217
tp2218
a((g2
g4
g86
g105
g8
g88
g10
g14
g16
g65
g57
tp2219
(g589
tp2220
(g6
g105
g8
g88
g16
tp2221
tp2222
a((g2
g4
g61
g6
g105
g88
g10
g63
g16
g57
tp2223
(g536
g793
tp2224
(g82
g61
g14
tp2225
tp2226
a((g4
g6
g105
g88
g10
g63
g12
g14
g16
g65
tp2227
(g199
tp2228
(g2
g6
g105
g88
g10
g16
tp2229
tp2230
a((g82
g2
g4
g86
g6
g105
g8
g10
g12
g16
g65
g57
tp2231
(g458
g661
tp2232
(g82
g2
g61
g105
g8
g88
g12
g16
g65
tp2233
tp2234
a((g82
g2
g61
g6
g63
g14
g16
g65
g57
tp2235
(g432
g237
g864
tp2236
(g4
g61
g10
g63
g14
g16
tp2237
tp2238
a((g82
g2
g4
g105
g8
g88
g10
g12
g14
g57
tp2239
(g40
g877
g1015
tp2240
(g82
g6
g105
g88
g12
g65
g57
tp2241
tp2242
a((g82
g2
g86
g6
g105
g8
g88
g10
g63
g14
g16
tp2243
(g137
tp2244
(g82
g2
g105
g88
g63
g12
tp2245
tp2246
a((g86
g61
g6
g105
g8
g88
g10
g63
g12
g14
g16
tp2247
(g150
tp2248
(g86
g61
g6
g88
g63
g12
g16
g65
tp2249
tp2250
a((g82
g2
g86
g61
g105
g88
g10
g63
g12
g14
g16
g65
g57
tp2251
(g40
tp2252
(g2
g61
g6
g63
g14
tp2253
tp2254
a((g4
g86
g61
g6
g105
g8
g12
g14
g16
g65
g57
tp2255
(g413
tp2256
(g86
g6
g105
g63
g12
g14
g65
g57
tp2257
tp2258
a((g82
g61
g6
g105
g88
g10
g12
g16
g57
tp2259
(g741
tp2260
(g82
g6
g105
g8
g10
g57
tp2261
tp2262
a((g82
g2
g4
g61
g6
g105
g8
g88
g63
g12
g14
g57
tp2263
(g237
g608
tp2264
(g61
g6
g88
g10
g63
g16
tp2265
tp2266
a((g2
g4
g86
g6
g88
g12
g14
g16
tp2267
(g271
g793
tp2268
(g82
g4
g86
g6
g10
g14
tp2269
tp2270
a((g2
g4
g6
g105
g8
g10
g63
g12
g14
g16
g65
g57
tp2271
(g793
g996
tp2272
(g82
g4
g86
g6
g105
g8
g10
g14
g16
g65
g57
tp2273
tp2274
a((g82
g4
g61
g6
g105
g8
g88
g63
g14
g57
tp2275
(g608
g250
tp2276
(g4
g6
g88
g63
g16
g65
tp2277
tp2278
a((g2
g86
g61
g88
g10
g12
g16
tp2279
(g40
g793
tp2280
(g82
g86
g61
g6
g88
tp2281
tp2282
a((g82
g2
g4
g86
g61
g6
g105
g8
g88
g10
g14
tp2283
(g150
tp2284
(g4
g86
g14
g65
tp2285
tp2286
a((g82
g2
g4
g86
g105
g8
g10
g63
g14
g16
tp2287
(g137
tp2288
(g4
g105
g8
g12
g14
tp2289
tp2290
a((g82
g4
g86
g8
g88
g63
g12
g14
g16
g65
g57
tp2291
(g271
g661
tp2292
(g61
g8
g10
g63
g12
tp2293
tp2294
a((g82
g2
g4
g6
g8
g10
g63
g14
g65
tp2295
(g165
g812
g722
tp2296
(g82
g105
g8
g88
g14
tp2297
tp2298
a((g2
g86
g6
g105
g8
g88
g63
g12
g16
g65
g57
tp2299
(g237
tp2300
(g86
g6
g8
g88
g10
g63
tp2301
tp2302
a((g2
g4
g8
g88
g10
g12
g16
g65
g57
tp2303
(g40
g536
tp2304
(g6
g88
g14
g57
tp2305
tp2306
a((g82
g2
g86
g6
g105
g88
g10
g63
g12
g16
g65
g57
tp2307
(g661
g500
tp2308
(g82
g2
g61
g105
g8
g16
g65
tp2309
tp2310
a((g82
g4
g61
g6
g105
g10
g63
g16
g65
tp2311
(g122
g1092
g741
tp2312
(g4
g86
g6
g8
g63
g65
g57
tp2313
tp2314
a((g4
g86
g61
g6
g105
g8
g88
g10
g12
g14
g16
g65
g57
tp2315
(g199
tp2316
(g2
g86
g8
g10
g12
g16
g57
tp2317
tp2318
a((g82
g2
g86
g61
g10
g63
g14
g16
g57
tp2319
(g812
tp2320
(g86
g61
g105
g63
g14
g16
tp2321
tp2322
a((g2
g4
g86
g105
g8
g63
g12
g14
g16
g65
g57
tp2323
(g237
g1257
g458
tp2324
(g82
g4
g105
g8
g88
g16
g65
g57
tp2325
tp2326
a((g82
g2
g4
g61
g6
g105
g88
g63
g12
g65
g57
tp2327
(g324
g950
tp2328
(g86
g61
g6
g105
g8
g63
g65
tp2329
tp2330
a((g4
g86
g61
g6
g105
g88
g63
g12
g14
g16
g57
tp2331
(g477
g950
tp2332
(g4
g61
g6
g8
g88
g10
g63
g14
g16
g57
tp2333
tp2334
a((g82
g2
g86
g6
g8
g88
g10
g63
g14
g16
g65
g57
tp2335
(g137
g90
tp2336
(g2
g4
g86
g6
g8
g88
g63
g12
g14
g16
g65
g57
tp2337
tp2338
a((g82
g61
g6
g10
g63
g14
g16
g65
g57
tp2339
(g774
g831
tp2340
(g82
g61
g6
g8
g63
g12
g14
g65
g57
tp2341
tp2342
a((g2
g61
g6
g105
g8
g88
g10
g63
g14
g57
tp2343
(g250
tp2344
(g6
g105
g8
g63
g14
g65
tp2345
tp2346
a((g82
g2
g4
g86
g61
g6
g8
g88
g16
g65
g57
tp2347
(g1611
g812
tp2348
(g61
g6
g105
g8
g88
g63
g65
tp2349
tp2350
a((g2
g61
g6
g105
g8
g88
g10
g63
g12
g16
g65
tp2351
(g793
g1977
tp2352
(g82
g61
g6
g105
g88
g10
g14
g65
tp2353
tp2354
a((g82
g4
g61
g6
g105
g14
g65
g57
tp2355
(g570
(istructures.domain
Action
p2356
(dp2357
g20
(lp2358
(S'at_x3'
p2359
tp2360
a(S'at_y4'
p2361
tp2362
asg26
(lp2363
(S'at_y3'
p2364
tp2365
asg30
(tsg31
(lp2366
(S'at_y4'
p2367
tp2368
asg35
I0
sg36
(lp2369
sg38
S'move_3_4_3_3'
p2370
sbg1397
tp2371
(g4
g61
g6
g12
g57
tp2372
tp2373
a((g2
g86
g6
g105
g8
g88
g63
g16
g65
tp2374
(g271
g137
g703
tp2375
(g61
g6
g8
g12
g16
tp2376
tp2377
a((g82
g4
g61
g6
g8
g88
g63
g12
g14
g65
tp2378
(g122
g271
tp2379
(g82
g86
g6
g8
g10
g63
tp2380
tp2381
a((g82
g4
g86
g61
g6
g10
g63
g12
g14
g65
g57
tp2382
(g458
g443
tp2383
(g82
g88
g10
g63
g14
g65
tp2384
tp2385
a((g4
g61
g6
g8
g88
g10
g12
g14
g16
g65
g57
tp2386
(g67
tp2387
(g82
g61
g6
g10
g12
g14
g16
tp2388
tp2389
a((g86
g8
g10
g63
g14
g16
g65
g57
tp2390
(g362
g864
g1257
tp2391
(g82
g4
g8
g63
g16
tp2392
tp2393
a((g82
g4
g86
g61
g105
g88
g10
g63
g12
g14
g16
g57
tp2394
(g362
g1036
tp2395
(g82
g2
g4
g86
g88
g63
g12
g14
g57
tp2396
tp2397
a((g82
g2
g86
g12
g65
tp2398
(g40
g18
g661
g680
tp2399
(g82
g61
g105
tp2400
tp2401
a((g2
g86
g61
g6
g105
g88
g16
g65
g57
tp2402
(g90
g1305
tp2403
(g4
g86
g61
g105
g12
g65
tp2404
tp2405
a((g82
g4
g61
g8
g88
g10
g63
g14
g57
tp2406
(g1036
tp2407
(g4
g86
g88
g14
tp2408
tp2409
a((g82
g4
g88
g10
g12
g16
g65
g57
tp2410
((istructures.domain
Action
p2411
(dp2412
g20
(lp2413
(S'at_x4'
p2414
tp2415
a(S'at_y2'
p2416
tp2417
asg26
(lp2418
(S'at_y3'
p2419
tp2420
asg30
(tsg31
(lp2421
(S'at_y2'
p2422
tp2423
asg35
I0
sg36
(lp2424
sg38
S'move_4_2_4_3'
p2425
sbg741
tp2426
(g82
g4
g6
g8
g88
g10
g16
tp2427
tp2428
a((g82
g86
g61
g6
g105
g8
g10
g63
g16
tp2429
(g299
tp2430
(g82
g4
g86
g105
g8
g16
tp2431
tp2432
a((g82
g4
g61
g6
g8
g88
g10
g14
g16
g57
tp2433
(g1611
g812
tp2434
(g82
g4
g105
g8
g63
tp2435
tp2436
a((g82
g2
g4
g86
g6
g88
g10
g12
g14
g16
tp2437
(g18
g40
tp2438
(g2
g6
g10
g14
g57
tp2439
tp2440
a((g82
g4
g86
g61
g88
g14
g16
g65
g57
tp2441
((istructures.domain
Action
p2442
(dp2443
g20
(lp2444
(S'at_x4'
p2445
tp2446
a(S'at_y4'
p2447
tp2448
asg26
(lp2449
(S'at_y5'
p2450
tp2451
asg30
(tsg31
(lp2452
(S'at_y4'
p2453
tp2454
asg35
I0
sg36
(lp2455
sg38
S'move_4_4_4_5'
p2456
sbg950
tp2457
(g4
g86
g61
g105
g8
g88
g16
g65
tp2458
tp2459
a((g82
g4
g86
g61
g6
g10
g63
g12
g14
g57
tp2460
(g458
g608
tp2461
(g82
g4
g86
g6
g88
g63
g16
g57
tp2462
tp2463
a((g82
g2
g4
g86
g61
g105
g8
g88
g10
g12
g14
g65
tp2464
(g1397
tp2465
(g2
g86
g61
g8
g10
g12
g14
g57
tp2466
tp2467
a((g82
g86
g6
g105
g88
g63
g12
g14
g65
tp2468
(g271
g199
g703
tp2469
(g82
g2
g61
g6
g105
g10
g63
tp2470
tp2471
a((g2
g4
g86
g61
g6
g105
g8
g10
g12
g16
g65
g57
tp2472
(g793
tp2473
(g82
g2
g4
g61
g8
g12
tp2474
tp2475
a((g4
g61
g105
g63
g65
g57
tp2476
(g1036
g950
g517
tp2477
(g86
g6
g105
g8
tp2478
tp2479
a((g4
g6
g105
g8
g88
g10
g14
g16
g65
g57
tp2480
(g627
g793
tp2481
(g82
g10
g16
g65
tp2482
tp2483
a((g2
g4
g61
g6
g105
g8
g88
g10
g16
g65
g57
tp2484
(g793
g996
tp2485
(g82
g86
g61
g6
g105
g8
g65
tp2486
tp2487
a((g2
g4
g8
g63
g14
g16
g65
g57
tp2488
(g517
g793
g165
tp2489
(g82
g2
g8
g63
g14
g65
g57
tp2490
tp2491
a((g82
g2
g4
g86
g61
g105
g10
g12
g16
g57
tp2492
(g458
g950
tp2493
(g2
g105
g8
g88
g12
g57
tp2494
tp2495
a((g82
g4
g8
g63
g12
g14
g57
tp2496
(g199
g377
g184
tp2497
(g86
g12
g65
g57
tp2498
tp2499
a((g82
g2
g4
g86
g61
g6
g8
g88
g63
g14
g16
g65
g57
tp2500
(g432
tp2501
(g2
g4
g86
g88
g12
g14
g16
tp2502
tp2503
a((g2
g86
g61
g6
g105
g8
g10
g63
g12
g16
g65
g57
tp2504
(g458
g90
tp2505
(g4
g61
g6
g105
g8
g88
g16
g65
tp2506
tp2507
a((g82
g2
g4
g86
g61
g6
g105
g8
g88
g12
g16
g65
tp2508
(g271
tp2509
(g2
g4
g61
g105
g8
g10
g65
tp2510
tp2511
a((g2
g86
g61
g105
g8
g10
g63
g14
g16
g65
tp2512
(g1257
g458
tp2513
(g82
g2
g61
g105
g88
g63
g14
g65
tp2514
tp2515
a((g82
g2
g86
g61
g8
g88
g63
g14
tp2516
(g90
g250
tp2517
(g4
g86
g88
g14
g65
tp2518
tp2519
a((g2
g4
g6
g10
g16
g65
tp2520
(g793
g1305
g741
tp2521
(g82
g4
g8
g10
g12
g16
g65
tp2522
tp2523
a((g82
g2
g86
g6
g8
g88
g10
g63
g14
g65
g57
tp2524
(g90
tp2525
(g82
g4
g86
g8
g88
g10
g63
tp2526
tp2527
a((g86
g61
g6
g10
g63
g14
g16
g65
g57
tp2528
(g362
g1036
tp2529
(g2
g86
g6
g10
g14
tp2530
tp2531
a((g82
g2
g4
g86
g61
g6
g105
g8
g88
g63
g14
g16
tp2532
(g432
tp2533
(g2
g4
g86
g105
g8
g63
g12
g14
tp2534
tp2535
a((g82
g2
g4
g61
g105
g8
g88
g10
g12
g16
g65
tp2536
(g1092
g1036
tp2537
(g82
g2
g4
g86
g88
g57
tp2538
tp2539
a((g2
g86
g6
g105
g8
g88
g10
g63
g16
g65
tp2540
(g432
g90
tp2541
(g2
g4
g88
g10
g63
g12
tp2542
tp2543
a((g82
g2
g86
g61
g6
g105
g8
g88
g12
g65
g57
tp2544
(g271
g864
g394
tp2545
(g4
g86
g105
g8
g10
g12
g14
tp2546
tp2547
a((g82
g2
g4
g86
g105
g88
g10
g63
g12
tp2548
(g950
g150
tp2549
(g82
g4
g8
g88
g10
g12
g65
tp2550
tp2551
a((g4
g61
g88
g12
g14
g16
g57
tp2552
((istructures.domain
Action
p2553
(dp2554
g20
(lp2555
(S'at_x0'
p2556
tp2557
a(S'at_y2'
p2558
tp2559
asg26
(lp2560
(S'at_y3'
p2561
tp2562
asg30
(tsg31
(lp2563
(S'at_y2'
p2564
tp2565
asg35
I0
sg36
(lp2566
sg38
S'move_0_2_0_3'
p2567
sbg831
tp2568
(g61
g6
g8
g88
g14
g57
tp2569
tp2570
a((g2
g86
g61
g6
g105
g8
g63
g12
g16
g57
tp2571
(g150
tp2572
(g61
g6
g105
g16
g65
tp2573
tp2574
a((g61
g105
g8
g88
g63
g12
tp2575
(g107
g122
g2046
g150
tp2576
(g86
g6
g105
g88
g16
g65
tp2577
tp2578
a((g82
g4
g105
g88
g10
g63
g12
g14
g65
g57
tp2579
(g199
g996
tp2580
(g86
g12
g65
tp2581
tp2582
a((g4
g105
g88
g12
g14
g16
g65
g57
tp2583
(g477
g741
g1611
tp2584
(g4
g8
g88
g10
g63
g14
g65
tp2585
tp2586
a((g82
g4
g86
g61
g6
g105
g8
g88
g10
g12
g16
g65
g57
tp2587
(g413
tp2588
(g82
g86
g6
g105
g8
g88
g10
g63
g12
g57
tp2589
tp2590
a((g4
g86
g61
g105
g8
g10
g63
g14
g16
g57
tp2591
(g458
g362
tp2592
(g2
g4
g61
g105
g8
g88
g16
tp2593
tp2594
a((g82
g4
g86
g105
g10
g12
g14
g16
g65
g57
tp2595
(g362
g741
tp2596
(g2
g105
g8
g10
g12
g65
tp2597
tp2598
a((g82
g2
g86
g105
g88
g10
g63
g14
g65
g57
tp2599
(g90
tp2600
(g82
g4
g63
g65
tp2601
tp2602
a((g4
g86
g6
g105
g8
g88
g10
g14
g16
g57
tp2603
(g137
g362
g793
tp2604
(g82
g2
g12
g14
tp2605
tp2606
a((g2
g4
g6
g8
g88
g10
g63
g12
g16
tp2607
(g996
g377
tp2608
(g86
g8
g12
g65
tp2609
tp2610
a((g82
g4
g86
g61
g88
g10
g14
g57
tp2611
(g2356
tp2612
(g82
g4
g86
g61
g6
g88
g10
g14
tp2613
tp2614
a((g4
g86
g61
g6
g88
g12
g14
tp2615
(g250
tp2616
(g61
g6
g88
g12
g65
tp2617
tp2618
a((g2
g4
g61
g88
g10
g12
g14
g57
tp2619
(g250
g1036
tp2620
(g2
g86
g12
g65
tp2621
tp2622
a((g82
g86
g61
g105
g8
g88
g10
g14
g57
tp2623
(g137
g2356
g1150
tp2624
(g4
g86
g61
g6
g105
g8
g88
tp2625
tp2626
a((g2
g4
g86
g61
g105
g88
g10
g63
g12
g16
g57
tp2627
(g150
tp2628
(g2
g86
g61
g105
g10
g63
g12
g65
tp2629
tp2630
a((g4
g6
g8
g88
g10
g63
g16
g57
tp2631
(g432
g812
g377
tp2632
(g105
g88
g12
g65
tp2633
tp2634
a((g82
g2
g4
g86
g61
g6
g63
g12
g14
tp2635
(g237
tp2636
(g82
g2
g6
g10
g63
tp2637
tp2638
a((g2
g86
g61
g6
g105
g88
g10
g63
g16
tp2639
(g432
g1175
tp2640
(g2
g86
g61
g88
g10
g63
g12
g14
tp2641
tp2642
a((g2
g86
g61
g6
g105
g8
g10
g14
g16
g57
tp2643
(g458
g1611
tp2644
(g6
g105
g8
g88
g63
g14
g57
tp2645
tp2646
a((g2
g4
g86
g61
g6
g8
g10
g14
g16
g57
tp2647
(g137
g1015
tp2648
(g86
g6
g8
g12
g14
g65
g57
tp2649
tp2650
a((g2
g4
g105
g8
g88
g12
g14
g16
tp2651
(g1190
tp2652
(g2
g14
g16
g65
tp2653
tp2654
a((g82
g2
g4
g61
g6
g105
g8
g10
g63
g12
g16
g65
g57
tp2655
(g1362
tp2656
(g82
g2
g4
g61
g6
g105
g8
g88
g63
g16
g65
g57
tp2657
tp2658
a((g82
g2
g4
g6
g105
g8
g10
g63
g14
g16
g57
tp2659
(g996
tp2660
(g86
g105
g8
g10
g14
g57
tp2661
tp2662
a((g4
g86
g61
g88
g10
g63
g12
g65
g57
tp2663
(g107
g362
tp2664
(g2
g61
g6
g88
g10
tp2665
tp2666
a((g4
g86
g61
g6
g88
g10
g63
g12
g14
g16
g57
tp2667
(g741
tp2668
(g4
g86
g8
g88
g10
g63
g16
tp2669
tp2670
a((g2
g61
g6
g8
g88
g63
g12
g14
g16
g65
g57
tp2671
(g90
g812
tp2672
(g2
g4
g105
g88
g12
g16
g65
tp2673
tp2674
a((g82
g2
g4
g86
g105
g88
g10
g63
g12
g14
g16
tp2675
(g950
g1721
tp2676
(g2
g61
g105
g8
g88
g10
g14
tp2677
tp2678
a((g82
g2
g6
g105
g8
g10
g12
g14
g16
g65
g57
tp2679
(g413
g996
tp2680
(g82
g86
g6
g10
g63
tp2681
tp2682
a((g82
g2
g4
g61
g6
g105
g8
g88
g63
g65
tp2683
(g1397
g2085
tp2684
(g82
g4
g61
g6
g8
g14
g65
g57
tp2685
tp2686
a((g82
g2
g4
g61
g6
g105
g88
g63
g12
g14
g16
g65
tp2687
(g237
tp2688
(g82
g2
g4
g10
g63
g14
g16
g65
tp2689
tp2690
a((g2
g4
g86
g61
g6
g8
g88
g63
g16
g65
g57
tp2691
(g432
g2008
tp2692
(g86
g61
g8
g88
g63
g12
g14
g16
g65
g57
tp2693
tp2694
a((g2
g86
g6
g8
g88
g10
g63
g12
g14
g16
g57
tp2695
(g90
tp2696
(g4
g86
g6
g10
tp2697
tp2698
a((g82
g4
g86
g61
g6
g105
g8
g88
g63
g12
g14
g65
g57
tp2699
(g362
g608
tp2700
(g82
g2
g6
g105
g8
g16
g65
tp2701
tp2702
a((g2
g86
g61
g105
g8
g63
g14
g16
g65
tp2703
(g1092
g517
g793
tp2704
(g82
g8
tp2705
tp2706
a((g2
g4
g86
g61
g6
g63
g12
g16
g57
tp2707
(g812
g950
tp2708
(g2
g86
g105
g8
g16
tp2709
tp2710
a((g86
g61
g105
g88
g10
g63
g12
g16
g65
tp2711
(g67
g107
tp2712
(g82
g86
g6
g88
g63
g16
tp2713
tp2714
a((g82
g86
g88
g10
g12
g57
tp2715
((istructures.domain
Action
p2716
(dp2717
g20
(lp2718
(S'at_x1'
p2719
tp2720
a(S'at_y4'
p2721
tp2722
asg26
(lp2723
(S'at_y5'
p2724
tp2725
asg30
(tsg31
(lp2726
(S'at_y4'
p2727
tp2728
asg35
I0
sg36
(lp2729
sg38
S'move_1_4_1_5'
p2730
sbg950
tp2731
(g82
g8
g88
g12
tp2732
tp2733
a((g82
g86
g6
g88
g10
g14
tp2734
(g608
g1827
tp2735
(g82
g10
g16
g57
tp2736
tp2737
a((g82
g2
g61
g105
g8
g88
g63
g12
g14
g65
tp2738
(g218
tp2739
(g2
g86
g8
g88
g12
g14
g65
tp2740
tp2741
a((g82
g4
g61
g105
g10
g63
g12
g65
tp2742
((istructures.domain
Action
p2743
(dp2744
g20
(lp2745
(S'at_x0'
p2746
tp2747
a(S'at_y1'
p2748
tp2749
asg26
(lp2750
(S'at_x1'
p2751
tp2752
asg30
(tsg31
(lp2753
(S'at_x0'
p2754
tp2755
asg35
I0
sg36
(lp2756
sg38
S'move_0_1_1_1'
p2757
sbg458
(istructures.domain
Action
p2758
(dp2759
g20
(lp2760
(S'at_x1'
p2761
tp2762
a(S'at_y0'
p2763
tp2764
asg26
(lp2765
(S'at_x2'
p2766
tp2767
asg30
(tsg31
(lp2768
(S'at_x1'
p2769
tp2770
asg35
I0
sg36
(lp2771
sg38
S'move_1_0_2_0'
p2772
sbtp2773
(g82
g2
g105
g88
g63
g12
tp2774
tp2775
a((g82
g2
g4
g61
g8
g88
g10
g12
g14
g16
g57
tp2776
(g1036
g413
tp2777
(g82
g4
g86
g88
g63
g12
g14
g57
tp2778
tp2779
a((g82
g2
g61
g105
g88
g63
g12
g16
g57
tp2780
(g90
tp2781
(g82
g2
g4
g61
g105
g63
g16
g57
tp2782
tp2783
a((g2
g61
g6
g105
g8
g63
g12
g14
g65
g57
tp2784
(g864
tp2785
(g4
g61
g105
g63
g57
tp2786
tp2787
a((g82
g2
g61
g6
g8
g10
g63
g14
g16
tp2788
(g122
g165
g864
tp2789
(g2
g4
g86
g8
g10
g63
g14
g16
g57
tp2790
tp2791
a((g2
g4
g61
g8
g88
g12
g14
g16
g57
tp2792
(g67
g1036
tp2793
(g82
g2
g4
g86
g12
g14
g16
tp2794
tp2795
a((g82
g2
g61
g6
g8
g88
g63
g14
g16
g65
g57
tp2796
(g432
g517
tp2797
(g82
g2
g61
g6
g8
g88
g63
g12
g14
tp2798
tp2799
a((g2
g86
g61
g6
g105
g10
g12
g16
g65
tp2800
(g299
g793
tp2801
(g82
g2
g4
g86
g61
g16
g65
tp2802
tp2803
a((g82
g86
g6
g105
g88
g10
g63
g12
g65
g57
tp2804
(g284
g536
tp2805
(g86
g6
g88
g10
g12
g14
g57
tp2806
tp2807
a((g82
g2
g4
g6
g8
g10
g63
g14
g65
g57
tp2808
(g1286
g812
tp2809
(g6
g105
g8
g10
g16
g65
tp2810
tp2811
a((g82
g86
g6
g8
g10
g12
g14
g65
tp2812
(g703
g1150
tp2813
(g4
g61
g8
g14
g65
tp2814
tp2815
a((g82
g86
g61
g6
g105
g88
g10
g63
g12
g14
g65
g57
tp2816
(g284
tp2817
(g82
g86
g6
g14
g16
g65
tp2818
tp2819
a((g2
g4
g86
g61
g6
g105
g8
g10
g63
g12
g16
g65
g57
tp2820
(g458
tp2821
(g2
g4
g86
g8
g88
g63
g12
g16
g65
tp2822
tp2823
a((g82
g6
g8
g88
g10
g63
g14
g65
g57
tp2824
(g627
g996
tp2825
(g82
g86
g6
g88
g63
tp2826
tp2827
a((g82
g4
g61
g6
g105
g8
g63
g12
g14
g16
g65
tp2828
(g122
g199
tp2829
(g2
g4
g86
g105
g65
tp2830
tp2831
a((g2
g61
g6
g105
g8
g63
g12
g65
tp2832
(g793
tp2833
(g82
g63
g12
tp2834
tp2835
a((g82
g2
g4
g86
g61
g6
g105
g8
g16
g65
g57
tp2836
(g536
tp2837
(g82
g2
g4
g61
g6
g105
g14
tp2838
tp2839
a((g2
g4
g86
g61
g6
g105
g8
g88
g63
g12
g14
g65
g57
tp2840
(g793
g284
tp2841
(g82
g4
g86
g105
g8
g88
g14
g16
tp2842
tp2843
a((g82
g86
g61
g8
g88
g10
g12
g14
g16
g65
g57
tp2844
(g2553
tp2845
(g6
g16
g65
tp2846
tp2847
a((g82
g2
g86
g8
g63
g65
g57
tp2848
(g864
g2008
tp2849
(g4
g86
g8
g14
g65
tp2850
tp2851
a((g86
g88
g10
g63
g12
g57
tp2852
(g362
g90
g377
tp2853
(g4
g88
g10
g63
g65
g57
tp2854
tp2855
a((g82
g4
g86
g61
g105
g8
g88
g63
g14
g65
g57
tp2856
(g271
g517
tp2857
(g4
g86
g61
g6
g8
g10
g65
tp2858
tp2859
a((g82
g4
g86
g6
g8
g10
g63
g65
g57
tp2860
(g432
g458
tp2861
(g4
g8
g88
g12
g65
g57
tp2862
tp2863
a((g2
g4
g86
g61
g105
g88
g10
g63
g12
g14
g57
tp2864
(g284
g67
tp2865
(g82
g4
g86
g61
g88
g10
g14
g16
g57
tp2866
tp2867
a((g82
g2
g86
g61
g88
g12
g16
g65
g57
tp2868
(g40
g1611
tp2869
(g82
g61
g6
g63
g65
g57
tp2870
tp2871
a((g4
g86
g61
g6
g105
g8
g12
g14
g65
g57
tp2872
(g362
g1036
g793
tp2873
(g82
g2
g4
g86
g6
g105
g14
g65
g57
tp2874
tp2875
a((g82
g2
g61
g6
g8
g65
tp2876
(g18
g680
g935
tp2877
(g82
g86
g61
g105
g65
tp2878
tp2879
a((g82
g2
g86
g105
g88
g10
g63
g12
g16
g65
tp2880
(g394
g1721
tp2881
(g82
g61
g88
g63
g14
g16
tp2882
tp2883
a((g2
g4
g8
g88
g10
g63
g14
g65
tp2884
(g877
g40
g165
tp2885
(g2
g88
g63
g57
tp2886
tp2887
a((g82
g2
g4
g86
g105
g8
g10
g63
g12
g16
g57
tp2888
(g536
g150
tp2889
(g82
g4
g86
g105
g8
g10
g63
g14
g65
tp2890
tp2891
a((g82
g86
g61
g105
g10
g63
g12
g14
g16
g65
g57
tp2892
(g199
tp2893
(g82
g2
g86
g10
g16
g65
g57
tp2894
tp2895
a((g2
g8
g10
g63
g12
g14
g16
g57
tp2896
(g1362
tp2897
(g88
g63
g57
tp2898
tp2899
a((g82
g2
g86
g105
g8
g88
g14
g65
tp2900
(g271
g1286
tp2901
(g82
g105
g10
g16
tp2902
tp2903
a((g2
g4
g86
g61
g6
g63
g12
g14
g16
g65
tp2904
(g793
tp2905
(g82
g2
g6
g63
g12
g14
g16
tp2906
tp2907
a((g2
g4
g86
g61
g105
g8
g88
g63
g12
g14
g65
tp2908
(g67
g1397
tp2909
(g82
g4
g8
g12
g57
tp2910
tp2911
a((g86
g61
g6
g105
g88
g10
g63
g14
g57
tp2912
(g950
tp2913
(g61
g6
g105
g8
g10
g63
tp2914
tp2915
a((g82
g2
g4
g86
g6
g8
g10
g57
tp2916
(g680
g18
tp2917
(g82
g105
g57
tp2918
tp2919
a((g82
g4
g86
g8
g63
g12
g57
tp2920
(g377
g284
g536
tp2921
(g82
g4
g86
g12
g14
g65
g57
tp2922
tp2923
a((g82
g6
g10
g14
g65
g57
tp2924
(g1286
g2442
g741
g1977
tp2925
(g6
g105
g8
g14
g65
tp2926
tp2927
a((g82
g4
g86
g105
g8
g88
g10
g63
g12
g14
g16
tp2928
(g199
g150
tp2929
(g2
g105
g8
g88
g10
g16
g65
tp2930
tp2931
a((g82
g2
g4
g61
g6
g105
g8
g88
g10
g63
g12
g14
g16
tp2932
(g122
tp2933
(g2
g4
g86
g10
g14
tp2934
tp2935
a((g82
g2
g86
g61
g6
g105
g63
g12
g16
g65
g57
tp2936
(g536
g950
tp2937
(g61
g6
g105
g8
g63
g12
g14
tp2938
tp2939
a((g2
g4
g86
g6
g105
g8
g88
g63
g12
g14
g65
tp2940
(g237
g608
tp2941
(g86
g105
g88
g10
g16
g65
tp2942
tp2943
a((g2
g86
g61
g105
g8
g63
g12
g14
g16
tp2944
(g237
g1257
tp2945
(g82
g86
g10
g16
tp2946
tp2947
a((g82
g2
g86
g61
g105
g10
g63
g12
g14
g16
g65
tp2948
(g299
tp2949
(g2
g4
g105
g63
g14
tp2950
tp2951
a((g82
g2
g4
g86
g61
g105
g88
g63
g12
g14
g16
tp2952
(g1092
g831
tp2953
(g82
g8
g88
g12
g14
g57
tp2954
tp2955
a((g82
g2
g86
g61
g6
g10
g63
g14
g16
g57
tp2956
(g458
tp2957
(g2
g88
g63
g16
g57
tp2958
tp2959
a((g82
g2
g4
g86
g61
g105
g8
g88
g10
g63
tp2960
(g137
g40
tp2961
(g82
g4
g6
g105
g8
g63
tp2962
tp2963
a((g82
g4
g86
g6
g105
g8
g88
g10
g14
g16
tp2964
(g137
g150
tp2965
(g4
g105
g88
g12
g65
tp2966
tp2967
a((g61
g105
g8
g88
g63
g12
g14
tp2968
(g107
(istructures.domain
Action
p2969
(dp2970
g20
(lp2971
(S'at_x3'
p2972
tp2973
a(S'at_y3'
p2974
tp2975
asg26
(lp2976
(S'at_x2'
p2977
tp2978
asg30
(tsg31
(lp2979
(S'at_x3'
p2980
tp2981
asg35
I0
sg36
(lp2982
sg38
S'move_3_3_2_3'
p2983
sbtp2984
(g2
g61
g6
g105
g8
tp2985
tp2986
a((g2
g86
g61
g6
g105
g8
g10
g63
g14
g65
g57
tp2987
(g864
tp2988
(g4
g86
g61
g6
g105
g8
g10
tp2989
tp2990
a((g61
g6
g105
g8
g88
g12
g14
tp2991
(g1397
g250
tp2992
(g65
g57
tp2993
tp2994
a((g4
g86
g8
g88
g10
g63
g14
g65
g57
tp2995
(g812
g2046
tp2996
(g4
g105
g8
g88
g14
g16
tp2997
tp2998
a((g2
g61
g8
g88
g10
g12
g14
g16
g65
g57
tp2999
(g90
g1036
tp3000
(g2
g4
g86
g88
g16
g65
tp3001
tp3002
a((g82
g2
g86
g6
g105
g10
g12
g65
g57
tp3003
(g661
tp3004
(g82
g61
g105
g10
g65
g57
tp3005
tp3006
a((g82
g2
g4
g61
g105
g8
g14
g65
g57
tp3007
(g589
g1305
g935
tp3008
(g86
g61
g105
g8
g12
g14
g65
tp3009
tp3010
a((g2
g6
g105
g8
g88
g63
g12
g16
g65
g57
tp3011
(g324
tp3012
(g86
g6
g8
g88
g63
g65
tp3013
tp3014
a((g4
g105
g8
g88
g63
g14
g57
tp3015
(g517
g432
(istructures.domain
Action
p3016
(dp3017
g20
(lp3018
(S'at_x3'
p3019
tp3020
a(S'at_y2'
p3021
tp3022
asg26
(lp3023
(S'at_y1'
p3024
tp3025
asg30
(tsg31
(lp3026
(S'at_y2'
p3027
tp3028
asg35
I0
sg36
(lp3029
sg38
S'move_3_2_3_1'
p3030
sbtp3031
(g4
g8
g88
g10
g14
tp3032
tp3033
a((g82
g4
g86
g61
g105
g88
g14
g16
g57
tp3034
(g271
g1226
g1092
tp3035
(g4
g61
g6
g10
g16
g57
tp3036
tp3037
a((g82
g86
g6
g105
g88
g63
g16
g65
tp3038
(g1092
tp3039
(g82
g86
g65
g57
tp3040
tp3041
a((g4
g86
g105
g88
g10
g63
g12
g14
g57
tp3042
(g284
g1226
tp3043
(g6
g105
g88
g10
g12
g14
g16
tp3044
tp3045
a((g82
g4
g86
g6
g105
g8
g10
g63
g14
g16
g65
tp3046
(g703
tp3047
(g4
g61
g8
g10
g14
g16
g65
tp3048
tp3049
a((g2
g4
g86
g61
g105
g8
g10
tp3050
(g1257
g394
g150
tp3051
(g82
g105
g14
g65
tp3052
tp3053
a((g82
g2
g4
g61
g88
g10
g63
g12
g16
g57
tp3054
(g40
g812
tp3055
(g82
g2
g61
g6
g105
tp3056
tp3057
a((g2
g4
g86
g61
g6
g105
g8
g88
g10
g12
g16
g65
g57
tp3058
(g536
tp3059
(g2
g105
g88
g10
g12
g14
tp3060
tp3061
a((g2
g4
g86
g61
g105
g88
g10
g63
g12
g65
g57
tp3062
(g284
g394
tp3063
(g4
g61
g12
g14
g16
g65
g57
tp3064
tp3065
a((g2
g4
g86
g61
g105
g8
g10
g14
g16
g57
tp3066
(g137
g150
tp3067
(g86
g61
g12
g14
g16
g65
g57
tp3068
tp3069
a((g4
g6
g105
g10
g63
g12
g16
g65
g57
tp3070
(g536
g199
g793
tp3071
(g82
g2
g4
g6
g10
g12
g65
tp3072
tp3073
a((g4
g61
g6
g8
g88
g10
g63
g12
g14
g57
tp3074
(g67
g1036
tp3075
(g82
g86
g6
g8
g88
g63
g12
g14
g57
tp3076
tp3077
a((g2
g4
g86
g105
g63
g12
g14
g16
g65
tp3078
((istructures.domain
Action
p3079
(dp3080
g20
(lp3081
(S'at_x1'
p3082
tp3083
a(S'at_y5'
p3084
tp3085
asg26
(lp3086
(S'at_x0'
p3087
tp3088
asg30
(tsg31
(lp3089
(S'at_x1'
p3090
tp3091
asg35
I0
sg36
(lp3092
sg38
S'move_1_5_0_5'
p3093
sbg67
tp3094
(g82
g2
g4
g61
g105
g16
tp3095
tp3096
a((g2
g4
g86
g61
g6
g88
g10
g14
g57
tp3097
(g137
g271
g1286
tp3098
(g2
g61
g6
g10
g12
g16
g57
tp3099
tp3100
a((g4
g61
g105
g8
g88
g10
g63
g12
g14
g16
g57
tp3101
(g67
tp3102
(g82
g4
g61
g105
g88
g14
g57
tp3103
tp3104
a((g86
g61
g6
g8
g88
g10
g63
g16
g57
tp3105
(g250
tp3106
(g86
g88
g10
g16
g65
g57
tp3107
tp3108
a((g2
g4
g86
g61
g105
g88
g10
g63
g12
g14
tp3109
(g608
g950
tp3110
(g4
g86
g8
g88
g63
g12
g16
tp3111
tp3112
a((g82
g2
g4
g86
g61
g6
g8
g88
g63
g12
g14
g65
g57
tp3113
(g271
tp3114
(g82
g2
g6
g8
g10
g63
g65
g57
tp3115
tp3116
a((g2
g4
g86
g61
g105
g88
g10
g63
g12
g57
tp3117
(g150
tp3118
(g2
g61
g88
g12
g65
g57
tp3119
tp3120
a((g82
g2
g4
g86
g61
g6
g105
g88
g10
g12
g57
tp3121
(g950
g150
tp3122
(g82
g2
g4
g86
g6
g8
g88
g10
g65
tp3123
tp3124
a((g82
g105
g8
g88
g12
g14
g16
g65
tp3125
(g1092
g1150
g2411
tp3126
(g82
g4
g6
g16
g65
g57
tp3127
tp3128
a((g82
g2
g61
g6
g105
g8
g88
g10
g12
g16
g65
g57
tp3129
(g90
tp3130
(g82
g4
g6
g105
g8
g12
g65
tp3131
tp3132
a((g82
g2
g4
g86
g61
g8
g88
g16
tp3133
(g271
tp3134
(g82
g2
g86
g8
g10
tp3135
tp3136
a((g2
g86
g61
g6
g8
g88
g10
g14
tp3137
(g137
g90
tp3138
(g2
g4
g61
g6
g88
g12
tp3139
tp3140
a((g2
g4
g86
g61
g6
g105
g8
g63
g12
g16
tp3141
(g1049
tp3142
(g4
g61
g6
g105
g8
g63
g12
g14
g16
tp3143
tp3144
a((g82
g2
g4
g6
g8
g88
g10
g63
g57
tp3145
(g996
g661
g250
tp3146
(g82
g61
g6
g8
g88
g65
tp3147
tp3148
a((g82
g4
g86
g61
g8
g88
g63
tp3149
(g2758
(istructures.domain
Action
p3150
(dp3151
g20
(lp3152
(S'at_x5'
p3153
tp3154
a(S'at_y0'
p3155
tp3156
asg26
(lp3157
(S'at_x4'
p3158
tp3159
asg30
(tsg31
(lp3160
(S'at_x5'
p3161
tp3162
asg35
I0
sg36
(lp3163
sg38
S'move_5_0_4_0'
p3164
sb(istructures.domain
Action
p3165
(dp3166
g20
(lp3167
(S'at_x2'
p3168
tp3169
a(S'at_y0'
p3170
tp3171
asg26
(lp3172
(S'at_x3'
p3173
tp3174
asg30
(tsg31
(lp3175
(S'at_x2'
p3176
tp3177
asg35
I0
sg36
(lp3178
sg38
S'move_2_0_3_0'
p3179
sbtp3180
(g82
g61
g88
g14
g16
tp3181
tp3182
a((g82
g2
g4
g86
g61
g6
g105
g88
g10
g63
g12
g65
g57
tp3183
(g394
g950
tp3184
(g82
g4
g86
g61
g6
g105
g8
g88
g10
g14
g65
tp3185
tp3186
a((g82
g2
g4
g86
g105
g88
g10
g12
g14
g16
g65
g57
tp3187
(g40
g661
tp3188
(g82
g2
g4
g61
g6
g88
g16
g57
tp3189
tp3190
a((g2
g86
g14
g16
g57
tp3191
(g831
tp3192
(g2
g86
g8
tp3193
tp3194
a((g82
g2
g86
g6
g8
g14
g16
g57
tp3195
(g661
g864
g680
tp3196
(g82
g2
g4
g61
g6
g105
g8
g14
tp3197
tp3198
a((g86
g88
g10
g63
tp3199
(g137
g271
g107
g165
tp3200
(g86
g10
g57
tp3201
tp3202
a((g4
g86
g61
g6
g105
g8
g88
g10
g16
g57
tp3203
(g362
tp3204
(g2
g4
g61
g8
g88
g10
tp3205
tp3206
a((g4
g86
g61
g6
g105
g8
g88
g10
g63
g65
tp3207
(g2046
g1977
tp3208
(g86
g61
g6
g10
g14
g65
tp3209
tp3210
a((g82
g2
g4
g86
g105
g8
g88
g16
g65
tp3211
((istructures.domain
Action
p3212
(dp3213
g20
(lp3214
(S'at_x4'
p3215
tp3216
a(S'at_y5'
p3217
tp3218
asg26
(lp3219
(S'at_x5'
p3220
tp3221
asg30
(tsg31
(lp3222
(S'at_x4'
p3223
tp3224
asg35
I0
sg36
(lp3225
sg38
S'move_4_5_5_5'
p3226
sbtp3227
(g4
g86
g8
g88
g63
g65
tp3228
tp3229
a((g82
g2
g4
g86
g61
g6
g105
g88
g63
g16
g65
g57
tp3230
(g432
g950
tp3231
(g8
g88
g12
g57
tp3232
tp3233
a((g82
g4
g86
g61
g8
g10
g14
g16
g65
g57
tp3234
(g458
g1611
tp3235
(g86
g61
g8
g88
g63
g14
g65
g57
tp3236
tp3237
a((g2
g4
g86
g61
g6
g105
g8
g10
g63
g12
g14
g16
g57
tp3238
(g458
tp3239
(g86
g61
g6
g105
g8
g88
g14
g16
tp3240
tp3241
a((g2
g4
g86
g61
g63
g12
g16
g57
tp3242
(g237
g1257
g812
tp3243
(g82
g2
g4
g86
g61
g105
g10
g63
g16
tp3244
tp3245
a((g86
g61
g88
g63
g14
g16
g65
g57
tp3246
(g271
tp3247
(g61
g10
g14
g16
g57
tp3248
tp3249
a((g4
g61
g6
g105
g8
g88
g10
g63
g12
g14
g16
tp3250
(g67
g377
tp3251
(g82
g61
g8
g14
g65
tp3252
tp3253
a((g82
g86
g105
g88
g10
g16
g57
tp3254
(g661
tp3255
(g61
g88
g10
g16
tp3256
tp3257
a((g82
g4
g61
g8
g88
g63
g12
g14
g16
g57
tp3258
(g107
g1036
(istructures.domain
Action
p3259
(dp3260
g20
(lp3261
(S'at_x5'
p3262
tp3263
a(S'at_y4'
p3264
tp3265
asg26
(lp3266
(S'have_item1'
p3267
tp3268
asg30
(tsg31
(lp3269
sg35
I0
sg36
(lp3270
sg38
S'easymark_item1_5_4'
p3271
sbtp3272
(g82
g4
g86
g6
g63
g14
g16
g65
g57
tp3273
tp3274
a((g4
g6
g10
g63
g12
g14
g16
g57
tp3275
(g377
g741
tp3276
(g4
g8
g10
g63
g65
tp3277
tp3278
a((g2
g4
g8
g10
g16
g65
g57
tp3279
(g996
g661
tp3280
(g4
g61
g16
tp3281
tp3282
a((g4
g86
g61
g6
g8
g88
g63
g14
g16
g65
g57
tp3283
(g432
g67
tp3284
(g82
g4
g8
g63
g14
g16
g65
tp3285
tp3286
a((g82
g2
g4
g86
g105
g8
g63
g12
g14
g16
g57
tp3287
(g237
g517
g432
tp3288
(g82
g86
g10
g12
g14
g16
tp3289
tp3290
a((g82
g86
g61
g8
g88
g16
g65
g57
tp3291
(g1226
(istructures.domain
Action
p3292
(dp3293
g20
(lp3294
(S'at_x4'
p3295
tp3296
a(S'at_y3'
p3297
tp3298
asg26
(lp3299
(S'at_y2'
p3300
tp3301
asg30
(tsg31
(lp3302
(S'at_y3'
p3303
tp3304
asg35
I0
sg36
(lp3305
sg38
S'move_4_3_4_2'
p3306
sbtp3307
(g82
g61
g8
g88
g12
g16
g65
tp3308
tp3309
a((g82
g4
g86
g8
g10
g63
g16
g65
g57
tp3310
(g137
g107
g536
tp3311
(g82
g6
g14
g57
tp3312
tp3313
a((g82
g2
g4
g86
g105
g8
g63
g12
g65
tp3314
(g237
(istructures.domain
Action
p3315
(dp3316
g20
(lp3317
(S'at_x1'
p3318
tp3319
a(S'at_y1'
p3320
tp3321
asg26
(lp3322
(S'at_x0'
p3323
tp3324
asg30
(tsg31
(lp3325
(S'at_x1'
p3326
tp3327
asg35
I0
sg36
(lp3328
sg38
S'move_1_1_0_1'
p3329
sbtp3330
(g82
g2
g4
g61
g8
g10
g65
tp3331
tp3332
a((g82
g4
g86
g61
g105
g8
g12
g14
g16
g57
tp3333
(g413
tp3334
(g86
g105
g63
g12
tp3335
tp3336
a((g4
g86
g61
g6
g88
g63
g12
tp3337
(g284
g250
tp3338
(g86
g61
g16
g65
tp3339
tp3340
a((g2
g61
g105
g8
g88
g10
g14
g16
g57
tp3341
(g774
tp3342
(g61
g105
g88
g12
g57
tp3343
tp3344
a((g82
g61
g6
g105
g10
g63
g12
g14
g16
g65
tp3345
(g1092
tp3346
(g6
g16
g57
tp3347
tp3348
a((g2
g4
g61
g6
g88
g10
g63
g16
g65
tp3349
(g793
g1977
tp3350
(g82
g2
g61
g6
g10
g63
g14
tp3351
tp3352
a((g82
g86
g6
g105
g88
g14
g16
g65
g57
tp3353
(g362
tp3354
(g2
g88
g65
g57
tp3355
tp3356
a((g82
g4
g86
g6
g105
g8
g88
g10
g16
g65
g57
tp3357
(g362
tp3358
(g2
g4
g105
g8
g10
g65
tp3359
tp3360
a((g2
g4
g86
g61
g8
g10
g63
g12
g14
g57
tp3361
(g284
g680
tp3362
(g86
g61
g105
g12
g16
tp3363
tp3364
a((g2
g6
g105
g63
g12
g14
g16
g57
tp3365
(g299
g500
tp3366
(g4
g6
g105
g8
g63
tp3367
tp3368
a((g2
g4
g86
g61
g6
g105
g8
g88
g10
g63
g14
g16
g57
tp3369
(g137
g793
tp3370
(g82
g4
g8
g12
g14
g16
tp3371
tp3372
a((g2
g4
g86
g61
g8
g88
g63
g12
g14
g16
g57
tp3373
(g812
tp3374
(g4
g61
g105
g8
g88
g12
g14
g16
tp3375
tp3376
a((g2
g4
g6
g105
g8
g10
g65
g57
tp3377
((istructures.domain
Action
p3378
(dp3379
g20
(lp3380
(S'at_x2'
p3381
tp3382
a(S'at_y1'
p3383
tp3384
asg26
(lp3385
(S'at_y2'
p3386
tp3387
asg30
(tsg31
(lp3388
(S'at_y1'
p3389
tp3390
asg35
I0
sg36
(lp3391
sg38
S'move_2_1_2_2'
p3392
sbtp3393
(g4
g6
g105
g12
tp3394
tp3395
a((g82
g2
g86
g105
g8
g88
g63
g12
g14
g16
g65
g57
tp3396
(g517
g1092
tp3397
(g82
g2
g86
g6
g88
g12
g16
g57
tp3398
tp3399
a((g82
g2
g4
g86
g6
g105
g8
g88
g63
g65
g57
tp3400
(g2046
g1049
tp3401
(g82
g88
g14
g16
g65
g57
tp3402
tp3403
a((g82
g4
g86
g105
g8
g63
g12
g57
tp3404
(g107
g362
g1049
tp3405
(g6
g105
g63
g14
tp3406
tp3407
a((g2
g8
g88
g10
g16
g57
tp3408
(g90
g536
g680
tp3409
(g2
g4
g105
g8
g14
tp3410
tp3411
a((g82
g2
g86
g61
g6
g105
g88
g10
g63
g12
g65
g57
tp3412
(g90
g950
tp3413
(g4
g6
g8
g10
g63
g12
tp3414
tp3415
a((g82
g2
g4
g86
g61
g6
g10
g63
g12
g14
g16
g65
g57
tp3416
(g458
g237
tp3417
(g61
g88
g10
g63
g65
g57
tp3418
tp3419
a((g4
g61
g6
g105
g57
tp3420
(g1036
g362
g1305
g1190
g1049
tp3421
(g4
g12
g14
g65
g57
tp3422
tp3423
a((g2
g4
g61
g6
g105
g8
g88
g10
g63
g12
g14
g16
tp3424
(g793
g377
tp3425
(g82
g4
g6
g8
g10
g63
g16
g65
tp3426
tp3427
a((g82
g2
g86
g61
g6
g8
g88
g12
g14
g16
g65
g57
tp3428
(g90
tp3429
(g82
g2
g4
g6
g14
g16
tp3430
tp3431
a((g82
g2
g86
g61
g105
g88
tp3432
(g1049
g608
tp3433
(g16
tp3434
tp3435
a((g2
g4
g61
g6
g105
g10
g63
g12
g16
g65
g57
tp3436
(g500
tp3437
(g4
g61
g6
g105
g8
g10
g12
g16
g65
g57
tp3438
tp3439
a((g82
g86
g61
g105
g12
g14
g16
tp3440
(g413
g950
g1397
tp3441
(g82
g61
g8
g63
g14
g57
tp3442
tp3443
a((g82
g2
g4
g86
g61
g6
g105
g8
g88
g10
g63
g16
tp3444
(g137
g1092
tp3445
(g2
g4
g86
g12
g16
g57
tp3446
tp3447
a((g82
g2
g4
g86
g61
g6
g105
g8
g88
g14
g65
g57
tp3448
(g608
tp3449
(g2
g86
g6
g105
g8
g16
g65
tp3450
tp3451
a((g82
g2
g4
g86
g61
g105
g8
g88
g14
g16
tp3452
(g1092
g589
g1305
tp3453
(g82
g2
g86
g88
g12
g14
tp3454
tp3455
a((g82
g4
g86
g61
g6
g88
g12
g16
g57
tp3456
(g250
g831
tp3457
(g4
g86
g61
g6
g8
g88
g65
tp3458
tp3459
a((g2
g4
g86
g6
g105
g10
g63
g12
g14
g16
tp3460
(g458
tp3461
(g2
g4
g6
g88
g14
tp3462
tp3463
a((g82
g2
g4
g61
g8
g10
g63
g12
g14
g65
g57
tp3464
(g722
tp3465
(g82
g4
g61
g88
g14
g65
g57
tp3466
tp3467
a((g82
g61
g105
g8
g63
g12
g14
g57
tp3468
(g517
g1150
tp3469
(g4
g6
g105
g8
g63
g12
tp3470
tp3471
a((g82
g2
g86
g61
g6
g105
g8
g10
g14
g57
tp3472
(g458
g90
tp3473
(g2
g4
g86
g6
g8
g88
tp3474
tp3475
a((g82
g2
g86
g61
g6
g105
g10
g63
g12
g14
g57
tp3476
(g950
tp3477
(g82
g8
g10
g63
g12
g14
tp3478
tp3479
a((g2
g4
g86
g105
g8
g88
g10
g63
g14
g16
g57
tp3480
(g661
g1257
tp3481
(g82
g2
g61
g105
g8
g88
g14
g16
tp3482
tp3483
a((g82
g2
g4
g86
g88
g10
g63
g12
g14
g16
g65
g57
tp3484
(g40
g500
tp3485
(g86
g6
g8
g14
g16
g57
tp3486
tp3487
a((g82
g4
g86
g61
g88
g10
g63
g12
g65
g57
tp3488
(g284
tp3489
(g82
g4
g86
g61
g10
g12
g16
tp3490
tp3491
a((g82
g2
g4
g86
g61
g6
g105
g8
g88
g63
g12
g57
tp3492
(g1049
tp3493
(g4
g61
g6
g105
g88
g63
g12
g14
g57
tp3494
tp3495
a((g2
g86
g8
g88
g63
g12
g16
g57
tp3496
(g812
tp3497
(g2
g105
g88
g12
g16
tp3498
tp3499
a((g82
g2
g86
g6
g88
g12
tp3500
(g1015
g500
tp3501
(g82
g6
g8
g88
g12
g65
tp3502
tp3503
a((g86
g61
g6
g8
g88
g10
g57
tp3504
(g137
g67
tp3505
(g82
g86
g61
g6
g8
g12
tp3506
tp3507
a((g2
g4
g86
g6
g105
g88
g10
g63
g14
g16
tp3508
(g150
tp3509
(g4
g6
g88
g63
g65
tp3510
tp3511
a((g82
g2
g4
g86
g61
g105
g88
g10
g14
g16
g65
g57
tp3512
(g950
tp3513
(g4
g86
g105
g8
g10
g57
tp3514
tp3515
a((g2
g86
g61
g6
g88
g10
g63
g16
g57
tp3516
(g137
tp3517
(g61
g6
g88
g12
g16
tp3518
tp3519
a((g2
g4
g86
g6
g105
g8
g88
g10
g63
g12
g14
g65
g57
tp3520
(g661
g608
tp3521
(g61
g105
g12
g16
g57
tp3522
tp3523
a((g61
g6
g105
g10
g12
g14
tp3524
(g199
g793
g1015
tp3525
(g82
g2
g10
g12
g65
tp3526
tp3527
a((g2
g61
g8
g10
g12
g14
g16
g57
tp3528
(g864
g67
tp3529
(g82
g2
g4
g8
g12
tp3530
tp3531
a((g82
g2
g86
g61
g88
g10
g12
g14
g16
tp3532
(g40
g18
tp3533
(g2
g86
g88
g57
tp3534
tp3535
a((g82
g2
g61
g6
g8
g88
g63
g12
g16
g57
tp3536
(g1420
tp3537
(g2
g8
g10
g12
tp3538
tp3539
a((g2
g4
g86
g61
g88
g63
g12
g16
g65
g57
tp3540
(g40
g500
tp3541
(g2
g4
g61
g6
g8
g88
g16
g65
tp3542
tp3543
a((g82
g86
g61
g6
g105
g8
g10
g57
tp3544
(g137
g362
g864
tp3545
(g82
g2
g4
g8
g12
tp3546
tp3547
a((g2
g86
g61
g105
g88
g10
g14
g65
tp3548
(g950
g1257
tp3549
(g82
g105
g8
g88
g14
g65
tp3550
tp3551
a((g82
g4
g86
g88
g63
g12
g16
tp3552
(g477
tp3553
(g82
g86
g88
g10
g63
tp3554
tp3555
a((g2
g61
g6
g88
g63
g12
g14
g16
g65
tp3556
(g165
tp3557
(g2
g63
g12
g57
tp3558
tp3559
a((g4
g86
g61
g6
g105
g8
g88
g63
g12
g57
tp3560
(g362
g284
tp3561
(g2
g105
g8
g16
tp3562
tp3563
a((g82
g2
g105
g8
g88
g10
g63
g12
g65
tp3564
(g284
g1175
tp3565
(g2
g105
g12
g14
tp3566
tp3567
a((g4
g61
g6
g105
g10
g63
g12
g14
g16
g65
g57
tp3568
(g67
g1362
tp3569
(g82
g4
g61
g105
g88
g12
g14
g16
tp3570
tp3571
a((g82
g2
g86
g6
g105
g88
g10
g63
g12
g16
g65
tp3572
(g950
tp3573
(g86
g105
g8
g10
g63
g16
tp3574
tp3575
a((g61
g6
g10
g63
g12
g14
g65
g57
tp3576
(g1036
g458
tp3577
(g86
g6
g88
g63
g12
g65
tp3578
tp3579
a((g82
g2
g61
g105
g88
g12
g14
g16
g65
tp3580
(g218
tp3581
(g82
g86
g105
g14
tp3582
tp3583
a((g2
g86
g6
g105
g8
g88
g10
g63
g16
g65
g57
tp3584
(g137
g536
tp3585
(g6
g12
g14
g65
g57
tp3586
tp3587
a((g82
g4
g86
g6
g88
g10
g63
g14
g16
g57
tp3588
(g362
g500
tp3589
(g82
g2
g4
g6
g8
g14
tp3590
tp3591
a((g82
g2
g86
g61
g105
g8
g88
g10
g63
g12
g14
g57
tp3592
(g40
g150
tp3593
(g82
g86
g6
g8
g88
g10
g65
tp3594
tp3595
a((g82
g2
g4
g86
g61
g88
g10
g63
g12
g14
g16
g65
g57
tp3596
(g40
tp3597
(g2
g4
g86
g61
g6
g10
g63
tp3598
tp3599
a((g82
g2
g4
g6
g105
g8
g63
g16
g65
g57
tp3600
(g432
g935
g661
tp3601
(g4
g61
g105
g8
g63
g12
g16
g65
g57
tp3602
tp3603
a((g82
g4
g86
g88
g10
g14
g16
g57
tp3604
(g362
g741
tp3605
(g82
g2
g8
g88
g10
g14
tp3606
tp3607
a((g82
g2
g4
g86
g6
g8
g63
g12
g16
g65
g57
tp3608
(g237
g812
tp3609
(g2
g4
g86
g105
g10
g63
g16
tp3610
tp3611
a((g82
g61
g105
g10
g14
g65
tp3612
(g1286
g1362
g218
g3212
tp3613
(g82
g86
g88
g63
g65
tp3614
tp3615
a((g82
g4
g86
g61
g6
g105
g12
g14
g16
g65
g57
tp3616
(g477
g950
tp3617
(g82
g4
g86
g61
g6
g8
g10
g14
g16
tp3618
tp3619
a((g2
g4
g86
g61
g6
g8
g10
g63
g12
g14
g16
g57
tp3620
(g793
tp3621
(g82
g4
g86
g61
g8
g63
g12
tp3622
tp3623
a((g82
g4
g86
g61
g6
g105
g8
g88
g63
g12
g14
tp3624
(g165
tp3625
(g86
g105
g8
g88
g14
g57
tp3626
tp3627
a((g82
g4
g61
g6
g105
g88
g14
g16
g57
tp3628
(g250
tp3629
(g61
g105
g88
g16
g65
tp3630
tp3631
a((g86
g61
g6
g105
g8
g10
g63
g16
g57
tp3632
(g536
g150
tp3633
(g86
g105
g10
g14
g65
g57
tp3634
tp3635
a((g82
g86
g61
g6
g105
g8
g88
g10
g63
g12
g14
g16
g65
tp3636
(g299
tp3637
(g4
g61
g88
g12
g14
g65
tp3638
tp3639
a((g82
g61
g6
g8
g88
g10
g12
g57
tp3640
(g1036
g362
g1015
tp3641
(g2
g6
g88
g10
g12
g65
tp3642
tp3643
a((g2
g86
g61
g105
g88
g63
g12
g14
g65
g57
tp3644
(g237
tp3645
(g105
g88
g10
g63
g14
tp3646
tp3647
a((g2
g86
g61
g6
g88
g10
g12
g14
g65
g57
tp3648
(g680
g18
tp3649
(g2
g86
g105
g88
g10
g12
g65
g57
tp3650
tp3651
a((g2
g4
g6
g8
g88
g16
g65
tp3652
(g324
tp3653
(g86
g6
g88
tp3654
tp3655
a((g82
g4
g86
g61
g6
g105
g88
g10
g12
g14
g16
g65
tp3656
(g1092
tp3657
(g82
g86
g61
g6
g10
g12
g16
g57
tp3658
tp3659
a((g86
g61
g6
g105
g8
g10
g63
g12
g14
g16
g57
tp3660
(g458
g67
tp3661
(g82
g6
g105
g88
g14
tp3662
tp3663
a((g82
g2
g6
g105
g8
g88
g10
g12
g14
g16
g65
tp3664
(g90
g1092
tp3665
(g4
g8
g88
g12
g14
g57
tp3666
tp3667
a((g82
g61
g6
g105
g8
g88
g10
g63
g12
g65
g57
tp3668
(g284
g299
tp3669
(g4
g61
g88
g12
g16
g57
tp3670
tp3671
a((g2
g86
g6
g105
g8
g88
g63
g12
g16
g65
g57
tp3672
(g661
tp3673
(g61
g6
g63
g16
tp3674
tp3675
a((g4
g61
g6
g105
g88
g10
g63
g12
g14
g65
g57
tp3676
(g608
g67
tp3677
(g82
g61
g6
g105
g88
g63
g12
g16
g65
g57
tp3678
tp3679
a((g82
g2
g4
g6
g105
g8
g88
g10
g14
g16
g57
tp3680
(g1305
g589
tp3681
(g82
g4
g6
g88
g10
g12
g14
tp3682
tp3683
a((g82
g4
g86
g61
g6
g105
g10
g63
tp3684
(g137
g1592
g122
tp3685
(g2
g86
g12
tp3686
tp3687
a((g86
g61
g6
g105
g88
g12
g65
g57
tp3688
(g443
(istructures.domain
Action
p3689
(dp3690
g20
(lp3691
(S'at_x0'
p3692
tp3693
a(S'at_y3'
p3694
tp3695
asg26
(lp3696
(S'at_y2'
p3697
tp3698
asg30
(tsg31
(lp3699
(S'at_y3'
p3700
tp3701
asg35
I0
sg36
(lp3702
sg38
S'move_0_3_0_2'
p3703
sbtp3704
(g86
g61
g88
g10
g12
g65
g57
tp3705
tp3706
a((g82
g2
g4
g61
g105
g8
g88
g63
g16
g65
tp3707
(g1092
g536
tp3708
(g82
g2
g61
g88
g63
g14
g65
g57
tp3709
tp3710
a((g82
g2
g86
g61
g6
g105
g88
g10
g63
g14
tp3711
(g137
g150
tp3712
(g82
g86
g61
g88
g63
g12
g14
g65
tp3713
tp3714
a((g82
g2
g4
g105
g8
g10
g63
g14
g16
g65
tp3715
(g774
g40
tp3716
(g2
g4
g6
g63
g65
tp3717
tp3718
a((g82
g4
g86
g61
g6
g105
g65
tp3719
((istructures.domain
Action
p3720
(dp3721
g20
(lp3722
(S'at_x0'
p3723
tp3724
a(S'at_y3'
p3725
tp3726
asg26
(lp3727
(S'at_y4'
p3728
tp3729
asg30
(tsg31
(lp3730
(S'at_y3'
p3731
tp3732
asg35
I0
sg36
(lp3733
sg38
S'move_0_3_0_4'
p3734
sbtp3735
(g82
g61
g105
g57
tp3736
tp3737
a((g2
g4
g86
g10
g63
g65
g57
tp3738
(g517
tp3739
(g2
g4
g86
g6
g63
tp3740
tp3741
a((g82
g61
g6
g88
g63
g12
g14
g16
g65
tp3742
(g122
g477
g627
tp3743
(g82
g2
g86
g88
g10
tp3744
tp3745
a((g82
g2
g86
g61
g6
g105
g8
g88
g10
g12
g65
g57
tp3746
(g90
g394
tp3747
(g82
g4
g86
g105
g12
g14
tp3748
tp3749
a((g82
g61
g6
g8
g12
g14
g16
g65
g57
tp3750
(g413
g199
tp3751
(g82
g2
g8
g63
g12
g65
g57
tp3752
tp3753
a((g82
g2
g6
g8
g88
g10
g63
g12
g14
tp3754
(g377
tp3755
(g2
g8
g10
g63
g12
g65
tp3756
tp3757
a((g2
g86
g61
g8
g10
g12
g57
tp3758
(g864
g67
tp3759
(g82
g2
g4
g61
g8
g10
tp3760
tp3761
a((g2
g4
g86
g61
g6
g105
g8
g10
g14
g16
g65
g57
tp3762
(g1611
g1286
tp3763
(g2
g86
g61
g105
g8
g10
g63
g16
tp3764
tp3765
a((g2
g86
g61
g105
g10
g63
g12
g14
g16
g65
tp3766
(g299
g67
tp3767
(g82
g2
g4
g105
g63
g12
g14
g16
tp3768
tp3769
a((g86
g61
g8
g88
g63
g12
g14
g16
tp3770
(g67
tp3771
(g82
g86
g61
g63
g12
tp3772
tp3773
a((g82
g4
g86
g61
g105
g8
g88
g10
g14
g16
tp3774
(g137
g271
g150
tp3775
(g82
g10
g12
g14
g65
tp3776
tp3777
a((g82
g2
g4
g86
g6
g8
g10
g63
g12
g14
g16
g57
tp3778
(g812
g150
tp3779
(g4
g105
g8
g10
g65
tp3780
tp3781
a((g2
g61
g105
g88
g10
g63
g12
g14
g16
g57
tp3782
(g67
g741
tp3783
(g82
g2
g61
g105
g8
g63
g12
g57
tp3784
tp3785
a((g82
g2
g4
g61
g8
g63
g12
g16
g65
g57
tp3786
(g536
g812
tp3787
(g82
g2
g4
g61
g105
g12
g14
g65
tp3788
tp3789
a((g82
g4
g105
g8
g63
g14
g65
g57
tp3790
(g517
g432
g1335
g477
tp3791
(g4
g10
g63
g16
g65
tp3792
tp3793
a((g82
g2
g4
g86
g61
g6
g105
g8
g88
g10
g14
g16
tp3794
(g904
tp3795
(g2
g4
g86
g61
g105
g8
g88
g63
g14
tp3796
tp3797
a((g2
g4
g86
g61
g8
g63
g12
g14
g16
g65
g57
tp3798
(g237
tp3799
(g2
g86
g8
g10
g63
g14
g65
g57
tp3800
tp3801
a((g82
g86
g61
g105
g88
g10
g63
g12
g14
g57
tp3802
(g950
g150
tp3803
(g8
g88
g12
g14
g65
tp3804
tp3805
a((g82
g4
g61
g6
g10
g14
g16
g65
g57
tp3806
(g1611
g432
g722
tp3807
(g4
g61
g88
g63
g12
g14
g65
g57
tp3808
tp3809
a((g2
g4
g86
g61
g105
g8
g88
g10
g12
g14
g16
g65
g57
tp3810
(g413
g608
tp3811
(g2
g4
g8
g88
g10
g63
g12
g16
g65
g57
tp3812
tp3813
a((g82
g4
g61
g6
g8
g88
g10
g14
g16
g57
tp3814
(g570
g1226
tp3815
(g82
g4
g61
g6
g88
g10
g12
g14
tp3816
tp3817
a((g2
g4
g61
g105
g88
g10
g63
g14
g65
g57
tp3818
(g1036
g608
g950
tp3819
(g4
g86
g105
g8
g88
g10
g16
g65
g57
tp3820
tp3821
a((g2
g4
g86
g61
g6
g105
g8
g10
g63
g12
g14
g16
g65
g57
tp3822
(g458
g237
tp3823
(g2
g4
g86
g6
g105
g88
g10
g63
g14
g57
tp3824
tp3825
a((g61
g6
g105
g10
g14
g65
tp3826
(g627
g18
tp3827
(g2
g105
g10
g57
tp3828
tp3829
a((g82
g2
g4
g61
g6
g10
g12
g14
g16
g65
tp3830
(g413
tp3831
(g63
g12
tp3832
tp3833
a((g82
g86
g6
g105
g88
g10
g12
g16
g65
g57
tp3834
(g362
g90
tp3835
(g2
g4
g6
g105
g10
g65
g57
tp3836
tp3837
a((g82
g2
g6
g105
g88
g63
g65
tp3838
(g1049
tp3839
(g63
g14
g65
tp3840
tp3841
a((g2
g61
g6
g105
g8
g88
g12
g14
g65
tp3842
(g237
g90
g793
tp3843
(g82
g4
g61
g8
g10
g65
tp3844
tp3845
a((g2
g6
g105
g8
g88
g63
g14
g65
g57
tp3846
(g324
tp3847
(g86
g8
g65
g57
tp3848
tp3849
a((g82
g2
g86
g61
g105
g8
g63
g12
g14
g16
g65
g57
tp3850
(g237
tp3851
(g82
g2
g86
g61
g105
g8
g10
g63
g14
tp3852
tp3853
a((g2
g4
g86
g8
g12
g14
g16
tp3854
(g237
g458
tp3855
(g2
g4
g86
g88
g14
tp3856
tp3857
a((g82
g2
g4
g61
g88
g10
g57
tp3858
(g680
g250
(istructures.domain
Action
p3859
(dp3860
g20
(lp3861
(S'at_x0'
p3862
tp3863
a(S'at_y1'
p3864
tp3865
asg26
(lp3866
(S'at_y2'
p3867
tp3868
asg30
(tsg31
(lp3869
(S'at_y1'
p3870
tp3871
asg35
I0
sg36
(lp3872
sg38
S'move_0_1_0_2'
p3873
sbtp3874
(g82
g61
g105
g88
g12
g65
tp3875
tp3876
a((g2
g86
g61
g6
g105
g8
g10
g63
g12
g16
g57
tp3877
(g536
g864
tp3878
(g4
g86
g6
g8
g10
g14
g57
tp3879
tp3880
a((g82
g2
g86
g8
g63
g14
g57
tp3881
(g661
g3259
(istructures.domain
Action
p3882
(dp3883
g20
(lp3884
(S'at_x5'
p3885
tp3886
a(S'at_y4'
p3887
tp3888
asg26
(lp3889
(S'at_x4'
p3890
tp3891
asg30
(tsg31
(lp3892
(S'at_x5'
p3893
tp3894
asg35
I0
sg36
(lp3895
sg38
S'move_5_4_4_4'
p3896
sbtp3897
(g82
g2
g61
g8
g16
g65
g57
tp3898
tp3899
a((g2
g4
g86
g61
g8
g88
g12
g16
g57
tp3900
(g271
g413
g67
tp3901
(g82
g2
g61
g8
g10
g63
g12
g57
tp3902
tp3903
a((g2
g61
g88
g10
g63
g14
g16
g65
g57
tp3904
(g517
tp3905
(g6
g88
g63
g14
tp3906
tp3907
a((g82
g4
g86
g61
g6
g105
g8
g88
g12
g16
g65
tp3908
(g271
g1977
tp3909
(g82
g86
g105
g8
g10
g14
tp3910
tp3911
a((g4
g6
g105
g63
g12
g14
g65
g57
tp3912
(g284
g831
tp3913
(g8
g12
g14
g16
g65
tp3914
tp3915
a((g82
g2
g86
g61
g105
g88
g63
g12
g16
g65
g57
tp3916
(g950
g517
tp3917
(g86
g61
g6
g105
g8
g12
tp3918
tp3919
a((g82
g2
g105
g8
g10
g12
g14
tp3920
(g996
g1286
tp3921
(g82
g86
g16
tp3922
tp3923
a((g82
g4
g61
g6
g105
g8
g88
g10
g63
g12
g14
tp3924
(g608
g165
tp3925
(g82
g4
g105
g8
g88
g10
g16
g57
tp3926
tp3927
a((g82
g2
g4
g86
g61
g105
g8
g88
g10
g63
g12
g16
g65
g57
tp3928
(g517
tp3929
(g4
g61
g6
g105
g88
g10
g12
g16
tp3930
tp3931
a((g86
g61
g6
g8
g63
g14
g16
tp3932
(g432
g1150
g107
tp3933
(g4
g86
g6
g63
g14
tp3934
tp3935
a((g2
g86
g61
g105
g8
g88
g14
g16
g57
tp3936
(g150
tp3937
(g105
g88
g16
g65
tp3938
tp3939
a((g82
g2
g4
g86
g61
g105
g88
g63
g16
g65
tp3940
(g271
g394
(istructures.domain
Action
p3941
(dp3942
g20
(lp3943
(S'at_x1'
p3944
tp3945
a(S'at_y5'
p3946
tp3947
asg26
(lp3948
(S'at_x2'
p3949
tp3950
asg30
(tsg31
(lp3951
(S'at_x1'
p3952
tp3953
asg35
I0
sg36
(lp3954
sg38
S'move_1_5_2_5'
p3955
sbtp3956
(g82
g2
g105
g10
g63
g14
g16
g65
tp3957
tp3958
a((g6
g105
g12
g14
g16
g57
tp3959
(g477
g299
g627
tp3960
(g2
g4
g10
g16
g57
tp3961
tp3962
a((g82
g2
g4
g86
g8
g10
g12
g16
g65
g57
tp3963
(g458
g413
tp3964
(g2
g4
g88
g63
g65
g57
tp3965
tp3966
a((g82
g2
g4
g6
g105
g10
g63
g14
g16
g65
g57
tp3967
(g996
g661
tp3968
(g61
g6
g105
g63
g14
g65
g57
tp3969
tp3970
a((g2
g4
g8
g88
g63
g14
g16
g57
tp3971
(g555
g1257
g3259
tp3972
(g82
g4
g8
g10
g14
g65
g57
tp3973
tp3974
a((g2
g61
g6
g105
g8
g10
g12
g14
g16
g65
tp3975
(g793
tp3976
(g82
g2
g61
g8
g16
g65
tp3977
tp3978
a((g82
g4
g86
g61
g6
g105
g8
g63
g14
g16
g57
tp3979
(g432
g362
g377
tp3980
(g82
g2
g63
g12
g16
g65
g57
tp3981
tp3982
a((g4
g8
g10
g14
g16
tp3983
(g774
g199
g40
tp3984
(g2
g6
tp3985
tp3986
a((g82
g2
g86
g61
g6
g105
g8
g10
g63
g65
g57
tp3987
(g458
g90
tp3988
(g82
g4
g105
g88
g65
g57
tp3989
tp3990
a((g82
g2
g4
g61
g105
g88
g10
g63
g12
g16
g65
g57
tp3991
(g517
g500
tp3992
(g82
g61
g6
g8
g88
g10
g63
g12
g65
tp3993
tp3994
a((g82
g2
g4
g86
g61
g6
g105
g88
g63
g12
g16
g57
tp3995
(g950
tp3996
(g82
g86
g61
g8
g57
tp3997
tp3998
a((g2
g4
g61
g6
g105
g10
g12
g14
g16
g57
tp3999
(g1036
g793
tp4000
(g82
g86
g105
g10
g12
tp4001
tp4002
a((g82
g4
g86
g8
g10
g12
g16
g65
tp4003
(g2411
g1592
g394
tp4004
(g6
g14
g16
tp4005
tp4006
a((g82
g86
g61
g6
g105
g88
g63
g12
g57
tp4007
(g271
g950
g150
tp4008
(g6
g8
g10
g65
g57
tp4009
tp4010
a((g82
g2
g86
g61
g105
g88
g10
g63
g12
g65
g57
tp4011
(g394
g950
tp4012
(g82
g105
g8
g88
g12
g14
tp4013
tp4014
a((g105
g88
g10
g63
g12
g14
g16
g65
tp4015
(g1092
g199
tp4016
(g2
g88
g16
g57
tp4017
tp4018
a((g4
g86
g61
g8
g14
g16
g57
tp4019
(g362
g589
tp4020
(g2
g6
g14
tp4021
tp4022
a((g82
g2
g86
g61
g6
g88
g63
g12
g14
g16
g65
g57
tp4023
(g500
tp4024
(g2
g86
g6
g8
g88
g12
g65
tp4025
tp4026
a((g82
g2
g4
g86
g6
g8
g88
g63
g12
g14
g16
g65
tp4027
(g165
g812
tp4028
(g82
g86
g105
g8
g12
g14
g16
tp4029
tp4030
a((g86
g61
g6
g10
g63
g14
g16
g65
g57
tp4031
(g137
g67
tp4032
(g82
g6
g12
g14
g16
tp4033
tp4034
a((g82
g2
g61
g6
g8
g88
g10
g63
g14
g16
g65
g57
tp4035
(g812
tp4036
(g82
g105
g8
g88
g10
g14
tp4037
tp4038
a((g4
g86
g105
g8
g10
g12
g65
g57
tp4039
(g458
tp4040
(g86
g88
g12
g65
g57
tp4041
tp4042
a((g82
g4
g86
g61
g105
g10
g63
g14
g16
g57
tp4043
(g950
g150
tp4044
(g4
g61
g8
g63
g65
g57
tp4045
tp4046
a((g82
g86
g61
g6
g105
g88
g10
g63
g12
g14
g16
tp4047
(g299
tp4048
(g4
g86
g61
g105
g88
g12
g16
tp4049
tp4050
a((g82
g86
g6
g105
g8
g88
g10
g12
g14
g16
g65
g57
tp4051
(g199
tp4052
(g82
g2
g86
g105
g88
g10
g65
tp4053
tp4054
a((g2
g4
g86
g61
g105
g8
g88
g10
g63
g16
g65
tp4055
(g137
g40
tp4056
(g4
g6
g105
g8
g88
g63
tp4057
tp4058
a((g82
g2
g61
g6
g105
g63
g12
g14
g16
g57
tp4059
(g299
g377
tp4060
(g82
g2
g4
g6
g105
g63
g12
g16
g65
g57
tp4061
tp4062
a((g2
g86
g61
g10
g14
g16
g65
g57
tp4063
(g137
tp4064
(g2
g12
g14
g65
tp4065
tp4066
a((g2
g4
g86
g61
g6
g105
g88
g12
g14
g16
g65
g57
tp4067
(g413
g793
tp4068
(g82
g2
g4
g61
g63
g14
g65
g57
tp4069
tp4070
a((g82
g4
g86
g61
g6
g105
g8
g88
g10
g63
g12
g14
tp4071
(g608
g165
tp4072
(g86
g61
g105
g8
g88
g10
g16
g57
tp4073
tp4074
a((g2
g4
g86
g61
g88
g10
g12
g14
g57
tp4075
(g67
g250
tp4076
(g82
g4
g86
g61
g88
g10
g12
g65
tp4077
tp4078
a((g82
g2
g4
g86
g61
g105
g8
g10
g14
tp4079
(g137
g40
(istructures.domain
Action
p4080
(dp4081
g20
(lp4082
(S'at_x3'
p4083
tp4084
a(S'at_y5'
p4085
tp4086
asg26
(lp4087
(S'at_x4'
p4088
tp4089
asg30
(tsg31
(lp4090
(S'at_x3'
p4091
tp4092
asg35
I0
sg36
(lp4093
sg38
S'move_3_5_4_5'
p4094
sbtp4095
(g82
g2
g86
g6
g105
g8
g16
tp4096
tp4097
a((g82
g4
g61
g6
g88
g10
g12
g14
g65
tp4098
(g199
g500
g18
tp4099
(g2
g4
g8
g88
g57
tp4100
tp4101
a((g82
g4
g61
g6
g105
g10
g63
g12
g14
g16
g65
g57
tp4102
(g1036
g362
tp4103
(g82
g2
g14
g16
g65
g57
tp4104
tp4105
a((g4
g86
g61
g105
g8
g88
g10
g63
g14
g16
g65
g57
tp4106
(g362
g1257
tp4107
(g82
g8
g88
g10
g63
g14
g65
g57
tp4108
tp4109
a((g82
g2
g86
g61
g6
g8
g88
g63
g12
g14
g16
g57
tp4110
(g90
g812
tp4111
(g82
g4
g86
g61
g105
g8
g16
tp4112
tp4113
a((g82
g2
g61
g8
g10
g12
g16
g65
g57
tp4114
(g1362
g237
tp4115
(g82
g8
g88
g10
g65
tp4116
tp4117
a((g86
g61
g6
g88
g10
g63
g14
g16
tp4118
(g137
g67
g377
tp4119
(g82
g86
g88
g63
g12
g65
tp4120
tp4121
a((g2
g86
g61
g6
g105
g88
g10
g63
g12
g14
g65
g57
tp4122
(g90
tp4123
(g4
g86
g10
g63
g12
g14
tp4124
tp4125
a((g82
g2
g4
g61
g6
g88
g63
g12
g14
g16
g65
g57
tp4126
(g237
g996
tp4127
(g4
g86
g61
g10
g63
g65
g57
tp4128
tp4129
a((g2
g4
g86
g61
g6
g10
g63
g12
g16
g65
g57
tp4130
(g536
tp4131
(g4
g61
g10
g14
g65
tp4132
tp4133
a((g2
g61
g105
g8
g14
g65
tp4134
(g1397
g864
g680
g935
tp4135
(g4
g86
g61
g105
g14
tp4136
tp4137
a((g82
g6
g105
g8
g88
g10
g12
g14
g16
tp4138
(g1123
(istructures.domain
Action
p4139
(dp4140
g20
(lp4141
(S'at_x4'
p4142
tp4143
a(S'at_y5'
p4144
tp4145
asg26
(lp4146
(S'have_item1'
p4147
tp4148
asg30
(tsg31
(lp4149
sg35
I0
sg36
(lp4150
sg38
S'easymark_item1_4_5'
p4151
sbtp4152
(g105
g88
g10
g14
g65
g57
tp4153
tp4154
a((g82
g61
g6
g8
g88
g10
g12
g14
g16
g57
tp4155
(g199
g680
tp4156
(g2
g105
g88
g10
g16
tp4157
tp4158
a((g82
g4
g86
g6
g105
g10
g63
g12
g14
g16
g57
tp4159
(g661
g377
tp4160
(g61
g10
g12
g14
g65
g57
tp4161
tp4162
a((g4
g86
g61
g105
g8
g10
g16
g65
tp4163
(g3941
g1257
g394
tp4164
(g82
g4
g61
g10
g14
g16
g65
tp4165
tp4166
a((g82
g2
g6
g105
g8
g88
g10
g63
g12
g14
g16
g57
tp4167
(g996
g661
tp4168
(g61
g6
g8
g10
g63
g12
g16
tp4169
tp4170
a((g4
g86
g61
g6
g105
g8
g88
g12
g16
g65
tp4171
(g413
g165
tp4172
(g4
g61
g8
g88
g63
g12
g65
g57
tp4173
tp4174
a((g82
g2
g86
g61
g8
g88
g10
g63
g12
g16
g65
g57
tp4175
(g40
g90
tp4176
(g82
g4
g6
g10
tp4177
tp4178
a((g82
g2
g86
g61
g6
g8
g88
g10
g14
g65
g57
tp4179
(g137
tp4180
(g82
g2
g86
g61
g12
g65
g57
tp4181
tp4182
a((g86
g61
g6
g105
g8
g10
g63
g14
tp4183
(g137
g165
g67
tp4184
(g82
g63
g12
g14
g57
tp4185
tp4186
a((g2
g86
g6
g105
g8
g10
g63
g12
g14
g16
g65
g57
tp4187
(g458
g793
tp4188
(g82
g2
g88
g63
g57
tp4189
tp4190
a((g82
g2
g4
g6
g105
g10
g63
g12
g14
g16
g57
tp4191
(g377
tp4192
(g105
g63
g65
g57
tp4193
tp4194
a((g82
g2
g4
g86
g61
g6
g105
g88
g63
g12
g14
g16
tp4195
(g1092
g377
tp4196
(g4
g86
g61
g6
g63
g12
g14
g65
g57
tp4197
tp4198
a((g2
g86
g6
g105
g8
g88
g63
g12
g16
g65
g57
tp4199
(g661
tp4200
(g2
g61
g6
g8
g88
g63
g12
g16
g65
g57
tp4201
tp4202
a((g4
g86
g88
g10
g12
g14
g65
g57
tp4203
(g661
g199
g40
tp4204
(g2
g4
g61
g6
g88
g57
tp4205
tp4206
a((g86
g61
g6
g88
g10
g63
g12
g14
g65
g57
tp4207
(g67
g812
tp4208
(g82
g6
g105
g88
g10
g63
g12
g14
g65
tp4209
tp4210
a((g82
g4
g86
g61
g105
g10
g16
g65
tp4211
(g950
g3941
(istructures.domain
Action
p4212
(dp4213
g20
(lp4214
(S'at_x4'
p4215
tp4216
a(S'at_y1'
p4217
tp4218
asg26
(lp4219
(S'at_x5'
p4220
tp4221
asg30
(tsg31
(lp4222
(S'at_x4'
p4223
tp4224
asg35
I0
sg36
(lp4225
sg38
S'move_4_1_5_1'
p4226
sbtp4227
(g2
g4
g8
g63
g65
tp4228
tp4229
a((g82
g2
g86
g61
g6
g105
g8
g88
g10
g63
g14
g16
g65
tp4230
(g90
tp4231
(g82
g2
g4
g6
g8
g16
tp4232
tp4233
a((g82
g61
g6
g105
g8
g88
g14
g65
tp4234
(g555
g877
g1150
tp4235
(g4
g6
g105
g12
g14
g65
tp4236
tp4237
a((g82
g105
g12
g16
tp4238
(g477
g4139
g741
tp4239
(g8
g10
g65
tp4240
tp4241
a((g82
g4
g86
g6
g105
g88
g63
g12
g14
g16
g57
tp4242
(g950
g150
tp4243
(g82
g86
g6
g105
g8
g88
g16
g65
tp4244
tp4245
a((g82
g4
g86
g8
g10
g63
g12
g14
g65
g57
tp4246
(g362
g284
tp4247
(g2
g8
g10
g12
g14
g16
g65
tp4248
tp4249
a((g82
g4
g86
g61
g105
g8
g88
g10
g63
g12
g14
g65
g57
tp4250
(g107
tp4251
(g82
g4
g6
g88
g10
g14
g65
tp4252
tp4253
a((g82
g4
g88
g10
g63
g14
g65
g57
tp4254
(g517
g432
tp4255
(g4
g88
g10
g63
g12
g14
g65
tp4256
tp4257
a((g82
g6
g105
g63
g12
g65
g57
tp4258
(g284
g299
tp4259
(g4
g105
tp4260
tp4261
a((g82
g2
g4
g86
g61
g6
g10
g63
g12
g16
tp4262
(g377
g500
tp4263
(g86
g8
g65
tp4264
tp4265
a((g82
g86
g61
g6
g105
g10
g63
g16
g57
tp4266
(g137
g362
g1049
tp4267
(g82
g61
g63
g12
g14
g16
g57
tp4268
tp4269
a((g82
g2
g86
g61
g105
g8
g88
g63
g12
g14
g57
tp4270
(g150
tp4271
(g82
g2
g86
g105
g12
g14
g65
g57
tp4272
tp4273
a((g82
g2
g61
g6
g105
g8
g88
g10
g12
g14
g57
tp4274
(g90
g1036
tp4275
(g82
g4
g86
g6
g10
g14
tp4276
tp4277
a((g82
g4
g86
g88
g63
g12
g16
g65
g57
tp4278
(g107
g536
g1926
tp4279
(g82
g2
g86
g6
g88
g65
tp4280
tp4281
a((g82
g4
g86
g61
g8
g10
g63
g14
g16
g57
tp4282
(g137
g199
g812
tp4283
(g2
g86
g105
g8
g12
tp4284
tp4285
a((g82
g2
g105
g88
g63
g12
g14
g65
g57
tp4286
(g284
g831
tp4287
(g105
g8
g88
g12
g14
g16
g65
tp4288
tp4289
a((g2
g86
g61
g6
g88
g10
g14
g57
tp4290
(g680
tp4291
(g2
g105
g88
g10
tp4292
tp4293
a((g2
g4
g61
g10
g12
g16
g65
tp4294
(g741
g1362
tp4295
(g4
g61
g8
g88
g12
tp4296
tp4297
a((g86
g105
g8
g88
g12
g14
g16
g57
tp4298
(g477
g150
tp4299
(g86
g88
g10
g65
tp4300
tp4301
a((g4
g86
g6
g8
g10
g63
g16
g65
g57
tp4302
(g432
g536
g199
tp4303
(g2
g4
g86
g8
g10
g12
tp4304
tp4305
a((g86
g61
g105
g88
g10
g63
g12
g14
g16
g57
tp4306
(g950
tp4307
(g105
g8
g14
g16
tp4308
tp4309
a((g82
g86
g61
g105
g8
g12
g16
g65
tp4310
(g299
g413
g107
tp4311
(g82
g4
g61
g6
g63
g65
tp4312
tp4313
a((g82
g2
g86
g61
g6
g105
g8
g88
g10
g63
g65
g57
tp4314
(g137
g271
g864
tp4315
(g82
g4
g61
g6
g8
g10
g12
g57
tp4316
tp4317
a((g82
g2
g86
g61
g88
g10
g63
g12
g14
g16
g65
tp4318
(g40
g90
tp4319
(g82
g4
g86
g61
g6
g88
g10
g63
g14
tp4320
tp4321
a((g82
g2
g86
g61
g105
g8
g63
g14
g16
g57
tp4322
(g517
g150
tp4323
(g82
g61
g6
g8
g14
g16
g65
tp4324
tp4325
a((g2
g61
g6
g8
g10
g12
g16
g65
g57
tp4326
(g793
g864
tp4327
(g82
g2
g4
g61
g8
g10
g16
g65
tp4328
tp4329
a((g2
g4
g86
g61
g6
g8
g10
g12
g14
g16
g65
tp4330
(g793
tp4331
(g82
g2
g4
g61
g10
g12
g14
tp4332
tp4333
a((g82
g2
g4
g86
g61
g105
g8
g10
g63
g12
g14
g16
g65
g57
tp4334
(g517
tp4335
(g82
g2
g6
g105
g10
g63
g12
g14
g16
tp4336
tp4337
a((g86
g61
g6
g105
g88
g63
g14
g65
tp4338
(g950
tp4339
(g6
g105
g8
g88
g65
tp4340
tp4341
a((g2
g86
g61
g6
g105
g88
g10
g63
g12
g14
g65
g57
tp4342
(g608
tp4343
(g2
g61
g6
g88
g10
g63
g16
g57
tp4344
tp4345
a((g82
g2
g86
g61
g6
g105
g88
g10
g14
g16
tp4346
(g90
g150
tp4347
(g82
g2
g4
g6
g88
g10
g14
g16
g65
tp4348
tp4349
a((g82
g2
g4
g86
g8
g88
g10
g12
g14
tp4350
(g40
g1015
tp4351
(g82
g8
g88
g65
tp4352
tp4353
a((g82
g2
g4
g61
g6
g8
g63
g12
g14
g16
g57
tp4354
(g324
g377
tp4355
(g86
g61
g6
g63
g12
g65
tp4356
tp4357
a((g2
g86
g6
g105
g88
g63
g16
g57
tp4358
(g271
g432
g950
tp4359
(g2
g86
g8
g10
g63
g12
g16
tp4360
tp4361
a((g4
g61
g6
g63
g12
g14
g16
g65
tp4362
(g122
g199
g500
tp4363
(g2
g4
g86
g6
g8
g12
tp4364
tp4365
a((g82
g86
g61
g6
g88
g63
g12
g16
g57
tp4366
(g271
g362
g812
tp4367
(g2
g61
g105
g10
g12
g16
tp4368
tp4369
a((g82
g4
g86
g61
g8
g88
g10
g63
g14
g16
g65
tp4370
(g137
g107
g165
tp4371
(g4
g8
g88
g65
g57
tp4372
tp4373
a((g2
g4
g86
g6
g105
g8
g88
g10
g16
g65
tp4374
(g1092
tp4375
(g2
g8
g88
g10
g65
g57
tp4376
tp4377
a((g2
g4
g105
g88
g10
g12
g65
g57
tp4378
(g40
g500
g1305
tp4379
(g2
g4
g105
g8
g10
g12
g57
tp4380
tp4381
a((g2
g4
g61
g6
g105
g10
g63
g12
g65
tp4382
(g722
tp4383
(g4
g61
g105
g88
g65
tp4384
tp4385
a((g82
g4
g6
g8
g88
g63
g16
g57
tp4386
(g432
(istructures.domain
Action
p4387
(dp4388
g20
(lp4389
(S'at_x5'
p4390
tp4391
a(S'at_y0'
p4392
tp4393
asg26
(lp4394
(S'at_y1'
p4395
tp4396
asg30
(tsg31
(lp4397
(S'at_y0'
p4398
tp4399
asg35
I0
sg36
(lp4400
sg38
S'move_5_0_5_1'
p4401
sbtp4402
(g4
g10
g12
g16
tp4403
tp4404
a((g86
g61
g6
g105
g8
g10
g12
g14
g16
g65
g57
tp4405
(g458
g67
tp4406
(g82
g61
g6
g105
g8
g88
g14
tp4407
tp4408
a((g82
g4
g86
g8
g88
g10
g12
g57
tp4409
(g661
g250
(istructures.domain
Action
p4410
(dp4411
g20
(lp4412
(S'at_x0'
p4413
tp4414
a(S'at_y4'
p4415
tp4416
asg26
(lp4417
(S'at_y5'
p4418
tp4419
asg30
(tsg31
(lp4420
(S'at_y4'
p4421
tp4422
asg35
I0
sg36
(lp4423
sg38
S'move_0_4_0_5'
p4424
sbtp4425
(g82
g61
g105
g10
g12
g65
tp4426
tp4427
a((g82
g61
g6
g105
g8
g88
g10
g14
g57
tp4428
(g627
g90
tp4429
(g82
g2
g4
g6
g105
g8
tp4430
tp4431
a((g82
g2
g4
g86
g61
g105
g10
g63
g12
g14
g16
g65
tp4432
(g458
g237
tp4433
(g82
g61
g105
g88
g10
g63
g65
tp4434
tp4435
a((g86
g61
g6
g8
g88
g10
g63
g12
g14
g16
g57
tp4436
(g67
tp4437
(g82
g88
g10
g63
g14
g16
tp4438
tp4439
a((g2
g4
g61
g6
g10
g12
g14
g16
g65
g57
tp4440
(g1362
tp4441
(g2
g6
g88
g14
tp4442
tp4443
a((g2
g86
g6
g8
g10
g12
g14
g16
g57
tp4444
(g793
tp4445
(g82
g10
g12
g14
g57
tp4446
tp4447
a((g82
g2
g4
g86
g88
g10
g12
g14
g16
g65
g57
tp4448
(g413
tp4449
(g4
g86
g88
g10
g63
tp4450
tp4451
a((g82
g61
g6
g105
g8
g88
g10
g63
g16
g65
tp4452
(g432
g299
tp4453
(g4
g61
g105
g8
g12
g16
g65
tp4454
tp4455
a((g82
g4
g86
g105
g8
g63
g12
g14
g16
g65
g57
tp4456
(g661
tp4457
(g4
g61
g8
g63
g14
g16
g65
tp4458
tp4459
a((g2
g86
g61
g105
g8
g88
g10
g12
g14
g65
tp4460
(g608
g413
tp4461
(g2
g61
g8
g10
g63
g12
tp4462
tp4463
a((g4
g86
g6
g8
g88
g63
g14
g16
tp4464
(g2969
tp4465
(g2
g4
g86
g63
tp4466
tp4467
a((g82
g2
g4
g6
g105
g10
g63
g12
g14
g16
g65
tp4468
(g996
tp4469
(g4
g86
g10
g12
g16
tp4470
tp4471
a((g4
g86
g61
g6
g8
g63
g12
g16
g65
tp4472
(g1977
g284
tp4473
(g4
g6
g8
g12
g14
g16
g65
tp4474
tp4475
a((g82
g2
g4
g61
g6
g105
g8
g63
g12
g65
g57
tp4476
(g237
g394
g2046
tp4477
(g4
g8
g10
g14
g16
g57
tp4478
tp4479
a((g82
g2
g4
g86
g6
g88
g10
g63
g12
g57
tp4480
(g377
tp4481
(g82
g10
g63
g12
g65
tp4482
tp4483
a((g82
g4
g6
g8
g63
g12
g14
g65
g57
tp4484
(g199
g324
g661
tp4485
(g4
g61
g65
tp4486
tp4487
a((g82
g86
g61
g105
g8
g63
g12
g14
g57
tp4488
(g107
g362
g864
tp4489
(g82
g2
g4
g61
g6
g63
tp4490
tp4491
a((g82
g2
g86
g61
g8
g12
g14
g65
g57
tp4492
(g40
(istructures.domain
Action
p4493
(dp4494
g20
(lp4495
(S'at_x3'
p4496
tp4497
a(S'at_y3'
p4498
tp4499
asg26
(lp4500
(S'at_x4'
p4501
tp4502
asg30
(tsg31
(lp4503
(S'at_x3'
p4504
tp4505
asg35
I0
sg36
(lp4506
sg38
S'move_3_3_4_3'
p4507
sbtp4508
(g82
g2
g86
g6
g8
g16
g57
tp4509
tp4510
a((g82
g2
g4
g86
g105
g8
g88
g12
g14
g16
tp4511
(g413
g608
tp4512
(g2
g4
g105
g63
g12
g16
tp4513
tp4514
a((g4
g61
g6
g8
g88
g63
g14
g57
tp4515
(g432
g67
tp4516
(g82
g4
g61
g63
g12
g14
tp4517
tp4518
a((g82
g2
g4
g86
g6
g105
g8
g88
g10
g63
g12
g16
tp4519
(g1092
tp4520
(g82
g2
g10
g63
g12
g16
g57
tp4521
tp4522
a((g82
g86
g6
g8
g88
g10
g12
g14
g16
g57
tp4523
(g362
tp4524
(g2
g88
g10
g12
tp4525
tp4526
a((g82
g2
g4
g86
g61
g88
g16
tp4527
(g271
g741
g137
tp4528
(g2
g4
g61
g8
g12
g16
tp4529
tp4530
a((g82
g4
g86
g61
g105
g63
g65
tp4531
(g2046
g1092
g362
g536
tp4532
(g82
g2
g14
g65
g57
tp4533
tp4534
a((g2
g86
g61
g6
g105
g8
g88
g63
g12
g14
g65
g57
tp4535
(g271
g864
tp4536
(g4
g105
g8
g10
g12
g14
g65
g57
tp4537
tp4538
a((g82
g2
g86
g6
g105
g8
g63
g65
tp4539
(g432
g1049
g1150
tp4540
(g82
g4
g86
g8
g63
g14
g65
tp4541
tp4542
a((g82
g61
g6
g8
g88
g63
g12
g14
g16
g65
g57
tp4543
(g555
g1150
tp4544
(g4
g61
g10
g12
g14
g65
g57
tp4545
tp4546
a((g82
g2
g86
g105
g12
g14
g16
g65
tp4547
(g40
g904
tp4548
(g82
g6
g63
g14
g65
tp4549
tp4550
a((g82
g2
g86
g61
g6
g8
g10
g63
g12
g16
g57
tp4551
(g864
tp4552
(g82
g2
g4
g86
g61
g6
g57
tp4553
tp4554
a((g82
g86
g61
g6
g105
g10
g63
g14
g16
g57
tp4555
(g458
g150
tp4556
(g86
g61
g105
g88
g63
g14
g65
g57
tp4557
tp4558
a((g82
g2
g6
g8
g12
g14
g16
g57
tp4559
(g237
g1015
g1305
tp4560
(g2
g10
g12
g14
g65
g57
tp4561
tp4562
a((g82
g2
g8
g63
g12
g14
g16
g65
g57
tp4563
(g40
g324
g661
tp4564
(g82
g61
g6
g8
g65
tp4565
tp4566
a((g82
g61
g6
g105
g8
g88
g10
g12
g14
g65
tp4567
(g1397
g1150
tp4568
(g82
g4
g61
g88
g10
g12
g14
g57
tp4569
tp4570
a((g82
g4
g86
g61
g105
g8
g10
g63
g12
g57
tp4571
(g458
g284
tp4572
(g4
g86
g105
g88
g16
tp4573
tp4574
a((g82
g2
g105
g8
g88
g12
g16
g65
g57
tp4575
(g40
g1611
tp4576
(g82
g2
g6
g105
g88
g63
g65
tp4577
tp4578
a((g2
g4
g86
g61
g6
g8
g88
g63
g14
g65
g57
tp4579
(g1470
tp4580
(g2
g4
g86
g61
g6
g14
g16
g65
tp4581
tp4582
a((g2
g4
g86
g6
g105
g8
g88
g10
g12
g14
g57
tp4583
(g793
g150
tp4584
(g82
g2
g86
g105
g8
g88
g10
g12
g14
g65
g57
tp4585
tp4586
a((g2
g4
g86
g61
g105
g88
g12
g14
g16
g65
tp4587
(g237
g1257
tp4588
(g82
g2
g88
g10
g14
g16
tp4589
tp4590
a((g82
g4
g86
g8
g63
g12
g14
g57
tp4591
(g362
g284
g680
tp4592
(g2
g4
g105
g16
tp4593
tp4594
a((g2
g86
g61
g6
g88
g10
g65
tp4595
(g394
g608
tp4596
(g86
g61
g6
g16
g65
tp4597
tp4598
a((g82
g2
g86
g6
g105
g88
g10
g12
tp4599
(g1721
g1397
tp4600
(g82
g2
g61
g6
g88
g57
tp4601
tp4602
a((g2
g4
g86
g105
g8
g88
g63
g12
g14
g16
tp4603
(g271
g40
g793
tp4604
(g82
g2
g4
g6
g105
g8
g10
g14
g16
tp4605
tp4606
a((g2
g61
g6
g105
g8
g10
g63
g12
g57
tp4607
(g284
tp4608
(g61
g6
g8
g12
g16
g57
tp4609
tp4610
a((g82
g4
g86
g61
g6
g105
g88
g63
g14
g16
g57
tp4611
(g362
g250
tp4612
(g82
g2
g88
g65
tp4613
tp4614
a((g2
g61
g105
g8
g88
g63
g14
g16
g57
tp4615
(g90
g555
g774
tp4616
(g2
g4
g61
g105
g8
g12
g14
tp4617
tp4618
a((g82
g2
g4
g86
g61
g6
g105
g88
g10
g63
g12
g14
g65
g57
tp4619
(g608
g950
tp4620
(g82
g4
g86
g61
g6
g8
g10
g63
g12
g16
tp4621
tp4622
a((g82
g2
g86
g61
g6
g105
g8
g88
g10
g63
g12
g14
g16
g57
tp4623
(g90
g150
tp4624
(g82
g4
g86
g61
g6
g105
g8
g88
g16
g65
g57
tp4625
tp4626
a((g2
g4
g86
g61
g105
g12
g16
g65
g57
tp4627
(g237
g1257
tp4628
(g82
g2
g86
g61
g10
g16
tp4629
tp4630
a((g82
g2
g4
g61
g6
g105
g8
g88
g10
g63
g12
g14
tp4631
(g122
g150
tp4632
(g86
g6
g63
g65
tp4633
tp4634
a((g82
g2
g4
g61
g105
g10
g12
g14
g16
g57
tp4635
(g1036
g950
tp4636
(g82
g2
g4
g86
g8
g16
tp4637
tp4638
a((g2
g86
g61
g8
g12
g14
g65
tp4639
(g40
g793
g4493
tp4640
(g82
g2
g86
g61
g6
g16
tp4641
tp4642
a((g82
g2
g4
g86
g8
g88
g63
g12
g16
g65
g57
tp4643
(g812
tp4644
(g2
g105
g8
g88
g12
g65
tp4645
tp4646
a((g82
g2
g4
g61
g8
g88
g14
g16
g57
tp4647
(g1611
tp4648
(g82
g2
g4
g8
g88
g63
g14
g57
tp4649
tp4650
a((g82
g86
g61
g6
g105
g88
g10
g16
g65
tp4651
(g137
g1592
tp4652
(g82
g2
g88
g12
g16
tp4653
tp4654
a((g82
g2
g86
g8
g88
g63
g12
g14
g16
g65
g57
tp4655
(g90
g812
tp4656
(g82
g4
g105
g88
g63
g12
g65
tp4657
tp4658
a((g82
g86
g105
g8
g88
g10
g12
g14
g16
g65
g57
tp4659
(g299
tp4660
(g82
g4
g86
g105
g10
g14
g16
tp4661
tp4662
a((g2
g8
g88
g10
g16
g65
tp4663
(g774
g40
tp4664
(g6
g8
g88
g16
tp4665
tp4666
a((g4
g86
g6
g105
g8
g88
g10
g12
g14
g16
g65
tp4667
(g199
tp4668
(g2
g86
g6
g88
g10
g16
g65
tp4669
tp4670
a((g4
g61
g6
g105
g8
g63
g12
g14
g16
g65
g57
tp4671
(g67
tp4672
(g82
g6
g105
g8
g63
g57
tp4673
tp4674
a((g86
g61
g6
g105
g8
g10
g12
g16
g65
tp4675
(g67
g3720
tp4676
(g82
g86
g105
g16
g65
g57
tp4677
tp4678
a((g4
g86
g61
g88
g10
g63
g57
tp4679
(g137
g67
tp4680
(g82
g63
tp4681
tp4682
a((g82
g2
g4
g6
g105
g10
g63
g12
g16
g65
g57
tp4683
(g996
tp4684
(g4
g86
g105
g10
g63
g57
tp4685
tp4686
a((g82
g2
g86
g61
g6
g105
g8
g88
g10
g63
g12
g16
g65
g57
tp4687
(g90
tp4688
(g82
g4
g61
g6
g105
g63
g12
tp4689
tp4690
a((g82
g2
g4
g6
g105
g88
g63
g12
g65
tp4691
(g165
g1049
tp4692
(g82
g4
g14
g57
tp4693
tp4694
a((g2
g86
g61
g6
g105
g8
g88
g12
g14
g16
g65
g57
tp4695
(g90
tp4696
(g2
g4
g61
g105
g8
g12
g14
g16
g65
tp4697
tp4698
a((g82
g4
g86
g10
g63
g12
g14
g65
g57
tp4699
(g199
g812
tp4700
(g82
g2
g4
g86
g105
g63
g12
tp4701
tp4702
a((g82
g2
g4
g86
g6
g105
g8
g88
g10
g14
g57
tp4703
(g137
g150
tp4704
(g82
g2
g4
g86
g8
g88
g12
g65
tp4705
tp4706
a((g61
g6
g105
g8
g88
g10
g12
g14
g65
tp4707
(g608
tp4708
(g105
g10
g16
g65
tp4709
tp4710
a((g82
g2
g4
g86
g105
g8
g63
g12
g14
g65
g57
tp4711
(g661
tp4712
(g4
g61
g8
g12
tp4713
tp4714
a((g2
g4
g86
g61
g6
g10
g63
g16
g57
tp4715
(g1015
tp4716
(g2
g4
g61
g63
g16
g65
g57
tp4717
tp4718
a((g82
g86
g6
g8
g63
tp4719
(g432
g377
g284
g343
g1150
tp4720
(g82
g4
g12
g14
g65
tp4721
tp4722
a((g82
g4
g86
g61
g6
g105
g8
g88
g16
g65
tp4723
(g1977
g570
g443
tp4724
(g82
g4
g86
g88
g10
g14
tp4725
tp4726
a((g2
g4
g86
g61
g105
g10
g63
g14
g16
tp4727
(g1092
g1257
tp4728
(g82
g2
g10
g63
g57
tp4729
tp4730
a((g82
g4
g86
g61
g6
g105
g88
g10
g63
g14
g65
tp4731
(g608
g1592
tp4732
(g2
g4
g61
g6
g105
g88
g10
g63
g16
g65
tp4733
tp4734
a((g86
g61
g105
g8
g88
g12
g14
g57
tp4735
(g608
g67
tp4736
(g82
g61
g88
g16
g57
tp4737
tp4738
a((g2
g4
g86
g6
g105
g8
g10
g63
g12
g14
g65
g57
tp4739
(g458
g661
tp4740
(g2
g4
g61
g6
g8
g88
g12
tp4741
tp4742
a((g82
g2
g4
g86
g61
g6
g105
g88
g63
g14
g16
g57
tp4743
(g432
tp4744
(g105
g88
g12
g14
g57
tp4745
tp4746
a((g2
g4
g61
g6
g105
g8
g88
g63
g12
g14
g16
g65
g57
tp4747
(g1036
g793
tp4748
(g82
g86
g105
g88
g63
g16
g65
tp4749
tp4750
a((g2
g86
g61
g105
g8
g88
g63
g12
g14
g65
tp4751
(g67
g1397
tp4752
(g82
g2
g86
g8
g88
g12
g14
g57
tp4753
tp4754
a((g2
g4
g61
g8
g88
g10
g63
g12
g14
g16
g65
g57
tp4755
(g67
g517
tp4756
(g82
g2
g61
g6
g8
g88
g12
g14
g16
g65
tp4757
tp4758
a((g82
g2
g86
g61
g6
g63
g16
g65
g57
tp4759
(g812
g950
tp4760
(g82
g2
g6
g105
g8
g16
g65
tp4761
tp4762
a((g82
g2
g4
g86
g61
g6
g105
g63
g14
tp4763
(g432
g237
tp4764
(g2
g61
g105
g10
g63
tp4765
tp4766
a((g2
g4
g86
g6
g105
g88
g10
g16
tp4767
(g18
g1611
tp4768
(g2
g4
g105
g63
g57
tp4769
tp4770
a((g82
g4
g86
g88
g10
g63
g14
tp4771
(g1721
g627
g250
tp4772
(g82
g2
g4
g88
g10
g65
tp4773
tp4774
a((g82
g2
g4
g8
g88
g10
g12
tp4775
(g40
g996
g137
g1721
g250
tp4776
(g82
g4
g61
g6
g8
g88
g12
g65
tp4777
tp4778
a((g82
g2
g61
g6
g8
g10
g63
g14
g65
g57
tp4779
(g1036
tp4780
(g2
g86
g8
g14
g65
tp4781
tp4782
a((g82
g2
g4
g6
g105
g10
g63
g12
g16
g65
g57
tp4783
(g1362
g237
tp4784
(g82
g2
g4
g88
g10
g63
g16
g57
tp4785
tp4786
a((g86
g61
g6
g88
g10
g63
g12
g14
g16
g65
tp4787
(g67
tp4788
(g82
g86
g6
g88
g63
g12
g14
g65
tp4789
tp4790
a((g2
g6
g105
g88
g10
g63
g12
g14
g16
g65
g57
tp4791
(g90
g500
tp4792
(g2
g4
g6
g105
g8
g12
g16
g57
tp4793
tp4794
a((g2
g61
g63
g12
g16
tp4795
(g67
g343
tp4796
(g82
g2
g12
g14
tp4797
tp4798
a((g82
g2
g4
g61
g105
g8
g88
g10
g12
g65
tp4799
(g996
tp4800
(g86
g61
g12
g65
tp4801
tp4802
a((g82
g2
g4
g61
g6
g88
g10
g63
g65
g57
tp4803
(g812
tp4804
(g6
g105
g63
g65
tp4805
tp4806
a((g82
g4
g6
g12
g16
g57
tp4807
(g477
g1611
g722
tp4808
(g82
g4
g6
g88
g63
g57
tp4809
tp4810
a((g4
g86
g61
g6
g8
g63
g12
g14
g16
g65
g57
tp4811
(g67
g477
tp4812
(g82
g4
g8
g10
g63
g65
g57
tp4813
tp4814
a((g82
g2
g105
g10
g12
g65
tp4815
(g40
g500
g1305
tp4816
(g82
g2
g8
g12
g65
tp4817
tp4818
a((g82
g2
g8
g63
g16
g65
g57
tp4819
(g864
g812
tp4820
(g4
g105
g63
g16
g65
tp4821
tp4822
a((g82
g4
g61
g105
g8
g88
g12
g14
g16
g65
tp4823
(g1092
g2553
tp4824
(g61
g6
g8
g16
g57
tp4825
tp4826
a((g82
g2
g61
g105
g8
g88
g10
g63
g12
g14
g65
g57
tp4827
(g90
tp4828
(g82
g2
g4
g61
g105
g8
g10
tp4829
tp4830
a((g2
g4
g86
g61
g6
g12
g14
g57
tp4831
(g237
g1305
tp4832
(g2
g10
g12
g14
tp4833
tp4834
a((g82
g2
g86
g6
g105
g88
g10
g63
g12
g14
g16
g57
tp4835
(g661
tp4836
(g61
g6
g88
g63
g12
g14
g57
tp4837
tp4838
a((g82
g4
g86
g105
g88
g63
g12
g65
g57
tp4839
(g271
g661
g517
tp4840
(g61
g6
g10
g12
tp4841
tp4842
a((g2
g4
g86
g61
g6
g88
g10
g16
g65
g57
tp4843
(g680
g950
tp4844
(g86
g105
g8
g88
g16
tp4845
tp4846
a((g82
g2
g86
g61
g6
g105
g8
g88
g10
g63
g14
g16
tp4847
(g90
tp4848
(g4
g86
g61
g6
g88
g14
g16
tp4849
tp4850
a((g82
g2
g61
g88
g63
g12
g14
g57
tp4851
(g40
g90
g500
tp4852
(g2
g4
g8
g57
tp4853
tp4854
a((g82
g2
g4
g86
g105
g8
g10
g12
g14
g16
tp4855
(g458
g1721
tp4856
(g82
g2
g4
g61
g105
g88
g12
g16
tp4857
tp4858
a((g82
g2
g4
g86
g6
g88
g10
g12
g57
tp4859
(g680
g18
tp4860
(g86
g105
g10
g12
g57
tp4861
tp4862
a((g82
g2
g6
g105
g88
g14
g16
g65
g57
tp4863
(g555
g774
tp4864
(g82
g6
g12
g65
tp4865
tp4866
a((g2
g4
g61
g10
g14
g65
g57
tp4867
(g1286
g1257
g741
tp4868
(g82
g61
g8
g10
g16
g57
tp4869
tp4870
a((g82
g2
g86
g61
g6
g10
g63
g12
g16
g65
tp4871
(g500
tp4872
(g86
g8
g10
g12
g16
tp4873
tp4874
a((g2
g4
g6
g8
g10
g12
g16
tp4875
(g413
g394
tp4876
(g6
g8
g63
g12
g14
tp4877
tp4878
a((g82
g2
g61
g105
g8
g88
g10
g12
g16
g65
g57
tp4879
(g40
g536
tp4880
(g82
g2
g61
g6
g105
g14
g65
tp4881
tp4882
a((g82
g2
g4
g86
g61
g6
g105
g8
g88
g10
g63
g14
g16
g65
tp4883
(g137
g1092
tp4884
(g2
g61
g8
g63
g12
g14
g57
tp4885
tp4886
a((g82
g2
g4
g86
g61
g8
g88
g12
g14
g57
tp4887
(g250
g271
tp4888
(g4
g10
g12
g14
g65
g57
tp4889
tp4890
a((g2
g4
g61
g8
g88
g10
g63
g65
g57
tp4891
(g1257
g996
g517
tp4892
(g82
g4
g86
g61
g6
g65
tp4893
tp4894
a((g4
g8
g63
g12
g57
tp4895
(g107
g1470
g536
g1207
tp4896
(g4
g6
g105
g14
tp4897
tp4898
a((g2
g61
g6
g8
g88
g10
g16
g65
tp4899
(g793
g18
tp4900
(g82
g2
g61
g88
g10
g16
g65
g57
tp4901
tp4902
a((g4
g61
g105
g8
g10
g63
g12
g14
g16
g65
tp4903
(g67
tp4904
(g82
g61
g105
g10
g63
g14
tp4905
tp4906
a((g82
g2
g4
g86
g61
g6
g8
g88
g12
g14
g16
g65
tp4907
(g237
tp4908
(g4
g6
g88
g10
g16
tp4909
tp4910
a((g2
g4
g86
g61
g105
g8
g88
g10
g12
g14
g57
tp4911
(g40
tp4912
(g2
g4
g86
g61
g6
g105
g14
tp4913
tp4914
a((g82
g86
g61
g6
g88
g10
g12
g14
g16
g57
tp4915
(g362
tp4916
(g82
g2
g61
g6
g88
g10
tp4917
tp4918
a((g4
g86
g61
g105
g63
g14
g16
g57
tp4919
(g362
g517
g793
tp4920
(g82
g61
g105
g14
g16
tp4921
tp4922
a((g82
g2
g4
g6
g88
g63
g12
g16
g65
g57
tp4923
(g237
tp4924
(g82
g2
g6
g88
g10
g16
g57
tp4925
tp4926
a((g82
g2
g61
g6
g105
g8
g88
g63
tp4927
(g122
g271
tp4928
(g2
g86
g6
g105
g10
g63
tp4929
tp4930
a((g2
g4
g86
g61
g105
g8
g10
g63
g12
g65
g57
tp4931
(g67
g517
tp4932
(g82
g4
g86
g6
g8
g10
g12
tp4933
tp4934
a((g82
g2
g86
g61
g6
g88
g10
g63
g12
g16
g57
tp4935
(g812
tp4936
(g2
g61
g6
g105
g88
g10
g63
g12
g16
tp4937
tp4938
a((g82
g4
g105
g8
g88
g63
g12
g14
g65
g57
tp4939
(g107
g2046
g1926
tp4940
(g2
g6
g105
g8
g88
g16
g65
tp4941
tp4942
a((g82
g2
g4
g61
g8
g88
g65
g57
tp4943
(g1420
tp4944
(g2
g10
tp4945
tp4946
a((g82
g2
g4
g61
g8
g88
g10
g63
g65
tp4947
(g218
g137
g40
g165
tp4948
(g4
g86
g88
g63
g65
g57
tp4949
tp4950
a((g82
g4
g105
g8
g88
g10
g12
g14
g16
g65
tp4951
(g2411
g1123
tp4952
(g4
g105
g88
g14
g16
g57
tp4953
tp4954
a((g82
g2
g4
g86
g6
g105
g10
g63
g14
g65
g57
tp4955
(g661
tp4956
(g82
g2
g4
g61
g6
g105
g10
g14
g65
tp4957
tp4958
a((g82
g2
g61
g6
g105
g88
g10
g63
g12
g14
g16
tp4959
(g90
g1092
tp4960
(g4
g6
g10
g63
g12
g14
g16
g57
tp4961
tp4962
a((g4
g61
g105
g10
g63
g16
g65
tp4963
(g1092
g1036
g517
tp4964
(g4
g86
g6
g10
g63
g16
g65
tp4965
tp4966
a((g82
g4
g86
g105
g88
g12
g14
g57
tp4967
(g608
g150
tp4968
(g4
g105
g12
g16
g65
tp4969
tp4970
a((g82
g4
g86
g6
g105
g88
g10
g63
g12
g14
g57
tp4971
(g362
g377
tp4972
(g82
g2
g4
g63
g12
g14
g65
g57
tp4973
tp4974
a((g2
g86
g61
g6
g8
g10
g63
g12
g16
g65
g57
tp4975
(g793
g864
tp4976
(g82
g4
g86
g61
g6
g8
g10
g63
g16
g57
tp4977
tp4978
a((g82
g86
g61
g6
g105
g10
g63
g14
g65
tp4979
(g137
g1150
g199
tp4980
(g82
g2
g4
g86
g61
g12
g65
tp4981
tp4982
a((g2
g4
g6
g88
g10
g63
g16
g65
tp4983
(g432
g996
tp4984
(g4
g86
g63
g12
g65
tp4985
tp4986
a((g82
g2
g4
g86
g61
g6
g105
g8
g88
g10
g12
g65
g57
tp4987
(g394
g362
tp4988
(g82
g2
g4
g61
g6
g105
g88
g14
g57
tp4989
tp4990
a((g2
g86
g105
g10
g12
g16
g65
g57
tp4991
(g536
tp4992
(g86
g10
g14
g65
tp4993
tp4994
a((g82
g2
g8
g88
g10
g63
g57
tp4995
(g90
g394
g1752
tp4996
(g4
g8
g88
g10
g14
g16
tp4997
tp4998
a((g82
g2
g4
g86
g61
g105
g8
g10
g12
g14
g65
tp4999
(g40
tp5000
(g61
g6
g8
g65
tp5001
tp5002
a((g2
g6
g105
g8
g10
g14
g16
tp5003
(g774
g324
tp5004
(g86
g105
g12
g14
g16
tp5005
tp5006
a((g86
g61
g6
g105
g8
g88
g65
g57
tp5007
(g362
g90
tp5008
(g4
g6
g105
g88
g65
tp5009
tp5010
a((g86
g61
g105
g88
g10
g14
g16
tp5011
(g950
g627
tp5012
(g2
g86
g61
g105
g8
g88
g10
tp5013
tp5014
a((g82
g2
g4
g86
g105
g10
g63
g12
g14
tp5015
(g950
g150
tp5016
(g86
g8
g10
g65
tp5017
tp5018
a((g82
g4
g86
g8
g10
g57
tp5019
(g137
g661
(istructures.domain
Action
p5020
(dp5021
g20
(lp5022
(S'at_x0'
p5023
tp5024
a(S'at_y4'
p5025
tp5026
asg26
(lp5027
(S'at_y3'
p5028
tp5029
asg30
(tsg31
(lp5030
(S'at_y4'
p5031
tp5032
asg35
I0
sg36
(lp5033
sg38
S'move_0_4_0_3'
p5034
sbtp5035
(g4
g61
g6
g12
tp5036
tp5037
a((g2
g86
g105
g8
g88
g63
g57
tp5038
(g90
g150
g1049
tp5039
(g4
g86
g105
g8
g14
g65
tp5040
tp5041
a((g4
g61
g8
g88
g10
g65
tp5042
(g3859
g67
g443
tp5043
(g82
g61
g10
g65
tp5044
tp5045
a((g86
g10
g63
g12
g14
g57
tp5046
(g661
g284
tp5047
(g61
g10
g14
g16
g57
tp5048
tp5049
a((g82
g2
g4
g61
g105
g8
g88
g10
g63
g16
g65
g57
tp5050
(g1036
g137
g517
tp5051
(g82
g2
g86
g6
g105
g8
g88
g12
g16
tp5052
tp5053
a((g82
g2
g4
g86
g6
g88
g10
g12
g14
g16
tp5054
(g18
g741
tp5055
(g4
g8
g14
g16
g57
tp5056
tp5057
a((g82
g2
g61
g6
g105
g8
g88
g10
g12
g16
g65
tp5058
(g122
g18
tp5059
(g86
g105
g8
g88
g10
g12
g57
tp5060
tp5061
a((g82
g4
g86
g61
g6
g105
g8
g88
g10
g12
g14
g65
tp5062
(g1592
g1397
tp5063
(g2
g4
g61
g6
g8
g10
g14
g57
tp5064
tp5065
a((g82
g2
g86
g61
g6
g10
g14
g16
g57
tp5066
(g458
g1305
tp5067
(g2
g61
g88
g12
g16
tp5068
tp5069
a((g82
g2
g61
g8
g63
g12
g16
g65
tp5070
(g40
tp5071
(g82
g61
g6
tp5072
tp5073
a((g2
g4
g86
g6
g105
g88
g12
g65
g57
tp5074
(g237
g394
tp5075
(g86
g88
g10
g14
g65
tp5076
tp5077
a((g82
g4
g86
g6
g105
g8
g63
g12
tp5078
(g150
tp5079
(g6
g8
g63
g65
tp5080
tp5081
a((g2
g4
g86
g6
g8
g10
g63
g12
g65
tp5082
(g394
g165
tp5083
(g4
g10
g12
g14
g65
g57
tp5084
tp5085
a((g82
g2
g61
g6
g105
g8
g88
g10
g63
g12
g14
g65
tp5086
(g608
g394
tp5087
(g82
g6
g88
g10
g63
g14
g16
g65
tp5088
tp5089
a((g4
g86
g61
g6
g10
g14
g16
g57
tp5090
(g362
tp5091
(g2
g61
g6
g10
g14
tp5092
tp5093
a((g82
g4
g61
g6
g105
g8
g88
g10
g63
g65
g57
tp5094
(g1036
tp5095
(g82
g4
g86
g6
g105
g88
g10
g63
tp5096
tp5097
a((g82
g86
g61
g105
g8
g88
g63
g12
g14
g16
g65
g57
tp5098
(g271
g299
tp5099
(g82
g4
g86
g10
g12
g16
g65
g57
tp5100
tp5101
a((g4
g86
g6
g8
g63
g57
tp5102
(g362
g812
g1015
tp5103
(g2
g4
g6
g105
g65
tp5104
tp5105
a((g4
g86
g6
g105
g88
g10
g63
g12
g65
g57
tp5106
(g362
g284
tp5107
(g2
g105
g88
g16
tp5108
tp5109
a((g82
g4
g86
g61
g6
g105
g10
g63
g14
tp5110
(g137
g165
g950
tp5111
(g4
g86
g61
g8
g63
g12
g57
tp5112
tp5113
a((g82
g2
g4
g86
g6
g8
g88
g63
g12
g14
g65
tp5114
(g284
g18
tp5115
(g2
g4
g8
g12
g14
g16
g57
tp5116
tp5117
a((g2
g4
g6
g88
g10
g14
g65
g57
tp5118
(g608
g394
tp5119
(g6
g88
g10
g14
g16
g57
tp5120
tp5121
a((g82
g6
g8
g10
g63
g12
g14
g65
g57
tp5122
(g199
g996
g812
tp5123
(g86
g6
g105
g10
g63
g12
g65
tp5124
tp5125
a((g82
g2
g61
g105
g10
g12
g16
g65
g57
tp5126
(g1036
g536
tp5127
(g82
g86
g105
g14
g65
g57
tp5128
tp5129
a((g2
g4
g86
g61
g6
g105
g8
g10
g63
g16
g65
g57
tp5130
(g137
tp5131
(g4
g86
g61
g63
g12
g16
g65
tp5132
tp5133
a((g82
g4
g86
g61
g6
g8
g88
g16
g57
tp5134
(g362
tp5135
(g82
g2
g6
g8
g16
g57
tp5136
tp5137
a((g82
g61
g105
g8
g88
g12
g14
g65
tp5138
(g608
g2553
tp5139
(g82
g61
g6
g88
g16
g65
tp5140
tp5141
a((g2
g86
g61
g6
g105
g8
g88
g14
g16
tp5142
(g1305
g413
tp5143
(g86
g8
g63
g12
tp5144
tp5145
a((g2
g4
g86
g61
g105
g8
g88
g10
g12
g16
g57
tp5146
(g40
g150
tp5147
(g86
g61
g6
g105
g88
g10
g65
tp5148
tp5149
a((g82
g2
g4
g86
g6
g105
g88
g63
g14
g16
tp5150
(g1092
g1015
tp5151
(g82
g86
g6
g88
g65
g57
tp5152
tp5153
a((g82
g2
g4
g61
g6
g8
g10
g63
g12
g14
g16
g65
g57
tp5154
(g1036
tp5155
(g2
g4
g86
g8
g63
g12
g65
g57
tp5156
tp5157
a((g2
g4
g86
g6
g105
g8
g10
g63
g14
g57
tp5158
(g137
tp5159
(g4
g6
g8
g63
g12
tp5160
tp5161
a((g82
g2
g86
g61
g6
g8
g88
g63
g14
g65
g57
tp5162
(g608
tp5163
(g88
g16
g65
g57
tp5164
tp5165
a((g2
g86
g105
g88
g10
g12
g14
g16
g65
tp5166
(g90
g950
tp5167
(g2
g4
g86
g8
g88
g10
g14
g16
tp5168
tp5169
a((g82
g2
g4
g61
g6
g88
g10
g12
g14
g16
g65
g57
tp5170
(g680
tp5171
(g82
g2
g4
g105
g10
g12
tp5172
tp5173
a((g2
g4
g86
g61
g6
g88
g10
g63
g65
g57
tp5174
(g137
g793
g500
tp5175
(g82
g2
g86
g61
g8
g88
g63
g12
g57
tp5176
tp5177
a((g82
g2
g4
g86
g105
g8
g88
g10
g14
g16
g65
tp5178
(g1721
g996
tp5179
(g82
g86
g61
g105
g8
g88
g10
g14
tp5180
tp5181
a((g82
g2
g86
g61
g105
g8
g88
g12
g14
g16
tp5182
(g1092
g250
tp5183
(g82
g2
g86
g61
g8
g88
g12
g16
g65
g57
tp5184
tp5185
a((g2
g4
g61
g105
g88
g10
g63
g14
g16
g65
g57
tp5186
(g774
g40
tp5187
(g4
g6
g105
g88
g63
g14
g65
g57
tp5188
tp5189
a((g82
g61
g6
g105
g88
g10
g63
g14
tp5190
(g122
g137
tp5191
(g82
g86
g6
g88
g63
g12
tp5192
tp5193
a((g82
g2
g86
g61
g6
g105
g8
g88
g63
g16
tp5194
(g432
g150
tp5195
(g2
g105
g8
g88
g12
g65
tp5196
tp5197
a((g2
g4
g86
g61
g105
g8
g63
g12
g14
tp5198
(g237
g150
tp5199
(g4
g86
g61
g8
g10
g65
tp5200
tp5201
a((g4
g86
g61
g105
g10
g63
g12
g14
g65
g57
tp5202
(g362
g517
tp5203
(g2
g6
g105
g10
g63
g12
g14
tp5204
tp5205
a((g82
g61
g8
g88
g12
g14
g57
tp5206
(g199
g237
g90
tp5207
(g2
g4
g61
g8
g88
g10
tp5208
tp5209
a((g82
g2
g86
g61
g8
g88
g10
g63
g12
g16
g57
tp5210
(g377
tp5211
(g82
g2
g61
g8
g10
g63
g16
g65
tp5212
tp5213
a((g2
g4
g86
g10
g12
g14
g16
g65
tp5214
(g1257
g741
tp5215
(g82
g2
g4
g8
g12
g14
tp5216
tp5217
a((g2
g4
g61
g6
g8
g63
g12
tp5218
(g165
g40
tp5219
(g2
g4
g6
g8
g63
g57
tp5220
tp5221
a((g82
g2
g4
g86
g61
g6
g105
g10
g12
g16
g65
g57
tp5222
(g394
g362
tp5223
(g82
g2
g4
g61
g6
g105
g12
g14
g16
g65
g57
tp5224
tp5225
a((g82
g2
g4
g61
g105
g8
g88
g10
g63
g14
g16
g57
tp5226
(g250
tp5227
(g61
g8
g14
g65
tp5228
tp5229
a((g82
g2
g86
g61
g6
g105
g8
g88
g10
g16
g65
tp5230
(g137
g413
tp5231
(g86
g6
g8
g63
g12
g65
tp5232
tp5233
a((g61
g105
g8
g88
g10
g63
g12
g14
g65
tp5234
(g199
g1397
tp5235
(g2
g61
g8
g12
g57
tp5236
tp5237
a((g82
g4
g61
g6
g105
g8
g88
g63
g12
g14
g16
tp5238
(g199
g324
tp5239
(g86
g61
g105
g8
g88
g12
tp5240
tp5241
a((g2
g4
g86
g61
g6
g8
g12
g14
g65
tp5242
(g793
g18
tp5243
(g82
g2
g4
g61
g8
g12
g65
g57
tp5244
tp5245
a((g4
g86
g105
g8
g88
g10
g14
g16
g65
tp5246
(g137
g413
g1721
tp5247
(g4
g61
g105
g88
g63
g12
g14
tp5248
tp5249
a((g2
g86
g61
g6
g10
g63
g65
tp5250
(g458
g793
g500
tp5251
(g82
g86
g61
g8
g88
g63
g65
tp5252
tp5253
a((g82
g2
g4
g6
g8
g88
g10
g12
g14
g65
g57
tp5254
(g608
g996
tp5255
(g82
g4
g86
g10
g12
g16
g65
tp5256
tp5257
a((g82
g86
g61
g6
g63
g12
g14
g57
tp5258
(g1150
g443
tp5259
(g4
g86
g61
g6
g10
g63
g14
tp5260
tp5261
a((g4
g86
g8
g10
g63
g12
g14
g16
g65
tp5262
(g107
g627
g793
tp5263
(g82
g2
g86
g6
tp5264
tp5265
a((g2
g4
g86
g105
g8
g10
g16
g57
tp5266
(g458
g536
tp5267
(g86
g8
g88
g14
g57
tp5268
tp5269
a((g82
g2
g4
g86
g6
g105
g8
g88
g10
g63
g12
g16
g57
tp5270
(g150
tp5271
(g82
g2
g86
g6
g88
g63
g12
g65
g57
tp5272
tp5273
a((g82
g2
g4
g86
g88
g10
g63
g12
g16
g65
g57
tp5274
(g741
tp5275
(g82
g2
g86
g8
g88
g10
g63
g16
g57
tp5276
tp5277
a((g82
g6
g88
g10
g63
g14
g65
tp5278
(g432
g1150
g107
tp5279
(g82
g4
g6
g10
g63
g14
g65
tp5280
tp5281
a((g82
g2
g86
g6
g88
g63
g14
g16
g65
tp5282
(g432
g90
tp5283
(g82
g4
g86
g12
g14
g16
g65
tp5284
tp5285
a((g2
g4
g86
g61
g6
g105
g8
g10
g12
g14
g16
g65
g57
tp5286
(g458
g793
tp5287
(g82
g6
g105
g88
g12
g65
g57
tp5288
tp5289
a((g82
g2
g8
g10
g63
g12
g14
g16
g65
tp5290
(g996
g199
tp5291
(g2
g86
g8
g10
g63
g12
tp5292
tp5293
a((g82
g4
g86
g6
g105
g88
g63
g12
g14
g16
g57
tp5294
(g362
g377
tp5295
(g2
g6
g63
g12
g65
g57
tp5296
tp5297
a((g2
g4
g6
g105
g8
g10
g63
tp5298
(g432
g1257
(istructures.domain
Action
p5299
(dp5300
g20
(lp5301
(S'at_x2'
p5302
tp5303
a(S'at_y5'
p5304
tp5305
asg26
(lp5306
(S'at_y4'
p5307
tp5308
asg30
(tsg31
(lp5309
(S'at_y5'
p5310
tp5311
asg35
I0
sg36
(lp5312
sg38
S'move_2_5_2_4'
p5313
sbtp5314
(g82
g2
g4
g8
g10
g63
g12
g57
tp5315
tp5316
a((g2
g4
g86
g6
g8
g88
g14
g16
g57
tp5317
(g1611
g1015
tp5318
(g4
g86
g8
g88
g63
g14
g65
g57
tp5319
tp5320
a((g2
g86
g61
g6
g105
g10
g63
g12
g16
g57
tp5321
(g793
tp5322
(g82
g2
g86
g61
g10
g63
g16
tp5323
tp5324
a((g2
g86
g8
g88
g10
g63
g14
g57
tp5325
(g1752
tp5326
(g86
g88
g10
g14
g16
tp5327
tp5328
a((g82
g2
g86
g61
g6
g105
g8
g88
g63
g16
g57
tp5329
(g271
tp5330
(g2
g61
g6
g105
g10
g63
g16
g57
tp5331
tp5332
a((g82
g2
g86
g61
g105
g10
g12
g14
g16
g65
g57
tp5333
(g413
g864
tp5334
(g4
g86
g105
g63
g12
g14
tp5335
tp5336
a((g2
g4
g61
g6
g8
g88
g12
g16
g65
tp5337
(g237
g1977
g1305
tp5338
(g4
g61
g8
g88
g10
g12
g14
tp5339
tp5340
a((g2
g4
g86
g61
g105
g8
g88
g10
g63
g14
tp5341
(g137
tp5342
(g2
g4
g86
g61
g12
tp5343
tp5344
a((g61
g8
g88
g10
g63
g12
g14
g57
tp5345
(g1150
g107
tp5346
(g4
g61
g6
g8
g14
g57
tp5347
tp5348
a((g82
g2
g86
g105
g88
g10
g14
g16
g65
tp5349
(g90
tp5350
(g82
g4
g10
g14
g16
g65
tp5351
tp5352
a((g61
g105
g12
g14
g16
g65
tp5353
(g477
g1092
g741
tp5354
(g8
g10
g14
g16
g57
tp5355
tp5356
a((g82
g2
g86
g61
g6
g105
g10
g63
g12
g16
g65
g57
tp5357
(g950
tp5358
(g2
g6
g8
g10
g63
g57
tp5359
tp5360
a((g82
g2
g61
g6
g105
g12
g14
g16
g65
g57
tp5361
(g299
g500
tp5362
(g2
g4
g61
g6
g8
g12
g65
g57
tp5363
tp5364
a((g82
g61
g105
g8
g10
g63
g12
g14
g57
tp5365
(g517
tp5366
(g61
g6
g105
g10
g12
tp5367
tp5368
a((g82
g4
g61
g105
g10
g63
g12
g14
g16
tp5369
(g2743
g950
tp5370
(g4
g86
g8
g10
g63
g12
g16
tp5371
tp5372
a((g82
g4
g61
g6
g88
g10
g63
g12
g16
g65
tp5373
(g122
g165
tp5374
(g4
g86
g12
g16
g57
tp5375
tp5376
a((g82
g4
g86
g6
g105
g63
g14
g16
g65
g57
tp5377
(g432
g661
g199
tp5378
(g2
g61
g105
g12
g65
g57
tp5379
tp5380
a((g2
g4
g86
g61
g6
g105
g88
g10
g63
g14
g16
tp5381
(g793
g150
tp5382
(g82
g2
g4
g6
g88
g14
g16
g65
tp5383
tp5384
a((g82
g2
g86
g105
g88
g10
g63
g16
g65
tp5385
(g137
g90
g1175
tp5386
(g82
g4
g105
g63
g12
g14
tp5387
tp5388
a((g82
g2
g105
g8
g88
g10
g16
g65
tp5389
(g90
g774
g1175
tp5390
(g82
g4
g12
g14
g65
tp5391
tp5392
a((g4
g86
g61
g6
g8
g10
g63
g12
g16
tp5393
(g1592
g377
tp5394
(g2
g61
g8
g16
g65
tp5395
tp5396
a((g2
g4
g86
g61
g105
g8
g88
g10
g16
g57
tp5397
(g137
g536
tp5398
(g4
g8
g88
g12
g14
tp5399
tp5400
a((g4
g10
g63
g12
g14
g57
tp5401
(g199
g722
tp5402
(g2
g4
g88
g12
tp5403
tp5404
a((g2
g86
g61
g8
g88
g12
g16
g57
tp5405
(g40
g250
tp5406
(g86
g6
g16
g65
tp5407
tp5408
a((g2
g86
g6
g105
g8
g88
g63
g12
g14
g16
g65
g57
tp5409
(g793
tp5410
(g82
g86
g105
g88
g63
g12
g14
g65
g57
tp5411
tp5412
a((g2
g61
g105
g8
g88
g63
g14
g16
g65
tp5413
(g90
g555
g774
tp5414
(g4
g61
g105
g12
tp5415
tp5416
a((g2
g4
g86
g6
g105
g88
g10
g16
g65
tp5417
(g1092
tp5418
(g4
g86
g88
g16
g65
g57
tp5419
tp5420
a((g86
g61
g8
g10
g12
g14
g16
g65
tp5421
(g458
g199
g90
tp5422
(g2
g4
g86
g61
g8
g88
g12
g16
g65
tp5423
tp5424
a((g82
g105
g8
g88
g10
g63
g14
g16
g57
tp5425
(g517
g4139
tp5426
(g82
g6
g8
g88
g14
g16
g65
tp5427
tp5428
a((g82
g4
g61
g6
g105
g10
g12
g65
g57
tp5429
(g1036
g950
tp5430
(g86
g105
g8
g57
tp5431
tp5432
a((g2
g4
g61
g105
g10
g63
g12
g65
tp5433
(g284
g2743
tp5434
(g2
g4
g86
g105
g12
g16
g65
tp5435
tp5436
a((g82
g2
g4
g61
g105
g8
g63
g12
tp5437
(g237
g996
g458
tp5438
(g86
g105
g88
g63
tp5439
tp5440
a((g82
g2
g86
g61
g6
g105
g88
g10
g14
g16
g65
g57
tp5441
(g1305
g589
tp5442
(g2
g6
g88
g10
g12
g16
tp5443
tp5444
a((g82
g2
g61
g6
g8
g88
g63
g12
g14
tp5445
(g165
g812
tp5446
(g105
g12
tp5447
tp5448
a((g2
g4
g86
g6
g88
g65
g57
tp5449
(g661
g500
tp5450
(g4
g61
g6
g8
tp5451
tp5452
a((g82
g2
g86
g61
g6
g105
g88
g10
g12
g14
g65
g57
tp5453
(g608
g413
tp5454
(g82
g88
g63
g12
g57
tp5455
tp5456
a((g4
g61
g6
g105
g88
g10
g63
g14
g16
g65
tp5457
(g432
g218
g950
tp5458
(g86
g8
g10
g12
g14
g16
g65
tp5459
tp5460
a((g82
g2
g4
g61
g6
g88
g10
g12
g16
g65
g57
tp5461
(g1036
g500
tp5462
(g4
g86
g6
g8
g10
g12
g65
g57
tp5463
tp5464
a((g2
g4
g86
g61
g105
g88
g10
g63
g65
g57
tp5465
(g950
tp5466
(g2
g4
g61
g105
g8
g10
g63
g57
tp5467
tp5468
a((g82
g2
g4
g61
g6
g8
g12
g14
g16
g57
tp5469
(g237
g1015
tp5470
(g82
g61
g6
g8
g10
g14
g16
g65
tp5471
tp5472
a((g82
g2
g86
g61
g6
g105
g8
g88
g10
g63
g57
tp5473
(g150
tp5474
(g2
g61
g6
g10
g63
g65
g57
tp5475
tp5476
a((g82
g2
g86
g61
g105
g63
g14
g16
g65
tp5477
(g1092
g831
tp5478
(g82
g2
g86
g61
g8
g63
g16
g65
g57
tp5479
tp5480
a((g2
g4
g86
g61
g105
g63
g14
g16
g65
g57
tp5481
(g517
g1092
tp5482
(g2
g4
g86
g6
g16
g57
tp5483
tp5484
a((g82
g2
g86
g61
g105
g88
g63
g12
g14
g65
g57
tp5485
(g90
g950
tp5486
(g82
g2
g4
g86
g61
g105
g8
g88
tp5487
tp5488
a((g2
g86
g61
g6
g10
g63
g14
g16
g65
tp5489
(g458
g90
tp5490
(g2
g4
g88
g16
g65
tp5491
tp5492
a((g2
g105
g63
g12
g57
tp5493
(g284
g831
tp5494
(g105
g8
g12
g57
tp5495
tp5496
a((g82
g2
g4
g86
g8
g63
g12
g57
tp5497
(g237
g458
g517
tp5498
(g4
g6
g8
g88
tp5499
tp5500
a((g82
g4
g8
g10
g12
g14
g16
g65
g57
tp5501
(g199
g1362
tp5502
(g82
g2
g8
g88
g12
g16
g65
tp5503
tp5504
a((g4
g86
g61
g6
g105
g88
g10
g63
g12
g16
g57
tp5505
(g950
tp5506
(g6
g8
g88
g10
tp5507
tp5508
a((g82
g2
g4
g61
g88
g10
g14
g16
g65
g57
tp5509
(g774
g40
g680
tp5510
(g82
g2
g6
g105
g88
g14
g16
tp5511
tp5512
a((g61
g6
g14
g16
g65
tp5513
(g2969
g793
g500
tp5514
(g82
g6
g8
g16
tp5515
tp5516
a((g82
g4
g86
g61
g6
g105
g8
g88
g10
g63
g14
g16
tp5517
(g137
g150
tp5518
(g86
g61
g6
g63
g12
g65
tp5519
tp5520
a((g2
g86
g61
g6
g105
g88
g10
g63
g12
g65
g57
tp5521
(g793
g950
tp5522
(g82
g86
g61
g6
g105
g8
g10
g12
g65
g57
tp5523
tp5524
a((g2
g4
g105
g88
g10
g12
g14
g65
g57
tp5525
(g40
g793
g996
tp5526
(g82
g4
g86
g6
g105
g10
g65
tp5527
tp5528
a((g2
g105
g8
g10
g14
g65
g57
tp5529
(g1286
g1611
tp5530
(g63
g65
tp5531
tp5532
a((g82
g4
g61
g6
g105
g14
g16
tp5533
(g4139
tp5534
(g4
g61
g105
g65
tp5535
tp5536
a((g4
g86
g61
g6
g10
g63
g12
g16
g57
tp5537
(g67
tp5538
(g82
g61
g6
g10
g63
g12
tp5539
tp5540
a((g86
g105
g8
g10
g63
g12
g14
g16
tp5541
(g3941
g1257
tp5542
(g82
g2
g105
g8
g63
g14
tp5543
tp5544
a((g4
g6
g8
g88
g10
g63
g12
tp5545
(g165
g107
g3259
g1470
tp5546
(g6
g8
g88
g16
g65
g57
tp5547
tp5548
a((g86
g61
g8
g10
g63
g12
g14
g16
g65
g57
tp5549
(g1150
tp5550
(g4
g86
g61
g8
g63
g16
g65
g57
tp5551
tp5552
a((g2
g4
g61
g88
g63
g14
g57
tp5553
(g555
g517
g1015
tp5554
(g2
g4
g6
g10
g63
g65
tp5555
tp5556
a((g82
g2
g4
g86
g61
g6
g88
g63
g12
g16
g65
tp5557
(g271
g1977
tp5558
(g2
g4
g61
g6
g10
g63
g14
tp5559
tp5560
a((g82
g2
g4
g6
g105
g8
g88
g10
g63
g12
g14
g16
g57
tp5561
(g377
tp5562
(g2
g4
g88
g10
g63
g12
g14
g65
tp5563
tp5564
a((g82
g8
g10
g12
g14
g16
g65
tp5565
(g2411
g774
g1150
tp5566
(g82
g4
g6
g12
tp5567
tp5568
a((g82
g2
g4
g86
g105
g8
g10
g63
g14
g16
tp5569
(g137
g40
g165
tp5570
(g2
g105
g63
g16
g57
tp5571
tp5572
a((g2
g4
g61
g105
g88
tp5573
(g1420
g1257
g1443
tp5574
(g82
g2
g61
g105
g88
tp5575
tp5576
a((g2
g6
g88
g12
g16
tp5577
(g90
g793
g2085
tp5578
(g82
g4
g6
g88
g14
g16
tp5579
tp5580
a((g82
g2
g4
g86
g6
g105
g88
g14
g16
g65
g57
tp5581
(g661
g1305
tp5582
(g82
g61
g12
g14
g16
g65
g57
tp5583
tp5584
a((g82
g61
g88
g10
g63
g12
g65
g57
tp5585
(g284
g741
g536
tp5586
(g8
g88
g10
g12
g14
tp5587
tp5588
a((g2
g86
g10
g63
g12
g14
g16
g65
tp5589
(g40
g165
tp5590
(g63
g65
g57
tp5591
tp5592
a((g4
g6
g10
g14
g16
tp5593
(g570
g741
g413
tp5594
(g8
g10
g63
g12
g14
tp5595
tp5596
a((g2
g4
g86
g61
g6
g105
g88
g63
g12
g14
g16
tp5597
(g793
g950
tp5598
(g82
g2
g4
g61
g8
g14
tp5599
tp5600
a((g4
g61
g105
g8
g10
g12
g14
g57
tp5601
(g1036
(istructures.domain
Action
p5602
(dp5603
g20
(lp5604
(S'at_x1'
p5605
tp5606
a(S'at_y2'
p5607
tp5608
asg26
(lp5609
(S'at_y3'
p5610
tp5611
asg30
(tsg31
(lp5612
(S'at_y2'
p5613
tp5614
asg35
I0
sg36
(lp5615
sg38
S'move_1_2_1_3'
p5616
sbtp5617
(g86
g6
g14
tp5618
tp5619
a((g82
g86
g6
g105
g10
g63
g12
g14
g16
g65
g57
tp5620
(g458
g950
tp5621
(g6
g8
g88
g12
g16
tp5622
tp5623
a((g2
g4
g105
g8
g88
g63
g12
g14
tp5624
(g237
g1257
tp5625
(g82
g4
g105
g88
g10
g14
tp5626
tp5627
a((g2
g105
g8
g88
g63
g12
g14
g65
g57
tp5628
(g237
g2046
g1257
tp5629
(g82
g2
g105
g8
g10
g14
g16
g65
g57
tp5630
tp5631
a((g82
g2
g61
g105
g8
g10
g63
g14
g65
g57
tp5632
(g864
g517
tp5633
(g2
g4
g61
g6
g105
g10
g63
tp5634
tp5635
a((g82
g2
g4
g86
g61
g6
g105
g88
g10
g63
g12
g14
g16
tp5636
(g950
tp5637
(g2
g86
g8
g14
tp5638
tp5639
a((g82
g4
g86
g105
g88
g12
g14
g16
g57
tp5640
(g477
tp5641
(g105
g88
g10
g14
g16
g57
tp5642
tp5643
a((g86
g61
g6
g105
g8
g88
g10
g14
g57
tp5644
(g137
g608
g150
tp5645
(g61
g88
g12
g16
g65
tp5646
tp5647
a((g82
g86
g6
g8
g88
g10
g63
g14
g16
g65
tp5648
(g137
tp5649
(g86
g8
g63
g12
g65
tp5650
tp5651
a((g82
g4
g6
g105
g8
g88
g10
g12
g16
g57
tp5652
(g413
g377
tp5653
(g6
g105
g63
g65
tp5654
tp5655
a((g2
g4
g86
g61
g6
g8
g88
g10
g12
g14
g16
g65
tp5656
(g413
tp5657
(g2
g61
g6
g8
g88
g10
g63
g14
tp5658
tp5659
a((g2
g86
g61
g105
g8
g10
g63
g14
g16
g57
tp5660
(g150
tp5661
(g2
g86
g61
g8
g14
g16
g65
tp5662
tp5663
a((g86
g61
g6
g105
g8
g10
g12
g14
tp5664
(g67
g150
tp5665
(g82
g86
g61
g105
g12
g14
g65
tp5666
tp5667
a((g82
g4
g86
g61
g6
g105
g8
g63
g14
g57
tp5668
(g432
g1335
g150
tp5669
(g4
g8
g63
g12
g16
g65
tp5670
tp5671
a((g2
g61
g105
g88
g63
g12
g14
g16
g65
g57
tp5672
(g67
g1036
tp5673
(g82
g2
g86
g105
g88
g12
g14
g57
tp5674
tp5675
a((g82
g61
g88
g12
g16
tp5676
(g477
g741
g4212
tp5677
(g82
g8
g88
g63
tp5678
tp5679
a((g82
g4
g86
g61
g8
g88
g63
g12
g14
g16
g65
tp5680
(g271
g107
g165
tp5681
(g82
g61
g10
g63
g16
g57
tp5682
tp5683
a((g82
g2
g4
g6
g105
g8
g88
g10
g63
g12
g16
g57
tp5684
(g996
g150
tp5685
(g82
g86
g6
g8
g10
g16
g65
g57
tp5686
tp5687
a((g82
g2
g4
g86
g61
g6
g105
g8
g88
g63
g16
tp5688
(g432
g1175
tp5689
(g2
g86
g105
g8
g88
g12
g14
tp5690
tp5691
a((g2
g4
g86
g61
g6
g105
g8
g88
g12
g14
g16
g57
tp5692
(g150
tp5693
(g2
g4
g6
g105
g88
g65
tp5694
tp5695
a((g2
g4
g6
g105
g8
g10
g63
g16
g65
g57
tp5696
(g432
tp5697
(g105
g12
g16
g65
tp5698
tp5699
a((g82
g2
g4
g86
g105
g8
g88
g10
g63
g12
g14
g57
tp5700
(g661
g377
tp5701
(g2
g4
g61
g105
g10
g12
g14
g65
g57
tp5702
tp5703
a((g2
g6
g88
g10
g14
g65
g57
tp5704
(g793
g500
tp5705
(g82
g2
g6
g8
g57
tp5706
tp5707
a((g82
g2
g4
g86
g61
g6
g12
g16
g57
tp5708
(g1015
tp5709
(g4
g86
g61
g6
g65
tp5710
tp5711
a((g2
g4
g86
g61
g6
g88
g10
g63
g12
g14
g16
g65
g57
tp5712
(g793
g500
tp5713
(g82
g2
g6
g8
g88
g12
g57
tp5714
tp5715
a((g82
g2
g86
g105
g8
g88
g10
g16
g65
tp5716
(g394
g4212
tp5717
(g82
g86
g88
g10
g63
g14
tp5718
tp5719
a.