(lp0
(istructures.sensor
Sensor
p1
(dp2
S'rhs'
p3
(istructures.sensor
Sensor
p4
(dp5
g3
NsS'lhs'
p6
(S'ready-to-load-goods1-market1-level0'
p7
tp8
sS'op'
p9
Nsbsg6
(istructures.sensor
Sensor
p10
(dp11
g3
Nsg6
(S'on-sale-goods1-market1-level1'
p12
tp13
sg9
Nsbsg9
S'^'
p14
sba(istructures.sensor
Sensor
p15
(dp16
g3
Nsg6
(istructures.sensor
Sensor
p17
(dp18
g3
(istructures.sensor
Sensor
p19
(dp20
g3
Nsg6
(istructures.sensor
Sensor
p21
(dp22
g3
Nsg6
g12
sg9
Nsbsg9
S'-'
p23
sbsg6
(istructures.sensor
Sensor
p24
(dp25
g3
Nsg6
(S'stored-goods1-level0'
p26
tp27
sg9
Nsbsg9
g14
sbsg9
g23
sba(istructures.sensor
Sensor
p28
(dp29
g3
Nsg6
(istructures.sensor
Sensor
p30
(dp31
g3
(istructures.sensor
Sensor
p32
(dp33
g3
(istructures.sensor
Sensor
p34
(dp35
g3
Nsg6
g12
sg9
Nsbsg6
(istructures.sensor
Sensor
p36
(dp37
g3
Nsg6
S'on-sale-goods1-market1-level0'
p38
sg9
Nsbsg9
g14
sbsg6
(istructures.sensor
Sensor
p39
(dp40
g3
Nsg6
(S'stored-goods1-level1'
p41
tp42
sg9
Nsbsg9
g14
sbsg9
g23
sba(istructures.sensor
Sensor
p43
(dp44
g3
(istructures.sensor
Sensor
p45
(dp46
g3
Nsg6
(S'loaded-goods1-truck1-level1'
p47
tp48
sg9
Nsbsg6
(istructures.sensor
Sensor
p49
(dp50
g3
(istructures.sensor
Sensor
p51
(dp52
g3
(istructures.sensor
Sensor
p53
(dp54
g3
Nsg6
S'loaded-goods1-truck1-level0'
p55
sg9
Nsbsg6
(istructures.sensor
Sensor
p56
(dp57
g3
Nsg6
g12
sg9
Nsbsg9
I2
sbsg6
(istructures.sensor
Sensor
p58
(dp59
g3
Nsg6
(istructures.sensor
Sensor
p60
(dp61
g3
Nsg6
g55
sg9
Nsbsg9
g23
sbsg9
g14
sbsg9
I10
sba(istructures.sensor
Sensor
p62
(dp63
g3
Nsg6
(istructures.sensor
Sensor
p64
(dp65
g3
(istructures.sensor
Sensor
p66
(dp67
g3
(istructures.sensor
Sensor
p68
(dp69
g3
Nsg6
g38
sg9
Nsbsg6
(istructures.sensor
Sensor
p70
(dp71
g3
Nsg6
S'at-truck1-market1'
p72
sg9
Nsbsg9
g14
sbsg6
(istructures.sensor
Sensor
p73
(dp74
g3
Nsg6
(g26
tp75
sg9
Nsbsg9
g14
sbsg9
g23
sba(istructures.sensor
Sensor
p76
(dp77
g3
(istructures.sensor
Sensor
p78
(dp79
g3
(istructures.sensor
Sensor
p80
(dp81
g3
(istructures.sensor
Sensor
p82
(dp83
g3
Nsg6
S'at-truck1-depot1'
p84
sg9
Nsbsg6
(istructures.sensor
Sensor
p85
(dp86
g3
Nsg6
g38
sg9
Nsbsg9
S'v'
p87
sbsg6
(istructures.sensor
Sensor
p88
(dp89
g3
Nsg6
(istructures.sensor
Sensor
p90
(dp91
g3
Nsg6
g84
sg9
Nsbsg9
g23
sbsg9
I9
sbsg6
(istructures.sensor
Sensor
p92
(dp93
g3
Nsg6
(g84
tp94
sg9
Nsbsg9
g87
sba(istructures.sensor
Sensor
p95
(dp96
g3
Nsg6
(g41
tp97
sg9
Nsba(istructures.sensor
Sensor
p98
(dp99
g3
Nsg6
(g84
tp100
sg9
Nsba(istructures.sensor
Sensor
p101
(dp102
g3
Nsg6
(istructures.sensor
Sensor
p103
(dp104
g3
Nsg6
(g7
tp105
sg9
Nsbsg9
g23
sba(istructures.sensor
Sensor
p106
(dp107
g3
(istructures.sensor
Sensor
p108
(dp109
g3
(istructures.sensor
Sensor
p110
(dp111
g3
Nsg6
(istructures.sensor
Sensor
p112
(dp113
g3
Nsg6
g41
sg9
Nsbsg9
g23
sbsg6
(istructures.sensor
Sensor
p114
(dp115
g3
(istructures.sensor
Sensor
p116
(dp117
g3
Nsg6
g72
sg9
Nsbsg6
(istructures.sensor
Sensor
p118
(dp119
g3
Nsg6
g12
sg9
Nsbsg9
g87
sbsg9
g87
sbsg6
(istructures.sensor
Sensor
p120
(dp121
g3
(istructures.sensor
Sensor
p122
(dp123
g3
Nsg6
(g26
tp124
sg9
Nsbsg6
(istructures.sensor
Sensor
p125
(dp126
g3
Nsg6
(g7
tp127
sg9
Nsbsg9
g87
sbsg9
I7
sba(istructures.sensor
Sensor
p128
(dp129
g3
(istructures.sensor
Sensor
p130
(dp131
g3
Nsg6
(g12
tp132
sg9
Nsbsg6
(istructures.sensor
Sensor
p133
(dp134
g3
Nsg6
(istructures.sensor
Sensor
p135
(dp136
g3
(istructures.sensor
Sensor
p137
(dp138
g3
Nsg6
g47
sg9
Nsbsg6
(istructures.sensor
Sensor
p139
(dp140
g3
Nsg6
S'ready-to-load-goods1-market1-level1'
p141
sg9
Nsbsg9
I3
sbsg9
g23
sbsg9
I1
sba(istructures.sensor
Sensor
p142
(dp143
g3
Nsg6
(g12
tp144
sg9
Nsba(istructures.sensor
Sensor
p145
(dp146
g3
(istructures.sensor
Sensor
p147
(dp148
g3
(istructures.sensor
Sensor
p149
(dp150
g3
(istructures.sensor
Sensor
p151
(dp152
g3
Nsg6
g26
sg9
Nsbsg6
(istructures.sensor
Sensor
p153
(dp154
g3
Nsg6
g47
sg9
Nsbsg9
g14
sbsg6
(istructures.sensor
Sensor
p155
(dp156
g3
Nsg6
(g141
tp157
sg9
Nsbsg9
I6
sbsg6
(istructures.sensor
Sensor
p158
(dp159
g3
(istructures.sensor
Sensor
p160
(dp161
g3
Nsg6
(g26
tp162
sg9
Nsbsg6
(istructures.sensor
Sensor
p163
(dp164
g3
(istructures.sensor
Sensor
p165
(dp166
g3
Nsg6
g84
sg9
Nsbsg6
(istructures.sensor
Sensor
p167
(dp168
g3
Nsg6
g26
sg9
Nsbsg9
g14
sbsg9
g87
sbsg9
g14
sba(istructures.sensor
Sensor
p169
(dp170
g3
(istructures.sensor
Sensor
p171
(dp172
g3
Nsg6
(istructures.sensor
Sensor
p173
(dp174
g3
(istructures.sensor
Sensor
p175
(dp176
g3
Nsg6
g12
sg9
Nsbsg6
(istructures.sensor
Sensor
p177
(dp178
g3
Nsg6
g12
sg9
Nsbsg9
I4
sbsg9
g23
sbsg6
(istructures.sensor
Sensor
p179
(dp180
g3
Nsg6
(istructures.sensor
Sensor
p181
(dp182
g3
(istructures.sensor
Sensor
p183
(dp184
g3
Nsg6
g72
sg9
Nsbsg6
(istructures.sensor
Sensor
p185
(dp186
g3
Nsg6
g84
sg9
Nsbsg9
g14
sbsg9
g23
sbsg9
g14
sba(istructures.sensor
Sensor
p187
(dp188
g3
(istructures.sensor
Sensor
p189
(dp190
g3
(istructures.sensor
Sensor
p191
(dp192
g3
(istructures.sensor
Sensor
p193
(dp194
g3
Nsg6
g26
sg9
Nsbsg6
(istructures.sensor
Sensor
p195
(dp196
g3
Nsg6
g38
sg9
Nsbsg9
g14
sbsg6
(istructures.sensor
Sensor
p197
(dp198
g3
Nsg6
(g141
tp199
sg9
Nsbsg9
I2
sbsg6
(istructures.sensor
Sensor
p200
(dp201
g3
Nsg6
(istructures.sensor
Sensor
p202
(dp203
g3
(istructures.sensor
Sensor
p204
(dp205
g3
Nsg6
g84
sg9
Nsbsg6
(istructures.sensor
Sensor
p206
(dp207
g3
Nsg6
g55
sg9
Nsbsg9
I9
sbsg9
g23
sbsg9
g87
sba.