(lp0
(istructures.sensor
Sensor
p1
(dp2
S'rhs'
p3
(istructures.sensor
Sensor
p4
(dp5
g3
(istructures.sensor
Sensor
p6
(dp7
g3
NsS'lhs'
p8
(istructures.sensor
Sensor
p9
(dp10
g3
Nsg8
S'at_x0'
p11
sS'op'
p12
Nsbsg12
S'-'
p13
sbsg8
(istructures.sensor
Sensor
p14
(dp15
g3
(istructures.sensor
Sensor
p16
(dp17
g3
Nsg8
S'at_y0'
p18
sg12
Nsbsg8
(istructures.sensor
Sensor
p19
(dp20
g3
Nsg8
S'holding_treasure_1'
p21
sg12
Nsbsg12
S'^'
p22
sbsg12
S'v'
p23
sbsg8
(istructures.sensor
Sensor
p24
(dp25
g3
(istructures.sensor
Sensor
p26
(dp27
g3
Nsg8
(istructures.sensor
Sensor
p28
(dp29
g3
Nsg8
S'at_y1'
p30
sg12
Nsbsg12
g13
sbsg8
(istructures.sensor
Sensor
p31
(dp32
g3
Nsg8
(istructures.sensor
Sensor
p33
(dp34
g3
Nsg8
g21
sg12
Nsbsg12
g13
sbsg12
I2
sbsg12
g22
sba(istructures.sensor
Sensor
p35
(dp36
g3
Nsg8
(g11
tp37
sg12
Nsba(istructures.sensor
Sensor
p38
(dp39
g3
(istructures.sensor
Sensor
p40
(dp41
g3
Nsg8
(istructures.sensor
Sensor
p42
(dp43
g3
Nsg8
(g30
tp44
sg12
Nsbsg12
g13
sbsg8
(istructures.sensor
Sensor
p45
(dp46
g3
(istructures.sensor
Sensor
p47
(dp48
g3
Nsg8
(g18
tp49
sg12
Nsbsg8
(istructures.sensor
Sensor
p50
(dp51
g3
(istructures.sensor
Sensor
p52
(dp53
g3
Nsg8
g18
sg12
Nsbsg8
(istructures.sensor
Sensor
p54
(dp55
g3
Nsg8
S'holding_treasure_3'
p56
sg12
Nsbsg12
I10
sbsg12
g22
sbsg12
g22
sba(istructures.sensor
Sensor
p57
(dp58
g3
(istructures.sensor
Sensor
p59
(dp60
g3
(istructures.sensor
Sensor
p61
(dp62
g3
(istructures.sensor
Sensor
p63
(dp64
g3
Nsg8
g30
sg12
Nsbsg8
(istructures.sensor
Sensor
p65
(dp66
g3
Nsg8
g21
sg12
Nsbsg12
g22
sbsg8
(istructures.sensor
Sensor
p67
(dp68
g3
(istructures.sensor
Sensor
p69
(dp70
g3
Nsg8
g11
sg12
Nsbsg8
(istructures.sensor
Sensor
p71
(dp72
g3
Nsg8
g21
sg12
Nsbsg12
g23
sbsg12
g23
sbsg8
(istructures.sensor
Sensor
p73
(dp74
g3
(istructures.sensor
Sensor
p75
(dp76
g3
(istructures.sensor
Sensor
p77
(dp78
g3
Nsg8
S'at_x1'
p79
sg12
Nsbsg8
(istructures.sensor
Sensor
p80
(dp81
g3
Nsg8
g18
sg12
Nsbsg12
g23
sbsg8
(istructures.sensor
Sensor
p82
(dp83
g3
(istructures.sensor
Sensor
p84
(dp85
g3
Nsg8
g30
sg12
Nsbsg8
(istructures.sensor
Sensor
p86
(dp87
g3
Nsg8
g30
sg12
Nsbsg12
g22
sbsg12
I3
sbsg12
g22
sba(istructures.sensor
Sensor
p88
(dp89
g3
(istructures.sensor
Sensor
p90
(dp91
g3
(istructures.sensor
Sensor
p92
(dp93
g3
(istructures.sensor
Sensor
p94
(dp95
g3
Nsg8
g30
sg12
Nsbsg8
(istructures.sensor
Sensor
p96
(dp97
g3
Nsg8
g21
sg12
Nsbsg12
g22
sbsg8
(istructures.sensor
Sensor
p98
(dp99
g3
(istructures.sensor
Sensor
p100
(dp101
g3
Nsg8
g11
sg12
Nsbsg8
(istructures.sensor
Sensor
p102
(dp103
g3
Nsg8
g30
sg12
Nsbsg12
g23
sbsg12
g23
sbsg8
(istructures.sensor
Sensor
p104
(dp105
g3
(istructures.sensor
Sensor
p106
(dp107
g3
(istructures.sensor
Sensor
p108
(dp109
g3
Nsg8
g79
sg12
Nsbsg8
(istructures.sensor
Sensor
p110
(dp111
g3
Nsg8
g30
sg12
Nsbsg12
g22
sbsg8
(istructures.sensor
Sensor
p112
(dp113
g3
Nsg8
(istructures.sensor
Sensor
p114
(dp115
g3
Nsg8
g11
sg12
Nsbsg12
g13
sbsg12
g23
sbsg12
g22
sba(istructures.sensor
Sensor
p116
(dp117
g3
Nsg8
(istructures.sensor
Sensor
p118
(dp119
g3
(istructures.sensor
Sensor
p120
(dp121
g3
(istructures.sensor
Sensor
p122
(dp123
g3
Nsg8
g21
sg12
Nsbsg8
(istructures.sensor
Sensor
p124
(dp125
g3
Nsg8
S'holding_treasure_2'
p126
sg12
Nsbsg12
g23
sbsg8
(istructures.sensor
Sensor
p127
(dp128
g3
Nsg8
(istructures.sensor
Sensor
p129
(dp130
g3
Nsg8
g30
sg12
Nsbsg12
g13
sbsg12
I1
sbsg12
g13
sba(istructures.sensor
Sensor
p131
(dp132
g3
Nsg8
(istructures.sensor
Sensor
p133
(dp134
g3
Nsg8
(g56
tp135
sg12
Nsbsg12
g13
sba(istructures.sensor
Sensor
p136
(dp137
g3
(istructures.sensor
Sensor
p138
(dp139
g3
(istructures.sensor
Sensor
p140
(dp141
g3
(istructures.sensor
Sensor
p142
(dp143
g3
Nsg8
g21
sg12
Nsbsg8
(istructures.sensor
Sensor
p144
(dp145
g3
Nsg8
g126
sg12
Nsbsg12
I2
sbsg8
(istructures.sensor
Sensor
p146
(dp147
g3
Nsg8
(istructures.sensor
Sensor
p148
(dp149
g3
Nsg8
g56
sg12
Nsbsg12
g13
sbsg12
g23
sbsg8
(istructures.sensor
Sensor
p150
(dp151
g3
(istructures.sensor
Sensor
p152
(dp153
g3
Nsg8
(istructures.sensor
Sensor
p154
(dp155
g3
Nsg8
g21
sg12
Nsbsg12
g13
sbsg8
(istructures.sensor
Sensor
p156
(dp157
g3
(istructures.sensor
Sensor
p158
(dp159
g3
Nsg8
g126
sg12
Nsbsg8
(istructures.sensor
Sensor
p160
(dp161
g3
Nsg8
g79
sg12
Nsbsg12
g22
sbsg12
I8
sbsg12
g22
sba(istructures.sensor
Sensor
p162
(dp163
g3
Nsg8
(g126
tp164
sg12
Nsba(istructures.sensor
Sensor
p165
(dp166
g3
(istructures.sensor
Sensor
p167
(dp168
g3
(istructures.sensor
Sensor
p169
(dp170
g3
Nsg8
(istructures.sensor
Sensor
p171
(dp172
g3
Nsg8
g79
sg12
Nsbsg12
g13
sbsg8
(istructures.sensor
Sensor
p173
(dp174
g3
(istructures.sensor
Sensor
p175
(dp176
g3
Nsg8
g126
sg12
Nsbsg8
(istructures.sensor
Sensor
p177
(dp178
g3
Nsg8
g30
sg12
Nsbsg12
g22
sbsg12
I7
sbsg8
(istructures.sensor
Sensor
p179
(dp180
g3
(istructures.sensor
Sensor
p181
(dp182
g3
(istructures.sensor
Sensor
p183
(dp184
g3
Nsg8
g21
sg12
Nsbsg8
(istructures.sensor
Sensor
p185
(dp186
g3
Nsg8
g126
sg12
Nsbsg12
I6
sbsg8
(istructures.sensor
Sensor
p187
(dp188
g3
(istructures.sensor
Sensor
p189
(dp190
g3
Nsg8
g21
sg12
Nsbsg8
(istructures.sensor
Sensor
p191
(dp192
g3
Nsg8
g11
sg12
Nsbsg12
g22
sbsg12
I5
sbsg12
g23
sba(istructures.sensor
Sensor
p193
(dp194
g3
(istructures.sensor
Sensor
p195
(dp196
g3
(istructures.sensor
Sensor
p197
(dp198
g3
Nsg8
(istructures.sensor
Sensor
p199
(dp200
g3
Nsg8
g79
sg12
Nsbsg12
g13
sbsg8
(istructures.sensor
Sensor
p201
(dp202
g3
Nsg8
(g21
tp203
sg12
Nsbsg12
g22
sbsg8
(istructures.sensor
Sensor
p204
(dp205
g3
(istructures.sensor
Sensor
p206
(dp207
g3
(istructures.sensor
Sensor
p208
(dp209
g3
Nsg8
g79
sg12
Nsbsg8
(istructures.sensor
Sensor
p210
(dp211
g3
Nsg8
g56
sg12
Nsbsg12
I3
sbsg8
(istructures.sensor
Sensor
p212
(dp213
g3
(istructures.sensor
Sensor
p214
(dp215
g3
Nsg8
g56
sg12
Nsbsg8
(istructures.sensor
Sensor
p216
(dp217
g3
Nsg8
g30
sg12
Nsbsg12
I5
sbsg12
I3
sbsg12
g23
sba(istructures.sensor
Sensor
p218
(dp219
g3
(istructures.sensor
Sensor
p220
(dp221
g3
(istructures.sensor
Sensor
p222
(dp223
g3
Nsg8
(istructures.sensor
Sensor
p224
(dp225
g3
Nsg8
g21
sg12
Nsbsg12
g13
sbsg8
(istructures.sensor
Sensor
p226
(dp227
g3
(istructures.sensor
Sensor
p228
(dp229
g3
Nsg8
g56
sg12
Nsbsg8
(istructures.sensor
Sensor
p230
(dp231
g3
Nsg8
g30
sg12
Nsbsg12
g22
sbsg12
g23
sbsg8
(istructures.sensor
Sensor
p232
(dp233
g3
(istructures.sensor
Sensor
p234
(dp235
g3
(istructures.sensor
Sensor
p236
(dp237
g3
Nsg8
g126
sg12
Nsbsg8
(istructures.sensor
Sensor
p238
(dp239
g3
Nsg8
g30
sg12
Nsbsg12
g23
sbsg8
(istructures.sensor
Sensor
p240
(dp241
g3
Nsg8
(g18
tp242
sg12
Nsbsg12
g22
sbsg12
g23
sba(istructures.sensor
Sensor
p243
(dp244
g3
Nsg8
(istructures.sensor
Sensor
p245
(dp246
g3
(istructures.sensor
Sensor
p247
(dp248
g3
(istructures.sensor
Sensor
p249
(dp250
g3
Nsg8
g79
sg12
Nsbsg8
(istructures.sensor
Sensor
p251
(dp252
g3
Nsg8
g56
sg12
Nsbsg12
I10
sbsg8
(istructures.sensor
Sensor
p253
(dp254
g3
Nsg8
(g21
tp255
sg12
Nsbsg12
g22
sbsg12
g13
sba(istructures.sensor
Sensor
p256
(dp257
g3
Nsg8
(istructures.sensor
Sensor
p258
(dp259
g3
(istructures.sensor
Sensor
p260
(dp261
g3
(istructures.sensor
Sensor
p262
(dp263
g3
Nsg8
g11
sg12
Nsbsg8
(istructures.sensor
Sensor
p264
(dp265
g3
Nsg8
g56
sg12
Nsbsg12
I10
sbsg8
(istructures.sensor
Sensor
p266
(dp267
g3
Nsg8
(g79
tp268
sg12
Nsbsg12
g23
sbsg12
g13
sba(istructures.sensor
Sensor
p269
(dp270
g3
(istructures.sensor
Sensor
p271
(dp272
g3
(istructures.sensor
Sensor
p273
(dp274
g3
Nsg8
(istructures.sensor
Sensor
p275
(dp276
g3
Nsg8
g79
sg12
Nsbsg12
g13
sbsg8
(istructures.sensor
Sensor
p277
(dp278
g3
(istructures.sensor
Sensor
p279
(dp280
g3
Nsg8
g56
sg12
Nsbsg8
(istructures.sensor
Sensor
p281
(dp282
g3
Nsg8
g30
sg12
Nsbsg12
g23
sbsg12
I4
sbsg8
(istructures.sensor
Sensor
p283
(dp284
g3
(istructures.sensor
Sensor
p285
(dp286
g3
(istructures.sensor
Sensor
p287
(dp288
g3
Nsg8
g56
sg12
Nsbsg8
(istructures.sensor
Sensor
p289
(dp290
g3
Nsg8
g21
sg12
Nsbsg12
g23
sbsg8
(istructures.sensor
Sensor
p291
(dp292
g3
(istructures.sensor
Sensor
p293
(dp294
g3
Nsg8
g30
sg12
Nsbsg8
(istructures.sensor
Sensor
p295
(dp296
g3
Nsg8
g11
sg12
Nsbsg12
I3
sbsg12
g22
sbsg12
g22
sba.