(lp0
(istructures.sensor
Sensor
p1
(dp2
S'rhs'
p3
(istructures.sensor
Sensor
p4
(dp5
g3
NsS'lhs'
p6
(S'closed-sd1'
p7
tp8
sS'op'
p9
Nsbsg6
(istructures.sensor
Sensor
p10
(dp11
g3
(istructures.sensor
Sensor
p12
(dp13
g3
(istructures.sensor
Sensor
p14
(dp15
g3
Nsg6
S'not-closed-sd3'
p16
sg9
Nsbsg6
(istructures.sensor
Sensor
p17
(dp18
g3
Nsg6
S'not-closed-sd1'
p19
sg9
Nsbsg9
S'v'
p20
sbsg6
(istructures.sensor
Sensor
p21
(dp22
g3
(istructures.sensor
Sensor
p23
(dp24
g3
Nsg6
S'done-1'
p25
sg9
Nsbsg6
(istructures.sensor
Sensor
p26
(dp27
g3
Nsg6
S'updated-cb1'
p28
sg9
Nsbsg9
I2
sbsg9
g20
sbsg9
I4
sba(istructures.sensor
Sensor
p29
(dp30
g3
Nsg6
(g19
tp31
sg9
Nsba(istructures.sensor
Sensor
p32
(dp33
g3
(istructures.sensor
Sensor
p34
(dp35
g3
(istructures.sensor
Sensor
p36
(dp37
g3
Nsg6
(S'closed-sd4'
p38
tp39
sg9
Nsbsg6
(istructures.sensor
Sensor
p40
(dp41
g3
(istructures.sensor
Sensor
p42
(dp43
g3
Nsg6
S'done-0'
p44
sg9
Nsbsg6
(istructures.sensor
Sensor
p45
(dp46
g3
Nsg6
S'not-closed-sd4'
p47
sg9
Nsbsg9
g20
sbsg9
I6
sbsg6
(istructures.sensor
Sensor
p48
(dp49
g3
(istructures.sensor
Sensor
p50
(dp51
g3
(istructures.sensor
Sensor
p52
(dp53
g3
Nsg6
S'not-closed-sd2'
p54
sg9
Nsbsg6
(istructures.sensor
Sensor
p55
(dp56
g3
Nsg6
S'not-updated-cb1'
p57
sg9
Nsbsg9
I4
sbsg6
(istructures.sensor
Sensor
p58
(dp59
g3
Nsg6
(istructures.sensor
Sensor
p60
(dp61
g3
Nsg6
g16
sg9
Nsbsg9
S'-'
p62
sbsg9
S'^'
p63
sbsg9
I9
sba(istructures.sensor
Sensor
p64
(dp65
g3
Nsg6
(istructures.sensor
Sensor
p66
(dp67
g3
Nsg6
(g28
tp68
sg9
Nsbsg9
g62
sba(istructures.sensor
Sensor
p69
(dp70
g3
Nsg6
(istructures.sensor
Sensor
p71
(dp72
g3
(istructures.sensor
Sensor
p73
(dp74
g3
(istructures.sensor
Sensor
p75
(dp76
g3
Nsg6
S'do-normal'
p77
sg9
Nsbsg6
(istructures.sensor
Sensor
p78
(dp79
g3
Nsg6
S'closed-sd2'
p80
sg9
Nsbsg9
g20
sbsg6
(istructures.sensor
Sensor
p81
(dp82
g3
(istructures.sensor
Sensor
p83
(dp84
g3
Nsg6
g19
sg9
Nsbsg6
(istructures.sensor
Sensor
p85
(dp86
g3
Nsg6
S'do-close_sd1-condeffs'
p87
sg9
Nsbsg9
g63
sbsg9
g20
sbsg9
g62
sba(istructures.sensor
Sensor
p88
(dp89
g3
(istructures.sensor
Sensor
p90
(dp91
g3
Nsg6
(istructures.sensor
Sensor
p92
(dp93
g3
Nsg6
(g44
tp94
sg9
Nsbsg9
g62
sbsg6
(istructures.sensor
Sensor
p95
(dp96
g3
(istructures.sensor
Sensor
p97
(dp98
g3
(istructures.sensor
Sensor
p99
(dp100
g3
Nsg6
g7
sg9
Nsbsg6
(istructures.sensor
Sensor
p101
(dp102
g3
Nsg6
g87
sg9
Nsbsg9
I6
sbsg6
(istructures.sensor
Sensor
p103
(dp104
g3
(istructures.sensor
Sensor
p105
(dp106
g3
Nsg6
S'not-closed-cb1'
p107
sg9
Nsbsg6
(istructures.sensor
Sensor
p108
(dp109
g3
Nsg6
g77
sg9
Nsbsg9
I9
sbsg9
I6
sbsg9
I2
sba(istructures.sensor
Sensor
p110
(dp111
g3
(istructures.sensor
Sensor
p112
(dp113
g3
(istructures.sensor
Sensor
p114
(dp115
g3
(istructures.sensor
Sensor
p116
(dp117
g3
Nsg6
S'closed-cb1'
p118
sg9
Nsbsg6
(istructures.sensor
Sensor
p119
(dp120
g3
Nsg6
g44
sg9
Nsbsg9
I3
sbsg6
(istructures.sensor
Sensor
p121
(dp122
g3
(istructures.sensor
Sensor
p123
(dp124
g3
Nsg6
g107
sg9
Nsbsg6
(istructures.sensor
Sensor
p125
(dp126
g3
Nsg6
g107
sg9
Nsbsg9
I9
sbsg9
I3
sbsg6
(istructures.sensor
Sensor
p127
(dp128
g3
Nsg6
(S'do-wait_cb1-condeffs'
p129
tp130
sg9
Nsbsg9
I10
sba(istructures.sensor
Sensor
p131
(dp132
g3
(istructures.sensor
Sensor
p133
(dp134
g3
Nsg6
(S'do-close_sd4-condeffs'
p135
tp136
sg9
Nsbsg6
(istructures.sensor
Sensor
p137
(dp138
g3
(istructures.sensor
Sensor
p139
(dp140
g3
(istructures.sensor
Sensor
p141
(dp142
g3
Nsg6
g7
sg9
Nsbsg6
(istructures.sensor
Sensor
p143
(dp144
g3
Nsg6
g44
sg9
Nsbsg9
I2
sbsg6
(istructures.sensor
Sensor
p145
(dp146
g3
(istructures.sensor
Sensor
p147
(dp148
g3
Nsg6
g38
sg9
Nsbsg6
(istructures.sensor
Sensor
p149
(dp150
g3
Nsg6
g77
sg9
Nsbsg9
g20
sbsg9
I9
sbsg9
g63
sba(istructures.sensor
Sensor
p151
(dp152
g3
Nsg6
(istructures.sensor
Sensor
p153
(dp154
g3
(istructures.sensor
Sensor
p155
(dp156
g3
Nsg6
(istructures.sensor
Sensor
p157
(dp158
g3
Nsg6
g47
sg9
Nsbsg9
g62
sbsg6
(istructures.sensor
Sensor
p159
(dp160
g3
Nsg6
(g44
tp161
sg9
Nsbsg9
I3
sbsg9
g62
sba(istructures.sensor
Sensor
p162
(dp163
g3
(istructures.sensor
Sensor
p164
(dp165
g3
(istructures.sensor
Sensor
p166
(dp167
g3
Nsg6
(g129
tp168
sg9
Nsbsg6
(istructures.sensor
Sensor
p169
(dp170
g3
(istructures.sensor
Sensor
p171
(dp172
g3
Nsg6
g107
sg9
Nsbsg6
(istructures.sensor
Sensor
p173
(dp174
g3
Nsg6
g135
sg9
Nsbsg9
I4
sbsg9
I5
sbsg6
(istructures.sensor
Sensor
p175
(dp176
g3
(istructures.sensor
Sensor
p177
(dp178
g3
Nsg6
(g54
tp179
sg9
Nsbsg6
(istructures.sensor
Sensor
p180
(dp181
g3
(istructures.sensor
Sensor
p182
(dp183
g3
Nsg6
g135
sg9
Nsbsg6
(istructures.sensor
Sensor
p184
(dp185
g3
Nsg6
g44
sg9
Nsbsg9
g20
sbsg9
I1
sbsg9
I3
sba(istructures.sensor
Sensor
p186
(dp187
g3
Nsg6
(istructures.sensor
Sensor
p188
(dp189
g3
(istructures.sensor
Sensor
p190
(dp191
g3
Nsg6
(istructures.sensor
Sensor
p192
(dp193
g3
Nsg6
g57
sg9
Nsbsg9
g62
sbsg6
(istructures.sensor
Sensor
p194
(dp195
g3
(istructures.sensor
Sensor
p196
(dp197
g3
Nsg6
g57
sg9
Nsbsg6
(istructures.sensor
Sensor
p198
(dp199
g3
Nsg6
g7
sg9
Nsbsg9
g63
sbsg9
g63
sbsg9
g62
sba(istructures.sensor
Sensor
p200
(dp201
g3
Nsg6
(g54
tp202
sg9
Nsba(istructures.sensor
Sensor
p203
(dp204
g3
Nsg6
(g118
tp205
sg9
Nsba(istructures.sensor
Sensor
p206
(dp207
g3
(istructures.sensor
Sensor
p208
(dp209
g3
Nsg6
(g16
tp210
sg9
Nsbsg6
(istructures.sensor
Sensor
p211
(dp212
g3
Nsg6
(istructures.sensor
Sensor
p213
(dp214
g3
Nsg6
(g16
tp215
sg9
Nsbsg9
g62
sbsg9
g63
sba(istructures.sensor
Sensor
p216
(dp217
g3
Nsg6
(g47
tp218
sg9
Nsba.